MPLINK 4.22, Linker
Linker Map File - Created Wed Jan 03 14:07:58 2018

                                 Section Info
                  Section       Type    Address   Location Size(Bytes)
                ---------  ---------  ---------  ---------  ---------
               _entry_scn       code   0x000000    program   0x000006
               highVector       code   0x000008    program   0x000006
                lowVector       code   0x000018    program   0x000006
                   .cinit    romdata   0x00002a    program   0x00009e
              .code_TCP.o       code   0x0000c8    program   0x003d4e
            .code_HTTP2.o       code   0x003e16    program   0x00243a
              .code_lcd.o       code   0x006250    program   0x001a88
   .code_HTTPGetDevInfo.o       code   0x007cd8    program   0x001a16
             .code_util.o       code   0x0096ee    program   0x001006
            .code_MPFS2.o       code   0x00a6f4    program   0x000f12
        .code_HTTPPrint.o       code   0x00b606    program   0x000ede
          .code_Helpers.o       code   0x00c4e4    program   0x000d78
         .code_vfprintf.o       code   0x00d25c    program   0x000c22
         .code_ETH97J60.o       code   0x00de7e    program   0x000bb2
             .stringtable    romdata   0x00ea30    program   0x000b82
          .code_HTTPApp.o       code   0x00f5b2    program   0x0006e2
                     PROG       code   0x00fc94    program   0x0005d8
           .romdata_lcd.o    romdata   0x01026c    program   0x000578
              .code_ARP.o       code   0x0107e4    program   0x000494
                   STRING       code   0x010c78    program   0x00046c
   .code_MainControl_c1.o       code   0x0110e4    program   0x0003f6
   .code_Initialization.o       code   0x0114da    program   0x000382
               .code_IP.o       code   0x01185c    program   0x00032e
        .code_SPIEEPROM.o       code   0x011b8a    program   0x0002fa
           .code_i2c_c1.o       code   0x011e84    program   0x0002f6
          .code_oled_c1.o       code   0x01217a    program   0x0002e4
             .code_Main.o       code   0x01245e    program   0x000286
      .code_internalADC.o       code   0x0126e4    program   0x000252
         .code_StackTsk.o       code   0x012936    program   0x0001e4
           .code_devadc.o       code   0x012b1a    program   0x0001de
              .code_ISR.o       code   0x012cf8    program   0x0001b8
                   STDLIB       code   0x012eb0    program   0x000192
   .code_UpConverter_c1.o       code   0x013042    program   0x00014e
             .code_ICMP.o       code   0x013190    program   0x00014a
             .code_Tick.o       code   0x0132da    program   0x000122
             .code_UART.o       code   0x0133fc    program   0x0000e6
          .code_sprintf.o       code   0x0134e2    program   0x0000ac
               _cinit_scn       code   0x01358e    program   0x00009e
           .code_devspi.o       code   0x01362c    program   0x000086
             .code_putc.o       code   0x0136b2    program   0x000084
         .romdata_HTTP2.o    romdata   0x013736    program   0x00007e
          .code_fxm3232.o       code   0x0137b4    program   0x000070
          .code_adcopen.o       code   0x013824    program   0x00006e
         .code_fxd3232u.o       code   0x013892    program   0x000048
         .code_fxd1616u.o       code   0x0138da    program   0x00002c
                    CTYPE       code   0x013906    program   0x000024
           .romdata_TCP.o    romdata   0x01392a    program   0x000024
             _startup_scn       code   0x01394e    program   0x000020
              D1KTCYXCODE       code   0x01396e    program   0x000020
   .code_UART2TCPBridge.o       code   0x01398e    program   0x00001e
                    STDIO       code   0x0139ac    program   0x00001c
         .code_fxd0808u.o       code   0x0139c8    program   0x00001c
              D10TCYXCODE       code   0x0139e4    program   0x000016
 .code_DownConverter_c1.o       code   0x0139fa    program   0x000014
      .romdata_vfprintf.o    romdata   0x013a0e    program   0x000011
       .romdata_oled_c1.o    romdata   0x013a1f    program   0x000010
.idata_UpConverter_c1.o_i    romdata   0x013a2f    program   0x000000
.romdata_HTTPGetDevInfo.o    romdata   0x013a2f    program   0x000000
    .idata__user_putc.o_i    romdata   0x013a2f    program   0x000000
.romdata_DownConverter_c1.o    romdata   0x013a2f    program   0x000000
   .romdata_SNMPSysInfo.o    romdata   0x013a2f    program   0x000000
.idata_MainControl_c1.o_i    romdata   0x013a2f    program   0x000000
.romdata_UpConverter_c1.o    romdata   0x013a2f    program   0x000000
    .romdata__user_putc.o    romdata   0x013a2f    program   0x000000
   .idata_SNMPSysInfo.o_i    romdata   0x013a2f    program   0x000000
.romdata_SNMPLLiBUCStatus.o    romdata   0x013a2f    program   0x000000
.idata_SNMPLLiBUCStatus.o_i    romdata   0x013a2f    program   0x000000
  .romdata_SNMPLLiBUCOp.o    romdata   0x013a2f    program   0x000000
     .romdata_HTTPPrint.o    romdata   0x013a2f    program   0x000000
  .idata_SNMPLLiBUCOp.o_i    romdata   0x013a2f    program   0x000000
.romdata_MainControl_c1.o    romdata   0x013a2f    program   0x000000
      .idata_vfprintf.o_i    romdata   0x013a2f    program   0x000000
       .romdata_sprintf.o    romdata   0x013a2f    program   0x000000
       .idata_sprintf.o_i    romdata   0x013a2f    program   0x000000
        .romdata___init.o    romdata   0x013a2f    program   0x000000
        .idata___init.o_i    romdata   0x013a2f    program   0x000000
       .romdata_adcopen.o    romdata   0x013a2f    program   0x000000
       .idata_adcopen.o_i    romdata   0x013a2f    program   0x000000
       .romdata_fxm3232.o    romdata   0x013a2f    program   0x000000
       .idata_fxm3232.o_i    romdata   0x013a2f    program   0x000000
      .romdata_fxd3232u.o    romdata   0x013a2f    program   0x000000
      .idata_fxd3232u.o_i    romdata   0x013a2f    program   0x000000
      .romdata_fxd1616u.o    romdata   0x013a2f    program   0x000000
      .idata_fxd1616u.o_i    romdata   0x013a2f    program   0x000000
      .romdata_fxd0808u.o    romdata   0x013a2f    program   0x000000
      .idata_fxd0808u.o_i    romdata   0x013a2f    program   0x000000
          .idata_putc.o_i    romdata   0x013a2f    program   0x000000
      .romdata_adcclose.o    romdata   0x013a2f    program   0x000000
      .idata_adcclose.o_i    romdata   0x013a2f    program   0x000000
          .romdata_putc.o    romdata   0x013a2f    program   0x000000
        .romdata_i2c_c1.o    romdata   0x013a2f    program   0x000000
        .idata_i2c_c1.o_i    romdata   0x013a2f    program   0x000000
       .idata_oled_c1.o_i    romdata   0x013a2f    program   0x000000
        .romdata_Global.o    romdata   0x013a2f    program   0x000000
          .romdata_Main.o    romdata   0x013a2f    program   0x000000
            .romdata_IP.o    romdata   0x013a2f    program   0x000000
           .romdata_ISR.o    romdata   0x013a2f    program   0x000000
           .idata_ISR.o_i    romdata   0x013a2f    program   0x000001
         .romdata_Delay.o    romdata   0x013a2f    program   0x000000
        .romdata_devadc.o    romdata   0x013a2f    program   0x000000
        .idata_devadc.o_i    romdata   0x013a2f    program   0x000000
       .romdata_Helpers.o    romdata   0x013a2f    program   0x000000
          .idata_UART.o_i    romdata   0x013a2f    program   0x000000
          .romdata_UART.o    romdata   0x013a2f    program   0x000000
          .romdata_Tick.o    romdata   0x013a2f    program   0x000000
        .romdata_devspi.o    romdata   0x013a2f    program   0x000000
          .romdata_DHCP.o    romdata   0x013a2f    program   0x000000
         .romdata_DHCPs.o    romdata   0x013a2f    program   0x000000
        .idata_devspi.o_i    romdata   0x013a2f    program   0x000000
         .idata_MPFS2.o_i    romdata   0x013a2f    program   0x000000
      .romdata_SPIFlash.o    romdata   0x013a2f    program   0x000000
      .idata_SPIFlash.o_i    romdata   0x013a2f    program   0x000000
     .romdata_SPIEEPROM.o    romdata   0x013a2f    program   0x000000
     .idata_SPIEEPROM.o_i    romdata   0x013a2f    program   0x000000
          .romdata_ICMP.o    romdata   0x013a2f    program   0x000000
         .romdata_MPFS2.o    romdata   0x013a2f    program   0x000000
        .idata_c018iz.o_i    romdata   0x013a2f    program   0x000000
.romdata_SNMPLLiBUCDevInfo.o    romdata   0x013a2f    program   0x000000
.idata_SNMPLLiBUCDevInfo.o_i    romdata   0x013a2f    program   0x000000
        .romdata_c018iz.o    romdata   0x013a2f    program   0x000000
.idata_Initialization.o_i    romdata   0x013a2f    program   0x000000
       .romdata_SNMPApp.o    romdata   0x013a2f    program   0x000000
      .idata_MPFSImg2.o_i    romdata   0x013a2f    program   0x000000
       .idata_SNMPApp.o_i    romdata   0x013a2f    program   0x000000
       .romdata_HTTPApp.o    romdata   0x013a2f    program   0x000000
      .romdata_MPFSImg2.o    romdata   0x013a2f    program   0x000000
      .idata_StackTsk.o_i    romdata   0x013a2f    program   0x000000
      .romdata_StackTsk.o    romdata   0x013a2f    program   0x000000
          .romdata_util.o    romdata   0x013a2f    program   0x000000
           .idata_UDP.o_i    romdata   0x013a2f    program   0x000000
           .romdata_UDP.o    romdata   0x013a2f    program   0x000000
          .romdata_SNMP.o    romdata   0x013a2f    program   0x000000
          .idata_SNMP.o_i    romdata   0x013a2f    program   0x000000
.romdata_UART2TCPBridge.o    romdata   0x013a2f    program   0x000000
           .romdata_ARP.o    romdata   0x013a2f    program   0x000000
      .romdata_ETH97J60.o    romdata   0x013a2f    program   0x000000
   .romdata_internalADC.o    romdata   0x013a2f    program   0x000000
   .idata_internalADC.o_i    romdata   0x013a2f    program   0x000000
                    .code       code   0x013a30    program   0x00000e
.romdata_Initialization.o    romdata   0x013a3e    program   0x000006
         .code_adcclose.o       code   0x013a44    program   0x000006
       .code__user_putc.o       code   0x013a4a    program   0x000002
           .code___init.o       code   0x013a4c    program   0x000002
              SEED_DATA_i    romdata   0x013a4e    program   0x000002
          .idata_util.o_i    romdata   0x013a50    program   0x000004
           .idata_lcd.o_i    romdata   0x013a54    program   0x00012f
.idata_UART2TCPBridge.o_i    romdata   0x013b83    program   0x000008
          .idata_Tick.o_i    romdata   0x013b8b    program   0x000004
           .idata_TCP.o_i    romdata   0x013b8f    program   0x000002
          .idata_Main.o_i    romdata   0x013b91    program   0x000013
            .idata_IP.o_i    romdata   0x013ba4    program   0x000002
          .idata_ICMP.o_i    romdata   0x013ba6    program   0x000000
       .idata_Helpers.o_i    romdata   0x013ba6    program   0x000000
     .idata_HTTPPrint.o_i    romdata   0x013ba6    program   0x000000
.idata_HTTPGetDevInfo.o_i    romdata   0x013ba6    program   0x000002
       .idata_HTTPApp.o_i    romdata   0x013ba8    program   0x000002
         .idata_HTTP2.o_i    romdata   0x013baa    program   0x000000
        .idata_Global.o_i    romdata   0x013baa    program   0x0000b9
.idata_DownConverter_c1.o_i    romdata   0x013c63    program   0x000000
         .idata_DHCPs.o_i    romdata   0x013c63    program   0x000000
           .idata_ARP.o_i    romdata   0x013c63    program   0x000001
      .idata_ETH97J60.o_i    romdata   0x013c63    program   0x000000
          .idata_DHCP.o_i    romdata   0x013c63    program   0x000000
         .idata_Delay.o_i    romdata   0x013c63    program   0x000000
          .code_SNMPApp.o       code   0x013c64    program   0x000000
         .code_SPIFlash.o       code   0x013c64    program   0x000000
 .code_SNMPLLiBUCStatus.o       code   0x013c64    program   0x000000
      .code_SNMPSysInfo.o       code   0x013c64    program   0x000000
         .code_MPFSImg2.o       code   0x013c64    program   0x000000
           .code_c018iz.o       code   0x013c64    program   0x000000
     .code_SNMPLLiBUCOp.o       code   0x013c64    program   0x000000
.code_SNMPLLiBUCDevInfo.o       code   0x013c64    program   0x000000
            .code_DHCPs.o       code   0x013c64    program   0x000000
             .code_SNMP.o       code   0x013c64    program   0x000000
              .code_UDP.o       code   0x013c64    program   0x000000
             .code_DHCP.o       code   0x013c64    program   0x000000
           .code_Global.o       code   0x013c64    program   0x000000
            .code_Delay.o       code   0x013c64    program   0x000000
     .config_1fff8_Main.o    romdata   0x01fff8    program   0x000001
     .config_1fffa_Main.o    romdata   0x01fffa    program   0x000001
     .config_1fffd_Main.o    romdata   0x01fffd    program   0x000001
                 .tmpdata      udata   0x000000       data   0x000018
                MATH_DATA      udata   0x000018       data   0x000014
                DELAYDAT1      udata   0x00002c       data   0x000001
   HTTP_CONNECTION_STATES      udata   0x000060       data   0x000084
       .udata_HTTPPrint.o      udata   0x0000e4       data   0x00000f
         .udata_HTTPApp.o      udata   0x0000f3       data   0x00000d
                 TCB_uRAM      udata   0x000100       data   0x0000a8
            .udata_Main.o      udata   0x0001a8       data   0x000057
              .udata_IP.o      udata   0x0001ff       data   0x000001
             .udata_lcd.o      udata   0x000200       data   0x000050
             .udata_TCP.o      udata   0x000250       data   0x00004f
                    grp10      udata   0x00029f       data   0x000040
                    grp17      udata   0x0002df       data   0x00000a
          .udata_c018iz.o      udata   0x0002e9       data   0x00000a
  .idata_UART2TCPBridge.o      idata   0x0002f3       data   0x000008
.udata_SNMPLLiBUCDevInfo.o      udata   0x0002fb       data   0x000005
                     gpr8      udata   0x000300       data   0x000040
       SYN_QUEUE_RAM_SECT      udata   0x000340       data   0x00003c
  .udata_HTTPGetDevInfo.o      udata   0x00037c       data   0x00003c
                     grp5      udata   0x0003b8       data   0x000033
             .udata_ARP.o      udata   0x0003eb       data   0x000014
             .idata_ISR.o      idata   0x0003ff       data   0x000001
       .udata_SPIEEPROM.o      udata   0x000400       data   0x000025
.udata_DownConverter_c1.o      udata   0x000425       data   0x000022
        .udata_ETH97J60.o      udata   0x000447       data   0x000007
            .udata_Tick.o      udata   0x00044e       data   0x000006
         .udata_Helpers.o      udata   0x000454       data   0x000004
            .idata_util.o      idata   0x000458       data   0x000004
            .idata_Tick.o      idata   0x00045c       data   0x000004
                SEED_DATA      idata   0x000460       data   0x000002
          .udata_Global.o      udata   0x000462       data   0x000002
             .idata_TCP.o      idata   0x000464       data   0x000002
              .idata_IP.o      idata   0x000466       data   0x000002
  .idata_HTTPGetDevInfo.o      idata   0x000468       data   0x000002
         .idata_HTTPApp.o      idata   0x00046a       data   0x000002
             .idata_lcd.o      idata   0x000800       data   0x00012f
          .idata_Global.o      idata   0x00092f       data   0x0000b9
            .idata_Main.o      idata   0x0009e8       data   0x000013
  .udata_Initialization.o      udata   0x0009fb       data   0x000004
             .idata_ARP.o      idata   0x0009ff       data   0x000001
                   .stack      udata   0x000c00       data   0x000200
           .udata_MPFS2.o      udata   0x000e00       data   0x00006f
          .udata_i2c_c1.o      udata   0x000e6f       data   0x000010
        .udata_fxd1616u.o      udata   0x000e7f       data   0x000000
        .idata_fxd0808u.o      idata   0x000e7f       data   0x000000
        .udata_fxd0808u.o      udata   0x000e7f       data   0x000000
        .udata_MPFSImg2.o      udata   0x000e7f       data   0x000000
        .idata_adcclose.o      idata   0x000e7f       data   0x000000
        .udata_adcclose.o      udata   0x000e7f       data   0x000000
          .idata_i2c_c1.o      idata   0x000e7f       data   0x000000
         .idata_oled_c1.o      idata   0x000e7f       data   0x000000
         .udata_oled_c1.o      udata   0x000e7f       data   0x000000
        .idata_MPFSImg2.o      idata   0x000e7f       data   0x000000
        .idata_StackTsk.o      idata   0x000e7f       data   0x000000
             .udata_UDP.o      udata   0x000e7f       data   0x000000
             .idata_UDP.o      idata   0x000e7f       data   0x000000
        .idata_ETH97J60.o      idata   0x000e7f       data   0x000000
           .udata_Delay.o      udata   0x000e7f       data   0x000000
           .idata_Delay.o      idata   0x000e7f       data   0x000000
         .idata_Helpers.o      idata   0x000e7f       data   0x000000
       .idata_HTTPPrint.o      idata   0x000e7f       data   0x000000
          .idata_c018iz.o      idata   0x000e7f       data   0x000000
      .idata__user_putc.o      idata   0x000e7f       data   0x000000
      .udata__user_putc.o      udata   0x000e7f       data   0x000000
            .idata_putc.o      idata   0x000e7f       data   0x000000
            .udata_putc.o      udata   0x000e7f       data   0x000000
        .idata_vfprintf.o      idata   0x000e7f       data   0x000000
        .udata_vfprintf.o      udata   0x000e7f       data   0x000000
         .idata_sprintf.o      idata   0x000e7f       data   0x000000
         .udata_sprintf.o      udata   0x000e7f       data   0x000000
  .idata_Initialization.o      idata   0x000e7f       data   0x000000
          .idata___init.o      idata   0x000e7f       data   0x000000
          .udata___init.o      udata   0x000e7f       data   0x000000
         .idata_adcopen.o      idata   0x000e7f       data   0x000000
         .udata_adcopen.o      udata   0x000e7f       data   0x000000
         .idata_fxm3232.o      idata   0x000e7f       data   0x000000
         .udata_fxm3232.o      udata   0x000e7f       data   0x000000
        .idata_fxd3232u.o      idata   0x000e7f       data   0x000000
        .udata_fxd3232u.o      udata   0x000e7f       data   0x000000
        .idata_fxd1616u.o      idata   0x000e7f       data   0x000000
    .udata_SNMPLLiBUCOp.o      udata   0x000e7f       data   0x000000
.idata_SNMPLLiBUCDevInfo.o      idata   0x000e7f       data   0x000000
           .udata_DHCPs.o      udata   0x000e7f       data   0x000000
         .idata_SNMPApp.o      idata   0x000e7f       data   0x000000
         .udata_SNMPApp.o      udata   0x000e7f       data   0x000000
           .idata_DHCPs.o      idata   0x000e7f       data   0x000000
           .udata_HTTP2.o      udata   0x000e7f       data   0x000000
           .idata_HTTP2.o      idata   0x000e7f       data   0x000000
            .idata_SNMP.o      idata   0x000e7f       data   0x000000
            .udata_SNMP.o      udata   0x000e7f       data   0x000000
           .idata_MPFS2.o      idata   0x000e7f       data   0x000000
     .idata_internalADC.o      idata   0x000e7f       data   0x000000
     .udata_internalADC.o      udata   0x000e7f       data   0x000000
            .udata_ICMP.o      udata   0x000e7f       data   0x000000
             .udata_ISR.o      udata   0x000e7f       data   0x000000
          .idata_devadc.o      idata   0x000e7f       data   0x000000
          .udata_devadc.o      udata   0x000e7f       data   0x000000
          .idata_devspi.o      idata   0x000e7f       data   0x000000
          .udata_devspi.o      udata   0x000e7f       data   0x000000
        .idata_SPIFlash.o      idata   0x000e7f       data   0x000000
        .udata_SPIFlash.o      udata   0x000e7f       data   0x000000
       .idata_SPIEEPROM.o      idata   0x000e7f       data   0x000000
            .idata_ICMP.o      idata   0x000e7f       data   0x000000
.idata_SNMPLLiBUCStatus.o      idata   0x000e7f       data   0x000000
.udata_SNMPLLiBUCStatus.o      udata   0x000e7f       data   0x000000
    .idata_SNMPLLiBUCOp.o      idata   0x000e7f       data   0x000000
     .udata_SNMPSysInfo.o      udata   0x000e7f       data   0x000000
     .idata_SNMPSysInfo.o      idata   0x000e7f       data   0x000000
            .idata_DHCP.o      idata   0x000e7f       data   0x000000
.idata_DownConverter_c1.o      idata   0x000e7f       data   0x000000
  .udata_MainControl_c1.o      udata   0x000e7f       data   0x000000
  .idata_MainControl_c1.o      idata   0x000e7f       data   0x000000
  .udata_UpConverter_c1.o      udata   0x000e7f       data   0x000000
  .idata_UpConverter_c1.o      idata   0x000e7f       data   0x000000
            .udata_DHCP.o      udata   0x000e7f       data   0x000000
            .idata_UART.o      idata   0x000e7f       data   0x000000
            .udata_UART.o      udata   0x000e7f       data   0x000000
              SFR_BANKED0      udata   0x000e80       data   0x000006
              SFR_BANKED1      udata   0x000e8a       data   0x000001
              SFR_BANKED2      udata   0x000e97       data   0x000003
              SFR_BANKED3      udata   0x000ea0       data   0x000001
              SFR_BANKED4      udata   0x000ea2       data   0x000003
              SFR_BANKED5      udata   0x000ea6       data   0x000002
              SFR_BANKED6      udata   0x000eaa       data   0x000002
              SFR_BANKED7      udata   0x000eb2       data   0x000001
              SFR_BANKED8      udata   0x000eb4       data   0x000001
              SFR_BANKED9      udata   0x000eb6       data   0x000004
             SFR_BANKED10      udata   0x000ec0       data   0x000012
             SFR_BANKED11      udata   0x000ed4       data   0x000002
             SFR_BANKED12      udata   0x000ed8       data   0x000002
             SFR_BANKED13      udata   0x000ee2       data   0x000016
             SFR_BANKED14      udata   0x000efb       data   0x000001
             SFR_BANKED15      udata   0x000efd       data   0x000002
  .udata_UART2TCPBridge.o      udata   0x000f00       data   0x000052
        .udata_StackTsk.o      udata   0x000f52       data   0x00000b
            .udata_util.o      udata   0x000f5d       data   0x000003
            SFR_UNBANKED0      udata   0x000f60       data   0x0000a0



                              Program Memory Usage 
                               Start         End      
                           ---------   ---------      
                            0x000000    0x000005      
                            0x000008    0x00000d      
                            0x000018    0x00001d      
                            0x00002a    0x013c63      
                            0x01fff8    0x01fff8      
                            0x01fffa    0x01fffa      
                            0x01fffd    0x01fffd      
            80975 out of 131072 program addresses used, program memory utilization is 61%



                              Symbols - Sorted by Name
                     Name    Address   Location    Storage File                     
                ---------  ---------  ---------  --------- ---------                
                ADC_Value   0x0127fc    program     extern C:\firmware\70M_L_upconverter_SXY\70M_1223\work\Drivers\MCU-Internal\internalADC.c
                  AD_init   0x0126e4    program     extern C:\firmware\70M_L_upconverter_SXY\70M_1223\work\Drivers\MCU-Internal\internalADC.c
                  ARPInit   0x0108ac    program     extern C:\firmware\70M_L_upconverter_SXY\70M_1223\work\Microchip\TCPIP Stack\ARP.c
            ARPIsResolved   0x010b04    program     extern C:\firmware\70M_L_upconverter_SXY\70M_1223\work\Microchip\TCPIP Stack\ARP.c
               ARPProcess   0x0108c4    program     extern C:\firmware\70M_L_upconverter_SXY\70M_1223\work\Microchip\TCPIP Stack\ARP.c
                   ARPPut   0x0107e4    program     static C:\firmware\70M_L_upconverter_SXY\70M_1223\work\Microchip\TCPIP Stack\ARP.c
               ARPResolve   0x010a5a    program     extern C:\firmware\70M_L_upconverter_SXY\70M_1223\work\Microchip\TCPIP Stack\ARP.c
                ASC2toHEX   0x009e34    program     extern C:\firmware\70M_L_upconverter_SXY\70M_1223\work\SysLib\util.c
             Base64Decode   0x00c9b8    program     extern C:\firmware\70M_L_upconverter_SXY\70M_1223\work\Microchip\TCPIP Stack\Helpers.c
                BusyUSART   0x0133fc    program     extern C:\firmware\70M_L_upconverter_SXY\70M_1223\work\Microchip\TCPIP Stack\UART.c
               BusyUSART2   0x013454    program     extern C:\firmware\70M_L_upconverter_SXY\70M_1223\work\Microchip\TCPIP Stack\UART.c
                    CGRAM   0x013a1f    program     extern C:\firmware\70M_L_upconverter_SXY\70M_1223\work\Singcom\Drivers\oled_c1.c
     CalcIPBufferChecksum   0x00e3be    program     extern C:\firmware\70M_L_upconverter_SXY\70M_1223\work\Microchip\TCPIP Stack\ETH97J60.c
           CalcIPChecksum   0x00cdf0    program     extern C:\firmware\70M_L_upconverter_SXY\70M_1223\work\Microchip\TCPIP Stack\Helpers.c
                CheckBusy   0x01218c    program     extern C:\firmware\70M_L_upconverter_SXY\70M_1223\work\Singcom\Drivers\oled_c1.c
                 CloseADC   0x013a44    program     extern C:\MCC18\src\pmc_common\ADC\adcclose.c
              CloseSocket   0x001f24    program     static C:\firmware\70M_L_upconverter_SXY\70M_1223\work\Microchip\TCPIP Stack\TCP.c
               CloseUSART   0x013408    program     extern C:\firmware\70M_L_upconverter_SXY\70M_1223\work\Microchip\TCPIP Stack\UART.c
              CloseUSART2   0x013460    program     extern C:\firmware\70M_L_upconverter_SXY\70M_1223\work\Microchip\TCPIP Stack\UART.c
                    D10_1   0x0139f4    program     static C:\Program Files\mcc18\src\traditional\delays\d10tcyx.asm
                     D10x   0x0139ec    program     static C:\Program Files\mcc18\src\traditional\delays\d10tcyx.asm
                   D1616S   0x00ffb0    program     static C:\Program Files\mcc18\src\traditional\math\fxd1616s.asm
                D1616SNEG   0x00ffbe    program     static C:\Program Files\mcc18\src\traditional\math\fxd1616s.asm
                 D1616SOK   0x00ffba    program     static C:\Program Files\mcc18\src\traditional\math\fxd1616s.asm
                  D1616SX   0x00ffd0    program     static C:\Program Files\mcc18\src\traditional\math\fxd1616s.asm
                    D1K_1   0x01397a    program     static C:\Program Files\mcc18\src\traditional\delays\d1ktcyx.asm
                     D1Kx   0x013978    program     static C:\Program Files\mcc18\src\traditional\delays\d1ktcyx.asm
                  DA1616S   0x00ffa0    program     static C:\Program Files\mcc18\src\traditional\math\fxd1616s.asm
          DRI__vConfigSPI   0x01246c    program     static C:\firmware\70M_L_upconverter_SXY\70M_1223\work\Main\Main.c
    DRI__vEnableGlobalInt   0x012462    program     static C:\firmware\70M_L_upconverter_SXY\70M_1223\work\Main\Main.c
        DRI__vHitWatchDog   0x01245e    program     static C:\firmware\70M_L_upconverter_SXY\70M_1223\work\Main\Main.c
            DRI_vLCDClear   0x012340    program     extern C:\firmware\70M_L_upconverter_SXY\70M_1223\work\Singcom\Drivers\oled_c1.c
          DRI_vLCDDisplay   0x012352    program     extern C:\firmware\70M_L_upconverter_SXY\70M_1223\work\Singcom\Drivers\oled_c1.c
        DRI_vLCDEntryMode   0x01234c    program     extern C:\firmware\70M_L_upconverter_SXY\70M_1223\work\Singcom\Drivers\oled_c1.c
       DRI_vLCDReturnhome   0x012346    program     extern C:\firmware\70M_L_upconverter_SXY\70M_1223\work\Singcom\Drivers\oled_c1.c
          DRI_vPrintCGRAM   0x0122ca    program     extern C:\firmware\70M_L_upconverter_SXY\70M_1223\work\Singcom\Drivers\oled_c1.c
             DataRdyUSART   0x013414    program     extern C:\firmware\70M_L_upconverter_SXY\70M_1223\work\Microchip\TCPIP Stack\UART.c
            DataRdyUSART2   0x01346c    program     extern C:\firmware\70M_L_upconverter_SXY\70M_1223\work\Microchip\TCPIP Stack\UART.c
              Delay10TCYx   0x0139e4    program     extern C:\Program Files\mcc18\src\traditional\delays\d10tcyx.asm
              Delay1KTCYx   0x01396e    program     extern C:\Program Files\mcc18\src\traditional\delays\d1ktcyx.asm
                  DelayMS   0x009eee    program     extern C:\firmware\70M_L_upconverter_SXY\70M_1223\work\SysLib\util.c
       DisplayCompanyMenu   0x00746a    program     extern C:\firmware\70M_L_upconverter_SXY\70M_1223\work\Singcom\Drivers\lcd.c
           DisplayIPValue   0x00a154    program     extern C:\firmware\70M_L_upconverter_SXY\70M_1223\work\SysLib\util.c
                  DoWrite   0x011d16    program     static C:\firmware\70M_L_upconverter_SXY\70M_1223\work\Microchip\TCPIP Stack\SPIEEPROM.c
         DownCvt_vSendI2C   0x0139fa    program     extern C:\firmware\70M_L_upconverter_SXY\70M_1223\work\Singcom\Devices\DownConverter_c1.c
                 FLO0832S   0x00fc98    program     extern C:\Program Files\mcc18\src\traditional\math\cast08FP.asm
                 FLO0832U   0x00fc94    program     extern C:\Program Files\mcc18\src\traditional\math\cast08FP.asm
                 FLO1632S   0x00fcba    program     extern C:\Program Files\mcc18\src\traditional\math\cast16FP.asm
                 FLO1632U   0x00fcb6    program     extern C:\Program Files\mcc18\src\traditional\math\cast16FP.asm
                    FPA32   0x00fce2    program     extern C:\Program Files\mcc18\src\traditional\math\addFP.asm
                    FPD32   0x00fe0e    program     extern C:\Program Files\mcc18\src\traditional\math\divFP.asm
                    FPM32   0x00feb4    program     extern C:\Program Files\mcc18\src\traditional\math\mulFP.asm
                    FPS32   0x00fce0    program     extern C:\Program Files\mcc18\src\traditional\math\addFP.asm
                 FXD0808U   0x0139c8    program     extern C:\Program Files\mcc18\src\traditional\math\fxd0808u.c
                 FXD1616S   0x00ff8e    program     extern C:\Program Files\mcc18\src\traditional\math\fxd1616s.asm
                 FXD1616U   0x0138da    program     extern C:\Program Files\mcc18\src\traditional\math\fxd1616u.c
                 FXD3232U   0x013892    program     extern C:\Program Files\mcc18\src\traditional\math\fxd3232u.c
                 FXM1616S   0x00ffda    program     extern C:\Program Files\mcc18\src\traditional\math\fxm1616s.asm
                 FXM1616U   0x010034    program     extern C:\Program Files\mcc18\src\traditional\math\fxm1616u.asm
                 FXM2424U   0x010070    program     extern C:\Program Files\mcc18\src\traditional\math\fxm2424u.asm
                  FXM3232   0x0137b4    program     extern C:\Program Files\mcc18\src\traditional\math\fxm3232.c
       FindMatchingSocket   0x001c0a    program     static C:\firmware\70M_L_upconverter_SXY\70M_1223\work\Microchip\TCPIP Stack\TCP.c
        FormatNetBIOSName   0x00cf9c    program     extern C:\firmware\70M_L_upconverter_SXY\70M_1223\work\Microchip\TCPIP Stack\Helpers.c
      GenerateRandomDWORD   0x00c4e4    program     extern C:\firmware\70M_L_upconverter_SXY\70M_1223\work\Microchip\TCPIP Stack\Helpers.c
   GetCurrentFromHexValue   0x012bc0    program     extern C:\firmware\70M_L_upconverter_SXY\70M_1223\work\Drivers\External-Peripherals\devadc.c
           GetDWORDString   0x00b80e    program     extern C:\firmware\70M_L_upconverter_SXY\70M_1223\work\App\WebUI\HTTPPrint.c
                GetOneADC   0x0128e0    program     extern C:\firmware\70M_L_upconverter_SXY\70M_1223\work\Drivers\MCU-Internal\internalADC.c
             GetOneCHADC0   0x012b1a    program     extern C:\firmware\70M_L_upconverter_SXY\70M_1223\work\Drivers\External-Peripherals\devadc.c
       GetOneCHADC012Bits   0x012b50    program     extern C:\firmware\70M_L_upconverter_SXY\70M_1223\work\Drivers\External-Peripherals\devadc.c
             GetOneCHADC1   0x012b6e    program     extern C:\firmware\70M_L_upconverter_SXY\70M_1223\work\Drivers\External-Peripherals\devadc.c
       GetOneCHADC112Bits   0x012ba4    program     extern C:\firmware\70M_L_upconverter_SXY\70M_1223\work\Drivers\External-Peripherals\devadc.c
                 GetPower   0x00b726    program     extern C:\firmware\70M_L_upconverter_SXY\70M_1223\work\App\WebUI\HTTPPrint.c
              GetTickCopy   0x0132ea    program     static C:\firmware\70M_L_upconverter_SXY\70M_1223\work\Microchip\TCPIP Stack\Tick.c
            GetWORDString   0x00b780    program     extern C:\firmware\70M_L_upconverter_SXY\70M_1223\work\App\WebUI\HTTPPrint.c
                HEXto2ASC   0x009ea6    program     extern C:\firmware\70M_L_upconverter_SXY\70M_1223\work\SysLib\util.c
            HTTPCheckAuth   0x00f5f4    program     extern C:\firmware\70M_L_upconverter_SXY\70M_1223\work\App\WebUI\HTTPApp.c
   HTTPExe_get_deviceinfo   0x008a6e    program     extern C:\firmware\70M_L_upconverter_SXY\70M_1223\work\App\WebUI\HTTPGetDevInfo.c
           HTTPExecuteGet   0x00f63c    program     extern C:\firmware\70M_L_upconverter_SXY\70M_1223\work\App\WebUI\HTTPApp.c
          HTTPExecutePost   0x00f640    program     extern C:\firmware\70M_L_upconverter_SXY\70M_1223\work\App\WebUI\HTTPApp.c
               HTTPGetArg   0x0054ca    program     extern C:\firmware\70M_L_upconverter_SXY\70M_1223\work\Microchip\TCPIP Stack\HTTP2.c
            HTTPGetROMArg   0x005510    program     extern C:\firmware\70M_L_upconverter_SXY\70M_1223\work\Microchip\TCPIP Stack\HTTP2.c
  HTTPGet__boDeviceConfig   0x008a44    program     static C:\firmware\70M_L_upconverter_SXY\70M_1223\work\App\WebUI\HTTPGetDevInfo.c
    HTTPGet__boInfoConfig   0x007cd8    program     static C:\firmware\70M_L_upconverter_SXY\70M_1223\work\App\WebUI\HTTPGetDevInfo.c
 HTTPGet__boNetworkConfig   0x007d1e    program     static C:\firmware\70M_L_upconverter_SXY\70M_1223\work\App\WebUI\HTTPGetDevInfo.c
      HTTPGet__boSetOnOff   0x007dac    program     static C:\firmware\70M_L_upconverter_SXY\70M_1223\work\App\WebUI\HTTPGetDevInfo.c
   HTTPGet__u8ClearBUCIAm   0x0089e0    program     static C:\firmware\70M_L_upconverter_SXY\70M_1223\work\App\WebUI\HTTPGetDevInfo.c
   HTTPGet__u8ClearLNBIAm   0x008a12    program     static C:\firmware\70M_L_upconverter_SXY\70M_1223\work\App\WebUI\HTTPGetDevInfo.c
     HTTPGet__u8SetBUCREF   0x008918    program     static C:\firmware\70M_L_upconverter_SXY\70M_1223\work\App\WebUI\HTTPGetDevInfo.c
 HTTPGet__u8SetDownCvtALC   0x00864c    program     static C:\firmware\70M_L_upconverter_SXY\70M_1223\work\App\WebUI\HTTPGetDevInfo.c
HTTPGet__u8SetDownCvtAttn   0x00810e    program     static C:\firmware\70M_L_upconverter_SXY\70M_1223\work\App\WebUI\HTTPGetDevInfo.c
HTTPGet__u8SetDownCvtMute   0x0087a0    program     static C:\firmware\70M_L_upconverter_SXY\70M_1223\work\App\WebUI\HTTPGetDevInfo.c
HTTPGet__u8SetDownCvtPower   0x0083d6    program     static C:\firmware\70M_L_upconverter_SXY\70M_1223\work\App\WebUI\HTTPGetDevInfo.c
HTTPGet__u8SetDownCvtRFFreq   0x007f06    program     static C:\firmware\70M_L_upconverter_SXY\70M_1223\work\App\WebUI\HTTPGetDevInfo.c
HTTPGet__u8SetDownCvtSetPower   0x0084a8    program     static C:\firmware\70M_L_upconverter_SXY\70M_1223\work\App\WebUI\HTTPGetDevInfo.c
     HTTPGet__u8SetLNBREF   0x00897e    program     static C:\firmware\70M_L_upconverter_SXY\70M_1223\work\App\WebUI\HTTPGetDevInfo.c
   HTTPGet__u8SetUpCvtALC   0x0085b0    program     static C:\firmware\70M_L_upconverter_SXY\70M_1223\work\App\WebUI\HTTPGetDevInfo.c
  HTTPGet__u8SetUpCvtAttn   0x00801c    program     static C:\firmware\70M_L_upconverter_SXY\70M_1223\work\App\WebUI\HTTPGetDevInfo.c
  HTTPGet__u8SetUpCvtMute   0x0086ee    program     static C:\firmware\70M_L_upconverter_SXY\70M_1223\work\App\WebUI\HTTPGetDevInfo.c
 HTTPGet__u8SetUpCvtPower   0x008204    program     static C:\firmware\70M_L_upconverter_SXY\70M_1223\work\App\WebUI\HTTPGetDevInfo.c
HTTPGet__u8SetUpCvtRFFreq   0x007df4    program     static C:\firmware\70M_L_upconverter_SXY\70M_1223\work\App\WebUI\HTTPGetDevInfo.c
HTTPGet__u8SetUpCvtSetPower   0x0082d2    program     static C:\firmware\70M_L_upconverter_SXY\70M_1223\work\App\WebUI\HTTPGetDevInfo.c
   HTTPGet__u8SetVOL18VDC   0x00884a    program     static C:\firmware\70M_L_upconverter_SXY\70M_1223\work\App\WebUI\HTTPGetDevInfo.c
   HTTPGet__u8SetVOL24VDC   0x0088b2    program     static C:\firmware\70M_L_upconverter_SXY\70M_1223\work\App\WebUI\HTTPGetDevInfo.c
HTTPHeaderParseAuthorization   0x0051dc    program     static C:\firmware\70M_L_upconverter_SXY\70M_1223\work\Microchip\TCPIP Stack\HTTP2.c
HTTPHeaderParseContentLength   0x005308    program     static C:\firmware\70M_L_upconverter_SXY\70M_1223\work\Microchip\TCPIP Stack\HTTP2.c
    HTTPHeaderParseLookup   0x0051c0    program     static C:\firmware\70M_L_upconverter_SXY\70M_1223\work\Microchip\TCPIP Stack\HTTP2.c
              HTTPIncFile   0x0059ce    program     extern C:\firmware\70M_L_upconverter_SXY\70M_1223\work\Microchip\TCPIP Stack\HTTP2.c
                 HTTPInit   0x0045aa    program     extern C:\firmware\70M_L_upconverter_SXY\70M_1223\work\Microchip\TCPIP Stack\HTTP2.c
             HTTPLoadConn   0x00468e    program     static C:\firmware\70M_L_upconverter_SXY\70M_1223\work\Microchip\TCPIP Stack\HTTP2.c
           HTTPMPFSUpload   0x00579e    program     static C:\firmware\70M_L_upconverter_SXY\70M_1223\work\Microchip\TCPIP Stack\HTTP2.c
            HTTPNeedsAuth   0x00f5b2    program     extern C:\firmware\70M_L_upconverter_SXY\70M_1223\work\App\WebUI\HTTPApp.c
           HTTPPostConfig   0x00f756    program     static C:\firmware\70M_L_upconverter_SXY\70M_1223\work\App\WebUI\HTTPApp.c
              HTTPPostlut   0x00f6be    program     static C:\firmware\70M_L_upconverter_SXY\70M_1223\work\App\WebUI\HTTPApp.c
                HTTPPrint   0x003e16    program     extern C:\firmware\70M_L_upconverter_SXY\70M_1223\work\Microchip\Include\TCPIP Stack\HTTPPrint.h
              HTTPPrintIP   0x00b646    program     extern C:\firmware\70M_L_upconverter_SXY\70M_1223\work\App\WebUI\HTTPPrint.c
               HTTPPrint_   0x004598    program     extern C:\firmware\70M_L_upconverter_SXY\70M_1223\work\Microchip\Include\TCPIP Stack\HTTPPrint.h
        HTTPPrint_18Vctrl   0x00bc0c    program     extern C:\firmware\70M_L_upconverter_SXY\70M_1223\work\App\WebUI\HTTPPrint.c
        HTTPPrint_24Vctrl   0x00bbfe    program     extern C:\firmware\70M_L_upconverter_SXY\70M_1223\work\App\WebUI\HTTPPrint.c
           HTTPPrint_ALCa   0x00bb4c    program     extern C:\firmware\70M_L_upconverter_SXY\70M_1223\work\App\WebUI\HTTPPrint.c
   HTTPPrint_ALCaSelected   0x00bc40    program     extern C:\firmware\70M_L_upconverter_SXY\70M_1223\work\App\WebUI\HTTPPrint.c
           HTTPPrint_ALCb   0x00bbd2    program     extern C:\firmware\70M_L_upconverter_SXY\70M_1223\work\App\WebUI\HTTPPrint.c
   HTTPPrint_ALCbSelected   0x00bc70    program     extern C:\firmware\70M_L_upconverter_SXY\70M_1223\work\App\WebUI\HTTPPrint.c
     HTTPPrint_BUCCurrent   0x00bd3a    program     extern C:\firmware\70M_L_upconverter_SXY\70M_1223\work\App\WebUI\HTTPPrint.c
        HTTPPrint_BUCIAlm   0x00bef6    program     extern C:\firmware\70M_L_upconverter_SXY\70M_1223\work\App\WebUI\HTTPPrint.c
         HTTPPrint_BUCREF   0x00bd00    program     extern C:\firmware\70M_L_upconverter_SXY\70M_1223\work\App\WebUI\HTTPPrint.c
 HTTPPrint_BUCREFSelected   0x00bce8    program     extern C:\firmware\70M_L_upconverter_SXY\70M_1223\work\App\WebUI\HTTPPrint.c
   HTTPPrint_ClearBUCIAlm   0x00bf32    program     extern C:\firmware\70M_L_upconverter_SXY\70M_1223\work\App\WebUI\HTTPPrint.c
   HTTPPrint_ClearLNBIAlm   0x00bf38    program     extern C:\firmware\70M_L_upconverter_SXY\70M_1223\work\App\WebUI\HTTPPrint.c
  HTTPPrint_DC18VSelected   0x00bca0    program     extern C:\firmware\70M_L_upconverter_SXY\70M_1223\work\App\WebUI\HTTPPrint.c
  HTTPPrint_DC24VSelected   0x00bcb8    program     extern C:\firmware\70M_L_upconverter_SXY\70M_1223\work\App\WebUI\HTTPPrint.c
    HTTPPrint_DeviceModel   0x00b606    program     extern C:\firmware\70M_L_upconverter_SXY\70M_1223\work\App\WebUI\HTTPPrint.c
   HTTPPrint_DeviceSerial   0x00b612    program     extern C:\firmware\70M_L_upconverter_SXY\70M_1223\work\App\WebUI\HTTPPrint.c
    HTTPPrint_Devicefwver   0x00b706    program     extern C:\firmware\70M_L_upconverter_SXY\70M_1223\work\App\WebUI\HTTPPrint.c
         HTTPPrint_EXTREF   0x00bd1c    program     extern C:\firmware\70M_L_upconverter_SXY\70M_1223\work\App\WebUI\HTTPPrint.c
     HTTPPrint_LNBCurrent   0x00bd64    program     extern C:\firmware\70M_L_upconverter_SXY\70M_1223\work\App\WebUI\HTTPPrint.c
        HTTPPrint_LNBIAlm   0x00bf14    program     extern C:\firmware\70M_L_upconverter_SXY\70M_1223\work\App\WebUI\HTTPPrint.c
         HTTPPrint_LNBREF   0x00bd0e    program     extern C:\firmware\70M_L_upconverter_SXY\70M_1223\work\App\WebUI\HTTPPrint.c
 HTTPPrint_LNBREFSelected   0x00bcd0    program     extern C:\firmware\70M_L_upconverter_SXY\70M_1223\work\App\WebUI\HTTPPrint.c
            HTTPPrint_MIP   0x00b6a2    program     extern C:\firmware\70M_L_upconverter_SXY\70M_1223\work\App\WebUI\HTTPPrint.c
          HTTPPrint_Mutea   0x00bb5a    program     extern C:\firmware\70M_L_upconverter_SXY\70M_1223\work\App\WebUI\HTTPPrint.c
  HTTPPrint_MuteaSelected   0x00bc58    program     extern C:\firmware\70M_L_upconverter_SXY\70M_1223\work\App\WebUI\HTTPPrint.c
          HTTPPrint_Muteb   0x00bbe0    program     extern C:\firmware\70M_L_upconverter_SXY\70M_1223\work\App\WebUI\HTTPPrint.c
  HTTPPrint_MutebSelected   0x00bc88    program     extern C:\firmware\70M_L_upconverter_SXY\70M_1223\work\App\WebUI\HTTPPrint.c
HTTPPrint_config_dhcpchecked   0x00bc1a    program     extern C:\firmware\70M_L_upconverter_SXY\70M_1223\work\App\WebUI\HTTPPrint.c
      HTTPPrint_config_gw   0x00b6f2    program     extern C:\firmware\70M_L_upconverter_SXY\70M_1223\work\App\WebUI\HTTPPrint.c
      HTTPPrint_config_ip   0x00b6d6    program     extern C:\firmware\70M_L_upconverter_SXY\70M_1223\work\App\WebUI\HTTPPrint.c
     HTTPPrint_config_mac   0x00c03a    program     extern C:\firmware\70M_L_upconverter_SXY\70M_1223\work\App\WebUI\HTTPPrint.c
  HTTPPrint_config_subnet   0x00b6de    program     extern C:\firmware\70M_L_upconverter_SXY\70M_1223\work\App\WebUI\HTTPPrint.c
HTTPPrint_converteraalarm   0x00beca    program     extern C:\firmware\70M_L_upconverter_SXY\70M_1223\work\App\WebUI\HTTPPrint.c
HTTPPrint_converteraatten   0x00ba7a    program     extern C:\firmware\70M_L_upconverter_SXY\70M_1223\work\App\WebUI\HTTPPrint.c
   HTTPPrint_converteralo   0x00baec    program     extern C:\firmware\70M_L_upconverter_SXY\70M_1223\work\App\WebUI\HTTPPrint.c
HTTPPrint_converterarffreq   0x00ba0a    program     extern C:\firmware\70M_L_upconverter_SXY\70M_1223\work\App\WebUI\HTTPPrint.c
HTTPPrint_converterbalarm   0x00bee0    program     extern C:\firmware\70M_L_upconverter_SXY\70M_1223\work\App\WebUI\HTTPPrint.c
HTTPPrint_converterbatten   0x00bab2    program     extern C:\firmware\70M_L_upconverter_SXY\70M_1223\work\App\WebUI\HTTPPrint.c
   HTTPPrint_converterblo   0x00bb78    program     extern C:\firmware\70M_L_upconverter_SXY\70M_1223\work\App\WebUI\HTTPPrint.c
HTTPPrint_converterbrffreq   0x00ba42    program     extern C:\firmware\70M_L_upconverter_SXY\70M_1223\work\App\WebUI\HTTPPrint.c
    HTTPPrint_dhcp_status   0x00b61e    program     extern C:\firmware\70M_L_upconverter_SXY\70M_1223\work\App\WebUI\HTTPPrint.c
            HTTPPrint_led   0x00bf3e    program     extern C:\firmware\70M_L_upconverter_SXY\70M_1223\work\App\WebUI\HTTPPrint.c
            HTTPPrint_maf   0x00c006    program     extern C:\firmware\70M_L_upconverter_SXY\70M_1223\work\App\WebUI\HTTPPrint.c
            HTTPPrint_mas   0x00c020    program     extern C:\firmware\70M_L_upconverter_SXY\70M_1223\work\App\WebUI\HTTPPrint.c
            HTTPPrint_ned   0x00bfa2    program     extern C:\firmware\70M_L_upconverter_SXY\70M_1223\work\App\WebUI\HTTPPrint.c
   HTTPPrint_outputpowera   0x00bb0c    program     extern C:\firmware\70M_L_upconverter_SXY\70M_1223\work\App\WebUI\HTTPPrint.c
   HTTPPrint_outputpowerb   0x00bb96    program     extern C:\firmware\70M_L_upconverter_SXY\70M_1223\work\App\WebUI\HTTPPrint.c
      HTTPPrint_rdi2cdata   0x00bd8e    program     extern C:\firmware\70M_L_upconverter_SXY\70M_1223\work\App\WebUI\HTTPPrint.c
      HTTPPrint_read_comm   0x00c096    program     extern C:\firmware\70M_L_upconverter_SXY\70M_1223\work\App\WebUI\HTTPPrint.c
        HTTPPrint_setpass   0x00be2e    program     extern C:\firmware\70M_L_upconverter_SXY\70M_1223\work\App\WebUI\HTTPPrint.c
   HTTPPrint_setpasscolor   0x00bdee    program     extern C:\firmware\70M_L_upconverter_SXY\70M_1223\work\App\WebUI\HTTPPrint.c
      HTTPPrint_setpowera   0x00bb2c    program     extern C:\firmware\70M_L_upconverter_SXY\70M_1223\work\App\WebUI\HTTPPrint.c
      HTTPPrint_setpowerb   0x00bbb4    program     extern C:\firmware\70M_L_upconverter_SXY\70M_1223\work\App\WebUI\HTTPPrint.c
      HTTPPrint_static_ip   0x00b6b6    program     extern C:\firmware\70M_L_upconverter_SXY\70M_1223\work\App\WebUI\HTTPPrint.c
         HTTPPrint_swmode   0x00baea    program     extern C:\firmware\70M_L_upconverter_SXY\70M_1223\work\App\WebUI\HTTPPrint.c
      HTTPPrint_wri2cdata   0x00bdbe    program     extern C:\firmware\70M_L_upconverter_SXY\70M_1223\work\App\WebUI\HTTPPrint.c
     HTTPPrint_write_comm   0x00c09a    program     extern C:\firmware\70M_L_upconverter_SXY\70M_1223\work\App\WebUI\HTTPPrint.c
              HTTPProcess   0x0046d6    program     static C:\firmware\70M_L_upconverter_SXY\70M_1223\work\Microchip\TCPIP Stack\HTTP2.c
         HTTPReadPostName   0x005572    program     extern C:\firmware\70M_L_upconverter_SXY\70M_1223\work\Microchip\TCPIP Stack\HTTP2.c
        HTTPReadPostValue   0x0055a2    program     extern C:\firmware\70M_L_upconverter_SXY\70M_1223\work\Microchip\TCPIP Stack\HTTP2.c
               HTTPReadTo   0x005612    program     static C:\firmware\70M_L_upconverter_SXY\70M_1223\work\Microchip\TCPIP Stack\HTTP2.c
       HTTPRequestHeaders   0x0137ab    program     static C:\firmware\70M_L_upconverter_SXY\70M_1223\work\Microchip\TCPIP Stack\HTTP2.c
      HTTPResponseHeaders   0x013781    program     static C:\firmware\70M_L_upconverter_SXY\70M_1223\work\Microchip\TCPIP Stack\HTTP2.c
             HTTPSendFile   0x005048    program     static C:\firmware\70M_L_upconverter_SXY\70M_1223\work\Microchip\TCPIP Stack\HTTP2.c
               HTTPServer   0x00460c    program     extern C:\firmware\70M_L_upconverter_SXY\70M_1223\work\Microchip\TCPIP Stack\HTTP2.c
            HTTPURLDecode   0x005390    program     extern C:\firmware\70M_L_upconverter_SXY\70M_1223\work\Microchip\TCPIP Stack\HTTP2.c
                HTTP_CRLF   0x013736    program     static C:\firmware\70M_L_upconverter_SXY\70M_1223\work\Microchip\TCPIP Stack\HTTP2.c
   HTTP_vClearWebPassword   0x0124f0    program     static C:\firmware\70M_L_upconverter_SXY\70M_1223\work\Main\Main.c
             HandleTCPSeg   0x001fa2    program     static C:\firmware\70M_L_upconverter_SXY\70M_1223\work\Microchip\TCPIP Stack\TCP.c
                  Hex2Int   0x009f1e    program     extern C:\firmware\70M_L_upconverter_SXY\70M_1223\work\SysLib\util.c
                  HighISR   0x012de2    program     extern C:\firmware\70M_L_upconverter_SXY\70M_1223\work\Drivers\MCU-Internal\ISR.c
               HighVector   0x000008    program     extern C:\firmware\70M_L_upconverter_SXY\70M_1223\work\Drivers\MCU-Internal\ISR.c
                 I2C_Read   0x011eb0    program     extern C:\firmware\70M_L_upconverter_SXY\70M_1223\work\Singcom\Drivers\i2c_c1.c
                 I2C_Send   0x011e84    program     extern C:\firmware\70M_L_upconverter_SXY\70M_1223\work\Singcom\Drivers\i2c_c1.c
              ICMPProcess   0x013190    program     extern C:\firmware\70M_L_upconverter_SXY\70M_1223\work\Microchip\TCPIP Stack\ICMP.c
                  INT3216   0x010102    program     extern C:\Program Files\mcc18\src\traditional\math\castFP16.asm
              IPGetHeader   0x01185c    program     extern C:\firmware\70M_L_upconverter_SXY\70M_1223\work\Microchip\TCPIP Stack\IP.c
              IPPutHeader   0x011998    program     extern C:\firmware\70M_L_upconverter_SXY\70M_1223\work\Microchip\TCPIP Stack\IP.c
            IPSetRxBuffer   0x011a9e    program     extern C:\firmware\70M_L_upconverter_SXY\70M_1223\work\Microchip\TCPIP Stack\IP.c
            InitAppConfig   0x01161a    program     extern C:\firmware\70M_L_upconverter_SXY\70M_1223\work\Bootstrap\Initialization.c
                 InitData   0x0114da    program     extern C:\firmware\70M_L_upconverter_SXY\70M_1223\work\Bootstrap\Initialization.c
              Initial_LCD   0x007454    program     extern C:\firmware\70M_L_upconverter_SXY\70M_1223\work\Singcom\Drivers\lcd.c
          InitializeBoard   0x0115d2    program     extern C:\firmware\70M_L_upconverter_SXY\70M_1223\work\Bootstrap\Initialization.c
                  Int2Hex   0x009f58    program     extern C:\firmware\70M_L_upconverter_SXY\70M_1223\work\SysLib\util.c
            KeyProcessing   0x006250    program     extern C:\firmware\70M_L_upconverter_SXY\70M_1223\work\Singcom\Drivers\lcd.c
       LCDDisplayLoadData   0x007018    program     extern C:\firmware\70M_L_upconverter_SXY\70M_1223\work\Singcom\Drivers\lcd.c
          LCDMenuInScreen   0x0067ee    program     extern C:\firmware\70M_L_upconverter_SXY\70M_1223\work\Singcom\Drivers\lcd.c
        LCDMenuValue2Char   0x0073d0    program     extern C:\firmware\70M_L_upconverter_SXY\70M_1223\work\Singcom\Drivers\lcd.c
           LCDWriteString   0x012292    program     extern C:\firmware\70M_L_upconverter_SXY\70M_1223\work\Singcom\Drivers\oled_c1.c
     LCD_vEnableInterrupt   0x0074c2    program     extern C:\firmware\70M_L_upconverter_SXY\70M_1223\work\Singcom\Drivers\lcd.c
               LCD_vSetIO   0x00743c    program     extern C:\firmware\70M_L_upconverter_SXY\70M_1223\work\Singcom\Drivers\lcd.c
            LCD_vSetKepad   0x00742a    program     extern C:\firmware\70M_L_upconverter_SXY\70M_1223\work\Singcom\Drivers\lcd.c
                   LowISR   0x012cf8    program     extern C:\firmware\70M_L_upconverter_SXY\70M_1223\work\Drivers\MCU-Internal\ISR.c
                LowVector   0x000018    program     extern C:\firmware\70M_L_upconverter_SXY\70M_1223\work\Drivers\MCU-Internal\ISR.c
        MACCalcRxChecksum   0x00e372    program     extern C:\firmware\70M_L_upconverter_SXY\70M_1223\work\Microchip\TCPIP Stack\ETH97J60.c
             MACDiscardRx   0x00dfd0    program     extern C:\firmware\70M_L_upconverter_SXY\70M_1223\work\Microchip\TCPIP Stack\ETH97J60.c
                 MACFlush   0x00e306    program     extern C:\firmware\70M_L_upconverter_SXY\70M_1223\work\Microchip\TCPIP Stack\ETH97J60.c
                   MACGet   0x00e688    program     extern C:\firmware\70M_L_upconverter_SXY\70M_1223\work\Microchip\TCPIP Stack\ETH97J60.c
              MACGetArray   0x00e68c    program     extern C:\firmware\70M_L_upconverter_SXY\70M_1223\work\Microchip\TCPIP Stack\ETH97J60.c
         MACGetFreeRxSize   0x00e030    program     extern C:\firmware\70M_L_upconverter_SXY\70M_1223\work\Microchip\TCPIP Stack\ETH97J60.c
             MACGetHeader   0x00e0f8    program     extern C:\firmware\70M_L_upconverter_SXY\70M_1223\work\Microchip\TCPIP Stack\ETH97J60.c
                  MACInit   0x00de7e    program     extern C:\firmware\70M_L_upconverter_SXY\70M_1223\work\Microchip\TCPIP Stack\ETH97J60.c
              MACIsLinked   0x00df94    program     extern C:\firmware\70M_L_upconverter_SXY\70M_1223\work\Microchip\TCPIP Stack\ETH97J60.c
         MACIsMemCopyDone   0x00e67c    program     extern C:\firmware\70M_L_upconverter_SXY\70M_1223\work\Microchip\TCPIP Stack\ETH97J60.c
             MACIsTxReady   0x00dfa8    program     extern C:\firmware\70M_L_upconverter_SXY\70M_1223\work\Microchip\TCPIP Stack\ETH97J60.c
          MACMemCopyAsync   0x00e52e    program     extern C:\firmware\70M_L_upconverter_SXY\70M_1223\work\Microchip\TCPIP Stack\ETH97J60.c
             MACPowerDown   0x00e86c    program     extern C:\firmware\70M_L_upconverter_SXY\70M_1223\work\Microchip\TCPIP Stack\ETH97J60.c
               MACPowerUp   0x00e87e    program     extern C:\firmware\70M_L_upconverter_SXY\70M_1223\work\Microchip\TCPIP Stack\ETH97J60.c
                   MACPut   0x00e6e6    program     extern C:\firmware\70M_L_upconverter_SXY\70M_1223\work\Microchip\TCPIP Stack\ETH97J60.c
              MACPutArray   0x00e70c    program     extern C:\firmware\70M_L_upconverter_SXY\70M_1223\work\Microchip\TCPIP Stack\ETH97J60.c
             MACPutHeader   0x00e2a2    program     extern C:\firmware\70M_L_upconverter_SXY\70M_1223\work\Microchip\TCPIP Stack\ETH97J60.c
           MACPutROMArray   0x00e75c    program     extern C:\firmware\70M_L_upconverter_SXY\70M_1223\work\Microchip\TCPIP Stack\ETH97J60.c
            MACSetReadPtr   0x00e35a    program     extern C:\firmware\70M_L_upconverter_SXY\70M_1223\work\Microchip\TCPIP Stack\ETH97J60.c
        MACSetReadPtrInRx   0x00e32e    program     extern C:\firmware\70M_L_upconverter_SXY\70M_1223\work\Microchip\TCPIP Stack\ETH97J60.c
           MACSetWritePtr   0x00e346    program     extern C:\firmware\70M_L_upconverter_SXY\70M_1223\work\Microchip\TCPIP Stack\ETH97J60.c
                MPFSClose   0x00aa3a    program     extern C:\firmware\70M_L_upconverter_SXY\70M_1223\work\Microchip\TCPIP Stack\MPFS2.c
               MPFSFormat   0x00ace6    program     extern C:\firmware\70M_L_upconverter_SXY\70M_1223\work\Microchip\TCPIP Stack\MPFS2.c
                  MPFSGet   0x00aa52    program     extern C:\firmware\70M_L_upconverter_SXY\70M_1223\work\Microchip\TCPIP Stack\MPFS2.c
             MPFSGetArray   0x00aaf8    program     extern C:\firmware\70M_L_upconverter_SXY\70M_1223\work\Microchip\TCPIP Stack\MPFS2.c
          MPFSGetBytesRem   0x00af58    program     extern C:\firmware\70M_L_upconverter_SXY\70M_1223\work\Microchip\TCPIP Stack\MPFS2.c
           MPFSGetEndAddr   0x00afbe    program     extern C:\firmware\70M_L_upconverter_SXY\70M_1223\work\Microchip\TCPIP Stack\MPFS2.c
          MPFSGetFilename   0x00b00c    program     extern C:\firmware\70M_L_upconverter_SXY\70M_1223\work\Microchip\TCPIP Stack\MPFS2.c
             MPFSGetFlags   0x00aefa    program     extern C:\firmware\70M_L_upconverter_SXY\70M_1223\work\Microchip\TCPIP Stack\MPFS2.c
                MPFSGetID   0x00b0c4    program     extern C:\firmware\70M_L_upconverter_SXY\70M_1223\work\Microchip\TCPIP Stack\MPFS2.c
              MPFSGetLong   0x00ab88    program     extern C:\firmware\70M_L_upconverter_SXY\70M_1223\work\Microchip\TCPIP Stack\MPFS2.c
         MPFSGetMicrotime   0x00aec8    program     extern C:\firmware\70M_L_upconverter_SXY\70M_1223\work\Microchip\TCPIP Stack\MPFS2.c
          MPFSGetPosition   0x00b092    program     extern C:\firmware\70M_L_upconverter_SXY\70M_1223\work\Microchip\TCPIP Stack\MPFS2.c
              MPFSGetSize   0x00af26    program     extern C:\firmware\70M_L_upconverter_SXY\70M_1223\work\Microchip\TCPIP Stack\MPFS2.c
         MPFSGetStartAddr   0x00af82    program     extern C:\firmware\70M_L_upconverter_SXY\70M_1223\work\Microchip\TCPIP Stack\MPFS2.c
         MPFSGetTimestamp   0x00ae96    program     extern C:\firmware\70M_L_upconverter_SXY\70M_1223\work\Microchip\TCPIP Stack\MPFS2.c
                 MPFSInit   0x00a6f4    program     extern C:\firmware\70M_L_upconverter_SXY\70M_1223\work\Microchip\TCPIP Stack\MPFS2.c
                 MPFSOpen   0x00a72a    program     extern C:\firmware\70M_L_upconverter_SXY\70M_1223\work\Microchip\TCPIP Stack\MPFS2.c
               MPFSOpenID   0x00a9bc    program     extern C:\firmware\70M_L_upconverter_SXY\70M_1223\work\Microchip\TCPIP Stack\MPFS2.c
              MPFSOpenROM   0x00a878    program     extern C:\firmware\70M_L_upconverter_SXY\70M_1223\work\Microchip\TCPIP Stack\MPFS2.c
             MPFSPutArray   0x00ad68    program     extern C:\firmware\70M_L_upconverter_SXY\70M_1223\work\Microchip\TCPIP Stack\MPFS2.c
               MPFSPutEnd   0x00adee    program     extern C:\firmware\70M_L_upconverter_SXY\70M_1223\work\Microchip\TCPIP Stack\MPFS2.c
                 MPFSSeek   0x00abc8    program     extern C:\firmware\70M_L_upconverter_SXY\70M_1223\work\Microchip\TCPIP Stack\MPFS2.c
            Main_vLEDInit   0x0113ca    program     extern C:\firmware\70M_L_upconverter_SXY\70M_1223\work\Singcom\Devices\MainControl_c1.c
              Main_vLEDLO   0x01138e    program     extern C:\firmware\70M_L_upconverter_SXY\70M_1223\work\Singcom\Devices\MainControl_c1.c
              Main_vLEDRX   0x0113b6    program     extern C:\firmware\70M_L_upconverter_SXY\70M_1223\work\Singcom\Devices\MainControl_c1.c
              Main_vLEDTX   0x0113a2    program     extern C:\firmware\70M_L_upconverter_SXY\70M_1223\work\Singcom\Devices\MainControl_c1.c
    Main_vPrintDeviceInfo   0x0111f4    program     extern C:\firmware\70M_L_upconverter_SXY\70M_1223\work\Singcom\Devices\MainControl_c1.c
 Main_vPrintDownConverter   0x01114a    program     extern C:\firmware\70M_L_upconverter_SXY\70M_1223\work\Singcom\Devices\MainControl_c1.c
            Main_vPrintIP   0x0112e4    program     extern C:\firmware\70M_L_upconverter_SXY\70M_1223\work\Singcom\Devices\MainControl_c1.c
       Main_vPrintModelNo   0x0112fe    program     extern C:\firmware\70M_L_upconverter_SXY\70M_1223\work\Singcom\Devices\MainControl_c1.c
      Main_vPrintSerialNo   0x01130e    program     extern C:\firmware\70M_L_upconverter_SXY\70M_1223\work\Singcom\Devices\MainControl_c1.c
   Main_vPrintUpConverter   0x0110e4    program     extern C:\firmware\70M_L_upconverter_SXY\70M_1223\work\Singcom\Devices\MainControl_c1.c
       Main_vPrintVolCtrl   0x0111b0    program     extern C:\firmware\70M_L_upconverter_SXY\70M_1223\work\Singcom\Devices\MainControl_c1.c
              Main_vSetIP   0x011328    program     extern C:\firmware\70M_L_upconverter_SXY\70M_1223\work\Singcom\Devices\MainControl_c1.c
              MenuDisplay   0x01026c    program     extern C:\firmware\70M_L_upconverter_SXY\70M_1223\work\Singcom\Drivers\lcd.c
           OLED_vSetKepad   0x01217a    program     extern C:\firmware\70M_L_upconverter_SXY\70M_1223\work\Singcom\Drivers\oled_c1.c
                  OpenADC   0x013824    program     extern C:\MCC18\src\pmc_common\ADC\adcopen.c
          PrintCompanyLCD   0x01237c    program     extern C:\firmware\70M_L_upconverter_SXY\70M_1223\work\Singcom\Drivers\oled_c1.c
                 PrintLCD   0x00693e    program     extern C:\firmware\70M_L_upconverter_SXY\70M_1223\work\Singcom\Drivers\lcd.c
     PrintLCDEditPosition   0x0068b8    program     extern C:\firmware\70M_L_upconverter_SXY\70M_1223\work\Singcom\Drivers\lcd.c
       PrintLCDFromBuffer   0x006f58    program     extern C:\firmware\70M_L_upconverter_SXY\70M_1223\work\Singcom\Drivers\lcd.c
        PrintLCDWholePage   0x006de6    program     extern C:\firmware\70M_L_upconverter_SXY\70M_1223\work\Singcom\Drivers\lcd.c
     ROMStringToIPAddress   0x00c8d6    program     extern C:\firmware\70M_L_upconverter_SXY\70M_1223\work\Microchip\TCPIP Stack\Helpers.c
                 ReadData   0x01222a    program     extern C:\firmware\70M_L_upconverter_SXY\70M_1223\work\Singcom\Drivers\oled_c1.c
               ReadPHYReg   0x00e7be    program     extern C:\firmware\70M_L_upconverter_SXY\70M_1223\work\Microchip\TCPIP Stack\ETH97J60.c
                ReadUSART   0x013426    program     extern C:\firmware\70M_L_upconverter_SXY\70M_1223\work\Microchip\TCPIP Stack\UART.c
               ReadUSART2   0x013450    program     extern C:\firmware\70M_L_upconverter_SXY\70M_1223\work\Microchip\TCPIP Stack\UART.c
            ReadWriteSPI2   0x013644    program     extern C:\firmware\70M_L_upconverter_SXY\70M_1223\work\Drivers\MCU-Internal\devspi.c
                 Read_ADC   0x012716    program     extern C:\firmware\70M_L_upconverter_SXY\70M_1223\work\Drivers\MCU-Internal\internalADC.c
                  SPIInit   0x01362c    program     extern C:\firmware\70M_L_upconverter_SXY\70M_1223\work\Drivers\MCU-Internal\devspi.c
          SYS__u8InitData   0x012546    program     static C:\firmware\70M_L_upconverter_SXY\70M_1223\work\Main\Main.c
      SYS__vLcdKeyPadTask   0x0124c4    program     static C:\firmware\70M_L_upconverter_SXY\70M_1223\work\Main\Main.c
         SYS__vStatusTask   0x01247c    program     static C:\firmware\70M_L_upconverter_SXY\70M_1223\work\Main\Main.c
            SaveAppConfig   0x00a0e2    program     extern C:\firmware\70M_L_upconverter_SXY\70M_1223\work\SysLib\util.c
              SaveSetting   0x00a106    program     extern C:\firmware\70M_L_upconverter_SXY\70M_1223\work\SysLib\util.c
                  SendTCP   0x0016a4    program     static C:\firmware\70M_L_upconverter_SXY\70M_1223\work\Microchip\TCPIP Stack\TCP.c
     SerializedMACAddress   0x013a3e    program     static C:\firmware\70M_L_upconverter_SXY\70M_1223\work\Bootstrap\Initialization.c
          SetDefaultValue   0x0116d2    program     extern C:\firmware\70M_L_upconverter_SXY\70M_1223\work\Bootstrap\Initialization.c
                   SetI2C   0x012012    program     extern C:\firmware\70M_L_upconverter_SXY\70M_1223\work\Singcom\Drivers\i2c_c1.c
        StackApplications   0x012af2    program     extern C:\firmware\70M_L_upconverter_SXY\70M_1223\work\Microchip\TCPIP Stack\StackTsk.c
                StackInit   0x012936    program     extern C:\firmware\70M_L_upconverter_SXY\70M_1223\work\Microchip\TCPIP Stack\StackTsk.c
                StackTask   0x012966    program     extern C:\firmware\70M_L_upconverter_SXY\70M_1223\work\Microchip\TCPIP Stack\StackTsk.c
        StringToIPAddress   0x00c806    program     extern C:\firmware\70M_L_upconverter_SXY\70M_1223\work\Microchip\TCPIP Stack\Helpers.c
            SwapARPPacket   0x010ba6    program     extern C:\firmware\70M_L_upconverter_SXY\70M_1223\work\Microchip\TCPIP Stack\ARP.c
             SwapIPHeader   0x011acc    program     static C:\firmware\70M_L_upconverter_SXY\70M_1223\work\Microchip\TCPIP Stack\IP.c
            SwapTCPHeader   0x001ea8    program     static C:\firmware\70M_L_upconverter_SXY\70M_1223\work\Microchip\TCPIP Stack\TCP.c
                  SyncTCB   0x000132    program     static C:\firmware\70M_L_upconverter_SXY\70M_1223\work\Microchip\TCPIP Stack\TCP.c
              SyncTCBStub   0x0000c8    program     static C:\firmware\70M_L_upconverter_SXY\70M_1223\work\Microchip\TCPIP Stack\TCP.c
        TCPAdjustFIFOSize   0x002a38    program     extern C:\firmware\70M_L_upconverter_SXY\70M_1223\work\Microchip\TCPIP Stack\TCP.c
                 TCPClose   0x00053c    program     extern C:\firmware\70M_L_upconverter_SXY\70M_1223\work\Microchip\TCPIP Stack\TCP.c
               TCPDiscard   0x0008e2    program     extern C:\firmware\70M_L_upconverter_SXY\70M_1223\work\Microchip\TCPIP Stack\TCP.c
            TCPDisconnect   0x0004c0    program     extern C:\firmware\70M_L_upconverter_SXY\70M_1223\work\Microchip\TCPIP Stack\TCP.c
           TCPFindArrayEx   0x000c72    program     extern C:\firmware\70M_L_upconverter_SXY\70M_1223\work\Microchip\TCPIP Stack\TCP.c
                TCPFindEx   0x001140    program     extern C:\firmware\70M_L_upconverter_SXY\70M_1223\work\Microchip\TCPIP Stack\TCP.c
        TCPFindROMArrayEx   0x000ef0    program     extern C:\firmware\70M_L_upconverter_SXY\70M_1223\work\Microchip\TCPIP Stack\TCP.c
                 TCPFlush   0x00058a    program     extern C:\firmware\70M_L_upconverter_SXY\70M_1223\work\Microchip\TCPIP Stack\TCP.c
                   TCPGet   0x00094a    program     extern C:\firmware\70M_L_upconverter_SXY\70M_1223\work\Microchip\TCPIP Stack\TCP.c
              TCPGetArray   0x0009b6    program     extern C:\firmware\70M_L_upconverter_SXY\70M_1223\work\Microchip\TCPIP Stack\TCP.c
         TCPGetRemoteInfo   0x000550    program     extern C:\firmware\70M_L_upconverter_SXY\70M_1223\work\Microchip\TCPIP Stack\TCP.c
         TCPGetRxFIFOFree   0x000aee    program     extern C:\firmware\70M_L_upconverter_SXY\70M_1223\work\Microchip\TCPIP Stack\TCP.c
         TCPGetTxFIFOFull   0x0008ba    program     extern C:\firmware\70M_L_upconverter_SXY\70M_1223\work\Microchip\TCPIP Stack\TCP.c
                  TCPInit   0x0001b0    program     extern C:\firmware\70M_L_upconverter_SXY\70M_1223\work\Microchip\TCPIP Stack\TCP.c
           TCPIsConnected   0x0004aa    program     extern C:\firmware\70M_L_upconverter_SXY\70M_1223\work\Microchip\TCPIP Stack\TCP.c
            TCPIsGetReady   0x000904    program     extern C:\firmware\70M_L_upconverter_SXY\70M_1223\work\Microchip\TCPIP Stack\TCP.c
            TCPIsPutReady   0x0005a6    program     extern C:\firmware\70M_L_upconverter_SXY\70M_1223\work\Microchip\TCPIP Stack\TCP.c
                  TCPOpen   0x000360    program     extern C:\firmware\70M_L_upconverter_SXY\70M_1223\work\Microchip\TCPIP Stack\TCP.c
                  TCPPeek   0x000c46    program     extern C:\firmware\70M_L_upconverter_SXY\70M_1223\work\Microchip\TCPIP Stack\TCP.c
             TCPPeekArray   0x000b16    program     extern C:\firmware\70M_L_upconverter_SXY\70M_1223\work\Microchip\TCPIP Stack\TCP.c
               TCPProcess   0x00154a    program     extern C:\firmware\70M_L_upconverter_SXY\70M_1223\work\Microchip\TCPIP Stack\TCP.c
                   TCPPut   0x00060c    program     extern C:\firmware\70M_L_upconverter_SXY\70M_1223\work\Microchip\TCPIP Stack\TCP.c
              TCPPutArray   0x00069a    program     extern C:\firmware\70M_L_upconverter_SXY\70M_1223\work\Microchip\TCPIP Stack\TCP.c
           TCPPutROMArray   0x00073e    program     extern C:\firmware\70M_L_upconverter_SXY\70M_1223\work\Microchip\TCPIP Stack\TCP.c
          TCPPutROMString   0x000850    program     extern C:\firmware\70M_L_upconverter_SXY\70M_1223\work\Microchip\TCPIP Stack\TCP.c
             TCPPutString   0x0007f0    program     extern C:\firmware\70M_L_upconverter_SXY\70M_1223\work\Microchip\TCPIP Stack\TCP.c
               TCPRAMCopy   0x002bf2    program     static C:\firmware\70M_L_upconverter_SXY\70M_1223\work\Microchip\TCPIP Stack\TCP.c
            TCPRAMCopyROM   0x002c80    program     static C:\firmware\70M_L_upconverter_SXY\70M_1223\work\Microchip\TCPIP Stack\TCP.c
     TCPSocketInitializer   0x01392a    program     extern C:\firmware\70M_L_upconverter_SXY\70M_1223\work\Port\TCPIPConfig.h
                  TCPTick   0x001176    program     extern C:\firmware\70M_L_upconverter_SXY\70M_1223\work\Microchip\TCPIP Stack\TCP.c
              TCPWasReset   0x000494    program     extern C:\firmware\70M_L_upconverter_SXY\70M_1223\work\Microchip\TCPIP Stack\TCP.c
               TSIGN1616A   0x010026    program     static C:\Program Files\mcc18\src\traditional\math\fxm1616s.asm
TickConvertToMilliseconds   0x01336c    program     extern C:\firmware\70M_L_upconverter_SXY\70M_1223\work\Microchip\TCPIP Stack\Tick.c
                  TickGet   0x013310    program     extern C:\firmware\70M_L_upconverter_SXY\70M_1223\work\Microchip\TCPIP Stack\Tick.c
            TickGetDiv256   0x013324    program     extern C:\firmware\70M_L_upconverter_SXY\70M_1223\work\Microchip\TCPIP Stack\Tick.c
            TickGetDiv64K   0x013348    program     extern C:\firmware\70M_L_upconverter_SXY\70M_1223\work\Microchip\TCPIP Stack\Tick.c
                 TickInit   0x0132da    program     extern C:\firmware\70M_L_upconverter_SXY\70M_1223\work\Microchip\TCPIP Stack\Tick.c
               TickUpdate   0x0133a2    program     extern C:\firmware\70M_L_upconverter_SXY\70M_1223\work\Microchip\TCPIP Stack\Tick.c
                 UART2ISR   0x01398e    program     extern C:\firmware\70M_L_upconverter_SXY\70M_1223\work\Microchip\TCPIP Stack\UART2TCPBridge.c
          UpCvt_vPrintALC   0x0130dc    program     extern C:\firmware\70M_L_upconverter_SXY\70M_1223\work\Singcom\Devices\UpConverter_c1.c
         UpCvt_vPrintAttn   0x0130c2    program     extern C:\firmware\70M_L_upconverter_SXY\70M_1223\work\Singcom\Devices\UpConverter_c1.c
         UpCvt_vPrintFreq   0x013042    program     extern C:\firmware\70M_L_upconverter_SXY\70M_1223\work\Singcom\Devices\UpConverter_c1.c
           UpCvt_vPrintLo   0x013090    program     extern C:\firmware\70M_L_upconverter_SXY\70M_1223\work\Singcom\Devices\UpConverter_c1.c
         UpCvt_vPrintMute   0x0130f6    program     extern C:\firmware\70M_L_upconverter_SXY\70M_1223\work\Singcom\Devices\UpConverter_c1.c
        UpCvt_vPrintPower   0x01305c    program     extern C:\firmware\70M_L_upconverter_SXY\70M_1223\work\Singcom\Devices\UpConverter_c1.c
        UpCvt_vPrintStPwr   0x013076    program     extern C:\firmware\70M_L_upconverter_SXY\70M_1223\work\Singcom\Devices\UpConverter_c1.c
           UpCvt_vSendI2C   0x013148    program     extern C:\firmware\70M_L_upconverter_SXY\70M_1223\work\Singcom\Devices\UpConverter_c1.c
            UpCvt_vSetALC   0x013160    program     extern C:\firmware\70M_L_upconverter_SXY\70M_1223\work\Singcom\Devices\UpConverter_c1.c
           UpCvt_vSetAttn   0x01315a    program     extern C:\firmware\70M_L_upconverter_SXY\70M_1223\work\Singcom\Devices\UpConverter_c1.c
           UpCvt_vSetFreq   0x013158    program     extern C:\firmware\70M_L_upconverter_SXY\70M_1223\work\Singcom\Devices\UpConverter_c1.c
           UpCvt_vSetMute   0x013162    program     extern C:\firmware\70M_L_upconverter_SXY\70M_1223\work\Singcom\Devices\UpConverter_c1.c
          UpCvt_vSetPower   0x01315c    program     extern C:\firmware\70M_L_upconverter_SXY\70M_1223\work\Singcom\Devices\UpConverter_c1.c
          UpCvt_vSetStPwr   0x01315e    program     extern C:\firmware\70M_L_upconverter_SXY\70M_1223\work\Singcom\Devices\UpConverter_c1.c
               UpdateData   0x0126d0    program     extern C:\firmware\70M_L_upconverter_SXY\70M_1223\work\Main\Main.c
         UpdateDataLEDSys   0x0126e0    program     extern C:\firmware\70M_L_upconverter_SXY\70M_1223\work\Main\Main.c
        UpdateDataMenuSys   0x0126dc    program     extern C:\firmware\70M_L_upconverter_SXY\70M_1223\work\Main\Main.c
      UpdateDataModuleSys   0x0126da    program     extern C:\firmware\70M_L_upconverter_SXY\70M_1223\work\Main\Main.c
        UpdateDataUartSys   0x0126de    program     extern C:\firmware\70M_L_upconverter_SXY\70M_1223\work\Main\Main.c
             UpdateStatus   0x0126e2    program     extern C:\firmware\70M_L_upconverter_SXY\70M_1223\work\Main\Main.c
         Util_u16ByteSwap   0x0096ee    program     extern C:\firmware\70M_L_upconverter_SXY\70M_1223\work\SysLib\util.c
        Util_u16DWORDSwap   0x00977a    program     extern C:\firmware\70M_L_upconverter_SXY\70M_1223\work\SysLib\util.c
      Util_u8Float2String   0x009bb6    program     extern C:\firmware\70M_L_upconverter_SXY\70M_1223\work\SysLib\util.c
      Util_u8String2DWORD   0x009b7c    program     extern C:\firmware\70M_L_upconverter_SXY\70M_1223\work\SysLib\util.c
      Util_u8String2Float   0x009c74    program     extern C:\firmware\70M_L_upconverter_SXY\70M_1223\work\SysLib\util.c
     Util_u8String2NFloat   0x009d48    program     extern C:\firmware\70M_L_upconverter_SXY\70M_1223\work\SysLib\util.c
      Util_u8String2int16   0x009964    program     extern C:\firmware\70M_L_upconverter_SXY\70M_1223\work\SysLib\util.c
Util_u8String2int32_noDotH   0x009a30    program     extern C:\firmware\70M_L_upconverter_SXY\70M_1223\work\SysLib\util.c
Util_u8String2int32_noDotL   0x009ad6    program     extern C:\firmware\70M_L_upconverter_SXY\70M_1223\work\SysLib\util.c
         VOLCTRL_vSendI2C   0x013a0c    program     extern C:\firmware\70M_L_upconverter_SXY\70M_1223\work\Singcom\Devices\DownConverter_c1.c
      Value2DisplayBuffer   0x0074d8    program     extern C:\firmware\70M_L_upconverter_SXY\70M_1223\work\Singcom\Drivers\lcd.c
                WriteData   0x0121f8    program     extern C:\firmware\70M_L_upconverter_SXY\70M_1223\work\Singcom\Drivers\oled_c1.c
                 WriteIns   0x0121ca    program     extern C:\firmware\70M_L_upconverter_SXY\70M_1223\work\Singcom\Drivers\oled_c1.c
              WritePHYReg   0x00e81c    program     extern C:\firmware\70M_L_upconverter_SXY\70M_1223\work\Microchip\TCPIP Stack\ETH97J60.c
              WriteString   0x012262    program     extern C:\firmware\70M_L_upconverter_SXY\70M_1223\work\Singcom\Drivers\oled_c1.c
               WriteUSART   0x01342a    program     extern C:\firmware\70M_L_upconverter_SXY\70M_1223\work\Microchip\TCPIP Stack\UART.c
              WriteUSART2   0x01347e    program     extern C:\firmware\70M_L_upconverter_SXY\70M_1223\work\Microchip\TCPIP Stack\UART.c
             XEEBeginRead   0x011ba0    program     extern C:\firmware\70M_L_upconverter_SXY\70M_1223\work\Microchip\TCPIP Stack\SPIEEPROM.c
            XEEBeginWrite   0x011c98    program     extern C:\firmware\70M_L_upconverter_SXY\70M_1223\work\Microchip\TCPIP Stack\SPIEEPROM.c
               XEEEndRead   0x011c02    program     extern C:\firmware\70M_L_upconverter_SXY\70M_1223\work\Microchip\TCPIP Stack\SPIEEPROM.c
              XEEEndWrite   0x011d0c    program     extern C:\firmware\70M_L_upconverter_SXY\70M_1223\work\Microchip\TCPIP Stack\SPIEEPROM.c
                  XEEInit   0x011b8a    program     extern C:\firmware\70M_L_upconverter_SXY\70M_1223\work\Microchip\TCPIP Stack\SPIEEPROM.c
                XEEIsBusy   0x011dbe    program     extern C:\firmware\70M_L_upconverter_SXY\70M_1223\work\Microchip\TCPIP Stack\SPIEEPROM.c
                  XEERead   0x011bac    program     extern C:\firmware\70M_L_upconverter_SXY\70M_1223\work\Microchip\TCPIP Stack\SPIEEPROM.c
             XEEReadArray   0x011c04    program     extern C:\firmware\70M_L_upconverter_SXY\70M_1223\work\Microchip\TCPIP Stack\SPIEEPROM.c
                 XEEWrite   0x011ca4    program     extern C:\firmware\70M_L_upconverter_SXY\70M_1223\work\Microchip\TCPIP Stack\SPIEEPROM.c
            XEEWriteArray   0x011cd2    program     extern C:\firmware\70M_L_upconverter_SXY\70M_1223\work\Microchip\TCPIP Stack\SPIEEPROM.c
                  _14jEnd   0x012fce    program     static C:\Program Files\mcc18\src\traditional\stdclib\atol.asm
              _2jContinue   0x010dae    program     static C:\Program Files\mcc18\src\traditional\stdclib\memset.asm
              _2jContinue   0x010c90    program     static C:\Program Files\mcc18\src\traditional\stdclib\memchr.asm
                   _2jEnd   0x010f9a    program     static C:\Program Files\mcc18\src\traditional\stdclib\slenpgm.asm
              _3jContinue   0x010cde    program     static C:\Program Files\mcc18\src\traditional\stdclib\mcmpp2r.asm
              _3jContinue   0x010d7a    program     static C:\Program Files\mcc18\src\traditional\stdclib\mcpyp2r.asm
              _3jContinue   0x0110a0    program     static C:\Program Files\mcc18\src\traditional\stdclib\sncpyp2r.asm
                   _3jEnd   0x010db8    program     static C:\Program Files\mcc18\src\traditional\stdclib\memset.asm
                   _3jEnd   0x010c9a    program     static C:\Program Files\mcc18\src\traditional\stdclib\memchr.asm
              _4jContinue   0x011046    program     static C:\Program Files\mcc18\src\traditional\stdclib\strncpy.asm
              _4jContinue   0x010fea    program     static C:\Program Files\mcc18\src\traditional\stdclib\strncat.asm
              _4jContinue   0x010d26    program     static C:\Program Files\mcc18\src\traditional\stdclib\memcpy.asm
                   _4jEnd   0x0110aa    program     static C:\Program Files\mcc18\src\traditional\stdclib\sncpyp2r.asm
                   _4jEnd   0x010d84    program     static C:\Program Files\mcc18\src\traditional\stdclib\mcpyp2r.asm
                   _4jEnd   0x010ce8    program     static C:\Program Files\mcc18\src\traditional\stdclib\mcmpp2r.asm
                   _5jEnd   0x011050    program     static C:\Program Files\mcc18\src\traditional\stdclib\strncpy.asm
                   _5jEnd   0x010ff4    program     static C:\Program Files\mcc18\src\traditional\stdclib\strncat.asm
                   _5jEnd   0x010d30    program     static C:\Program Files\mcc18\src\traditional\stdclib\memcpy.asm
        _D10TCYXCODE_000A   0x0139ee    program     static C:\Program Files\mcc18\src\traditional\delays\d10tcyx.asm
        _D10TCYXCODE_000C   0x0139f0    program     static C:\Program Files\mcc18\src\traditional\delays\d10tcyx.asm
        _D10TCYXCODE_000E   0x0139f2    program     static C:\Program Files\mcc18\src\traditional\delays\d10tcyx.asm
        _D1KTCYXCODE_0010   0x01397e    program     static C:\Program Files\mcc18\src\traditional\delays\d1ktcyx.asm
        _D1KTCYXCODE_0016   0x013984    program     static C:\Program Files\mcc18\src\traditional\delays\d1ktcyx.asm
           _LoadFATRecord   0x00ae0a    program     static C:\firmware\70M_L_upconverter_SXY\70M_1223\work\Microchip\TCPIP Stack\MPFS2.c
                _Validate   0x00b0d6    program     static C:\firmware\70M_L_upconverter_SXY\70M_1223\work\Microchip\TCPIP Stack\MPFS2.c
                 __FpExit   0x01016c    program     extern C:\Program Files\mcc18\src\traditional\math\packFP.asm
                 __FpPack   0x010198    program     extern C:\Program Files\mcc18\src\traditional\math\packFP.asm
            __FpReturnNaN   0x010160    program     extern C:\Program Files\mcc18\src\traditional\math\packFP.asm
         __FpReturnNegInf   0x010172    program     extern C:\Program Files\mcc18\src\traditional\math\packFP.asm
        __FpReturnNegZero   0x01018a    program     extern C:\Program Files\mcc18\src\traditional\math\packFP.asm
         __FpReturnPosInf   0x010178    program     extern C:\Program Files\mcc18\src\traditional\math\packFP.asm
        __FpReturnPosZero   0x010192    program     extern C:\Program Files\mcc18\src\traditional\math\packFP.asm
        __FpReturnSignInf   0x01016e    program     extern C:\Program Files\mcc18\src\traditional\math\packFP.asm
       __FpReturnSignZero   0x010186    program     extern C:\Program Files\mcc18\src\traditional\math\packFP.asm
              __FpReturnW   0x0101f0    program     extern C:\Program Files\mcc18\src\traditional\math\packFP.asm
              __FpUnPackA   0x010210    program     extern C:\Program Files\mcc18\src\traditional\math\UnpackFP.asm
              __FpUnPackB   0x010240    program     extern C:\Program Files\mcc18\src\traditional\math\UnpackFP.asm
           ___do_lbl00002   0x0121b6    program     static                          
           ___do_lbl00002   0x013308    program     static                          
           ___do_lbl00003   0x0121ba    program     static                          
           ___do_lbl00003   0x01330c    program     static                          
           ___do_lbl00004   0x0121a6    program     static                          
           ___do_lbl00004   0x0132ea    program     static                          
         ___else_lbl00114   0x006d1e    program     static                          
         ___else_lbl00116   0x006d96    program     static                          
         ___else_lbl00126   0x006e82    program     static                          
         ___else_lbl00133   0x006ee2    program     static                          
         ___else_lbl00136   0x006f20    program     static                          
          ___for_lbl00107   0x006d18    program     static                          
          ___for_lbl00108   0x006d1c    program     static                          
          ___for_lbl00109   0x006cf4    program     static                          
          ___for_lbl00110   0x006d68    program     static                          
          ___for_lbl00111   0x006d6c    program     static                          
          ___for_lbl00112   0x006d38    program     static                          
          ___for_lbl00121   0x006e92    program     static                          
          ___for_lbl00122   0x006e96    program     static                          
          ___for_lbl00122   0x00cf5c    program     static                          
          ___for_lbl00123   0x00cf62    program     static                          
          ___for_lbl00124   0x00cf3e    program     static                          
          ___for_lbl00125   0x00cf76    program     static                          
          ___for_lbl00126   0x00cf7a    program     static                          
          ___for_lbl00127   0x00cf62    program     static                          
          ___for_lbl00127   0x006e44    program     static                          
          ___for_lbl00128   0x006ef2    program     static                          
          ___for_lbl00129   0x006ef6    program     static                          
          ___for_lbl00134   0x006ea4    program     static                          
          ___for_lbl00138   0x006fb6    program     static                          
          ___for_lbl00139   0x006fba    program     static                          
          ___for_lbl00142   0x006f7a    program     static                          
          ___for_lbl00143   0x007004    program     static                          
          ___for_lbl00144   0x007008    program     static                          
          ___for_lbl00147   0x006fc8    program     static                          
           ___if_lbl00005   0x00c6e6    program     static                          
           ___if_lbl00006   0x00c704    program     static                          
           ___if_lbl00007   0x00c79e    program     static                          
           ___if_lbl00008   0x00c7a4    program     static                          
           ___if_lbl00020   0x00e11e    program     static                          
           ___if_lbl00021   0x00e12a    program     static                          
           ___if_lbl00027   0x00e1fe    program     static                          
           ___if_lbl00030   0x00e27e    program     static                          
           ___if_lbl00106   0x006cd2    program     static                          
           ___if_lbl00113   0x006d6c    program     static                          
           ___if_lbl00115   0x006db6    program     static                          
           ___if_lbl00117   0x006db6    program     static                          
           ___if_lbl00118   0x006dc2    program     static                          
           ___if_lbl00119   0x006dce    program     static                          
           ___if_lbl00124   0x006e92    program     static                          
           ___if_lbl00125   0x006e92    program     static                          
           ___if_lbl00131   0x006ef2    program     static                          
           ___if_lbl00132   0x006ef2    program     static                          
           ___if_lbl00135   0x006f40    program     static                          
           ___if_lbl00141   0x006fb6    program     static                          
           ___if_lbl00146   0x007004    program     static                          
       ___return_lbl00000   0x0139e2    program     static                          
       ___return_lbl00000   0x013904    program     static                          
       ___return_lbl00000   0x0138d8    program     static                          
       ___return_lbl00000   0x00c7ee    program     static                          
       ___return_lbl00000   0x00df86    program     static                          
       ___return_lbl00000   0x000004    program     static                          
       ___return_lbl00000   0x012460    program     static                          
       ___return_lbl00000   0x013822    program     static                          
       ___return_lbl00001   0x0127f0    program     static                          
       ___return_lbl00001   0x01396c    program     static                          
       ___return_lbl00001   0x01330e    program     static                          
       ___return_lbl00001   0x0121bc    program     static                          
       ___return_lbl00002   0x01362a    program     static                          
       ___return_lbl00004   0x0128c8    program     static                          
       ___return_lbl00005   0x0121ec    program     static                          
       ___return_lbl00006   0x01221e    program     static                          
       ___return_lbl00007   0x012254    program     static                          
       ___return_lbl00019   0x00e286    program     static                          
       ___return_lbl00019   0x00001c    program     static                          
       ___return_lbl00020   0x00000c    program     static                          
       ___return_lbl00079   0x00e700    program     static                          
       ___return_lbl00080   0x00e750    program     static                          
       ___return_lbl00083   0x00e7b2    program     static                          
       ___return_lbl00086   0x00e80c    program     static                          
       ___return_lbl00089   0x00e85e    program     static                          
       ___return_lbl00103   0x006dce    program     static                          
       ___return_lbl00120   0x006f40    program     static                          
       ___return_lbl00121   0x00cf8c    program     static                          
       ___return_lbl00137   0x007008    program     static                          
        ___while_lbl00001   0x00c574    program     static                          
        ___while_lbl00001   0x00de98    program     static                          
        ___while_lbl00002   0x00de9e    program     static                          
        ___while_lbl00002   0x00c7a6    program     static                          
        ___while_lbl00002   0x0127d4    program     static                          
        ___while_lbl00003   0x00c57c    program     static                          
        ___while_lbl00003   0x0127dc    program     static                          
        ___while_lbl00004   0x00c580    program     static                          
        ___while_lbl00081   0x00e71c    program     static                          
        ___while_lbl00082   0x00e750    program     static                          
        ___while_lbl00084   0x00e76c    program     static                          
        ___while_lbl00085   0x00e7b2    program     static                          
        ___while_lbl00087   0x00e7e2    program     static                          
        ___while_lbl00088   0x00e7e8    program     static                          
        ___while_lbl00090   0x00e858    program     static                          
        ___while_lbl00091   0x00e85e    program     static                          
        ___while_lbl00104   0x006a56    program     static                          
        ___while_lbl00105   0x006b88    program     static                          
               __config_0   0x01fff8    program     static C:\firmware\70M_L_upconverter_SXY\70M_1223\work\Main\Main.c
               __config_1   0x01fffa    program     static C:\firmware\70M_L_upconverter_SXY\70M_1223\work\Main\Main.c
               __config_2   0x01fffd    program     static C:\firmware\70M_L_upconverter_SXY\70M_1223\work\Main\Main.c
                   __init   0x013a4c    program     extern C:\Program Files\mcc18\src\traditional\stdclib\__init.c
                   __pa_0   0x00a1d8    program     static C:\firmware\70M_L_upconverter_SXY\70M_1223\work\SysLib\util.c
                   __pa_0   0x0123de    program     static C:\firmware\70M_L_upconverter_SXY\70M_1223\work\Singcom\Drivers\oled_c1.c
                   __pa_0   0x0132b2    program     static C:\firmware\70M_L_upconverter_SXY\70M_1223\work\Microchip\TCPIP Stack\ICMP.c
                   __pa_0   0x0075f4    program     static C:\firmware\70M_L_upconverter_SXY\70M_1223\work\Singcom\Drivers\lcd.c
                   __pa_0   0x005ae0    program     static C:\firmware\70M_L_upconverter_SXY\70M_1223\work\Microchip\TCPIP Stack\HTTP2.c
                   __pa_0   0x00fb6e    program     static C:\firmware\70M_L_upconverter_SXY\70M_1223\work\App\WebUI\HTTPApp.c
                   __pa_0   0x00c09e    program     static C:\firmware\70M_L_upconverter_SXY\70M_1223\work\App\WebUI\HTTPPrint.c
                   __pa_0   0x008f72    program     static C:\firmware\70M_L_upconverter_SXY\70M_1223\work\App\WebUI\HTTPGetDevInfo.c
                   __pa_0   0x013164    program     static C:\firmware\70M_L_upconverter_SXY\70M_1223\work\Singcom\Devices\UpConverter_c1.c
                   __pa_0   0x0113d2    program     static C:\firmware\70M_L_upconverter_SXY\70M_1223\work\Singcom\Devices\MainControl_c1.c
                   __pa_0   0x011dfc    program     static C:\firmware\70M_L_upconverter_SXY\70M_1223\work\Microchip\TCPIP Stack\SPIEEPROM.c
                   __pa_0   0x00db9c    program     static C:\Program Files\mcc18\src\traditional\stdclib\vfprintf.c
                   __pa_0   0x0134a4    program     static C:\firmware\70M_L_upconverter_SXY\70M_1223\work\Microchip\TCPIP Stack\UART.c
                   __pa_0   0x0133b6    program     static C:\firmware\70M_L_upconverter_SXY\70M_1223\work\Microchip\TCPIP Stack\Tick.c
                   __pa_0   0x012c32    program     static C:\firmware\70M_L_upconverter_SXY\70M_1223\work\Drivers\External-Peripherals\devadc.c
                   __pa_0   0x00b14e    program     static C:\firmware\70M_L_upconverter_SXY\70M_1223\work\Microchip\TCPIP Stack\MPFS2.c
                   __pa_0   0x0120b0    program     static C:\firmware\70M_L_upconverter_SXY\70M_1223\work\Singcom\Drivers\i2c_c1.c
                   __pa_0   0x012e32    program     static C:\firmware\70M_L_upconverter_SXY\70M_1223\work\Drivers\MCU-Internal\ISR.c
                   __pa_0   0x012af6    program     static C:\firmware\70M_L_upconverter_SXY\70M_1223\work\Microchip\TCPIP Stack\StackTsk.c
                   __pa_0   0x010bce    program     static C:\firmware\70M_L_upconverter_SXY\70M_1223\work\Microchip\TCPIP Stack\ARP.c
                   __pa_0   0x011754    program     static C:\firmware\70M_L_upconverter_SXY\70M_1223\work\Bootstrap\Initialization.c
                   __pa_0   0x00d024    program     static C:\firmware\70M_L_upconverter_SXY\70M_1223\work\Microchip\TCPIP Stack\Helpers.c
                   __pa_0   0x002d60    program     static C:\firmware\70M_L_upconverter_SXY\70M_1223\work\Microchip\TCPIP Stack\TCP.c
                   __pa_0   0x011aea    program     static C:\firmware\70M_L_upconverter_SXY\70M_1223\work\Microchip\TCPIP Stack\IP.c
                   __pa_0   0x00e88c    program     static C:\firmware\70M_L_upconverter_SXY\70M_1223\work\Microchip\TCPIP Stack\ETH97J60.c
                   __pa_1   0x012b04    program     static C:\firmware\70M_L_upconverter_SXY\70M_1223\work\Microchip\TCPIP Stack\StackTsk.c
                   __pa_1   0x002d88    program     static C:\firmware\70M_L_upconverter_SXY\70M_1223\work\Microchip\TCPIP Stack\TCP.c
                   __pa_1   0x0123f2    program     static C:\firmware\70M_L_upconverter_SXY\70M_1223\work\Singcom\Drivers\oled_c1.c
                   __pa_1   0x01317a    program     static C:\firmware\70M_L_upconverter_SXY\70M_1223\work\Singcom\Devices\UpConverter_c1.c
                   __pa_1   0x005aea    program     static C:\firmware\70M_L_upconverter_SXY\70M_1223\work\Microchip\TCPIP Stack\HTTP2.c
                   __pa_1   0x011b0c    program     static C:\firmware\70M_L_upconverter_SXY\70M_1223\work\Microchip\TCPIP Stack\IP.c
                   __pa_1   0x008f88    program     static C:\firmware\70M_L_upconverter_SXY\70M_1223\work\App\WebUI\HTTPGetDevInfo.c
                   __pa_1   0x0120b8    program     static C:\firmware\70M_L_upconverter_SXY\70M_1223\work\Singcom\Drivers\i2c_c1.c
                   __pa_1   0x00d036    program     static C:\firmware\70M_L_upconverter_SXY\70M_1223\work\Microchip\TCPIP Stack\Helpers.c
                   __pa_1   0x00c0bc    program     static C:\firmware\70M_L_upconverter_SXY\70M_1223\work\App\WebUI\HTTPPrint.c
                   __pa_1   0x0133c4    program     static C:\firmware\70M_L_upconverter_SXY\70M_1223\work\Microchip\TCPIP Stack\Tick.c
                   __pa_1   0x0134b6    program     static C:\firmware\70M_L_upconverter_SXY\70M_1223\work\Microchip\TCPIP Stack\UART.c
                   __pa_1   0x00dba4    program     static C:\Program Files\mcc18\src\traditional\stdclib\vfprintf.c
                   __pa_1   0x012c78    program     static C:\firmware\70M_L_upconverter_SXY\70M_1223\work\Drivers\External-Peripherals\devadc.c
                   __pa_1   0x0113de    program     static C:\firmware\70M_L_upconverter_SXY\70M_1223\work\Singcom\Devices\MainControl_c1.c
                   __pa_1   0x010bdc    program     static C:\firmware\70M_L_upconverter_SXY\70M_1223\work\Microchip\TCPIP Stack\ARP.c
                   __pa_1   0x011774    program     static C:\firmware\70M_L_upconverter_SXY\70M_1223\work\Bootstrap\Initialization.c
                   __pa_1   0x007606    program     static C:\firmware\70M_L_upconverter_SXY\70M_1223\work\Singcom\Drivers\lcd.c
                   __pa_1   0x00b154    program     static C:\firmware\70M_L_upconverter_SXY\70M_1223\work\Microchip\TCPIP Stack\MPFS2.c
                   __pa_1   0x012e5c    program     static C:\firmware\70M_L_upconverter_SXY\70M_1223\work\Drivers\MCU-Internal\ISR.c
                   __pa_1   0x011e0e    program     static C:\firmware\70M_L_upconverter_SXY\70M_1223\work\Microchip\TCPIP Stack\SPIEEPROM.c
                   __pa_1   0x00fb7e    program     static C:\firmware\70M_L_upconverter_SXY\70M_1223\work\App\WebUI\HTTPApp.c
                   __pa_1   0x00e89e    program     static C:\firmware\70M_L_upconverter_SXY\70M_1223\work\Microchip\TCPIP Stack\ETH97J60.c
                   __pa_1   0x0132c2    program     static C:\firmware\70M_L_upconverter_SXY\70M_1223\work\Microchip\TCPIP Stack\ICMP.c
                   __pa_1   0x00a1e2    program     static C:\firmware\70M_L_upconverter_SXY\70M_1223\work\SysLib\util.c
                  __pa_10   0x00dc58    program     static C:\Program Files\mcc18\src\traditional\stdclib\vfprintf.c
                  __pa_10   0x011b80    program     static C:\firmware\70M_L_upconverter_SXY\70M_1223\work\Microchip\TCPIP Stack\IP.c
                  __pa_10   0x00c13c    program     static C:\firmware\70M_L_upconverter_SXY\70M_1223\work\App\WebUI\HTTPPrint.c
                  __pa_10   0x01214c    program     static C:\firmware\70M_L_upconverter_SXY\70M_1223\work\Singcom\Drivers\i2c_c1.c
                  __pa_10   0x00a2ca    program     static C:\firmware\70M_L_upconverter_SXY\70M_1223\work\SysLib\util.c
                  __pa_10   0x009078    program     static C:\firmware\70M_L_upconverter_SXY\70M_1223\work\App\WebUI\HTTPGetDevInfo.c
                  __pa_10   0x00e91e    program     static C:\firmware\70M_L_upconverter_SXY\70M_1223\work\Microchip\TCPIP Stack\ETH97J60.c
                  __pa_10   0x005bd0    program     static C:\firmware\70M_L_upconverter_SXY\70M_1223\work\Microchip\TCPIP Stack\HTTP2.c
                  __pa_10   0x007676    program     static C:\firmware\70M_L_upconverter_SXY\70M_1223\work\Singcom\Drivers\lcd.c
                  __pa_10   0x00fbf6    program     static C:\firmware\70M_L_upconverter_SXY\70M_1223\work\App\WebUI\HTTPApp.c
                  __pa_10   0x00b1fa    program     static C:\firmware\70M_L_upconverter_SXY\70M_1223\work\Microchip\TCPIP Stack\MPFS2.c
                  __pa_10   0x011850    program     static C:\firmware\70M_L_upconverter_SXY\70M_1223\work\Bootstrap\Initialization.c
                  __pa_10   0x011448    program     static C:\firmware\70M_L_upconverter_SXY\70M_1223\work\Singcom\Devices\MainControl_c1.c
                  __pa_10   0x010c66    program     static C:\firmware\70M_L_upconverter_SXY\70M_1223\work\Microchip\TCPIP Stack\ARP.c
                  __pa_10   0x002eaa    program     static C:\firmware\70M_L_upconverter_SXY\70M_1223\work\Microchip\TCPIP Stack\TCP.c
                  __pa_10   0x00d10c    program     static C:\firmware\70M_L_upconverter_SXY\70M_1223\work\Microchip\TCPIP Stack\Helpers.c
                 __pa_100   0x0095fc    program     static C:\firmware\70M_L_upconverter_SXY\70M_1223\work\App\WebUI\HTTPGetDevInfo.c
                 __pa_100   0x0034a0    program     static C:\firmware\70M_L_upconverter_SXY\70M_1223\work\Microchip\TCPIP Stack\TCP.c
                 __pa_100   0x007b3a    program     static C:\firmware\70M_L_upconverter_SXY\70M_1223\work\Singcom\Drivers\lcd.c
                 __pa_100   0x00603a    program     static C:\firmware\70M_L_upconverter_SXY\70M_1223\work\Microchip\TCPIP Stack\HTTP2.c
                 __pa_101   0x00960a    program     static C:\firmware\70M_L_upconverter_SXY\70M_1223\work\App\WebUI\HTTPGetDevInfo.c
                 __pa_101   0x0034b8    program     static C:\firmware\70M_L_upconverter_SXY\70M_1223\work\Microchip\TCPIP Stack\TCP.c
                 __pa_101   0x006044    program     static C:\firmware\70M_L_upconverter_SXY\70M_1223\work\Microchip\TCPIP Stack\HTTP2.c
                 __pa_101   0x007b44    program     static C:\firmware\70M_L_upconverter_SXY\70M_1223\work\Singcom\Drivers\lcd.c
                 __pa_102   0x00604c    program     static C:\firmware\70M_L_upconverter_SXY\70M_1223\work\Microchip\TCPIP Stack\HTTP2.c
                 __pa_102   0x007b50    program     static C:\firmware\70M_L_upconverter_SXY\70M_1223\work\Singcom\Drivers\lcd.c
                 __pa_102   0x0034c4    program     static C:\firmware\70M_L_upconverter_SXY\70M_1223\work\Microchip\TCPIP Stack\TCP.c
                 __pa_102   0x009618    program     static C:\firmware\70M_L_upconverter_SXY\70M_1223\work\App\WebUI\HTTPGetDevInfo.c
                 __pa_103   0x00605a    program     static C:\firmware\70M_L_upconverter_SXY\70M_1223\work\Microchip\TCPIP Stack\HTTP2.c
                 __pa_103   0x0034d0    program     static C:\firmware\70M_L_upconverter_SXY\70M_1223\work\Microchip\TCPIP Stack\TCP.c
                 __pa_103   0x007b5a    program     static C:\firmware\70M_L_upconverter_SXY\70M_1223\work\Singcom\Drivers\lcd.c
                 __pa_103   0x009626    program     static C:\firmware\70M_L_upconverter_SXY\70M_1223\work\App\WebUI\HTTPGetDevInfo.c
                 __pa_104   0x0034dc    program     static C:\firmware\70M_L_upconverter_SXY\70M_1223\work\Microchip\TCPIP Stack\TCP.c
                 __pa_104   0x00962e    program     static C:\firmware\70M_L_upconverter_SXY\70M_1223\work\App\WebUI\HTTPGetDevInfo.c
                 __pa_104   0x006068    program     static C:\firmware\70M_L_upconverter_SXY\70M_1223\work\Microchip\TCPIP Stack\HTTP2.c
                 __pa_104   0x007b68    program     static C:\firmware\70M_L_upconverter_SXY\70M_1223\work\Singcom\Drivers\lcd.c
                 __pa_105   0x006070    program     static C:\firmware\70M_L_upconverter_SXY\70M_1223\work\Microchip\TCPIP Stack\HTTP2.c
                 __pa_105   0x007b70    program     static C:\firmware\70M_L_upconverter_SXY\70M_1223\work\Singcom\Drivers\lcd.c
                 __pa_105   0x009634    program     static C:\firmware\70M_L_upconverter_SXY\70M_1223\work\App\WebUI\HTTPGetDevInfo.c
                 __pa_105   0x0034f2    program     static C:\firmware\70M_L_upconverter_SXY\70M_1223\work\Microchip\TCPIP Stack\TCP.c
                 __pa_106   0x00607e    program     static C:\firmware\70M_L_upconverter_SXY\70M_1223\work\Microchip\TCPIP Stack\HTTP2.c
                 __pa_106   0x00963a    program     static C:\firmware\70M_L_upconverter_SXY\70M_1223\work\App\WebUI\HTTPGetDevInfo.c
                 __pa_106   0x007b78    program     static C:\firmware\70M_L_upconverter_SXY\70M_1223\work\Singcom\Drivers\lcd.c
                 __pa_106   0x003502    program     static C:\firmware\70M_L_upconverter_SXY\70M_1223\work\Microchip\TCPIP Stack\TCP.c
                 __pa_107   0x006088    program     static C:\firmware\70M_L_upconverter_SXY\70M_1223\work\Microchip\TCPIP Stack\HTTP2.c
                 __pa_107   0x003518    program     static C:\firmware\70M_L_upconverter_SXY\70M_1223\work\Microchip\TCPIP Stack\TCP.c
                 __pa_107   0x009640    program     static C:\firmware\70M_L_upconverter_SXY\70M_1223\work\App\WebUI\HTTPGetDevInfo.c
                 __pa_107   0x007b80    program     static C:\firmware\70M_L_upconverter_SXY\70M_1223\work\Singcom\Drivers\lcd.c
                 __pa_108   0x006094    program     static C:\firmware\70M_L_upconverter_SXY\70M_1223\work\Microchip\TCPIP Stack\HTTP2.c
                 __pa_108   0x007b88    program     static C:\firmware\70M_L_upconverter_SXY\70M_1223\work\Singcom\Drivers\lcd.c
                 __pa_108   0x00352e    program     static C:\firmware\70M_L_upconverter_SXY\70M_1223\work\Microchip\TCPIP Stack\TCP.c
                 __pa_108   0x00964c    program     static C:\firmware\70M_L_upconverter_SXY\70M_1223\work\App\WebUI\HTTPGetDevInfo.c
                 __pa_109   0x00353c    program     static C:\firmware\70M_L_upconverter_SXY\70M_1223\work\Microchip\TCPIP Stack\TCP.c
                 __pa_109   0x0060a4    program     static C:\firmware\70M_L_upconverter_SXY\70M_1223\work\Microchip\TCPIP Stack\HTTP2.c
                 __pa_109   0x007b8e    program     static C:\firmware\70M_L_upconverter_SXY\70M_1223\work\Singcom\Drivers\lcd.c
                 __pa_109   0x009652    program     static C:\firmware\70M_L_upconverter_SXY\70M_1223\work\App\WebUI\HTTPGetDevInfo.c
                  __pa_11   0x01144e    program     static C:\firmware\70M_L_upconverter_SXY\70M_1223\work\Singcom\Devices\MainControl_c1.c
                  __pa_11   0x00c148    program     static C:\firmware\70M_L_upconverter_SXY\70M_1223\work\App\WebUI\HTTPPrint.c
                  __pa_11   0x00dc66    program     static C:\Program Files\mcc18\src\traditional\stdclib\vfprintf.c
                  __pa_11   0x00b210    program     static C:\firmware\70M_L_upconverter_SXY\70M_1223\work\Microchip\TCPIP Stack\MPFS2.c
                  __pa_11   0x005bd6    program     static C:\firmware\70M_L_upconverter_SXY\70M_1223\work\Microchip\TCPIP Stack\HTTP2.c
                  __pa_11   0x01215c    program     static C:\firmware\70M_L_upconverter_SXY\70M_1223\work\Singcom\Drivers\i2c_c1.c
                  __pa_11   0x00fc04    program     static C:\firmware\70M_L_upconverter_SXY\70M_1223\work\App\WebUI\HTTPApp.c
                  __pa_11   0x00e92e    program     static C:\firmware\70M_L_upconverter_SXY\70M_1223\work\Microchip\TCPIP Stack\ETH97J60.c
                  __pa_11   0x002ed6    program     static C:\firmware\70M_L_upconverter_SXY\70M_1223\work\Microchip\TCPIP Stack\TCP.c
                  __pa_11   0x007680    program     static C:\firmware\70M_L_upconverter_SXY\70M_1223\work\Singcom\Drivers\lcd.c
                  __pa_11   0x010c6e    program     static C:\firmware\70M_L_upconverter_SXY\70M_1223\work\Microchip\TCPIP Stack\ARP.c
                  __pa_11   0x00a2d2    program     static C:\firmware\70M_L_upconverter_SXY\70M_1223\work\SysLib\util.c
                  __pa_11   0x009080    program     static C:\firmware\70M_L_upconverter_SXY\70M_1223\work\App\WebUI\HTTPGetDevInfo.c
                  __pa_11   0x00d126    program     static C:\firmware\70M_L_upconverter_SXY\70M_1223\work\Microchip\TCPIP Stack\Helpers.c
                 __pa_110   0x00354a    program     static C:\firmware\70M_L_upconverter_SXY\70M_1223\work\Microchip\TCPIP Stack\TCP.c
                 __pa_110   0x007b96    program     static C:\firmware\70M_L_upconverter_SXY\70M_1223\work\Singcom\Drivers\lcd.c
                 __pa_110   0x0060ac    program     static C:\firmware\70M_L_upconverter_SXY\70M_1223\work\Microchip\TCPIP Stack\HTTP2.c
                 __pa_110   0x009658    program     static C:\firmware\70M_L_upconverter_SXY\70M_1223\work\App\WebUI\HTTPGetDevInfo.c
                 __pa_111   0x007ba8    program     static C:\firmware\70M_L_upconverter_SXY\70M_1223\work\Singcom\Drivers\lcd.c
                 __pa_111   0x0060b6    program     static C:\firmware\70M_L_upconverter_SXY\70M_1223\work\Microchip\TCPIP Stack\HTTP2.c
                 __pa_111   0x003552    program     static C:\firmware\70M_L_upconverter_SXY\70M_1223\work\Microchip\TCPIP Stack\TCP.c
                 __pa_111   0x009660    program     static C:\firmware\70M_L_upconverter_SXY\70M_1223\work\App\WebUI\HTTPGetDevInfo.c
                 __pa_112   0x007bb4    program     static C:\firmware\70M_L_upconverter_SXY\70M_1223\work\Singcom\Drivers\lcd.c
                 __pa_112   0x0060be    program     static C:\firmware\70M_L_upconverter_SXY\70M_1223\work\Microchip\TCPIP Stack\HTTP2.c
                 __pa_112   0x003560    program     static C:\firmware\70M_L_upconverter_SXY\70M_1223\work\Microchip\TCPIP Stack\TCP.c
                 __pa_112   0x009668    program     static C:\firmware\70M_L_upconverter_SXY\70M_1223\work\App\WebUI\HTTPGetDevInfo.c
                 __pa_113   0x007bba    program     static C:\firmware\70M_L_upconverter_SXY\70M_1223\work\Singcom\Drivers\lcd.c
                 __pa_113   0x003568    program     static C:\firmware\70M_L_upconverter_SXY\70M_1223\work\Microchip\TCPIP Stack\TCP.c
                 __pa_113   0x009676    program     static C:\firmware\70M_L_upconverter_SXY\70M_1223\work\App\WebUI\HTTPGetDevInfo.c
                 __pa_113   0x0060cc    program     static C:\firmware\70M_L_upconverter_SXY\70M_1223\work\Microchip\TCPIP Stack\HTTP2.c
                 __pa_114   0x009684    program     static C:\firmware\70M_L_upconverter_SXY\70M_1223\work\App\WebUI\HTTPGetDevInfo.c
                 __pa_114   0x003576    program     static C:\firmware\70M_L_upconverter_SXY\70M_1223\work\Microchip\TCPIP Stack\TCP.c
                 __pa_114   0x0060d2    program     static C:\firmware\70M_L_upconverter_SXY\70M_1223\work\Microchip\TCPIP Stack\HTTP2.c
                 __pa_114   0x007bc4    program     static C:\firmware\70M_L_upconverter_SXY\70M_1223\work\Singcom\Drivers\lcd.c
                 __pa_115   0x009692    program     static C:\firmware\70M_L_upconverter_SXY\70M_1223\work\App\WebUI\HTTPGetDevInfo.c
                 __pa_115   0x003584    program     static C:\firmware\70M_L_upconverter_SXY\70M_1223\work\Microchip\TCPIP Stack\TCP.c
                 __pa_115   0x0060d8    program     static C:\firmware\70M_L_upconverter_SXY\70M_1223\work\Microchip\TCPIP Stack\HTTP2.c
                 __pa_115   0x007bca    program     static C:\firmware\70M_L_upconverter_SXY\70M_1223\work\Singcom\Drivers\lcd.c
                 __pa_116   0x007bda    program     static C:\firmware\70M_L_upconverter_SXY\70M_1223\work\Singcom\Drivers\lcd.c
                 __pa_116   0x003592    program     static C:\firmware\70M_L_upconverter_SXY\70M_1223\work\Microchip\TCPIP Stack\TCP.c
                 __pa_116   0x0096a0    program     static C:\firmware\70M_L_upconverter_SXY\70M_1223\work\App\WebUI\HTTPGetDevInfo.c
                 __pa_116   0x0060e4    program     static C:\firmware\70M_L_upconverter_SXY\70M_1223\work\Microchip\TCPIP Stack\HTTP2.c
                 __pa_117   0x007be4    program     static C:\firmware\70M_L_upconverter_SXY\70M_1223\work\Singcom\Drivers\lcd.c
                 __pa_117   0x0096aa    program     static C:\firmware\70M_L_upconverter_SXY\70M_1223\work\App\WebUI\HTTPGetDevInfo.c
                 __pa_117   0x0060f0    program     static C:\firmware\70M_L_upconverter_SXY\70M_1223\work\Microchip\TCPIP Stack\HTTP2.c
                 __pa_117   0x00359c    program     static C:\firmware\70M_L_upconverter_SXY\70M_1223\work\Microchip\TCPIP Stack\TCP.c
                 __pa_118   0x0096b2    program     static C:\firmware\70M_L_upconverter_SXY\70M_1223\work\App\WebUI\HTTPGetDevInfo.c
                 __pa_118   0x0060fe    program     static C:\firmware\70M_L_upconverter_SXY\70M_1223\work\Microchip\TCPIP Stack\HTTP2.c
                 __pa_118   0x0035a6    program     static C:\firmware\70M_L_upconverter_SXY\70M_1223\work\Microchip\TCPIP Stack\TCP.c
                 __pa_118   0x007bee    program     static C:\firmware\70M_L_upconverter_SXY\70M_1223\work\Singcom\Drivers\lcd.c
                 __pa_119   0x007bf8    program     static C:\firmware\70M_L_upconverter_SXY\70M_1223\work\Singcom\Drivers\lcd.c
                 __pa_119   0x00610c    program     static C:\firmware\70M_L_upconverter_SXY\70M_1223\work\Microchip\TCPIP Stack\HTTP2.c
                 __pa_119   0x0096ba    program     static C:\firmware\70M_L_upconverter_SXY\70M_1223\work\App\WebUI\HTTPGetDevInfo.c
                 __pa_119   0x0035b0    program     static C:\firmware\70M_L_upconverter_SXY\70M_1223\work\Microchip\TCPIP Stack\TCP.c
                  __pa_12   0x00d136    program     static C:\firmware\70M_L_upconverter_SXY\70M_1223\work\Microchip\TCPIP Stack\Helpers.c
                  __pa_12   0x00a2da    program     static C:\firmware\70M_L_upconverter_SXY\70M_1223\work\SysLib\util.c
                  __pa_12   0x005be0    program     static C:\firmware\70M_L_upconverter_SXY\70M_1223\work\Microchip\TCPIP Stack\HTTP2.c
                  __pa_12   0x00e93a    program     static C:\firmware\70M_L_upconverter_SXY\70M_1223\work\Microchip\TCPIP Stack\ETH97J60.c
                  __pa_12   0x002ede    program     static C:\firmware\70M_L_upconverter_SXY\70M_1223\work\Microchip\TCPIP Stack\TCP.c
                  __pa_12   0x00909c    program     static C:\firmware\70M_L_upconverter_SXY\70M_1223\work\App\WebUI\HTTPGetDevInfo.c
                  __pa_12   0x00768c    program     static C:\firmware\70M_L_upconverter_SXY\70M_1223\work\Singcom\Drivers\lcd.c
                  __pa_12   0x00fc0a    program     static C:\firmware\70M_L_upconverter_SXY\70M_1223\work\App\WebUI\HTTPApp.c
                  __pa_12   0x01216a    program     static C:\firmware\70M_L_upconverter_SXY\70M_1223\work\Singcom\Drivers\i2c_c1.c
                  __pa_12   0x00b21a    program     static C:\firmware\70M_L_upconverter_SXY\70M_1223\work\Microchip\TCPIP Stack\MPFS2.c
                  __pa_12   0x00c15a    program     static C:\firmware\70M_L_upconverter_SXY\70M_1223\work\App\WebUI\HTTPPrint.c
                  __pa_12   0x00dc7c    program     static C:\Program Files\mcc18\src\traditional\stdclib\vfprintf.c
                  __pa_12   0x011454    program     static C:\firmware\70M_L_upconverter_SXY\70M_1223\work\Singcom\Devices\MainControl_c1.c
                 __pa_120   0x007c00    program     static C:\firmware\70M_L_upconverter_SXY\70M_1223\work\Singcom\Drivers\lcd.c
                 __pa_120   0x0096ce    program     static C:\firmware\70M_L_upconverter_SXY\70M_1223\work\App\WebUI\HTTPGetDevInfo.c
                 __pa_120   0x006114    program     static C:\firmware\70M_L_upconverter_SXY\70M_1223\work\Microchip\TCPIP Stack\HTTP2.c
                 __pa_120   0x0035ba    program     static C:\firmware\70M_L_upconverter_SXY\70M_1223\work\Microchip\TCPIP Stack\TCP.c
                 __pa_121   0x007c12    program     static C:\firmware\70M_L_upconverter_SXY\70M_1223\work\Singcom\Drivers\lcd.c
                 __pa_121   0x00611a    program     static C:\firmware\70M_L_upconverter_SXY\70M_1223\work\Microchip\TCPIP Stack\HTTP2.c
                 __pa_121   0x0035c4    program     static C:\firmware\70M_L_upconverter_SXY\70M_1223\work\Microchip\TCPIP Stack\TCP.c
                 __pa_121   0x0096d8    program     static C:\firmware\70M_L_upconverter_SXY\70M_1223\work\App\WebUI\HTTPGetDevInfo.c
                 __pa_122   0x007c24    program     static C:\firmware\70M_L_upconverter_SXY\70M_1223\work\Singcom\Drivers\lcd.c
                 __pa_122   0x0035cc    program     static C:\firmware\70M_L_upconverter_SXY\70M_1223\work\Microchip\TCPIP Stack\TCP.c
                 __pa_122   0x006124    program     static C:\firmware\70M_L_upconverter_SXY\70M_1223\work\Microchip\TCPIP Stack\HTTP2.c
                 __pa_122   0x0096e6    program     static C:\firmware\70M_L_upconverter_SXY\70M_1223\work\App\WebUI\HTTPGetDevInfo.c
                 __pa_123   0x007c2a    program     static C:\firmware\70M_L_upconverter_SXY\70M_1223\work\Singcom\Drivers\lcd.c
                 __pa_123   0x00612e    program     static C:\firmware\70M_L_upconverter_SXY\70M_1223\work\Microchip\TCPIP Stack\HTTP2.c
                 __pa_123   0x0035e0    program     static C:\firmware\70M_L_upconverter_SXY\70M_1223\work\Microchip\TCPIP Stack\TCP.c
                 __pa_124   0x0035f4    program     static C:\firmware\70M_L_upconverter_SXY\70M_1223\work\Microchip\TCPIP Stack\TCP.c
                 __pa_124   0x006138    program     static C:\firmware\70M_L_upconverter_SXY\70M_1223\work\Microchip\TCPIP Stack\HTTP2.c
                 __pa_124   0x007c32    program     static C:\firmware\70M_L_upconverter_SXY\70M_1223\work\Singcom\Drivers\lcd.c
                 __pa_125   0x003608    program     static C:\firmware\70M_L_upconverter_SXY\70M_1223\work\Microchip\TCPIP Stack\TCP.c
                 __pa_125   0x006140    program     static C:\firmware\70M_L_upconverter_SXY\70M_1223\work\Microchip\TCPIP Stack\HTTP2.c
                 __pa_125   0x007c40    program     static C:\firmware\70M_L_upconverter_SXY\70M_1223\work\Singcom\Drivers\lcd.c
                 __pa_126   0x006148    program     static C:\firmware\70M_L_upconverter_SXY\70M_1223\work\Microchip\TCPIP Stack\HTTP2.c
                 __pa_126   0x003610    program     static C:\firmware\70M_L_upconverter_SXY\70M_1223\work\Microchip\TCPIP Stack\TCP.c
                 __pa_126   0x007c4c    program     static C:\firmware\70M_L_upconverter_SXY\70M_1223\work\Singcom\Drivers\lcd.c
                 __pa_127   0x006150    program     static C:\firmware\70M_L_upconverter_SXY\70M_1223\work\Microchip\TCPIP Stack\HTTP2.c
                 __pa_127   0x00361a    program     static C:\firmware\70M_L_upconverter_SXY\70M_1223\work\Microchip\TCPIP Stack\TCP.c
                 __pa_127   0x007c54    program     static C:\firmware\70M_L_upconverter_SXY\70M_1223\work\Singcom\Drivers\lcd.c
                 __pa_128   0x007c5c    program     static C:\firmware\70M_L_upconverter_SXY\70M_1223\work\Singcom\Drivers\lcd.c
                 __pa_128   0x006156    program     static C:\firmware\70M_L_upconverter_SXY\70M_1223\work\Microchip\TCPIP Stack\HTTP2.c
                 __pa_128   0x00362c    program     static C:\firmware\70M_L_upconverter_SXY\70M_1223\work\Microchip\TCPIP Stack\TCP.c
                 __pa_129   0x007c66    program     static C:\firmware\70M_L_upconverter_SXY\70M_1223\work\Singcom\Drivers\lcd.c
                 __pa_129   0x00363e    program     static C:\firmware\70M_L_upconverter_SXY\70M_1223\work\Microchip\TCPIP Stack\TCP.c
                 __pa_129   0x006170    program     static C:\firmware\70M_L_upconverter_SXY\70M_1223\work\Microchip\TCPIP Stack\HTTP2.c
                  __pa_13   0x01145e    program     static C:\firmware\70M_L_upconverter_SXY\70M_1223\work\Singcom\Devices\MainControl_c1.c
                  __pa_13   0x00dc96    program     static C:\Program Files\mcc18\src\traditional\stdclib\vfprintf.c
                  __pa_13   0x0076a2    program     static C:\firmware\70M_L_upconverter_SXY\70M_1223\work\Singcom\Drivers\lcd.c
                  __pa_13   0x002ee6    program     static C:\firmware\70M_L_upconverter_SXY\70M_1223\work\Microchip\TCPIP Stack\TCP.c
                  __pa_13   0x005c06    program     static C:\firmware\70M_L_upconverter_SXY\70M_1223\work\Microchip\TCPIP Stack\HTTP2.c
                  __pa_13   0x00c16c    program     static C:\firmware\70M_L_upconverter_SXY\70M_1223\work\App\WebUI\HTTPPrint.c
                  __pa_13   0x00d146    program     static C:\firmware\70M_L_upconverter_SXY\70M_1223\work\Microchip\TCPIP Stack\Helpers.c
                  __pa_13   0x00a30e    program     static C:\firmware\70M_L_upconverter_SXY\70M_1223\work\SysLib\util.c
                  __pa_13   0x012174    program     static C:\firmware\70M_L_upconverter_SXY\70M_1223\work\Singcom\Drivers\i2c_c1.c
                  __pa_13   0x00e948    program     static C:\firmware\70M_L_upconverter_SXY\70M_1223\work\Microchip\TCPIP Stack\ETH97J60.c
                  __pa_13   0x00fc18    program     static C:\firmware\70M_L_upconverter_SXY\70M_1223\work\App\WebUI\HTTPApp.c
                  __pa_13   0x0090bc    program     static C:\firmware\70M_L_upconverter_SXY\70M_1223\work\App\WebUI\HTTPGetDevInfo.c
                  __pa_13   0x00b224    program     static C:\firmware\70M_L_upconverter_SXY\70M_1223\work\Microchip\TCPIP Stack\MPFS2.c
                 __pa_130   0x006178    program     static C:\firmware\70M_L_upconverter_SXY\70M_1223\work\Microchip\TCPIP Stack\HTTP2.c
                 __pa_130   0x003650    program     static C:\firmware\70M_L_upconverter_SXY\70M_1223\work\Microchip\TCPIP Stack\TCP.c
                 __pa_130   0x007c72    program     static C:\firmware\70M_L_upconverter_SXY\70M_1223\work\Singcom\Drivers\lcd.c
                 __pa_131   0x00617e    program     static C:\firmware\70M_L_upconverter_SXY\70M_1223\work\Microchip\TCPIP Stack\HTTP2.c
                 __pa_131   0x003662    program     static C:\firmware\70M_L_upconverter_SXY\70M_1223\work\Microchip\TCPIP Stack\TCP.c
                 __pa_131   0x007c7e    program     static C:\firmware\70M_L_upconverter_SXY\70M_1223\work\Singcom\Drivers\lcd.c
                 __pa_132   0x006184    program     static C:\firmware\70M_L_upconverter_SXY\70M_1223\work\Microchip\TCPIP Stack\HTTP2.c
                 __pa_132   0x003674    program     static C:\firmware\70M_L_upconverter_SXY\70M_1223\work\Microchip\TCPIP Stack\TCP.c
                 __pa_132   0x007c8c    program     static C:\firmware\70M_L_upconverter_SXY\70M_1223\work\Singcom\Drivers\lcd.c
                 __pa_133   0x006194    program     static C:\firmware\70M_L_upconverter_SXY\70M_1223\work\Microchip\TCPIP Stack\HTTP2.c
                 __pa_133   0x007c94    program     static C:\firmware\70M_L_upconverter_SXY\70M_1223\work\Singcom\Drivers\lcd.c
                 __pa_133   0x003686    program     static C:\firmware\70M_L_upconverter_SXY\70M_1223\work\Microchip\TCPIP Stack\TCP.c
                 __pa_134   0x00619e    program     static C:\firmware\70M_L_upconverter_SXY\70M_1223\work\Microchip\TCPIP Stack\HTTP2.c
                 __pa_134   0x007c9a    program     static C:\firmware\70M_L_upconverter_SXY\70M_1223\work\Singcom\Drivers\lcd.c
                 __pa_134   0x003698    program     static C:\firmware\70M_L_upconverter_SXY\70M_1223\work\Microchip\TCPIP Stack\TCP.c
                 __pa_135   0x0036aa    program     static C:\firmware\70M_L_upconverter_SXY\70M_1223\work\Microchip\TCPIP Stack\TCP.c
                 __pa_135   0x007ca2    program     static C:\firmware\70M_L_upconverter_SXY\70M_1223\work\Singcom\Drivers\lcd.c
                 __pa_135   0x0061ae    program     static C:\firmware\70M_L_upconverter_SXY\70M_1223\work\Microchip\TCPIP Stack\HTTP2.c
                 __pa_136   0x0036bc    program     static C:\firmware\70M_L_upconverter_SXY\70M_1223\work\Microchip\TCPIP Stack\TCP.c
                 __pa_136   0x007cac    program     static C:\firmware\70M_L_upconverter_SXY\70M_1223\work\Singcom\Drivers\lcd.c
                 __pa_136   0x0061ba    program     static C:\firmware\70M_L_upconverter_SXY\70M_1223\work\Microchip\TCPIP Stack\HTTP2.c
                 __pa_137   0x0061c4    program     static C:\firmware\70M_L_upconverter_SXY\70M_1223\work\Microchip\TCPIP Stack\HTTP2.c
                 __pa_137   0x0036c4    program     static C:\firmware\70M_L_upconverter_SXY\70M_1223\work\Microchip\TCPIP Stack\TCP.c
                 __pa_137   0x007cb6    program     static C:\firmware\70M_L_upconverter_SXY\70M_1223\work\Singcom\Drivers\lcd.c
                 __pa_138   0x0036d2    program     static C:\firmware\70M_L_upconverter_SXY\70M_1223\work\Microchip\TCPIP Stack\TCP.c
                 __pa_138   0x0061d4    program     static C:\firmware\70M_L_upconverter_SXY\70M_1223\work\Microchip\TCPIP Stack\HTTP2.c
                 __pa_138   0x007cbe    program     static C:\firmware\70M_L_upconverter_SXY\70M_1223\work\Singcom\Drivers\lcd.c
                 __pa_139   0x0061de    program     static C:\firmware\70M_L_upconverter_SXY\70M_1223\work\Microchip\TCPIP Stack\HTTP2.c
                 __pa_139   0x0036de    program     static C:\firmware\70M_L_upconverter_SXY\70M_1223\work\Microchip\TCPIP Stack\TCP.c
                 __pa_139   0x007cc6    program     static C:\firmware\70M_L_upconverter_SXY\70M_1223\work\Singcom\Drivers\lcd.c
                  __pa_14   0x00dcae    program     static C:\Program Files\mcc18\src\traditional\stdclib\vfprintf.c
                  __pa_14   0x00c176    program     static C:\firmware\70M_L_upconverter_SXY\70M_1223\work\App\WebUI\HTTPPrint.c
                  __pa_14   0x002ef2    program     static C:\firmware\70M_L_upconverter_SXY\70M_1223\work\Microchip\TCPIP Stack\TCP.c
                  __pa_14   0x005c0e    program     static C:\firmware\70M_L_upconverter_SXY\70M_1223\work\Microchip\TCPIP Stack\HTTP2.c
                  __pa_14   0x00a320    program     static C:\firmware\70M_L_upconverter_SXY\70M_1223\work\SysLib\util.c
                  __pa_14   0x00e956    program     static C:\firmware\70M_L_upconverter_SXY\70M_1223\work\Microchip\TCPIP Stack\ETH97J60.c
                  __pa_14   0x00d15e    program     static C:\firmware\70M_L_upconverter_SXY\70M_1223\work\Microchip\TCPIP Stack\Helpers.c
                  __pa_14   0x00fc20    program     static C:\firmware\70M_L_upconverter_SXY\70M_1223\work\App\WebUI\HTTPApp.c
                  __pa_14   0x00b238    program     static C:\firmware\70M_L_upconverter_SXY\70M_1223\work\Microchip\TCPIP Stack\MPFS2.c
                  __pa_14   0x01146c    program     static C:\firmware\70M_L_upconverter_SXY\70M_1223\work\Singcom\Devices\MainControl_c1.c
                  __pa_14   0x0076b0    program     static C:\firmware\70M_L_upconverter_SXY\70M_1223\work\Singcom\Drivers\lcd.c
                  __pa_14   0x0090d8    program     static C:\firmware\70M_L_upconverter_SXY\70M_1223\work\App\WebUI\HTTPGetDevInfo.c
                 __pa_140   0x0061ea    program     static C:\firmware\70M_L_upconverter_SXY\70M_1223\work\Microchip\TCPIP Stack\HTTP2.c
                 __pa_140   0x007cd0    program     static C:\firmware\70M_L_upconverter_SXY\70M_1223\work\Singcom\Drivers\lcd.c
                 __pa_140   0x0036ea    program     static C:\firmware\70M_L_upconverter_SXY\70M_1223\work\Microchip\TCPIP Stack\TCP.c
                 __pa_141   0x0061f4    program     static C:\firmware\70M_L_upconverter_SXY\70M_1223\work\Microchip\TCPIP Stack\HTTP2.c
                 __pa_141   0x0036f4    program     static C:\firmware\70M_L_upconverter_SXY\70M_1223\work\Microchip\TCPIP Stack\TCP.c
                 __pa_142   0x0036fe    program     static C:\firmware\70M_L_upconverter_SXY\70M_1223\work\Microchip\TCPIP Stack\TCP.c
                 __pa_142   0x006202    program     static C:\firmware\70M_L_upconverter_SXY\70M_1223\work\Microchip\TCPIP Stack\HTTP2.c
                 __pa_143   0x003708    program     static C:\firmware\70M_L_upconverter_SXY\70M_1223\work\Microchip\TCPIP Stack\TCP.c
                 __pa_143   0x006210    program     static C:\firmware\70M_L_upconverter_SXY\70M_1223\work\Microchip\TCPIP Stack\HTTP2.c
                 __pa_144   0x003718    program     static C:\firmware\70M_L_upconverter_SXY\70M_1223\work\Microchip\TCPIP Stack\TCP.c
                 __pa_144   0x00621c    program     static C:\firmware\70M_L_upconverter_SXY\70M_1223\work\Microchip\TCPIP Stack\HTTP2.c
                 __pa_145   0x003728    program     static C:\firmware\70M_L_upconverter_SXY\70M_1223\work\Microchip\TCPIP Stack\TCP.c
                 __pa_145   0x006224    program     static C:\firmware\70M_L_upconverter_SXY\70M_1223\work\Microchip\TCPIP Stack\HTTP2.c
                 __pa_146   0x003738    program     static C:\firmware\70M_L_upconverter_SXY\70M_1223\work\Microchip\TCPIP Stack\TCP.c
                 __pa_146   0x00622a    program     static C:\firmware\70M_L_upconverter_SXY\70M_1223\work\Microchip\TCPIP Stack\HTTP2.c
                 __pa_147   0x006230    program     static C:\firmware\70M_L_upconverter_SXY\70M_1223\work\Microchip\TCPIP Stack\HTTP2.c
                 __pa_147   0x003748    program     static C:\firmware\70M_L_upconverter_SXY\70M_1223\work\Microchip\TCPIP Stack\TCP.c
                 __pa_148   0x006238    program     static C:\firmware\70M_L_upconverter_SXY\70M_1223\work\Microchip\TCPIP Stack\HTTP2.c
                 __pa_148   0x003758    program     static C:\firmware\70M_L_upconverter_SXY\70M_1223\work\Microchip\TCPIP Stack\TCP.c
                 __pa_149   0x006240    program     static C:\firmware\70M_L_upconverter_SXY\70M_1223\work\Microchip\TCPIP Stack\HTTP2.c
                 __pa_149   0x00375e    program     static C:\firmware\70M_L_upconverter_SXY\70M_1223\work\Microchip\TCPIP Stack\TCP.c
                  __pa_15   0x00e964    program     static C:\firmware\70M_L_upconverter_SXY\70M_1223\work\Microchip\TCPIP Stack\ETH97J60.c
                  __pa_15   0x0090e0    program     static C:\firmware\70M_L_upconverter_SXY\70M_1223\work\App\WebUI\HTTPGetDevInfo.c
                  __pa_15   0x0076be    program     static C:\firmware\70M_L_upconverter_SXY\70M_1223\work\Singcom\Drivers\lcd.c
                  __pa_15   0x00d174    program     static C:\firmware\70M_L_upconverter_SXY\70M_1223\work\Microchip\TCPIP Stack\Helpers.c
                  __pa_15   0x002efc    program     static C:\firmware\70M_L_upconverter_SXY\70M_1223\work\Microchip\TCPIP Stack\TCP.c
                  __pa_15   0x011472    program     static C:\firmware\70M_L_upconverter_SXY\70M_1223\work\Singcom\Devices\MainControl_c1.c
                  __pa_15   0x00c17e    program     static C:\firmware\70M_L_upconverter_SXY\70M_1223\work\App\WebUI\HTTPPrint.c
                  __pa_15   0x00b24a    program     static C:\firmware\70M_L_upconverter_SXY\70M_1223\work\Microchip\TCPIP Stack\MPFS2.c
                  __pa_15   0x005c16    program     static C:\firmware\70M_L_upconverter_SXY\70M_1223\work\Microchip\TCPIP Stack\HTTP2.c
                  __pa_15   0x00fc28    program     static C:\firmware\70M_L_upconverter_SXY\70M_1223\work\App\WebUI\HTTPApp.c
                  __pa_15   0x00a328    program     static C:\firmware\70M_L_upconverter_SXY\70M_1223\work\SysLib\util.c
                  __pa_15   0x00dcbe    program     static C:\Program Files\mcc18\src\traditional\stdclib\vfprintf.c
                 __pa_150   0x00376c    program     static C:\firmware\70M_L_upconverter_SXY\70M_1223\work\Microchip\TCPIP Stack\TCP.c
                 __pa_150   0x00624a    program     static C:\firmware\70M_L_upconverter_SXY\70M_1223\work\Microchip\TCPIP Stack\HTTP2.c
                 __pa_151   0x00377a    program     static C:\firmware\70M_L_upconverter_SXY\70M_1223\work\Microchip\TCPIP Stack\TCP.c
                 __pa_152   0x003788    program     static C:\firmware\70M_L_upconverter_SXY\70M_1223\work\Microchip\TCPIP Stack\TCP.c
                 __pa_153   0x003796    program     static C:\firmware\70M_L_upconverter_SXY\70M_1223\work\Microchip\TCPIP Stack\TCP.c
                 __pa_154   0x0037a4    program     static C:\firmware\70M_L_upconverter_SXY\70M_1223\work\Microchip\TCPIP Stack\TCP.c
                 __pa_155   0x0037b2    program     static C:\firmware\70M_L_upconverter_SXY\70M_1223\work\Microchip\TCPIP Stack\TCP.c
                 __pa_156   0x0037c0    program     static C:\firmware\70M_L_upconverter_SXY\70M_1223\work\Microchip\TCPIP Stack\TCP.c
                 __pa_157   0x0037ce    program     static C:\firmware\70M_L_upconverter_SXY\70M_1223\work\Microchip\TCPIP Stack\TCP.c
                 __pa_158   0x0037dc    program     static C:\firmware\70M_L_upconverter_SXY\70M_1223\work\Microchip\TCPIP Stack\TCP.c
                 __pa_159   0x0037ea    program     static C:\firmware\70M_L_upconverter_SXY\70M_1223\work\Microchip\TCPIP Stack\TCP.c
                  __pa_16   0x00c194    program     static C:\firmware\70M_L_upconverter_SXY\70M_1223\work\App\WebUI\HTTPPrint.c
                  __pa_16   0x00b270    program     static C:\firmware\70M_L_upconverter_SXY\70M_1223\work\Microchip\TCPIP Stack\MPFS2.c
                  __pa_16   0x00fc30    program     static C:\firmware\70M_L_upconverter_SXY\70M_1223\work\App\WebUI\HTTPApp.c
                  __pa_16   0x00d17e    program     static C:\firmware\70M_L_upconverter_SXY\70M_1223\work\Microchip\TCPIP Stack\Helpers.c
                  __pa_16   0x01147c    program     static C:\firmware\70M_L_upconverter_SXY\70M_1223\work\Singcom\Devices\MainControl_c1.c
                  __pa_16   0x005c24    program     static C:\firmware\70M_L_upconverter_SXY\70M_1223\work\Microchip\TCPIP Stack\HTTP2.c
                  __pa_16   0x00a35a    program     static C:\firmware\70M_L_upconverter_SXY\70M_1223\work\SysLib\util.c
                  __pa_16   0x00e972    program     static C:\firmware\70M_L_upconverter_SXY\70M_1223\work\Microchip\TCPIP Stack\ETH97J60.c
                  __pa_16   0x002f06    program     static C:\firmware\70M_L_upconverter_SXY\70M_1223\work\Microchip\TCPIP Stack\TCP.c
                  __pa_16   0x0090f6    program     static C:\firmware\70M_L_upconverter_SXY\70M_1223\work\App\WebUI\HTTPGetDevInfo.c
                  __pa_16   0x00dcd4    program     static C:\Program Files\mcc18\src\traditional\stdclib\vfprintf.c
                  __pa_16   0x0076d0    program     static C:\firmware\70M_L_upconverter_SXY\70M_1223\work\Singcom\Drivers\lcd.c
                 __pa_160   0x0037f8    program     static C:\firmware\70M_L_upconverter_SXY\70M_1223\work\Microchip\TCPIP Stack\TCP.c
                 __pa_161   0x003806    program     static C:\firmware\70M_L_upconverter_SXY\70M_1223\work\Microchip\TCPIP Stack\TCP.c
                 __pa_162   0x003814    program     static C:\firmware\70M_L_upconverter_SXY\70M_1223\work\Microchip\TCPIP Stack\TCP.c
                 __pa_163   0x003822    program     static C:\firmware\70M_L_upconverter_SXY\70M_1223\work\Microchip\TCPIP Stack\TCP.c
                 __pa_164   0x003830    program     static C:\firmware\70M_L_upconverter_SXY\70M_1223\work\Microchip\TCPIP Stack\TCP.c
                 __pa_165   0x00383a    program     static C:\firmware\70M_L_upconverter_SXY\70M_1223\work\Microchip\TCPIP Stack\TCP.c
                 __pa_166   0x003844    program     static C:\firmware\70M_L_upconverter_SXY\70M_1223\work\Microchip\TCPIP Stack\TCP.c
                 __pa_167   0x00384e    program     static C:\firmware\70M_L_upconverter_SXY\70M_1223\work\Microchip\TCPIP Stack\TCP.c
                 __pa_168   0x003858    program     static C:\firmware\70M_L_upconverter_SXY\70M_1223\work\Microchip\TCPIP Stack\TCP.c
                 __pa_169   0x003862    program     static C:\firmware\70M_L_upconverter_SXY\70M_1223\work\Microchip\TCPIP Stack\TCP.c
                  __pa_17   0x00e980    program     static C:\firmware\70M_L_upconverter_SXY\70M_1223\work\Microchip\TCPIP Stack\ETH97J60.c
                  __pa_17   0x00c1ac    program     static C:\firmware\70M_L_upconverter_SXY\70M_1223\work\App\WebUI\HTTPPrint.c
                  __pa_17   0x00a36c    program     static C:\firmware\70M_L_upconverter_SXY\70M_1223\work\SysLib\util.c
                  __pa_17   0x002f12    program     static C:\firmware\70M_L_upconverter_SXY\70M_1223\work\Microchip\TCPIP Stack\TCP.c
                  __pa_17   0x005c2e    program     static C:\firmware\70M_L_upconverter_SXY\70M_1223\work\Microchip\TCPIP Stack\HTTP2.c
                  __pa_17   0x00dce6    program     static C:\Program Files\mcc18\src\traditional\stdclib\vfprintf.c
                  __pa_17   0x00fc3e    program     static C:\firmware\70M_L_upconverter_SXY\70M_1223\work\App\WebUI\HTTPApp.c
                  __pa_17   0x0076e6    program     static C:\firmware\70M_L_upconverter_SXY\70M_1223\work\Singcom\Drivers\lcd.c
                  __pa_17   0x00d190    program     static C:\firmware\70M_L_upconverter_SXY\70M_1223\work\Microchip\TCPIP Stack\Helpers.c
                  __pa_17   0x011484    program     static C:\firmware\70M_L_upconverter_SXY\70M_1223\work\Singcom\Devices\MainControl_c1.c
                  __pa_17   0x00912c    program     static C:\firmware\70M_L_upconverter_SXY\70M_1223\work\App\WebUI\HTTPGetDevInfo.c
                  __pa_17   0x00b28a    program     static C:\firmware\70M_L_upconverter_SXY\70M_1223\work\Microchip\TCPIP Stack\MPFS2.c
                 __pa_170   0x00386c    program     static C:\firmware\70M_L_upconverter_SXY\70M_1223\work\Microchip\TCPIP Stack\TCP.c
                 __pa_171   0x003876    program     static C:\firmware\70M_L_upconverter_SXY\70M_1223\work\Microchip\TCPIP Stack\TCP.c
                 __pa_172   0x003880    program     static C:\firmware\70M_L_upconverter_SXY\70M_1223\work\Microchip\TCPIP Stack\TCP.c
                 __pa_173   0x003888    program     static C:\firmware\70M_L_upconverter_SXY\70M_1223\work\Microchip\TCPIP Stack\TCP.c
                 __pa_174   0x003892    program     static C:\firmware\70M_L_upconverter_SXY\70M_1223\work\Microchip\TCPIP Stack\TCP.c
                 __pa_175   0x0038a0    program     static C:\firmware\70M_L_upconverter_SXY\70M_1223\work\Microchip\TCPIP Stack\TCP.c
                 __pa_176   0x0038c8    program     static C:\firmware\70M_L_upconverter_SXY\70M_1223\work\Microchip\TCPIP Stack\TCP.c
                 __pa_177   0x0038d6    program     static C:\firmware\70M_L_upconverter_SXY\70M_1223\work\Microchip\TCPIP Stack\TCP.c
                 __pa_178   0x0038de    program     static C:\firmware\70M_L_upconverter_SXY\70M_1223\work\Microchip\TCPIP Stack\TCP.c
                 __pa_179   0x0038e8    program     static C:\firmware\70M_L_upconverter_SXY\70M_1223\work\Microchip\TCPIP Stack\TCP.c
                  __pa_18   0x00b29e    program     static C:\firmware\70M_L_upconverter_SXY\70M_1223\work\Microchip\TCPIP Stack\MPFS2.c
                  __pa_18   0x0076f2    program     static C:\firmware\70M_L_upconverter_SXY\70M_1223\work\Singcom\Drivers\lcd.c
                  __pa_18   0x00fc48    program     static C:\firmware\70M_L_upconverter_SXY\70M_1223\work\App\WebUI\HTTPApp.c
                  __pa_18   0x00c1b2    program     static C:\firmware\70M_L_upconverter_SXY\70M_1223\work\App\WebUI\HTTPPrint.c
                  __pa_18   0x011496    program     static C:\firmware\70M_L_upconverter_SXY\70M_1223\work\Singcom\Devices\MainControl_c1.c
                  __pa_18   0x00d1a0    program     static C:\firmware\70M_L_upconverter_SXY\70M_1223\work\Microchip\TCPIP Stack\Helpers.c
                  __pa_18   0x009144    program     static C:\firmware\70M_L_upconverter_SXY\70M_1223\work\App\WebUI\HTTPGetDevInfo.c
                  __pa_18   0x00e988    program     static C:\firmware\70M_L_upconverter_SXY\70M_1223\work\Microchip\TCPIP Stack\ETH97J60.c
                  __pa_18   0x00a378    program     static C:\firmware\70M_L_upconverter_SXY\70M_1223\work\SysLib\util.c
                  __pa_18   0x002f20    program     static C:\firmware\70M_L_upconverter_SXY\70M_1223\work\Microchip\TCPIP Stack\TCP.c
                  __pa_18   0x005c3e    program     static C:\firmware\70M_L_upconverter_SXY\70M_1223\work\Microchip\TCPIP Stack\HTTP2.c
                  __pa_18   0x00dcf8    program     static C:\Program Files\mcc18\src\traditional\stdclib\vfprintf.c
                 __pa_180   0x0038f6    program     static C:\firmware\70M_L_upconverter_SXY\70M_1223\work\Microchip\TCPIP Stack\TCP.c
                 __pa_181   0x003900    program     static C:\firmware\70M_L_upconverter_SXY\70M_1223\work\Microchip\TCPIP Stack\TCP.c
                 __pa_182   0x00390e    program     static C:\firmware\70M_L_upconverter_SXY\70M_1223\work\Microchip\TCPIP Stack\TCP.c
                 __pa_183   0x00391a    program     static C:\firmware\70M_L_upconverter_SXY\70M_1223\work\Microchip\TCPIP Stack\TCP.c
                 __pa_184   0x003924    program     static C:\firmware\70M_L_upconverter_SXY\70M_1223\work\Microchip\TCPIP Stack\TCP.c
                 __pa_185   0x003934    program     static C:\firmware\70M_L_upconverter_SXY\70M_1223\work\Microchip\TCPIP Stack\TCP.c
                 __pa_186   0x00393e    program     static C:\firmware\70M_L_upconverter_SXY\70M_1223\work\Microchip\TCPIP Stack\TCP.c
                 __pa_187   0x00395c    program     static C:\firmware\70M_L_upconverter_SXY\70M_1223\work\Microchip\TCPIP Stack\TCP.c
                 __pa_188   0x003972    program     static C:\firmware\70M_L_upconverter_SXY\70M_1223\work\Microchip\TCPIP Stack\TCP.c
                 __pa_189   0x003988    program     static C:\firmware\70M_L_upconverter_SXY\70M_1223\work\Microchip\TCPIP Stack\TCP.c
                  __pa_19   0x002f2a    program     static C:\firmware\70M_L_upconverter_SXY\70M_1223\work\Microchip\TCPIP Stack\TCP.c
                  __pa_19   0x00a386    program     static C:\firmware\70M_L_upconverter_SXY\70M_1223\work\SysLib\util.c
                  __pa_19   0x005c4c    program     static C:\firmware\70M_L_upconverter_SXY\70M_1223\work\Microchip\TCPIP Stack\HTTP2.c
                  __pa_19   0x00e992    program     static C:\firmware\70M_L_upconverter_SXY\70M_1223\work\Microchip\TCPIP Stack\ETH97J60.c
                  __pa_19   0x0076fe    program     static C:\firmware\70M_L_upconverter_SXY\70M_1223\work\Singcom\Drivers\lcd.c
                  __pa_19   0x009158    program     static C:\firmware\70M_L_upconverter_SXY\70M_1223\work\App\WebUI\HTTPGetDevInfo.c
                  __pa_19   0x00c1c2    program     static C:\firmware\70M_L_upconverter_SXY\70M_1223\work\App\WebUI\HTTPPrint.c
                  __pa_19   0x0114a8    program     static C:\firmware\70M_L_upconverter_SXY\70M_1223\work\Singcom\Devices\MainControl_c1.c
                  __pa_19   0x00b2a8    program     static C:\firmware\70M_L_upconverter_SXY\70M_1223\work\Microchip\TCPIP Stack\MPFS2.c
                  __pa_19   0x00fc52    program     static C:\firmware\70M_L_upconverter_SXY\70M_1223\work\App\WebUI\HTTPApp.c
                  __pa_19   0x00d1b0    program     static C:\firmware\70M_L_upconverter_SXY\70M_1223\work\Microchip\TCPIP Stack\Helpers.c
                  __pa_19   0x00dd02    program     static C:\Program Files\mcc18\src\traditional\stdclib\vfprintf.c
                 __pa_190   0x0039a4    program     static C:\firmware\70M_L_upconverter_SXY\70M_1223\work\Microchip\TCPIP Stack\TCP.c
                 __pa_191   0x0039c0    program     static C:\firmware\70M_L_upconverter_SXY\70M_1223\work\Microchip\TCPIP Stack\TCP.c
                 __pa_192   0x0039cc    program     static C:\firmware\70M_L_upconverter_SXY\70M_1223\work\Microchip\TCPIP Stack\TCP.c
                 __pa_193   0x0039da    program     static C:\firmware\70M_L_upconverter_SXY\70M_1223\work\Microchip\TCPIP Stack\TCP.c
                 __pa_194   0x0039e4    program     static C:\firmware\70M_L_upconverter_SXY\70M_1223\work\Microchip\TCPIP Stack\TCP.c
                 __pa_195   0x0039ee    program     static C:\firmware\70M_L_upconverter_SXY\70M_1223\work\Microchip\TCPIP Stack\TCP.c
                 __pa_196   0x0039f6    program     static C:\firmware\70M_L_upconverter_SXY\70M_1223\work\Microchip\TCPIP Stack\TCP.c
                 __pa_197   0x003a00    program     static C:\firmware\70M_L_upconverter_SXY\70M_1223\work\Microchip\TCPIP Stack\TCP.c
                 __pa_198   0x003a0a    program     static C:\firmware\70M_L_upconverter_SXY\70M_1223\work\Microchip\TCPIP Stack\TCP.c
                 __pa_199   0x003a14    program     static C:\firmware\70M_L_upconverter_SXY\70M_1223\work\Microchip\TCPIP Stack\TCP.c
                   __pa_2   0x00a1ee    program     static C:\firmware\70M_L_upconverter_SXY\70M_1223\work\SysLib\util.c
                   __pa_2   0x00c0c4    program     static C:\firmware\70M_L_upconverter_SXY\70M_1223\work\App\WebUI\HTTPPrint.c
                   __pa_2   0x0120ca    program     static C:\firmware\70M_L_upconverter_SXY\70M_1223\work\Singcom\Drivers\i2c_c1.c
                   __pa_2   0x01240c    program     static C:\firmware\70M_L_upconverter_SXY\70M_1223\work\Singcom\Drivers\oled_c1.c
                   __pa_2   0x011b18    program     static C:\firmware\70M_L_upconverter_SXY\70M_1223\work\Microchip\TCPIP Stack\IP.c
                   __pa_2   0x012c80    program     static C:\firmware\70M_L_upconverter_SXY\70M_1223\work\Drivers\External-Peripherals\devadc.c
                   __pa_2   0x005b3c    program     static C:\firmware\70M_L_upconverter_SXY\70M_1223\work\Microchip\TCPIP Stack\HTTP2.c
                   __pa_2   0x00b15a    program     static C:\firmware\70M_L_upconverter_SXY\70M_1223\work\Microchip\TCPIP Stack\MPFS2.c
                   __pa_2   0x011e1a    program     static C:\firmware\70M_L_upconverter_SXY\70M_1223\work\Microchip\TCPIP Stack\SPIEEPROM.c
                   __pa_2   0x007614    program     static C:\firmware\70M_L_upconverter_SXY\70M_1223\work\Singcom\Drivers\lcd.c
                   __pa_2   0x0132d0    program     static C:\firmware\70M_L_upconverter_SXY\70M_1223\work\Microchip\TCPIP Stack\ICMP.c
                   __pa_2   0x00dbae    program     static C:\Program Files\mcc18\src\traditional\stdclib\vfprintf.c
                   __pa_2   0x0117cc    program     static C:\firmware\70M_L_upconverter_SXY\70M_1223\work\Bootstrap\Initialization.c
                   __pa_2   0x0134c2    program     static C:\firmware\70M_L_upconverter_SXY\70M_1223\work\Microchip\TCPIP Stack\UART.c
                   __pa_2   0x010be8    program     static C:\firmware\70M_L_upconverter_SXY\70M_1223\work\Microchip\TCPIP Stack\ARP.c
                   __pa_2   0x0113ea    program     static C:\firmware\70M_L_upconverter_SXY\70M_1223\work\Singcom\Devices\MainControl_c1.c
                   __pa_2   0x0133de    program     static C:\firmware\70M_L_upconverter_SXY\70M_1223\work\Microchip\TCPIP Stack\Tick.c
                   __pa_2   0x008fa2    program     static C:\firmware\70M_L_upconverter_SXY\70M_1223\work\App\WebUI\HTTPGetDevInfo.c
                   __pa_2   0x012b10    program     static C:\firmware\70M_L_upconverter_SXY\70M_1223\work\Microchip\TCPIP Stack\StackTsk.c
                   __pa_2   0x002d96    program     static C:\firmware\70M_L_upconverter_SXY\70M_1223\work\Microchip\TCPIP Stack\TCP.c
                   __pa_2   0x00fb8a    program     static C:\firmware\70M_L_upconverter_SXY\70M_1223\work\App\WebUI\HTTPApp.c
                   __pa_2   0x00e8aa    program     static C:\firmware\70M_L_upconverter_SXY\70M_1223\work\Microchip\TCPIP Stack\ETH97J60.c
                   __pa_2   0x00d052    program     static C:\firmware\70M_L_upconverter_SXY\70M_1223\work\Microchip\TCPIP Stack\Helpers.c
                   __pa_2   0x012e86    program     static C:\firmware\70M_L_upconverter_SXY\70M_1223\work\Drivers\MCU-Internal\ISR.c
                  __pa_20   0x007708    program     static C:\firmware\70M_L_upconverter_SXY\70M_1223\work\Singcom\Drivers\lcd.c
                  __pa_20   0x00e99c    program     static C:\firmware\70M_L_upconverter_SXY\70M_1223\work\Microchip\TCPIP Stack\ETH97J60.c
                  __pa_20   0x002f46    program     static C:\firmware\70M_L_upconverter_SXY\70M_1223\work\Microchip\TCPIP Stack\TCP.c
                  __pa_20   0x00fc5c    program     static C:\firmware\70M_L_upconverter_SXY\70M_1223\work\App\WebUI\HTTPApp.c
                  __pa_20   0x00a3a0    program     static C:\firmware\70M_L_upconverter_SXY\70M_1223\work\SysLib\util.c
                  __pa_20   0x00dd12    program     static C:\Program Files\mcc18\src\traditional\stdclib\vfprintf.c
                  __pa_20   0x00916c    program     static C:\firmware\70M_L_upconverter_SXY\70M_1223\work\App\WebUI\HTTPGetDevInfo.c
                  __pa_20   0x005c52    program     static C:\firmware\70M_L_upconverter_SXY\70M_1223\work\Microchip\TCPIP Stack\HTTP2.c
                  __pa_20   0x00d1c0    program     static C:\firmware\70M_L_upconverter_SXY\70M_1223\work\Microchip\TCPIP Stack\Helpers.c
                  __pa_20   0x00c1c8    program     static C:\firmware\70M_L_upconverter_SXY\70M_1223\work\App\WebUI\HTTPPrint.c
                  __pa_20   0x00b2b6    program     static C:\firmware\70M_L_upconverter_SXY\70M_1223\work\Microchip\TCPIP Stack\MPFS2.c
                  __pa_20   0x0114b8    program     static C:\firmware\70M_L_upconverter_SXY\70M_1223\work\Singcom\Devices\MainControl_c1.c
                 __pa_200   0x003a1e    program     static C:\firmware\70M_L_upconverter_SXY\70M_1223\work\Microchip\TCPIP Stack\TCP.c
                 __pa_201   0x003a34    program     static C:\firmware\70M_L_upconverter_SXY\70M_1223\work\Microchip\TCPIP Stack\TCP.c
                 __pa_202   0x003a40    program     static C:\firmware\70M_L_upconverter_SXY\70M_1223\work\Microchip\TCPIP Stack\TCP.c
                 __pa_203   0x003a4c    program     static C:\firmware\70M_L_upconverter_SXY\70M_1223\work\Microchip\TCPIP Stack\TCP.c
                 __pa_204   0x003a52    program     static C:\firmware\70M_L_upconverter_SXY\70M_1223\work\Microchip\TCPIP Stack\TCP.c
                 __pa_205   0x003a5e    program     static C:\firmware\70M_L_upconverter_SXY\70M_1223\work\Microchip\TCPIP Stack\TCP.c
                 __pa_206   0x003a72    program     static C:\firmware\70M_L_upconverter_SXY\70M_1223\work\Microchip\TCPIP Stack\TCP.c
                 __pa_207   0x003a86    program     static C:\firmware\70M_L_upconverter_SXY\70M_1223\work\Microchip\TCPIP Stack\TCP.c
                 __pa_208   0x003a94    program     static C:\firmware\70M_L_upconverter_SXY\70M_1223\work\Microchip\TCPIP Stack\TCP.c
                 __pa_209   0x003a9e    program     static C:\firmware\70M_L_upconverter_SXY\70M_1223\work\Microchip\TCPIP Stack\TCP.c
                  __pa_21   0x00dd22    program     static C:\Program Files\mcc18\src\traditional\stdclib\vfprintf.c
                  __pa_21   0x00fc6c    program     static C:\firmware\70M_L_upconverter_SXY\70M_1223\work\App\WebUI\HTTPApp.c
                  __pa_21   0x00b2d8    program     static C:\firmware\70M_L_upconverter_SXY\70M_1223\work\Microchip\TCPIP Stack\MPFS2.c
                  __pa_21   0x00d1c8    program     static C:\firmware\70M_L_upconverter_SXY\70M_1223\work\Microchip\TCPIP Stack\Helpers.c
                  __pa_21   0x0114c6    program     static C:\firmware\70M_L_upconverter_SXY\70M_1223\work\Singcom\Devices\MainControl_c1.c
                  __pa_21   0x00e9b4    program     static C:\firmware\70M_L_upconverter_SXY\70M_1223\work\Microchip\TCPIP Stack\ETH97J60.c
                  __pa_21   0x00c1d6    program     static C:\firmware\70M_L_upconverter_SXY\70M_1223\work\App\WebUI\HTTPPrint.c
                  __pa_21   0x005c5c    program     static C:\firmware\70M_L_upconverter_SXY\70M_1223\work\Microchip\TCPIP Stack\HTTP2.c
                  __pa_21   0x00a3ba    program     static C:\firmware\70M_L_upconverter_SXY\70M_1223\work\SysLib\util.c
                  __pa_21   0x007712    program     static C:\firmware\70M_L_upconverter_SXY\70M_1223\work\Singcom\Drivers\lcd.c
                  __pa_21   0x002f52    program     static C:\firmware\70M_L_upconverter_SXY\70M_1223\work\Microchip\TCPIP Stack\TCP.c
                  __pa_21   0x00917c    program     static C:\firmware\70M_L_upconverter_SXY\70M_1223\work\App\WebUI\HTTPGetDevInfo.c
                 __pa_210   0x003aa6    program     static C:\firmware\70M_L_upconverter_SXY\70M_1223\work\Microchip\TCPIP Stack\TCP.c
                 __pa_211   0x003ab0    program     static C:\firmware\70M_L_upconverter_SXY\70M_1223\work\Microchip\TCPIP Stack\TCP.c
                 __pa_212   0x003aba    program     static C:\firmware\70M_L_upconverter_SXY\70M_1223\work\Microchip\TCPIP Stack\TCP.c
                 __pa_213   0x003ac2    program     static C:\firmware\70M_L_upconverter_SXY\70M_1223\work\Microchip\TCPIP Stack\TCP.c
                 __pa_214   0x003ad0    program     static C:\firmware\70M_L_upconverter_SXY\70M_1223\work\Microchip\TCPIP Stack\TCP.c
                 __pa_215   0x003ada    program     static C:\firmware\70M_L_upconverter_SXY\70M_1223\work\Microchip\TCPIP Stack\TCP.c
                 __pa_216   0x003ae6    program     static C:\firmware\70M_L_upconverter_SXY\70M_1223\work\Microchip\TCPIP Stack\TCP.c
                 __pa_217   0x003af8    program     static C:\firmware\70M_L_upconverter_SXY\70M_1223\work\Microchip\TCPIP Stack\TCP.c
                 __pa_218   0x003afe    program     static C:\firmware\70M_L_upconverter_SXY\70M_1223\work\Microchip\TCPIP Stack\TCP.c
                 __pa_219   0x003b06    program     static C:\firmware\70M_L_upconverter_SXY\70M_1223\work\Microchip\TCPIP Stack\TCP.c
                  __pa_22   0x00771e    program     static C:\firmware\70M_L_upconverter_SXY\70M_1223\work\Singcom\Drivers\lcd.c
                  __pa_22   0x00918c    program     static C:\firmware\70M_L_upconverter_SXY\70M_1223\work\App\WebUI\HTTPGetDevInfo.c
                  __pa_22   0x005c66    program     static C:\firmware\70M_L_upconverter_SXY\70M_1223\work\Microchip\TCPIP Stack\HTTP2.c
                  __pa_22   0x00b2f8    program     static C:\firmware\70M_L_upconverter_SXY\70M_1223\work\Microchip\TCPIP Stack\MPFS2.c
                  __pa_22   0x0114d4    program     static C:\firmware\70M_L_upconverter_SXY\70M_1223\work\Singcom\Devices\MainControl_c1.c
                  __pa_22   0x00a3c4    program     static C:\firmware\70M_L_upconverter_SXY\70M_1223\work\SysLib\util.c
                  __pa_22   0x00fc78    program     static C:\firmware\70M_L_upconverter_SXY\70M_1223\work\App\WebUI\HTTPApp.c
                  __pa_22   0x00e9bc    program     static C:\firmware\70M_L_upconverter_SXY\70M_1223\work\Microchip\TCPIP Stack\ETH97J60.c
                  __pa_22   0x00c1e2    program     static C:\firmware\70M_L_upconverter_SXY\70M_1223\work\App\WebUI\HTTPPrint.c
                  __pa_22   0x00d1d6    program     static C:\firmware\70M_L_upconverter_SXY\70M_1223\work\Microchip\TCPIP Stack\Helpers.c
                  __pa_22   0x00dd32    program     static C:\Program Files\mcc18\src\traditional\stdclib\vfprintf.c
                  __pa_22   0x002f60    program     static C:\firmware\70M_L_upconverter_SXY\70M_1223\work\Microchip\TCPIP Stack\TCP.c
                 __pa_220   0x003b18    program     static C:\firmware\70M_L_upconverter_SXY\70M_1223\work\Microchip\TCPIP Stack\TCP.c
                 __pa_221   0x003b26    program     static C:\firmware\70M_L_upconverter_SXY\70M_1223\work\Microchip\TCPIP Stack\TCP.c
                 __pa_222   0x003b30    program     static C:\firmware\70M_L_upconverter_SXY\70M_1223\work\Microchip\TCPIP Stack\TCP.c
                 __pa_223   0x003b3a    program     static C:\firmware\70M_L_upconverter_SXY\70M_1223\work\Microchip\TCPIP Stack\TCP.c
                 __pa_224   0x003b44    program     static C:\firmware\70M_L_upconverter_SXY\70M_1223\work\Microchip\TCPIP Stack\TCP.c
                 __pa_225   0x003b4c    program     static C:\firmware\70M_L_upconverter_SXY\70M_1223\work\Microchip\TCPIP Stack\TCP.c
                 __pa_226   0x003b56    program     static C:\firmware\70M_L_upconverter_SXY\70M_1223\work\Microchip\TCPIP Stack\TCP.c
                 __pa_227   0x003b60    program     static C:\firmware\70M_L_upconverter_SXY\70M_1223\work\Microchip\TCPIP Stack\TCP.c
                 __pa_228   0x003b68    program     static C:\firmware\70M_L_upconverter_SXY\70M_1223\work\Microchip\TCPIP Stack\TCP.c
                 __pa_229   0x003b72    program     static C:\firmware\70M_L_upconverter_SXY\70M_1223\work\Microchip\TCPIP Stack\TCP.c
                  __pa_23   0x00a3ce    program     static C:\firmware\70M_L_upconverter_SXY\70M_1223\work\SysLib\util.c
                  __pa_23   0x002f7e    program     static C:\firmware\70M_L_upconverter_SXY\70M_1223\work\Microchip\TCPIP Stack\TCP.c
                  __pa_23   0x00fc82    program     static C:\firmware\70M_L_upconverter_SXY\70M_1223\work\App\WebUI\HTTPApp.c
                  __pa_23   0x00919c    program     static C:\firmware\70M_L_upconverter_SXY\70M_1223\work\App\WebUI\HTTPGetDevInfo.c
                  __pa_23   0x00c1ee    program     static C:\firmware\70M_L_upconverter_SXY\70M_1223\work\App\WebUI\HTTPPrint.c
                  __pa_23   0x005c7a    program     static C:\firmware\70M_L_upconverter_SXY\70M_1223\work\Microchip\TCPIP Stack\HTTP2.c
                  __pa_23   0x00b30a    program     static C:\firmware\70M_L_upconverter_SXY\70M_1223\work\Microchip\TCPIP Stack\MPFS2.c
                  __pa_23   0x00d1e4    program     static C:\firmware\70M_L_upconverter_SXY\70M_1223\work\Microchip\TCPIP Stack\Helpers.c
                  __pa_23   0x00e9ca    program     static C:\firmware\70M_L_upconverter_SXY\70M_1223\work\Microchip\TCPIP Stack\ETH97J60.c
                  __pa_23   0x00772e    program     static C:\firmware\70M_L_upconverter_SXY\70M_1223\work\Singcom\Drivers\lcd.c
                  __pa_23   0x00dd3e    program     static C:\Program Files\mcc18\src\traditional\stdclib\vfprintf.c
                 __pa_230   0x003b80    program     static C:\firmware\70M_L_upconverter_SXY\70M_1223\work\Microchip\TCPIP Stack\TCP.c
                 __pa_231   0x003b90    program     static C:\firmware\70M_L_upconverter_SXY\70M_1223\work\Microchip\TCPIP Stack\TCP.c
                 __pa_232   0x003ba0    program     static C:\firmware\70M_L_upconverter_SXY\70M_1223\work\Microchip\TCPIP Stack\TCP.c
                 __pa_233   0x003bae    program     static C:\firmware\70M_L_upconverter_SXY\70M_1223\work\Microchip\TCPIP Stack\TCP.c
                 __pa_234   0x003bbc    program     static C:\firmware\70M_L_upconverter_SXY\70M_1223\work\Microchip\TCPIP Stack\TCP.c
                 __pa_235   0x003bc8    program     static C:\firmware\70M_L_upconverter_SXY\70M_1223\work\Microchip\TCPIP Stack\TCP.c
                 __pa_236   0x003bd4    program     static C:\firmware\70M_L_upconverter_SXY\70M_1223\work\Microchip\TCPIP Stack\TCP.c
                 __pa_237   0x003bde    program     static C:\firmware\70M_L_upconverter_SXY\70M_1223\work\Microchip\TCPIP Stack\TCP.c
                 __pa_238   0x003bea    program     static C:\firmware\70M_L_upconverter_SXY\70M_1223\work\Microchip\TCPIP Stack\TCP.c
                 __pa_239   0x003bf8    program     static C:\firmware\70M_L_upconverter_SXY\70M_1223\work\Microchip\TCPIP Stack\TCP.c
                  __pa_24   0x00fc88    program     static C:\firmware\70M_L_upconverter_SXY\70M_1223\work\App\WebUI\HTTPApp.c
                  __pa_24   0x00d1f8    program     static C:\firmware\70M_L_upconverter_SXY\70M_1223\work\Microchip\TCPIP Stack\Helpers.c
                  __pa_24   0x00b31c    program     static C:\firmware\70M_L_upconverter_SXY\70M_1223\work\Microchip\TCPIP Stack\MPFS2.c
                  __pa_24   0x002f88    program     static C:\firmware\70M_L_upconverter_SXY\70M_1223\work\Microchip\TCPIP Stack\TCP.c
                  __pa_24   0x00a3e2    program     static C:\firmware\70M_L_upconverter_SXY\70M_1223\work\SysLib\util.c
                  __pa_24   0x005c86    program     static C:\firmware\70M_L_upconverter_SXY\70M_1223\work\Microchip\TCPIP Stack\HTTP2.c
                  __pa_24   0x00c208    program     static C:\firmware\70M_L_upconverter_SXY\70M_1223\work\App\WebUI\HTTPPrint.c
                  __pa_24   0x0091a6    program     static C:\firmware\70M_L_upconverter_SXY\70M_1223\work\App\WebUI\HTTPGetDevInfo.c
                  __pa_24   0x00e9d2    program     static C:\firmware\70M_L_upconverter_SXY\70M_1223\work\Microchip\TCPIP Stack\ETH97J60.c
                  __pa_24   0x00773a    program     static C:\firmware\70M_L_upconverter_SXY\70M_1223\work\Singcom\Drivers\lcd.c
                  __pa_24   0x00dd4c    program     static C:\Program Files\mcc18\src\traditional\stdclib\vfprintf.c
                 __pa_240   0x003c06    program     static C:\firmware\70M_L_upconverter_SXY\70M_1223\work\Microchip\TCPIP Stack\TCP.c
                 __pa_241   0x003c14    program     static C:\firmware\70M_L_upconverter_SXY\70M_1223\work\Microchip\TCPIP Stack\TCP.c
                 __pa_242   0x003c22    program     static C:\firmware\70M_L_upconverter_SXY\70M_1223\work\Microchip\TCPIP Stack\TCP.c
                 __pa_243   0x003c30    program     static C:\firmware\70M_L_upconverter_SXY\70M_1223\work\Microchip\TCPIP Stack\TCP.c
                 __pa_244   0x003c3e    program     static C:\firmware\70M_L_upconverter_SXY\70M_1223\work\Microchip\TCPIP Stack\TCP.c
                 __pa_245   0x003c4c    program     static C:\firmware\70M_L_upconverter_SXY\70M_1223\work\Microchip\TCPIP Stack\TCP.c
                 __pa_246   0x003c5a    program     static C:\firmware\70M_L_upconverter_SXY\70M_1223\work\Microchip\TCPIP Stack\TCP.c
                 __pa_247   0x003c68    program     static C:\firmware\70M_L_upconverter_SXY\70M_1223\work\Microchip\TCPIP Stack\TCP.c
                 __pa_248   0x003c76    program     static C:\firmware\70M_L_upconverter_SXY\70M_1223\work\Microchip\TCPIP Stack\TCP.c
                 __pa_249   0x003c84    program     static C:\firmware\70M_L_upconverter_SXY\70M_1223\work\Microchip\TCPIP Stack\TCP.c
                  __pa_25   0x00a3f0    program     static C:\firmware\70M_L_upconverter_SXY\70M_1223\work\SysLib\util.c
                  __pa_25   0x005c8c    program     static C:\firmware\70M_L_upconverter_SXY\70M_1223\work\Microchip\TCPIP Stack\HTTP2.c
                  __pa_25   0x00b32a    program     static C:\firmware\70M_L_upconverter_SXY\70M_1223\work\Microchip\TCPIP Stack\MPFS2.c
                  __pa_25   0x00dd54    program     static C:\Program Files\mcc18\src\traditional\stdclib\vfprintf.c
                  __pa_25   0x0091ae    program     static C:\firmware\70M_L_upconverter_SXY\70M_1223\work\App\WebUI\HTTPGetDevInfo.c
                  __pa_25   0x00775e    program     static C:\firmware\70M_L_upconverter_SXY\70M_1223\work\Singcom\Drivers\lcd.c
                  __pa_25   0x002f92    program     static C:\firmware\70M_L_upconverter_SXY\70M_1223\work\Microchip\TCPIP Stack\TCP.c
                  __pa_25   0x00d202    program     static C:\firmware\70M_L_upconverter_SXY\70M_1223\work\Microchip\TCPIP Stack\Helpers.c
                  __pa_25   0x00e9e2    program     static C:\firmware\70M_L_upconverter_SXY\70M_1223\work\Microchip\TCPIP Stack\ETH97J60.c
                  __pa_25   0x00c214    program     static C:\firmware\70M_L_upconverter_SXY\70M_1223\work\App\WebUI\HTTPPrint.c
                 __pa_250   0x003c92    program     static C:\firmware\70M_L_upconverter_SXY\70M_1223\work\Microchip\TCPIP Stack\TCP.c
                 __pa_251   0x003c9a    program     static C:\firmware\70M_L_upconverter_SXY\70M_1223\work\Microchip\TCPIP Stack\TCP.c
                 __pa_252   0x003ca4    program     static C:\firmware\70M_L_upconverter_SXY\70M_1223\work\Microchip\TCPIP Stack\TCP.c
                 __pa_253   0x003cae    program     static C:\firmware\70M_L_upconverter_SXY\70M_1223\work\Microchip\TCPIP Stack\TCP.c
                 __pa_254   0x003cb8    program     static C:\firmware\70M_L_upconverter_SXY\70M_1223\work\Microchip\TCPIP Stack\TCP.c
                 __pa_255   0x003cc2    program     static C:\firmware\70M_L_upconverter_SXY\70M_1223\work\Microchip\TCPIP Stack\TCP.c
                 __pa_256   0x003cca    program     static C:\firmware\70M_L_upconverter_SXY\70M_1223\work\Microchip\TCPIP Stack\TCP.c
                 __pa_257   0x003cd4    program     static C:\firmware\70M_L_upconverter_SXY\70M_1223\work\Microchip\TCPIP Stack\TCP.c
                 __pa_258   0x003cde    program     static C:\firmware\70M_L_upconverter_SXY\70M_1223\work\Microchip\TCPIP Stack\TCP.c
                 __pa_259   0x003ce8    program     static C:\firmware\70M_L_upconverter_SXY\70M_1223\work\Microchip\TCPIP Stack\TCP.c
                  __pa_26   0x00dd5e    program     static C:\Program Files\mcc18\src\traditional\stdclib\vfprintf.c
                  __pa_26   0x00c220    program     static C:\firmware\70M_L_upconverter_SXY\70M_1223\work\App\WebUI\HTTPPrint.c
                  __pa_26   0x00b346    program     static C:\firmware\70M_L_upconverter_SXY\70M_1223\work\Microchip\TCPIP Stack\MPFS2.c
                  __pa_26   0x00776c    program     static C:\firmware\70M_L_upconverter_SXY\70M_1223\work\Singcom\Drivers\lcd.c
                  __pa_26   0x00e9ee    program     static C:\firmware\70M_L_upconverter_SXY\70M_1223\work\Microchip\TCPIP Stack\ETH97J60.c
                  __pa_26   0x002f9e    program     static C:\firmware\70M_L_upconverter_SXY\70M_1223\work\Microchip\TCPIP Stack\TCP.c
                  __pa_26   0x005c92    program     static C:\firmware\70M_L_upconverter_SXY\70M_1223\work\Microchip\TCPIP Stack\HTTP2.c
                  __pa_26   0x0091bc    program     static C:\firmware\70M_L_upconverter_SXY\70M_1223\work\App\WebUI\HTTPGetDevInfo.c
                  __pa_26   0x00a402    program     static C:\firmware\70M_L_upconverter_SXY\70M_1223\work\SysLib\util.c
                  __pa_26   0x00d210    program     static C:\firmware\70M_L_upconverter_SXY\70M_1223\work\Microchip\TCPIP Stack\Helpers.c
                 __pa_260   0x003cf2    program     static C:\firmware\70M_L_upconverter_SXY\70M_1223\work\Microchip\TCPIP Stack\TCP.c
                 __pa_261   0x003cfa    program     static C:\firmware\70M_L_upconverter_SXY\70M_1223\work\Microchip\TCPIP Stack\TCP.c
                 __pa_262   0x003d06    program     static C:\firmware\70M_L_upconverter_SXY\70M_1223\work\Microchip\TCPIP Stack\TCP.c
                 __pa_263   0x003d16    program     static C:\firmware\70M_L_upconverter_SXY\70M_1223\work\Microchip\TCPIP Stack\TCP.c
                 __pa_264   0x003d20    program     static C:\firmware\70M_L_upconverter_SXY\70M_1223\work\Microchip\TCPIP Stack\TCP.c
                 __pa_265   0x003d32    program     static C:\firmware\70M_L_upconverter_SXY\70M_1223\work\Microchip\TCPIP Stack\TCP.c
                 __pa_266   0x003d42    program     static C:\firmware\70M_L_upconverter_SXY\70M_1223\work\Microchip\TCPIP Stack\TCP.c
                 __pa_267   0x003d50    program     static C:\firmware\70M_L_upconverter_SXY\70M_1223\work\Microchip\TCPIP Stack\TCP.c
                 __pa_268   0x003d56    program     static C:\firmware\70M_L_upconverter_SXY\70M_1223\work\Microchip\TCPIP Stack\TCP.c
                 __pa_269   0x003d64    program     static C:\firmware\70M_L_upconverter_SXY\70M_1223\work\Microchip\TCPIP Stack\TCP.c
                  __pa_27   0x005c98    program     static C:\firmware\70M_L_upconverter_SXY\70M_1223\work\Microchip\TCPIP Stack\HTTP2.c
                  __pa_27   0x00b360    program     static C:\firmware\70M_L_upconverter_SXY\70M_1223\work\Microchip\TCPIP Stack\MPFS2.c
                  __pa_27   0x0091d4    program     static C:\firmware\70M_L_upconverter_SXY\70M_1223\work\App\WebUI\HTTPGetDevInfo.c
                  __pa_27   0x002fb4    program     static C:\firmware\70M_L_upconverter_SXY\70M_1223\work\Microchip\TCPIP Stack\TCP.c
                  __pa_27   0x00a410    program     static C:\firmware\70M_L_upconverter_SXY\70M_1223\work\SysLib\util.c
                  __pa_27   0x00c22a    program     static C:\firmware\70M_L_upconverter_SXY\70M_1223\work\App\WebUI\HTTPPrint.c
                  __pa_27   0x00e9fc    program     static C:\firmware\70M_L_upconverter_SXY\70M_1223\work\Microchip\TCPIP Stack\ETH97J60.c
                  __pa_27   0x00d21e    program     static C:\firmware\70M_L_upconverter_SXY\70M_1223\work\Microchip\TCPIP Stack\Helpers.c
                  __pa_27   0x00777a    program     static C:\firmware\70M_L_upconverter_SXY\70M_1223\work\Singcom\Drivers\lcd.c
                  __pa_27   0x00dd68    program     static C:\Program Files\mcc18\src\traditional\stdclib\vfprintf.c
                 __pa_270   0x003d6c    program     static C:\firmware\70M_L_upconverter_SXY\70M_1223\work\Microchip\TCPIP Stack\TCP.c
                 __pa_271   0x003d76    program     static C:\firmware\70M_L_upconverter_SXY\70M_1223\work\Microchip\TCPIP Stack\TCP.c
                 __pa_272   0x003d7e    program     static C:\firmware\70M_L_upconverter_SXY\70M_1223\work\Microchip\TCPIP Stack\TCP.c
                 __pa_273   0x003d86    program     static C:\firmware\70M_L_upconverter_SXY\70M_1223\work\Microchip\TCPIP Stack\TCP.c
                 __pa_274   0x003d92    program     static C:\firmware\70M_L_upconverter_SXY\70M_1223\work\Microchip\TCPIP Stack\TCP.c
                 __pa_275   0x003d9e    program     static C:\firmware\70M_L_upconverter_SXY\70M_1223\work\Microchip\TCPIP Stack\TCP.c
                 __pa_276   0x003daa    program     static C:\firmware\70M_L_upconverter_SXY\70M_1223\work\Microchip\TCPIP Stack\TCP.c
                 __pa_277   0x003db6    program     static C:\firmware\70M_L_upconverter_SXY\70M_1223\work\Microchip\TCPIP Stack\TCP.c
                 __pa_278   0x003dc2    program     static C:\firmware\70M_L_upconverter_SXY\70M_1223\work\Microchip\TCPIP Stack\TCP.c
                 __pa_279   0x003dca    program     static C:\firmware\70M_L_upconverter_SXY\70M_1223\work\Microchip\TCPIP Stack\TCP.c
                  __pa_28   0x005c9e    program     static C:\firmware\70M_L_upconverter_SXY\70M_1223\work\Microchip\TCPIP Stack\HTTP2.c
                  __pa_28   0x002fc2    program     static C:\firmware\70M_L_upconverter_SXY\70M_1223\work\Microchip\TCPIP Stack\TCP.c
                  __pa_28   0x0091e0    program     static C:\firmware\70M_L_upconverter_SXY\70M_1223\work\App\WebUI\HTTPGetDevInfo.c
                  __pa_28   0x00d22e    program     static C:\firmware\70M_L_upconverter_SXY\70M_1223\work\Microchip\TCPIP Stack\Helpers.c
                  __pa_28   0x00b37a    program     static C:\firmware\70M_L_upconverter_SXY\70M_1223\work\Microchip\TCPIP Stack\MPFS2.c
                  __pa_28   0x00a428    program     static C:\firmware\70M_L_upconverter_SXY\70M_1223\work\SysLib\util.c
                  __pa_28   0x00dd70    program     static C:\Program Files\mcc18\src\traditional\stdclib\vfprintf.c
                  __pa_28   0x007796    program     static C:\firmware\70M_L_upconverter_SXY\70M_1223\work\Singcom\Drivers\lcd.c
                  __pa_28   0x00ea0c    program     static C:\firmware\70M_L_upconverter_SXY\70M_1223\work\Microchip\TCPIP Stack\ETH97J60.c
                  __pa_28   0x00c236    program     static C:\firmware\70M_L_upconverter_SXY\70M_1223\work\App\WebUI\HTTPPrint.c
                 __pa_280   0x003dd2    program     static C:\firmware\70M_L_upconverter_SXY\70M_1223\work\Microchip\TCPIP Stack\TCP.c
                 __pa_281   0x003dda    program     static C:\firmware\70M_L_upconverter_SXY\70M_1223\work\Microchip\TCPIP Stack\TCP.c
                 __pa_282   0x003de2    program     static C:\firmware\70M_L_upconverter_SXY\70M_1223\work\Microchip\TCPIP Stack\TCP.c
                 __pa_283   0x003dec    program     static C:\firmware\70M_L_upconverter_SXY\70M_1223\work\Microchip\TCPIP Stack\TCP.c
                 __pa_284   0x003df4    program     static C:\firmware\70M_L_upconverter_SXY\70M_1223\work\Microchip\TCPIP Stack\TCP.c
                 __pa_285   0x003dfc    program     static C:\firmware\70M_L_upconverter_SXY\70M_1223\work\Microchip\TCPIP Stack\TCP.c
                 __pa_286   0x003e04    program     static C:\firmware\70M_L_upconverter_SXY\70M_1223\work\Microchip\TCPIP Stack\TCP.c
                 __pa_287   0x003e0c    program     static C:\firmware\70M_L_upconverter_SXY\70M_1223\work\Microchip\TCPIP Stack\TCP.c
                  __pa_29   0x00c23c    program     static C:\firmware\70M_L_upconverter_SXY\70M_1223\work\App\WebUI\HTTPPrint.c
                  __pa_29   0x00b394    program     static C:\firmware\70M_L_upconverter_SXY\70M_1223\work\Microchip\TCPIP Stack\MPFS2.c
                  __pa_29   0x005ca8    program     static C:\firmware\70M_L_upconverter_SXY\70M_1223\work\Microchip\TCPIP Stack\HTTP2.c
                  __pa_29   0x00920a    program     static C:\firmware\70M_L_upconverter_SXY\70M_1223\work\App\WebUI\HTTPGetDevInfo.c
                  __pa_29   0x00d23c    program     static C:\firmware\70M_L_upconverter_SXY\70M_1223\work\Microchip\TCPIP Stack\Helpers.c
                  __pa_29   0x002fd0    program     static C:\firmware\70M_L_upconverter_SXY\70M_1223\work\Microchip\TCPIP Stack\TCP.c
                  __pa_29   0x00ea16    program     static C:\firmware\70M_L_upconverter_SXY\70M_1223\work\Microchip\TCPIP Stack\ETH97J60.c
                  __pa_29   0x0077ac    program     static C:\firmware\70M_L_upconverter_SXY\70M_1223\work\Singcom\Drivers\lcd.c
                  __pa_29   0x00a434    program     static C:\firmware\70M_L_upconverter_SXY\70M_1223\work\SysLib\util.c
                  __pa_29   0x00dd7e    program     static C:\Program Files\mcc18\src\traditional\stdclib\vfprintf.c
                   __pa_3   0x010bf4    program     static C:\firmware\70M_L_upconverter_SXY\70M_1223\work\Microchip\TCPIP Stack\ARP.c
                   __pa_3   0x0113f6    program     static C:\firmware\70M_L_upconverter_SXY\70M_1223\work\Singcom\Devices\MainControl_c1.c
                   __pa_3   0x00fb98    program     static C:\firmware\70M_L_upconverter_SXY\70M_1223\work\App\WebUI\HTTPApp.c
                   __pa_3   0x0117dc    program     static C:\firmware\70M_L_upconverter_SXY\70M_1223\work\Bootstrap\Initialization.c
                   __pa_3   0x01241a    program     static C:\firmware\70M_L_upconverter_SXY\70M_1223\work\Singcom\Drivers\oled_c1.c
                   __pa_3   0x00b15e    program     static C:\firmware\70M_L_upconverter_SXY\70M_1223\work\Microchip\TCPIP Stack\MPFS2.c
                   __pa_3   0x012c8c    program     static C:\firmware\70M_L_upconverter_SXY\70M_1223\work\Drivers\External-Peripherals\devadc.c
                   __pa_3   0x00c0de    program     static C:\firmware\70M_L_upconverter_SXY\70M_1223\work\App\WebUI\HTTPPrint.c
                   __pa_3   0x012e9e    program     static C:\firmware\70M_L_upconverter_SXY\70M_1223\work\Drivers\MCU-Internal\ISR.c
                   __pa_3   0x011e34    program     static C:\firmware\70M_L_upconverter_SXY\70M_1223\work\Microchip\TCPIP Stack\SPIEEPROM.c
                   __pa_3   0x00a1f4    program     static C:\firmware\70M_L_upconverter_SXY\70M_1223\work\SysLib\util.c
                   __pa_3   0x00d05e    program     static C:\firmware\70M_L_upconverter_SXY\70M_1223\work\Microchip\TCPIP Stack\Helpers.c
                   __pa_3   0x007626    program     static C:\firmware\70M_L_upconverter_SXY\70M_1223\work\Singcom\Drivers\lcd.c
                   __pa_3   0x0120ea    program     static C:\firmware\70M_L_upconverter_SXY\70M_1223\work\Singcom\Drivers\i2c_c1.c
                   __pa_3   0x002da4    program     static C:\firmware\70M_L_upconverter_SXY\70M_1223\work\Microchip\TCPIP Stack\TCP.c
                   __pa_3   0x008fbe    program     static C:\firmware\70M_L_upconverter_SXY\70M_1223\work\App\WebUI\HTTPGetDevInfo.c
                   __pa_3   0x011b24    program     static C:\firmware\70M_L_upconverter_SXY\70M_1223\work\Microchip\TCPIP Stack\IP.c
                   __pa_3   0x00dbb8    program     static C:\Program Files\mcc18\src\traditional\stdclib\vfprintf.c
                   __pa_3   0x005b48    program     static C:\firmware\70M_L_upconverter_SXY\70M_1223\work\Microchip\TCPIP Stack\HTTP2.c
                   __pa_3   0x0134d2    program     static C:\firmware\70M_L_upconverter_SXY\70M_1223\work\Microchip\TCPIP Stack\UART.c
                   __pa_3   0x0133ea    program     static C:\firmware\70M_L_upconverter_SXY\70M_1223\work\Microchip\TCPIP Stack\Tick.c
                   __pa_3   0x00e8c8    program     static C:\firmware\70M_L_upconverter_SXY\70M_1223\work\Microchip\TCPIP Stack\ETH97J60.c
                  __pa_30   0x00d246    program     static C:\firmware\70M_L_upconverter_SXY\70M_1223\work\Microchip\TCPIP Stack\Helpers.c
                  __pa_30   0x005cb6    program     static C:\firmware\70M_L_upconverter_SXY\70M_1223\work\Microchip\TCPIP Stack\HTTP2.c
                  __pa_30   0x00ea20    program     static C:\firmware\70M_L_upconverter_SXY\70M_1223\work\Microchip\TCPIP Stack\ETH97J60.c
                  __pa_30   0x009214    program     static C:\firmware\70M_L_upconverter_SXY\70M_1223\work\App\WebUI\HTTPGetDevInfo.c
                  __pa_30   0x00a440    program     static C:\firmware\70M_L_upconverter_SXY\70M_1223\work\SysLib\util.c
                  __pa_30   0x0077ce    program     static C:\firmware\70M_L_upconverter_SXY\70M_1223\work\Singcom\Drivers\lcd.c
                  __pa_30   0x00b3a4    program     static C:\firmware\70M_L_upconverter_SXY\70M_1223\work\Microchip\TCPIP Stack\MPFS2.c
                  __pa_30   0x002fde    program     static C:\firmware\70M_L_upconverter_SXY\70M_1223\work\Microchip\TCPIP Stack\TCP.c
                  __pa_30   0x00c24a    program     static C:\firmware\70M_L_upconverter_SXY\70M_1223\work\App\WebUI\HTTPPrint.c
                  __pa_30   0x00dd9a    program     static C:\Program Files\mcc18\src\traditional\stdclib\vfprintf.c
                  __pa_31   0x00d24e    program     static C:\firmware\70M_L_upconverter_SXY\70M_1223\work\Microchip\TCPIP Stack\Helpers.c
                  __pa_31   0x00c25e    program     static C:\firmware\70M_L_upconverter_SXY\70M_1223\work\App\WebUI\HTTPPrint.c
                  __pa_31   0x00a44e    program     static C:\firmware\70M_L_upconverter_SXY\70M_1223\work\SysLib\util.c
                  __pa_31   0x009224    program     static C:\firmware\70M_L_upconverter_SXY\70M_1223\work\App\WebUI\HTTPGetDevInfo.c
                  __pa_31   0x00b3bc    program     static C:\firmware\70M_L_upconverter_SXY\70M_1223\work\Microchip\TCPIP Stack\MPFS2.c
                  __pa_31   0x00ea28    program     static C:\firmware\70M_L_upconverter_SXY\70M_1223\work\Microchip\TCPIP Stack\ETH97J60.c
                  __pa_31   0x0077d8    program     static C:\firmware\70M_L_upconverter_SXY\70M_1223\work\Singcom\Drivers\lcd.c
                  __pa_31   0x00ddb4    program     static C:\Program Files\mcc18\src\traditional\stdclib\vfprintf.c
                  __pa_31   0x002fea    program     static C:\firmware\70M_L_upconverter_SXY\70M_1223\work\Microchip\TCPIP Stack\TCP.c
                  __pa_31   0x005cc0    program     static C:\firmware\70M_L_upconverter_SXY\70M_1223\work\Microchip\TCPIP Stack\HTTP2.c
                  __pa_32   0x00922a    program     static C:\firmware\70M_L_upconverter_SXY\70M_1223\work\App\WebUI\HTTPGetDevInfo.c
                  __pa_32   0x00b3ce    program     static C:\firmware\70M_L_upconverter_SXY\70M_1223\work\Microchip\TCPIP Stack\MPFS2.c
                  __pa_32   0x002ff2    program     static C:\firmware\70M_L_upconverter_SXY\70M_1223\work\Microchip\TCPIP Stack\TCP.c
                  __pa_32   0x00c270    program     static C:\firmware\70M_L_upconverter_SXY\70M_1223\work\App\WebUI\HTTPPrint.c
                  __pa_32   0x00a45c    program     static C:\firmware\70M_L_upconverter_SXY\70M_1223\work\SysLib\util.c
                  __pa_32   0x005cd0    program     static C:\firmware\70M_L_upconverter_SXY\70M_1223\work\Microchip\TCPIP Stack\HTTP2.c
                  __pa_32   0x0077ec    program     static C:\firmware\70M_L_upconverter_SXY\70M_1223\work\Singcom\Drivers\lcd.c
                  __pa_32   0x00ddce    program     static C:\Program Files\mcc18\src\traditional\stdclib\vfprintf.c
                  __pa_33   0x00301c    program     static C:\firmware\70M_L_upconverter_SXY\70M_1223\work\Microchip\TCPIP Stack\TCP.c
                  __pa_33   0x005cde    program     static C:\firmware\70M_L_upconverter_SXY\70M_1223\work\Microchip\TCPIP Stack\HTTP2.c
                  __pa_33   0x00dde6    program     static C:\Program Files\mcc18\src\traditional\stdclib\vfprintf.c
                  __pa_33   0x00b3e4    program     static C:\firmware\70M_L_upconverter_SXY\70M_1223\work\Microchip\TCPIP Stack\MPFS2.c
                  __pa_33   0x0077f2    program     static C:\firmware\70M_L_upconverter_SXY\70M_1223\work\Singcom\Drivers\lcd.c
                  __pa_33   0x00c282    program     static C:\firmware\70M_L_upconverter_SXY\70M_1223\work\App\WebUI\HTTPPrint.c
                  __pa_33   0x009230    program     static C:\firmware\70M_L_upconverter_SXY\70M_1223\work\App\WebUI\HTTPGetDevInfo.c
                  __pa_33   0x00a470    program     static C:\firmware\70M_L_upconverter_SXY\70M_1223\work\SysLib\util.c
                  __pa_34   0x005cf2    program     static C:\firmware\70M_L_upconverter_SXY\70M_1223\work\Microchip\TCPIP Stack\HTTP2.c
                  __pa_34   0x0077f8    program     static C:\firmware\70M_L_upconverter_SXY\70M_1223\work\Singcom\Drivers\lcd.c
                  __pa_34   0x00923a    program     static C:\firmware\70M_L_upconverter_SXY\70M_1223\work\App\WebUI\HTTPGetDevInfo.c
                  __pa_34   0x003030    program     static C:\firmware\70M_L_upconverter_SXY\70M_1223\work\Microchip\TCPIP Stack\TCP.c
                  __pa_34   0x00b3f2    program     static C:\firmware\70M_L_upconverter_SXY\70M_1223\work\Microchip\TCPIP Stack\MPFS2.c
                  __pa_34   0x00a47c    program     static C:\firmware\70M_L_upconverter_SXY\70M_1223\work\SysLib\util.c
                  __pa_34   0x00c294    program     static C:\firmware\70M_L_upconverter_SXY\70M_1223\work\App\WebUI\HTTPPrint.c
                  __pa_34   0x00ddf0    program     static C:\Program Files\mcc18\src\traditional\stdclib\vfprintf.c
                  __pa_35   0x005d02    program     static C:\firmware\70M_L_upconverter_SXY\70M_1223\work\Microchip\TCPIP Stack\HTTP2.c
                  __pa_35   0x009248    program     static C:\firmware\70M_L_upconverter_SXY\70M_1223\work\App\WebUI\HTTPGetDevInfo.c
                  __pa_35   0x00a48e    program     static C:\firmware\70M_L_upconverter_SXY\70M_1223\work\SysLib\util.c
                  __pa_35   0x00ddfe    program     static C:\Program Files\mcc18\src\traditional\stdclib\vfprintf.c
                  __pa_35   0x007812    program     static C:\firmware\70M_L_upconverter_SXY\70M_1223\work\Singcom\Drivers\lcd.c
                  __pa_35   0x00c2a6    program     static C:\firmware\70M_L_upconverter_SXY\70M_1223\work\App\WebUI\HTTPPrint.c
                  __pa_35   0x00b400    program     static C:\firmware\70M_L_upconverter_SXY\70M_1223\work\Microchip\TCPIP Stack\MPFS2.c
                  __pa_35   0x00304c    program     static C:\firmware\70M_L_upconverter_SXY\70M_1223\work\Microchip\TCPIP Stack\TCP.c
                  __pa_36   0x00781c    program     static C:\firmware\70M_L_upconverter_SXY\70M_1223\work\Singcom\Drivers\lcd.c
                  __pa_36   0x00de06    program     static C:\Program Files\mcc18\src\traditional\stdclib\vfprintf.c
                  __pa_36   0x00b40e    program     static C:\firmware\70M_L_upconverter_SXY\70M_1223\work\Microchip\TCPIP Stack\MPFS2.c
                  __pa_36   0x00a496    program     static C:\firmware\70M_L_upconverter_SXY\70M_1223\work\SysLib\util.c
                  __pa_36   0x00c2b2    program     static C:\firmware\70M_L_upconverter_SXY\70M_1223\work\App\WebUI\HTTPPrint.c
                  __pa_36   0x009250    program     static C:\firmware\70M_L_upconverter_SXY\70M_1223\work\App\WebUI\HTTPGetDevInfo.c
                  __pa_36   0x003066    program     static C:\firmware\70M_L_upconverter_SXY\70M_1223\work\Microchip\TCPIP Stack\TCP.c
                  __pa_36   0x005d16    program     static C:\firmware\70M_L_upconverter_SXY\70M_1223\work\Microchip\TCPIP Stack\HTTP2.c
                  __pa_37   0x00b418    program     static C:\firmware\70M_L_upconverter_SXY\70M_1223\work\Microchip\TCPIP Stack\MPFS2.c
                  __pa_37   0x00c2bc    program     static C:\firmware\70M_L_upconverter_SXY\70M_1223\work\App\WebUI\HTTPPrint.c
                  __pa_37   0x009262    program     static C:\firmware\70M_L_upconverter_SXY\70M_1223\work\App\WebUI\HTTPGetDevInfo.c
                  __pa_37   0x00de10    program     static C:\Program Files\mcc18\src\traditional\stdclib\vfprintf.c
                  __pa_37   0x00306e    program     static C:\firmware\70M_L_upconverter_SXY\70M_1223\work\Microchip\TCPIP Stack\TCP.c
                  __pa_37   0x00a4a2    program     static C:\firmware\70M_L_upconverter_SXY\70M_1223\work\SysLib\util.c
                  __pa_37   0x007826    program     static C:\firmware\70M_L_upconverter_SXY\70M_1223\work\Singcom\Drivers\lcd.c
                  __pa_37   0x005d26    program     static C:\firmware\70M_L_upconverter_SXY\70M_1223\work\Microchip\TCPIP Stack\HTTP2.c
                  __pa_38   0x00b42a    program     static C:\firmware\70M_L_upconverter_SXY\70M_1223\work\Microchip\TCPIP Stack\MPFS2.c
                  __pa_38   0x00de20    program     static C:\Program Files\mcc18\src\traditional\stdclib\vfprintf.c
                  __pa_38   0x00a4ac    program     static C:\firmware\70M_L_upconverter_SXY\70M_1223\work\SysLib\util.c
                  __pa_38   0x00783a    program     static C:\firmware\70M_L_upconverter_SXY\70M_1223\work\Singcom\Drivers\lcd.c
                  __pa_38   0x005d34    program     static C:\firmware\70M_L_upconverter_SXY\70M_1223\work\Microchip\TCPIP Stack\HTTP2.c
                  __pa_38   0x009272    program     static C:\firmware\70M_L_upconverter_SXY\70M_1223\work\App\WebUI\HTTPGetDevInfo.c
                  __pa_38   0x00307e    program     static C:\firmware\70M_L_upconverter_SXY\70M_1223\work\Microchip\TCPIP Stack\TCP.c
                  __pa_38   0x00c2c2    program     static C:\firmware\70M_L_upconverter_SXY\70M_1223\work\App\WebUI\HTTPPrint.c
                  __pa_39   0x007846    program     static C:\firmware\70M_L_upconverter_SXY\70M_1223\work\Singcom\Drivers\lcd.c
                  __pa_39   0x00de2e    program     static C:\Program Files\mcc18\src\traditional\stdclib\vfprintf.c
                  __pa_39   0x00928e    program     static C:\firmware\70M_L_upconverter_SXY\70M_1223\work\App\WebUI\HTTPGetDevInfo.c
                  __pa_39   0x005d3c    program     static C:\firmware\70M_L_upconverter_SXY\70M_1223\work\Microchip\TCPIP Stack\HTTP2.c
                  __pa_39   0x00c2d2    program     static C:\firmware\70M_L_upconverter_SXY\70M_1223\work\App\WebUI\HTTPPrint.c
                  __pa_39   0x00308e    program     static C:\firmware\70M_L_upconverter_SXY\70M_1223\work\Microchip\TCPIP Stack\TCP.c
                  __pa_39   0x00b438    program     static C:\firmware\70M_L_upconverter_SXY\70M_1223\work\Microchip\TCPIP Stack\MPFS2.c
                  __pa_39   0x00a4ba    program     static C:\firmware\70M_L_upconverter_SXY\70M_1223\work\SysLib\util.c
                   __pa_4   0x011e44    program     static C:\firmware\70M_L_upconverter_SXY\70M_1223\work\Microchip\TCPIP Stack\SPIEEPROM.c
                   __pa_4   0x00c0ea    program     static C:\firmware\70M_L_upconverter_SXY\70M_1223\work\App\WebUI\HTTPPrint.c
                   __pa_4   0x00dbd0    program     static C:\Program Files\mcc18\src\traditional\stdclib\vfprintf.c
                   __pa_4   0x0120f6    program     static C:\firmware\70M_L_upconverter_SXY\70M_1223\work\Singcom\Drivers\i2c_c1.c
                   __pa_4   0x005b64    program     static C:\firmware\70M_L_upconverter_SXY\70M_1223\work\Microchip\TCPIP Stack\HTTP2.c
                   __pa_4   0x011402    program     static C:\firmware\70M_L_upconverter_SXY\70M_1223\work\Singcom\Devices\MainControl_c1.c
                   __pa_4   0x00b16a    program     static C:\firmware\70M_L_upconverter_SXY\70M_1223\work\Microchip\TCPIP Stack\MPFS2.c
                   __pa_4   0x012ca6    program     static C:\firmware\70M_L_upconverter_SXY\70M_1223\work\Drivers\External-Peripherals\devadc.c
                   __pa_4   0x011b2a    program     static C:\firmware\70M_L_upconverter_SXY\70M_1223\work\Microchip\TCPIP Stack\IP.c
                   __pa_4   0x00762c    program     static C:\firmware\70M_L_upconverter_SXY\70M_1223\work\Singcom\Drivers\lcd.c
                   __pa_4   0x010c08    program     static C:\firmware\70M_L_upconverter_SXY\70M_1223\work\Microchip\TCPIP Stack\ARP.c
                   __pa_4   0x002db0    program     static C:\firmware\70M_L_upconverter_SXY\70M_1223\work\Microchip\TCPIP Stack\TCP.c
                   __pa_4   0x008fd0    program     static C:\firmware\70M_L_upconverter_SXY\70M_1223\work\App\WebUI\HTTPGetDevInfo.c
                   __pa_4   0x012432    program     static C:\firmware\70M_L_upconverter_SXY\70M_1223\work\Singcom\Drivers\oled_c1.c
                   __pa_4   0x00a220    program     static C:\firmware\70M_L_upconverter_SXY\70M_1223\work\SysLib\util.c
                   __pa_4   0x011806    program     static C:\firmware\70M_L_upconverter_SXY\70M_1223\work\Bootstrap\Initialization.c
                   __pa_4   0x00d080    program     static C:\firmware\70M_L_upconverter_SXY\70M_1223\work\Microchip\TCPIP Stack\Helpers.c
                   __pa_4   0x00e8e0    program     static C:\firmware\70M_L_upconverter_SXY\70M_1223\work\Microchip\TCPIP Stack\ETH97J60.c
                   __pa_4   0x00fbb6    program     static C:\firmware\70M_L_upconverter_SXY\70M_1223\work\App\WebUI\HTTPApp.c
                  __pa_40   0x005d4a    program     static C:\firmware\70M_L_upconverter_SXY\70M_1223\work\Microchip\TCPIP Stack\HTTP2.c
                  __pa_40   0x00c2e2    program     static C:\firmware\70M_L_upconverter_SXY\70M_1223\work\App\WebUI\HTTPPrint.c
                  __pa_40   0x00de3a    program     static C:\Program Files\mcc18\src\traditional\stdclib\vfprintf.c
                  __pa_40   0x007850    program     static C:\firmware\70M_L_upconverter_SXY\70M_1223\work\Singcom\Drivers\lcd.c
                  __pa_40   0x00a4c8    program     static C:\firmware\70M_L_upconverter_SXY\70M_1223\work\SysLib\util.c
                  __pa_40   0x00b446    program     static C:\firmware\70M_L_upconverter_SXY\70M_1223\work\Microchip\TCPIP Stack\MPFS2.c
                  __pa_40   0x00309c    program     static C:\firmware\70M_L_upconverter_SXY\70M_1223\work\Microchip\TCPIP Stack\TCP.c
                  __pa_40   0x0092a6    program     static C:\firmware\70M_L_upconverter_SXY\70M_1223\work\App\WebUI\HTTPGetDevInfo.c
                  __pa_41   0x00de46    program     static C:\Program Files\mcc18\src\traditional\stdclib\vfprintf.c
                  __pa_41   0x005d56    program     static C:\firmware\70M_L_upconverter_SXY\70M_1223\work\Microchip\TCPIP Stack\HTTP2.c
                  __pa_41   0x007866    program     static C:\firmware\70M_L_upconverter_SXY\70M_1223\work\Singcom\Drivers\lcd.c
                  __pa_41   0x00a4d6    program     static C:\firmware\70M_L_upconverter_SXY\70M_1223\work\SysLib\util.c
                  __pa_41   0x00b450    program     static C:\firmware\70M_L_upconverter_SXY\70M_1223\work\Microchip\TCPIP Stack\MPFS2.c
                  __pa_41   0x0030b8    program     static C:\firmware\70M_L_upconverter_SXY\70M_1223\work\Microchip\TCPIP Stack\TCP.c
                  __pa_41   0x0092b4    program     static C:\firmware\70M_L_upconverter_SXY\70M_1223\work\App\WebUI\HTTPGetDevInfo.c
                  __pa_41   0x00c2f2    program     static C:\firmware\70M_L_upconverter_SXY\70M_1223\work\App\WebUI\HTTPPrint.c
                  __pa_42   0x007872    program     static C:\firmware\70M_L_upconverter_SXY\70M_1223\work\Singcom\Drivers\lcd.c
                  __pa_42   0x0092c2    program     static C:\firmware\70M_L_upconverter_SXY\70M_1223\work\App\WebUI\HTTPGetDevInfo.c
                  __pa_42   0x00de4e    program     static C:\Program Files\mcc18\src\traditional\stdclib\vfprintf.c
                  __pa_42   0x00c302    program     static C:\firmware\70M_L_upconverter_SXY\70M_1223\work\App\WebUI\HTTPPrint.c
                  __pa_42   0x0030c0    program     static C:\firmware\70M_L_upconverter_SXY\70M_1223\work\Microchip\TCPIP Stack\TCP.c
                  __pa_42   0x00b45a    program     static C:\firmware\70M_L_upconverter_SXY\70M_1223\work\Microchip\TCPIP Stack\MPFS2.c
                  __pa_42   0x00a4e4    program     static C:\firmware\70M_L_upconverter_SXY\70M_1223\work\SysLib\util.c
                  __pa_42   0x005d62    program     static C:\firmware\70M_L_upconverter_SXY\70M_1223\work\Microchip\TCPIP Stack\HTTP2.c
                  __pa_43   0x00c310    program     static C:\firmware\70M_L_upconverter_SXY\70M_1223\work\App\WebUI\HTTPPrint.c
                  __pa_43   0x0030d8    program     static C:\firmware\70M_L_upconverter_SXY\70M_1223\work\Microchip\TCPIP Stack\TCP.c
                  __pa_43   0x00787e    program     static C:\firmware\70M_L_upconverter_SXY\70M_1223\work\Singcom\Drivers\lcd.c
                  __pa_43   0x00b46c    program     static C:\firmware\70M_L_upconverter_SXY\70M_1223\work\Microchip\TCPIP Stack\MPFS2.c
                  __pa_43   0x0092d0    program     static C:\firmware\70M_L_upconverter_SXY\70M_1223\work\App\WebUI\HTTPGetDevInfo.c
                  __pa_43   0x00a4ee    program     static C:\firmware\70M_L_upconverter_SXY\70M_1223\work\SysLib\util.c
                  __pa_43   0x00de58    program     static C:\Program Files\mcc18\src\traditional\stdclib\vfprintf.c
                  __pa_43   0x005d6c    program     static C:\firmware\70M_L_upconverter_SXY\70M_1223\work\Microchip\TCPIP Stack\HTTP2.c
                  __pa_44   0x00a4f8    program     static C:\firmware\70M_L_upconverter_SXY\70M_1223\work\SysLib\util.c
                  __pa_44   0x0092e6    program     static C:\firmware\70M_L_upconverter_SXY\70M_1223\work\App\WebUI\HTTPGetDevInfo.c
                  __pa_44   0x005d74    program     static C:\firmware\70M_L_upconverter_SXY\70M_1223\work\Microchip\TCPIP Stack\HTTP2.c
                  __pa_44   0x00c324    program     static C:\firmware\70M_L_upconverter_SXY\70M_1223\work\App\WebUI\HTTPPrint.c
                  __pa_44   0x00b494    program     static C:\firmware\70M_L_upconverter_SXY\70M_1223\work\Microchip\TCPIP Stack\MPFS2.c
                  __pa_44   0x00de5e    program     static C:\Program Files\mcc18\src\traditional\stdclib\vfprintf.c
                  __pa_44   0x007888    program     static C:\firmware\70M_L_upconverter_SXY\70M_1223\work\Singcom\Drivers\lcd.c
                  __pa_44   0x0030ea    program     static C:\firmware\70M_L_upconverter_SXY\70M_1223\work\Microchip\TCPIP Stack\TCP.c
                  __pa_45   0x005d84    program     static C:\firmware\70M_L_upconverter_SXY\70M_1223\work\Microchip\TCPIP Stack\HTTP2.c
                  __pa_45   0x00a502    program     static C:\firmware\70M_L_upconverter_SXY\70M_1223\work\SysLib\util.c
                  __pa_45   0x00c332    program     static C:\firmware\70M_L_upconverter_SXY\70M_1223\work\App\WebUI\HTTPPrint.c
                  __pa_45   0x0030f4    program     static C:\firmware\70M_L_upconverter_SXY\70M_1223\work\Microchip\TCPIP Stack\TCP.c
                  __pa_45   0x007890    program     static C:\firmware\70M_L_upconverter_SXY\70M_1223\work\Singcom\Drivers\lcd.c
                  __pa_45   0x0092f0    program     static C:\firmware\70M_L_upconverter_SXY\70M_1223\work\App\WebUI\HTTPGetDevInfo.c
                  __pa_45   0x00de68    program     static C:\Program Files\mcc18\src\traditional\stdclib\vfprintf.c
                  __pa_45   0x00b49e    program     static C:\firmware\70M_L_upconverter_SXY\70M_1223\work\Microchip\TCPIP Stack\MPFS2.c
                  __pa_46   0x005d94    program     static C:\firmware\70M_L_upconverter_SXY\70M_1223\work\Microchip\TCPIP Stack\HTTP2.c
                  __pa_46   0x00789a    program     static C:\firmware\70M_L_upconverter_SXY\70M_1223\work\Singcom\Drivers\lcd.c
                  __pa_46   0x00b4b8    program     static C:\firmware\70M_L_upconverter_SXY\70M_1223\work\Microchip\TCPIP Stack\MPFS2.c
                  __pa_46   0x00a50a    program     static C:\firmware\70M_L_upconverter_SXY\70M_1223\work\SysLib\util.c
                  __pa_46   0x00c336    program     static C:\firmware\70M_L_upconverter_SXY\70M_1223\work\App\WebUI\HTTPPrint.c
                  __pa_46   0x003106    program     static C:\firmware\70M_L_upconverter_SXY\70M_1223\work\Microchip\TCPIP Stack\TCP.c
                  __pa_46   0x0092fa    program     static C:\firmware\70M_L_upconverter_SXY\70M_1223\work\App\WebUI\HTTPGetDevInfo.c
                  __pa_46   0x00de74    program     static C:\Program Files\mcc18\src\traditional\stdclib\vfprintf.c
                  __pa_47   0x00c33a    program     static C:\firmware\70M_L_upconverter_SXY\70M_1223\work\App\WebUI\HTTPPrint.c
                  __pa_47   0x00312c    program     static C:\firmware\70M_L_upconverter_SXY\70M_1223\work\Microchip\TCPIP Stack\TCP.c
                  __pa_47   0x009306    program     static C:\firmware\70M_L_upconverter_SXY\70M_1223\work\App\WebUI\HTTPGetDevInfo.c
                  __pa_47   0x0078aa    program     static C:\firmware\70M_L_upconverter_SXY\70M_1223\work\Singcom\Drivers\lcd.c
                  __pa_47   0x00b4c0    program     static C:\firmware\70M_L_upconverter_SXY\70M_1223\work\Microchip\TCPIP Stack\MPFS2.c
                  __pa_47   0x00a530    program     static C:\firmware\70M_L_upconverter_SXY\70M_1223\work\SysLib\util.c
                  __pa_47   0x005da4    program     static C:\firmware\70M_L_upconverter_SXY\70M_1223\work\Microchip\TCPIP Stack\HTTP2.c
                  __pa_48   0x00b4d0    program     static C:\firmware\70M_L_upconverter_SXY\70M_1223\work\Microchip\TCPIP Stack\MPFS2.c
                  __pa_48   0x009312    program     static C:\firmware\70M_L_upconverter_SXY\70M_1223\work\App\WebUI\HTTPGetDevInfo.c
                  __pa_48   0x0078b2    program     static C:\firmware\70M_L_upconverter_SXY\70M_1223\work\Singcom\Drivers\lcd.c
                  __pa_48   0x00a552    program     static C:\firmware\70M_L_upconverter_SXY\70M_1223\work\SysLib\util.c
                  __pa_48   0x00314a    program     static C:\firmware\70M_L_upconverter_SXY\70M_1223\work\Microchip\TCPIP Stack\TCP.c
                  __pa_48   0x00c33e    program     static C:\firmware\70M_L_upconverter_SXY\70M_1223\work\App\WebUI\HTTPPrint.c
                  __pa_48   0x005db4    program     static C:\firmware\70M_L_upconverter_SXY\70M_1223\work\Microchip\TCPIP Stack\HTTP2.c
                  __pa_49   0x00a55a    program     static C:\firmware\70M_L_upconverter_SXY\70M_1223\work\SysLib\util.c
                  __pa_49   0x00931e    program     static C:\firmware\70M_L_upconverter_SXY\70M_1223\work\App\WebUI\HTTPGetDevInfo.c
                  __pa_49   0x00316a    program     static C:\firmware\70M_L_upconverter_SXY\70M_1223\work\Microchip\TCPIP Stack\TCP.c
                  __pa_49   0x00c346    program     static C:\firmware\70M_L_upconverter_SXY\70M_1223\work\App\WebUI\HTTPPrint.c
                  __pa_49   0x005dba    program     static C:\firmware\70M_L_upconverter_SXY\70M_1223\work\Microchip\TCPIP Stack\HTTP2.c
                  __pa_49   0x0078c0    program     static C:\firmware\70M_L_upconverter_SXY\70M_1223\work\Singcom\Drivers\lcd.c
                  __pa_49   0x00b4e8    program     static C:\firmware\70M_L_upconverter_SXY\70M_1223\work\Microchip\TCPIP Stack\MPFS2.c
                   __pa_5   0x011e4e    program     static C:\firmware\70M_L_upconverter_SXY\70M_1223\work\Microchip\TCPIP Stack\SPIEEPROM.c
                   __pa_5   0x00dbe4    program     static C:\Program Files\mcc18\src\traditional\stdclib\vfprintf.c
                   __pa_5   0x010c12    program     static C:\firmware\70M_L_upconverter_SXY\70M_1223\work\Microchip\TCPIP Stack\ARP.c
                   __pa_5   0x011b40    program     static C:\firmware\70M_L_upconverter_SXY\70M_1223\work\Microchip\TCPIP Stack\IP.c
                   __pa_5   0x00c0fa    program     static C:\firmware\70M_L_upconverter_SXY\70M_1223\work\App\WebUI\HTTPPrint.c
                   __pa_5   0x012cb4    program     static C:\firmware\70M_L_upconverter_SXY\70M_1223\work\Drivers\External-Peripherals\devadc.c
                   __pa_5   0x011814    program     static C:\firmware\70M_L_upconverter_SXY\70M_1223\work\Bootstrap\Initialization.c
                   __pa_5   0x01140e    program     static C:\firmware\70M_L_upconverter_SXY\70M_1223\work\Singcom\Devices\MainControl_c1.c
                   __pa_5   0x005b70    program     static C:\firmware\70M_L_upconverter_SXY\70M_1223\work\Microchip\TCPIP Stack\HTTP2.c
                   __pa_5   0x007640    program     static C:\firmware\70M_L_upconverter_SXY\70M_1223\work\Singcom\Drivers\lcd.c
                   __pa_5   0x00b17c    program     static C:\firmware\70M_L_upconverter_SXY\70M_1223\work\Microchip\TCPIP Stack\MPFS2.c
                   __pa_5   0x00e8ea    program     static C:\firmware\70M_L_upconverter_SXY\70M_1223\work\Microchip\TCPIP Stack\ETH97J60.c
                   __pa_5   0x00fbc2    program     static C:\firmware\70M_L_upconverter_SXY\70M_1223\work\App\WebUI\HTTPApp.c
                   __pa_5   0x002dba    program     static C:\firmware\70M_L_upconverter_SXY\70M_1223\work\Microchip\TCPIP Stack\TCP.c
                   __pa_5   0x008fd6    program     static C:\firmware\70M_L_upconverter_SXY\70M_1223\work\App\WebUI\HTTPGetDevInfo.c
                   __pa_5   0x012110    program     static C:\firmware\70M_L_upconverter_SXY\70M_1223\work\Singcom\Drivers\i2c_c1.c
                   __pa_5   0x01244a    program     static C:\firmware\70M_L_upconverter_SXY\70M_1223\work\Singcom\Drivers\oled_c1.c
                   __pa_5   0x00a22c    program     static C:\firmware\70M_L_upconverter_SXY\70M_1223\work\SysLib\util.c
                   __pa_5   0x00d08e    program     static C:\firmware\70M_L_upconverter_SXY\70M_1223\work\Microchip\TCPIP Stack\Helpers.c
                  __pa_50   0x00b4f6    program     static C:\firmware\70M_L_upconverter_SXY\70M_1223\work\Microchip\TCPIP Stack\MPFS2.c
                  __pa_50   0x005dc6    program     static C:\firmware\70M_L_upconverter_SXY\70M_1223\work\Microchip\TCPIP Stack\HTTP2.c
                  __pa_50   0x0078ce    program     static C:\firmware\70M_L_upconverter_SXY\70M_1223\work\Singcom\Drivers\lcd.c
                  __pa_50   0x00c358    program     static C:\firmware\70M_L_upconverter_SXY\70M_1223\work\App\WebUI\HTTPPrint.c
                  __pa_50   0x003180    program     static C:\firmware\70M_L_upconverter_SXY\70M_1223\work\Microchip\TCPIP Stack\TCP.c
                  __pa_50   0x00932e    program     static C:\firmware\70M_L_upconverter_SXY\70M_1223\work\App\WebUI\HTTPGetDevInfo.c
                  __pa_50   0x00a568    program     static C:\firmware\70M_L_upconverter_SXY\70M_1223\work\SysLib\util.c
                  __pa_51   0x0078dc    program     static C:\firmware\70M_L_upconverter_SXY\70M_1223\work\Singcom\Drivers\lcd.c
                  __pa_51   0x003196    program     static C:\firmware\70M_L_upconverter_SXY\70M_1223\work\Microchip\TCPIP Stack\TCP.c
                  __pa_51   0x00b4fc    program     static C:\firmware\70M_L_upconverter_SXY\70M_1223\work\Microchip\TCPIP Stack\MPFS2.c
                  __pa_51   0x005dd2    program     static C:\firmware\70M_L_upconverter_SXY\70M_1223\work\Microchip\TCPIP Stack\HTTP2.c
                  __pa_51   0x00a570    program     static C:\firmware\70M_L_upconverter_SXY\70M_1223\work\SysLib\util.c
                  __pa_51   0x009338    program     static C:\firmware\70M_L_upconverter_SXY\70M_1223\work\App\WebUI\HTTPGetDevInfo.c
                  __pa_51   0x00c35e    program     static C:\firmware\70M_L_upconverter_SXY\70M_1223\work\App\WebUI\HTTPPrint.c
                  __pa_52   0x0078ea    program     static C:\firmware\70M_L_upconverter_SXY\70M_1223\work\Singcom\Drivers\lcd.c
                  __pa_52   0x00c368    program     static C:\firmware\70M_L_upconverter_SXY\70M_1223\work\App\WebUI\HTTPPrint.c
                  __pa_52   0x0031a2    program     static C:\firmware\70M_L_upconverter_SXY\70M_1223\work\Microchip\TCPIP Stack\TCP.c
                  __pa_52   0x005de2    program     static C:\firmware\70M_L_upconverter_SXY\70M_1223\work\Microchip\TCPIP Stack\HTTP2.c
                  __pa_52   0x009348    program     static C:\firmware\70M_L_upconverter_SXY\70M_1223\work\App\WebUI\HTTPGetDevInfo.c
                  __pa_52   0x00a578    program     static C:\firmware\70M_L_upconverter_SXY\70M_1223\work\SysLib\util.c
                  __pa_52   0x00b518    program     static C:\firmware\70M_L_upconverter_SXY\70M_1223\work\Microchip\TCPIP Stack\MPFS2.c
                  __pa_53   0x0078f8    program     static C:\firmware\70M_L_upconverter_SXY\70M_1223\work\Singcom\Drivers\lcd.c
                  __pa_53   0x0031b0    program     static C:\firmware\70M_L_upconverter_SXY\70M_1223\work\Microchip\TCPIP Stack\TCP.c
                  __pa_53   0x005df2    program     static C:\firmware\70M_L_upconverter_SXY\70M_1223\work\Microchip\TCPIP Stack\HTTP2.c
                  __pa_53   0x00c376    program     static C:\firmware\70M_L_upconverter_SXY\70M_1223\work\App\WebUI\HTTPPrint.c
                  __pa_53   0x00a58a    program     static C:\firmware\70M_L_upconverter_SXY\70M_1223\work\SysLib\util.c
                  __pa_53   0x00b528    program     static C:\firmware\70M_L_upconverter_SXY\70M_1223\work\Microchip\TCPIP Stack\MPFS2.c
                  __pa_53   0x009356    program     static C:\firmware\70M_L_upconverter_SXY\70M_1223\work\App\WebUI\HTTPGetDevInfo.c
                  __pa_54   0x00b540    program     static C:\firmware\70M_L_upconverter_SXY\70M_1223\work\Microchip\TCPIP Stack\MPFS2.c
                  __pa_54   0x007906    program     static C:\firmware\70M_L_upconverter_SXY\70M_1223\work\Singcom\Drivers\lcd.c
                  __pa_54   0x00c384    program     static C:\firmware\70M_L_upconverter_SXY\70M_1223\work\App\WebUI\HTTPPrint.c
                  __pa_54   0x0031b8    program     static C:\firmware\70M_L_upconverter_SXY\70M_1223\work\Microchip\TCPIP Stack\TCP.c
                  __pa_54   0x005e08    program     static C:\firmware\70M_L_upconverter_SXY\70M_1223\work\Microchip\TCPIP Stack\HTTP2.c
                  __pa_54   0x00a598    program     static C:\firmware\70M_L_upconverter_SXY\70M_1223\work\SysLib\util.c
                  __pa_54   0x009360    program     static C:\firmware\70M_L_upconverter_SXY\70M_1223\work\App\WebUI\HTTPGetDevInfo.c
                  __pa_55   0x00790c    program     static C:\firmware\70M_L_upconverter_SXY\70M_1223\work\Singcom\Drivers\lcd.c
                  __pa_55   0x00a5a0    program     static C:\firmware\70M_L_upconverter_SXY\70M_1223\work\SysLib\util.c
                  __pa_55   0x005e14    program     static C:\firmware\70M_L_upconverter_SXY\70M_1223\work\Microchip\TCPIP Stack\HTTP2.c
                  __pa_55   0x009374    program     static C:\firmware\70M_L_upconverter_SXY\70M_1223\work\App\WebUI\HTTPGetDevInfo.c
                  __pa_55   0x00c394    program     static C:\firmware\70M_L_upconverter_SXY\70M_1223\work\App\WebUI\HTTPPrint.c
                  __pa_55   0x0031c6    program     static C:\firmware\70M_L_upconverter_SXY\70M_1223\work\Microchip\TCPIP Stack\TCP.c
                  __pa_55   0x00b54e    program     static C:\firmware\70M_L_upconverter_SXY\70M_1223\work\Microchip\TCPIP Stack\MPFS2.c
                  __pa_56   0x00c39a    program     static C:\firmware\70M_L_upconverter_SXY\70M_1223\work\App\WebUI\HTTPPrint.c
                  __pa_56   0x007916    program     static C:\firmware\70M_L_upconverter_SXY\70M_1223\work\Singcom\Drivers\lcd.c
                  __pa_56   0x00b562    program     static C:\firmware\70M_L_upconverter_SXY\70M_1223\work\Microchip\TCPIP Stack\MPFS2.c
                  __pa_56   0x009388    program     static C:\firmware\70M_L_upconverter_SXY\70M_1223\work\App\WebUI\HTTPGetDevInfo.c
                  __pa_56   0x00a5ae    program     static C:\firmware\70M_L_upconverter_SXY\70M_1223\work\SysLib\util.c
                  __pa_56   0x0031d4    program     static C:\firmware\70M_L_upconverter_SXY\70M_1223\work\Microchip\TCPIP Stack\TCP.c
                  __pa_56   0x005e22    program     static C:\firmware\70M_L_upconverter_SXY\70M_1223\work\Microchip\TCPIP Stack\HTTP2.c
                  __pa_57   0x00a5bc    program     static C:\firmware\70M_L_upconverter_SXY\70M_1223\work\SysLib\util.c
                  __pa_57   0x00939c    program     static C:\firmware\70M_L_upconverter_SXY\70M_1223\work\App\WebUI\HTTPGetDevInfo.c
                  __pa_57   0x00b570    program     static C:\firmware\70M_L_upconverter_SXY\70M_1223\work\Microchip\TCPIP Stack\MPFS2.c
                  __pa_57   0x0031de    program     static C:\firmware\70M_L_upconverter_SXY\70M_1223\work\Microchip\TCPIP Stack\TCP.c
                  __pa_57   0x005e30    program     static C:\firmware\70M_L_upconverter_SXY\70M_1223\work\Microchip\TCPIP Stack\HTTP2.c
                  __pa_57   0x00791e    program     static C:\firmware\70M_L_upconverter_SXY\70M_1223\work\Singcom\Drivers\lcd.c
                  __pa_57   0x00c3aa    program     static C:\firmware\70M_L_upconverter_SXY\70M_1223\work\App\WebUI\HTTPPrint.c
                  __pa_58   0x00a5c6    program     static C:\firmware\70M_L_upconverter_SXY\70M_1223\work\SysLib\util.c
                  __pa_58   0x00b582    program     static C:\firmware\70M_L_upconverter_SXY\70M_1223\work\Microchip\TCPIP Stack\MPFS2.c
                  __pa_58   0x007926    program     static C:\firmware\70M_L_upconverter_SXY\70M_1223\work\Singcom\Drivers\lcd.c
                  __pa_58   0x00c3b8    program     static C:\firmware\70M_L_upconverter_SXY\70M_1223\work\App\WebUI\HTTPPrint.c
                  __pa_58   0x0031fc    program     static C:\firmware\70M_L_upconverter_SXY\70M_1223\work\Microchip\TCPIP Stack\TCP.c
                  __pa_58   0x0093a4    program     static C:\firmware\70M_L_upconverter_SXY\70M_1223\work\App\WebUI\HTTPGetDevInfo.c
                  __pa_58   0x005e40    program     static C:\firmware\70M_L_upconverter_SXY\70M_1223\work\Microchip\TCPIP Stack\HTTP2.c
                  __pa_59   0x005e4e    program     static C:\firmware\70M_L_upconverter_SXY\70M_1223\work\Microchip\TCPIP Stack\HTTP2.c
                  __pa_59   0x0093ac    program     static C:\firmware\70M_L_upconverter_SXY\70M_1223\work\App\WebUI\HTTPGetDevInfo.c
                  __pa_59   0x003220    program     static C:\firmware\70M_L_upconverter_SXY\70M_1223\work\Microchip\TCPIP Stack\TCP.c
                  __pa_59   0x00b58c    program     static C:\firmware\70M_L_upconverter_SXY\70M_1223\work\Microchip\TCPIP Stack\MPFS2.c
                  __pa_59   0x007936    program     static C:\firmware\70M_L_upconverter_SXY\70M_1223\work\Singcom\Drivers\lcd.c
                  __pa_59   0x00c3c6    program     static C:\firmware\70M_L_upconverter_SXY\70M_1223\work\App\WebUI\HTTPPrint.c
                  __pa_59   0x00a5d8    program     static C:\firmware\70M_L_upconverter_SXY\70M_1223\work\SysLib\util.c
                   __pa_6   0x00dc00    program     static C:\Program Files\mcc18\src\traditional\stdclib\vfprintf.c
                   __pa_6   0x012cc6    program     static C:\firmware\70M_L_upconverter_SXY\70M_1223\work\Drivers\External-Peripherals\devadc.c
                   __pa_6   0x011822    program     static C:\firmware\70M_L_upconverter_SXY\70M_1223\work\Bootstrap\Initialization.c
                   __pa_6   0x00d0b4    program     static C:\firmware\70M_L_upconverter_SXY\70M_1223\work\Microchip\TCPIP Stack\Helpers.c
                   __pa_6   0x01211c    program     static C:\firmware\70M_L_upconverter_SXY\70M_1223\work\Singcom\Drivers\i2c_c1.c
                   __pa_6   0x00e8ee    program     static C:\firmware\70M_L_upconverter_SXY\70M_1223\work\Microchip\TCPIP Stack\ETH97J60.c
                   __pa_6   0x00c10a    program     static C:\firmware\70M_L_upconverter_SXY\70M_1223\work\App\WebUI\HTTPPrint.c
                   __pa_6   0x002e4e    program     static C:\firmware\70M_L_upconverter_SXY\70M_1223\work\Microchip\TCPIP Stack\TCP.c
                   __pa_6   0x012452    program     static C:\firmware\70M_L_upconverter_SXY\70M_1223\work\Singcom\Drivers\oled_c1.c
                   __pa_6   0x011e60    program     static C:\firmware\70M_L_upconverter_SXY\70M_1223\work\Microchip\TCPIP Stack\SPIEEPROM.c
                   __pa_6   0x00fbd2    program     static C:\firmware\70M_L_upconverter_SXY\70M_1223\work\App\WebUI\HTTPApp.c
                   __pa_6   0x010c22    program     static C:\firmware\70M_L_upconverter_SXY\70M_1223\work\Microchip\TCPIP Stack\ARP.c
                   __pa_6   0x007652    program     static C:\firmware\70M_L_upconverter_SXY\70M_1223\work\Singcom\Drivers\lcd.c
                   __pa_6   0x00b19e    program     static C:\firmware\70M_L_upconverter_SXY\70M_1223\work\Microchip\TCPIP Stack\MPFS2.c
                   __pa_6   0x01141a    program     static C:\firmware\70M_L_upconverter_SXY\70M_1223\work\Singcom\Devices\MainControl_c1.c
                   __pa_6   0x005b98    program     static C:\firmware\70M_L_upconverter_SXY\70M_1223\work\Microchip\TCPIP Stack\HTTP2.c
                   __pa_6   0x011b4a    program     static C:\firmware\70M_L_upconverter_SXY\70M_1223\work\Microchip\TCPIP Stack\IP.c
                   __pa_6   0x00a232    program     static C:\firmware\70M_L_upconverter_SXY\70M_1223\work\SysLib\util.c
                   __pa_6   0x008fdc    program     static C:\firmware\70M_L_upconverter_SXY\70M_1223\work\App\WebUI\HTTPGetDevInfo.c
                  __pa_60   0x005e62    program     static C:\firmware\70M_L_upconverter_SXY\70M_1223\work\Microchip\TCPIP Stack\HTTP2.c
                  __pa_60   0x00a5e0    program     static C:\firmware\70M_L_upconverter_SXY\70M_1223\work\SysLib\util.c
                  __pa_60   0x003230    program     static C:\firmware\70M_L_upconverter_SXY\70M_1223\work\Microchip\TCPIP Stack\TCP.c
                  __pa_60   0x0093be    program     static C:\firmware\70M_L_upconverter_SXY\70M_1223\work\App\WebUI\HTTPGetDevInfo.c
                  __pa_60   0x00c3ce    program     static C:\firmware\70M_L_upconverter_SXY\70M_1223\work\App\WebUI\HTTPPrint.c
                  __pa_60   0x00b598    program     static C:\firmware\70M_L_upconverter_SXY\70M_1223\work\Microchip\TCPIP Stack\MPFS2.c
                  __pa_60   0x00793c    program     static C:\firmware\70M_L_upconverter_SXY\70M_1223\work\Singcom\Drivers\lcd.c
                  __pa_61   0x0093d0    program     static C:\firmware\70M_L_upconverter_SXY\70M_1223\work\App\WebUI\HTTPGetDevInfo.c
                  __pa_61   0x00c3d4    program     static C:\firmware\70M_L_upconverter_SXY\70M_1223\work\App\WebUI\HTTPPrint.c
                  __pa_61   0x00b5a6    program     static C:\firmware\70M_L_upconverter_SXY\70M_1223\work\Microchip\TCPIP Stack\MPFS2.c
                  __pa_61   0x00794a    program     static C:\firmware\70M_L_upconverter_SXY\70M_1223\work\Singcom\Drivers\lcd.c
                  __pa_61   0x005e6a    program     static C:\firmware\70M_L_upconverter_SXY\70M_1223\work\Microchip\TCPIP Stack\HTTP2.c
                  __pa_61   0x00a5ea    program     static C:\firmware\70M_L_upconverter_SXY\70M_1223\work\SysLib\util.c
                  __pa_61   0x00323a    program     static C:\firmware\70M_L_upconverter_SXY\70M_1223\work\Microchip\TCPIP Stack\TCP.c
                  __pa_62   0x003244    program     static C:\firmware\70M_L_upconverter_SXY\70M_1223\work\Microchip\TCPIP Stack\TCP.c
                  __pa_62   0x00795a    program     static C:\firmware\70M_L_upconverter_SXY\70M_1223\work\Singcom\Drivers\lcd.c
                  __pa_62   0x00b5b4    program     static C:\firmware\70M_L_upconverter_SXY\70M_1223\work\Microchip\TCPIP Stack\MPFS2.c
                  __pa_62   0x00a5f0    program     static C:\firmware\70M_L_upconverter_SXY\70M_1223\work\SysLib\util.c
                  __pa_62   0x005e7c    program     static C:\firmware\70M_L_upconverter_SXY\70M_1223\work\Microchip\TCPIP Stack\HTTP2.c
                  __pa_62   0x00c3e4    program     static C:\firmware\70M_L_upconverter_SXY\70M_1223\work\App\WebUI\HTTPPrint.c
                  __pa_62   0x0093dc    program     static C:\firmware\70M_L_upconverter_SXY\70M_1223\work\App\WebUI\HTTPGetDevInfo.c
                  __pa_63   0x00b5bc    program     static C:\firmware\70M_L_upconverter_SXY\70M_1223\work\Microchip\TCPIP Stack\MPFS2.c
                  __pa_63   0x005e88    program     static C:\firmware\70M_L_upconverter_SXY\70M_1223\work\Microchip\TCPIP Stack\HTTP2.c
                  __pa_63   0x00a5fe    program     static C:\firmware\70M_L_upconverter_SXY\70M_1223\work\SysLib\util.c
                  __pa_63   0x0093e8    program     static C:\firmware\70M_L_upconverter_SXY\70M_1223\work\App\WebUI\HTTPGetDevInfo.c
                  __pa_63   0x003264    program     static C:\firmware\70M_L_upconverter_SXY\70M_1223\work\Microchip\TCPIP Stack\TCP.c
                  __pa_63   0x007962    program     static C:\firmware\70M_L_upconverter_SXY\70M_1223\work\Singcom\Drivers\lcd.c
                  __pa_63   0x00c3f4    program     static C:\firmware\70M_L_upconverter_SXY\70M_1223\work\App\WebUI\HTTPPrint.c
                  __pa_64   0x00a60c    program     static C:\firmware\70M_L_upconverter_SXY\70M_1223\work\SysLib\util.c
                  __pa_64   0x005e9a    program     static C:\firmware\70M_L_upconverter_SXY\70M_1223\work\Microchip\TCPIP Stack\HTTP2.c
                  __pa_64   0x00327a    program     static C:\firmware\70M_L_upconverter_SXY\70M_1223\work\Microchip\TCPIP Stack\TCP.c
                  __pa_64   0x00798a    program     static C:\firmware\70M_L_upconverter_SXY\70M_1223\work\Singcom\Drivers\lcd.c
                  __pa_64   0x0093f4    program     static C:\firmware\70M_L_upconverter_SXY\70M_1223\work\App\WebUI\HTTPGetDevInfo.c
                  __pa_64   0x00b5c6    program     static C:\firmware\70M_L_upconverter_SXY\70M_1223\work\Microchip\TCPIP Stack\MPFS2.c
                  __pa_64   0x00c3fe    program     static C:\firmware\70M_L_upconverter_SXY\70M_1223\work\App\WebUI\HTTPPrint.c
                  __pa_65   0x009404    program     static C:\firmware\70M_L_upconverter_SXY\70M_1223\work\App\WebUI\HTTPGetDevInfo.c
                  __pa_65   0x00b5cc    program     static C:\firmware\70M_L_upconverter_SXY\70M_1223\work\Microchip\TCPIP Stack\MPFS2.c
                  __pa_65   0x00a618    program     static C:\firmware\70M_L_upconverter_SXY\70M_1223\work\SysLib\util.c
                  __pa_65   0x005ea6    program     static C:\firmware\70M_L_upconverter_SXY\70M_1223\work\Microchip\TCPIP Stack\HTTP2.c
                  __pa_65   0x00328e    program     static C:\firmware\70M_L_upconverter_SXY\70M_1223\work\Microchip\TCPIP Stack\TCP.c
                  __pa_65   0x007996    program     static C:\firmware\70M_L_upconverter_SXY\70M_1223\work\Singcom\Drivers\lcd.c
                  __pa_65   0x00c406    program     static C:\firmware\70M_L_upconverter_SXY\70M_1223\work\App\WebUI\HTTPPrint.c
                  __pa_66   0x0032a4    program     static C:\firmware\70M_L_upconverter_SXY\70M_1223\work\Microchip\TCPIP Stack\TCP.c
                  __pa_66   0x00c412    program     static C:\firmware\70M_L_upconverter_SXY\70M_1223\work\App\WebUI\HTTPPrint.c
                  __pa_66   0x0079b2    program     static C:\firmware\70M_L_upconverter_SXY\70M_1223\work\Singcom\Drivers\lcd.c
                  __pa_66   0x009412    program     static C:\firmware\70M_L_upconverter_SXY\70M_1223\work\App\WebUI\HTTPGetDevInfo.c
                  __pa_66   0x00a626    program     static C:\firmware\70M_L_upconverter_SXY\70M_1223\work\SysLib\util.c
                  __pa_66   0x00b5e6    program     static C:\firmware\70M_L_upconverter_SXY\70M_1223\work\Microchip\TCPIP Stack\MPFS2.c
                  __pa_66   0x005eb2    program     static C:\firmware\70M_L_upconverter_SXY\70M_1223\work\Microchip\TCPIP Stack\HTTP2.c
                  __pa_67   0x009420    program     static C:\firmware\70M_L_upconverter_SXY\70M_1223\work\App\WebUI\HTTPGetDevInfo.c
                  __pa_67   0x00a630    program     static C:\firmware\70M_L_upconverter_SXY\70M_1223\work\SysLib\util.c
                  __pa_67   0x00b5f4    program     static C:\firmware\70M_L_upconverter_SXY\70M_1223\work\Microchip\TCPIP Stack\MPFS2.c
                  __pa_67   0x00c41c    program     static C:\firmware\70M_L_upconverter_SXY\70M_1223\work\App\WebUI\HTTPPrint.c
                  __pa_67   0x0032c2    program     static C:\firmware\70M_L_upconverter_SXY\70M_1223\work\Microchip\TCPIP Stack\TCP.c
                  __pa_67   0x005ebe    program     static C:\firmware\70M_L_upconverter_SXY\70M_1223\work\Microchip\TCPIP Stack\HTTP2.c
                  __pa_67   0x0079c8    program     static C:\firmware\70M_L_upconverter_SXY\70M_1223\work\Singcom\Drivers\lcd.c
                  __pa_68   0x005ec4    program     static C:\firmware\70M_L_upconverter_SXY\70M_1223\work\Microchip\TCPIP Stack\HTTP2.c
                  __pa_68   0x00a636    program     static C:\firmware\70M_L_upconverter_SXY\70M_1223\work\SysLib\util.c
                  __pa_68   0x00942e    program     static C:\firmware\70M_L_upconverter_SXY\70M_1223\work\App\WebUI\HTTPGetDevInfo.c
                  __pa_68   0x0032d8    program     static C:\firmware\70M_L_upconverter_SXY\70M_1223\work\Microchip\TCPIP Stack\TCP.c
                  __pa_68   0x00b5fe    program     static C:\firmware\70M_L_upconverter_SXY\70M_1223\work\Microchip\TCPIP Stack\MPFS2.c
                  __pa_68   0x0079d0    program     static C:\firmware\70M_L_upconverter_SXY\70M_1223\work\Singcom\Drivers\lcd.c
                  __pa_68   0x00c426    program     static C:\firmware\70M_L_upconverter_SXY\70M_1223\work\App\WebUI\HTTPPrint.c
                  __pa_69   0x0079e2    program     static C:\firmware\70M_L_upconverter_SXY\70M_1223\work\Singcom\Drivers\lcd.c
                  __pa_69   0x00a640    program     static C:\firmware\70M_L_upconverter_SXY\70M_1223\work\SysLib\util.c
                  __pa_69   0x00c430    program     static C:\firmware\70M_L_upconverter_SXY\70M_1223\work\App\WebUI\HTTPPrint.c
                  __pa_69   0x0032e6    program     static C:\firmware\70M_L_upconverter_SXY\70M_1223\work\Microchip\TCPIP Stack\TCP.c
                  __pa_69   0x00943c    program     static C:\firmware\70M_L_upconverter_SXY\70M_1223\work\App\WebUI\HTTPGetDevInfo.c
                  __pa_69   0x005eca    program     static C:\firmware\70M_L_upconverter_SXY\70M_1223\work\Microchip\TCPIP Stack\HTTP2.c
                   __pa_7   0x008fe8    program     static C:\firmware\70M_L_upconverter_SXY\70M_1223\work\App\WebUI\HTTPGetDevInfo.c
                   __pa_7   0x011426    program     static C:\firmware\70M_L_upconverter_SXY\70M_1223\work\Singcom\Devices\MainControl_c1.c
                   __pa_7   0x00fbde    program     static C:\firmware\70M_L_upconverter_SXY\70M_1223\work\App\WebUI\HTTPApp.c
                   __pa_7   0x00e8f4    program     static C:\firmware\70M_L_upconverter_SXY\70M_1223\work\Microchip\TCPIP Stack\ETH97J60.c
                   __pa_7   0x00c114    program     static C:\firmware\70M_L_upconverter_SXY\70M_1223\work\App\WebUI\HTTPPrint.c
                   __pa_7   0x00d0d6    program     static C:\firmware\70M_L_upconverter_SXY\70M_1223\work\Microchip\TCPIP Stack\Helpers.c
                   __pa_7   0x00a28c    program     static C:\firmware\70M_L_upconverter_SXY\70M_1223\work\SysLib\util.c
                   __pa_7   0x012cd8    program     static C:\firmware\70M_L_upconverter_SXY\70M_1223\work\Drivers\External-Peripherals\devadc.c
                   __pa_7   0x011e6c    program     static C:\firmware\70M_L_upconverter_SXY\70M_1223\work\Microchip\TCPIP Stack\SPIEEPROM.c
                   __pa_7   0x01182c    program     static C:\firmware\70M_L_upconverter_SXY\70M_1223\work\Bootstrap\Initialization.c
                   __pa_7   0x00dc0a    program     static C:\Program Files\mcc18\src\traditional\stdclib\vfprintf.c
                   __pa_7   0x002e5a    program     static C:\firmware\70M_L_upconverter_SXY\70M_1223\work\Microchip\TCPIP Stack\TCP.c
                   __pa_7   0x00b1e2    program     static C:\firmware\70M_L_upconverter_SXY\70M_1223\work\Microchip\TCPIP Stack\MPFS2.c
                   __pa_7   0x01212a    program     static C:\firmware\70M_L_upconverter_SXY\70M_1223\work\Singcom\Drivers\i2c_c1.c
                   __pa_7   0x007658    program     static C:\firmware\70M_L_upconverter_SXY\70M_1223\work\Singcom\Drivers\lcd.c
                   __pa_7   0x011b54    program     static C:\firmware\70M_L_upconverter_SXY\70M_1223\work\Microchip\TCPIP Stack\IP.c
                   __pa_7   0x010c2e    program     static C:\firmware\70M_L_upconverter_SXY\70M_1223\work\Microchip\TCPIP Stack\ARP.c
                   __pa_7   0x005ba0    program     static C:\firmware\70M_L_upconverter_SXY\70M_1223\work\Microchip\TCPIP Stack\HTTP2.c
                  __pa_70   0x0079ea    program     static C:\firmware\70M_L_upconverter_SXY\70M_1223\work\Singcom\Drivers\lcd.c
                  __pa_70   0x005ed4    program     static C:\firmware\70M_L_upconverter_SXY\70M_1223\work\Microchip\TCPIP Stack\HTTP2.c
                  __pa_70   0x0032f8    program     static C:\firmware\70M_L_upconverter_SXY\70M_1223\work\Microchip\TCPIP Stack\TCP.c
                  __pa_70   0x00c448    program     static C:\firmware\70M_L_upconverter_SXY\70M_1223\work\App\WebUI\HTTPPrint.c
                  __pa_70   0x00a648    program     static C:\firmware\70M_L_upconverter_SXY\70M_1223\work\SysLib\util.c
                  __pa_70   0x00944a    program     static C:\firmware\70M_L_upconverter_SXY\70M_1223\work\App\WebUI\HTTPGetDevInfo.c
                  __pa_71   0x005ede    program     static C:\firmware\70M_L_upconverter_SXY\70M_1223\work\Microchip\TCPIP Stack\HTTP2.c
                  __pa_71   0x0079f0    program     static C:\firmware\70M_L_upconverter_SXY\70M_1223\work\Singcom\Drivers\lcd.c
                  __pa_71   0x00330a    program     static C:\firmware\70M_L_upconverter_SXY\70M_1223\work\Microchip\TCPIP Stack\TCP.c
                  __pa_71   0x00c45e    program     static C:\firmware\70M_L_upconverter_SXY\70M_1223\work\App\WebUI\HTTPPrint.c
                  __pa_71   0x009452    program     static C:\firmware\70M_L_upconverter_SXY\70M_1223\work\App\WebUI\HTTPGetDevInfo.c
                  __pa_71   0x00a652    program     static C:\firmware\70M_L_upconverter_SXY\70M_1223\work\SysLib\util.c
                  __pa_72   0x009460    program     static C:\firmware\70M_L_upconverter_SXY\70M_1223\work\App\WebUI\HTTPGetDevInfo.c
                  __pa_72   0x005eea    program     static C:\firmware\70M_L_upconverter_SXY\70M_1223\work\Microchip\TCPIP Stack\HTTP2.c
                  __pa_72   0x007a16    program     static C:\firmware\70M_L_upconverter_SXY\70M_1223\work\Singcom\Drivers\lcd.c
                  __pa_72   0x00331c    program     static C:\firmware\70M_L_upconverter_SXY\70M_1223\work\Microchip\TCPIP Stack\TCP.c
                  __pa_72   0x00c464    program     static C:\firmware\70M_L_upconverter_SXY\70M_1223\work\App\WebUI\HTTPPrint.c
                  __pa_72   0x00a65c    program     static C:\firmware\70M_L_upconverter_SXY\70M_1223\work\SysLib\util.c
                  __pa_73   0x00a666    program     static C:\firmware\70M_L_upconverter_SXY\70M_1223\work\SysLib\util.c
                  __pa_73   0x00c46c    program     static C:\firmware\70M_L_upconverter_SXY\70M_1223\work\App\WebUI\HTTPPrint.c
                  __pa_73   0x00332e    program     static C:\firmware\70M_L_upconverter_SXY\70M_1223\work\Microchip\TCPIP Stack\TCP.c
                  __pa_73   0x007a1a    program     static C:\firmware\70M_L_upconverter_SXY\70M_1223\work\Singcom\Drivers\lcd.c
                  __pa_73   0x005efa    program     static C:\firmware\70M_L_upconverter_SXY\70M_1223\work\Microchip\TCPIP Stack\HTTP2.c
                  __pa_73   0x009468    program     static C:\firmware\70M_L_upconverter_SXY\70M_1223\work\App\WebUI\HTTPGetDevInfo.c
                  __pa_74   0x007a28    program     static C:\firmware\70M_L_upconverter_SXY\70M_1223\work\Singcom\Drivers\lcd.c
                  __pa_74   0x009470    program     static C:\firmware\70M_L_upconverter_SXY\70M_1223\work\App\WebUI\HTTPGetDevInfo.c
                  __pa_74   0x005f04    program     static C:\firmware\70M_L_upconverter_SXY\70M_1223\work\Microchip\TCPIP Stack\HTTP2.c
                  __pa_74   0x00c476    program     static C:\firmware\70M_L_upconverter_SXY\70M_1223\work\App\WebUI\HTTPPrint.c
                  __pa_74   0x00a684    program     static C:\firmware\70M_L_upconverter_SXY\70M_1223\work\SysLib\util.c
                  __pa_74   0x003338    program     static C:\firmware\70M_L_upconverter_SXY\70M_1223\work\Microchip\TCPIP Stack\TCP.c
                  __pa_75   0x005f0c    program     static C:\firmware\70M_L_upconverter_SXY\70M_1223\work\Microchip\TCPIP Stack\HTTP2.c
                  __pa_75   0x007a32    program     static C:\firmware\70M_L_upconverter_SXY\70M_1223\work\Singcom\Drivers\lcd.c
                  __pa_75   0x00947a    program     static C:\firmware\70M_L_upconverter_SXY\70M_1223\work\App\WebUI\HTTPGetDevInfo.c
                  __pa_75   0x00a6a2    program     static C:\firmware\70M_L_upconverter_SXY\70M_1223\work\SysLib\util.c
                  __pa_75   0x00334a    program     static C:\firmware\70M_L_upconverter_SXY\70M_1223\work\Microchip\TCPIP Stack\TCP.c
                  __pa_75   0x00c47e    program     static C:\firmware\70M_L_upconverter_SXY\70M_1223\work\App\WebUI\HTTPPrint.c
                  __pa_76   0x005f14    program     static C:\firmware\70M_L_upconverter_SXY\70M_1223\work\Microchip\TCPIP Stack\HTTP2.c
                  __pa_76   0x00c486    program     static C:\firmware\70M_L_upconverter_SXY\70M_1223\work\App\WebUI\HTTPPrint.c
                  __pa_76   0x003354    program     static C:\firmware\70M_L_upconverter_SXY\70M_1223\work\Microchip\TCPIP Stack\TCP.c
                  __pa_76   0x00a6a8    program     static C:\firmware\70M_L_upconverter_SXY\70M_1223\work\SysLib\util.c
                  __pa_76   0x007a3e    program     static C:\firmware\70M_L_upconverter_SXY\70M_1223\work\Singcom\Drivers\lcd.c
                  __pa_76   0x009484    program     static C:\firmware\70M_L_upconverter_SXY\70M_1223\work\App\WebUI\HTTPGetDevInfo.c
                  __pa_77   0x00c498    program     static C:\firmware\70M_L_upconverter_SXY\70M_1223\work\App\WebUI\HTTPPrint.c
                  __pa_77   0x007a4a    program     static C:\firmware\70M_L_upconverter_SXY\70M_1223\work\Singcom\Drivers\lcd.c
                  __pa_77   0x005f1c    program     static C:\firmware\70M_L_upconverter_SXY\70M_1223\work\Microchip\TCPIP Stack\HTTP2.c
                  __pa_77   0x003362    program     static C:\firmware\70M_L_upconverter_SXY\70M_1223\work\Microchip\TCPIP Stack\TCP.c
                  __pa_77   0x00a6ba    program     static C:\firmware\70M_L_upconverter_SXY\70M_1223\work\SysLib\util.c
                  __pa_77   0x00948e    program     static C:\firmware\70M_L_upconverter_SXY\70M_1223\work\App\WebUI\HTTPGetDevInfo.c
                  __pa_78   0x005f2a    program     static C:\firmware\70M_L_upconverter_SXY\70M_1223\work\Microchip\TCPIP Stack\HTTP2.c
                  __pa_78   0x00c4aa    program     static C:\firmware\70M_L_upconverter_SXY\70M_1223\work\App\WebUI\HTTPPrint.c
                  __pa_78   0x003370    program     static C:\firmware\70M_L_upconverter_SXY\70M_1223\work\Microchip\TCPIP Stack\TCP.c
                  __pa_78   0x00a6cc    program     static C:\firmware\70M_L_upconverter_SXY\70M_1223\work\SysLib\util.c
                  __pa_78   0x007a54    program     static C:\firmware\70M_L_upconverter_SXY\70M_1223\work\Singcom\Drivers\lcd.c
                  __pa_78   0x009498    program     static C:\firmware\70M_L_upconverter_SXY\70M_1223\work\App\WebUI\HTTPGetDevInfo.c
                  __pa_79   0x005f38    program     static C:\firmware\70M_L_upconverter_SXY\70M_1223\work\Microchip\TCPIP Stack\HTTP2.c
                  __pa_79   0x00c4b4    program     static C:\firmware\70M_L_upconverter_SXY\70M_1223\work\App\WebUI\HTTPPrint.c
                  __pa_79   0x00337e    program     static C:\firmware\70M_L_upconverter_SXY\70M_1223\work\Microchip\TCPIP Stack\TCP.c
                  __pa_79   0x0094a2    program     static C:\firmware\70M_L_upconverter_SXY\70M_1223\work\App\WebUI\HTTPGetDevInfo.c
                  __pa_79   0x00a6da    program     static C:\firmware\70M_L_upconverter_SXY\70M_1223\work\SysLib\util.c
                  __pa_79   0x007a62    program     static C:\firmware\70M_L_upconverter_SXY\70M_1223\work\Singcom\Drivers\lcd.c
                   __pa_8   0x005bbc    program     static C:\firmware\70M_L_upconverter_SXY\70M_1223\work\Microchip\TCPIP Stack\HTTP2.c
                   __pa_8   0x008ff0    program     static C:\firmware\70M_L_upconverter_SXY\70M_1223\work\App\WebUI\HTTPGetDevInfo.c
                   __pa_8   0x00e8fe    program     static C:\firmware\70M_L_upconverter_SXY\70M_1223\work\Microchip\TCPIP Stack\ETH97J60.c
                   __pa_8   0x00a2a6    program     static C:\firmware\70M_L_upconverter_SXY\70M_1223\work\SysLib\util.c
                   __pa_8   0x007666    program     static C:\firmware\70M_L_upconverter_SXY\70M_1223\work\Singcom\Drivers\lcd.c
                   __pa_8   0x012cea    program     static C:\firmware\70M_L_upconverter_SXY\70M_1223\work\Drivers\External-Peripherals\devadc.c
                   __pa_8   0x011b62    program     static C:\firmware\70M_L_upconverter_SXY\70M_1223\work\Microchip\TCPIP Stack\IP.c
                   __pa_8   0x011e7c    program     static C:\firmware\70M_L_upconverter_SXY\70M_1223\work\Microchip\TCPIP Stack\SPIEEPROM.c
                   __pa_8   0x010c3c    program     static C:\firmware\70M_L_upconverter_SXY\70M_1223\work\Microchip\TCPIP Stack\ARP.c
                   __pa_8   0x00fbea    program     static C:\firmware\70M_L_upconverter_SXY\70M_1223\work\App\WebUI\HTTPApp.c
                   __pa_8   0x00d0e8    program     static C:\firmware\70M_L_upconverter_SXY\70M_1223\work\Microchip\TCPIP Stack\Helpers.c
                   __pa_8   0x002e7c    program     static C:\firmware\70M_L_upconverter_SXY\70M_1223\work\Microchip\TCPIP Stack\TCP.c
                   __pa_8   0x00dc16    program     static C:\Program Files\mcc18\src\traditional\stdclib\vfprintf.c
                   __pa_8   0x012138    program     static C:\firmware\70M_L_upconverter_SXY\70M_1223\work\Singcom\Drivers\i2c_c1.c
                   __pa_8   0x00c120    program     static C:\firmware\70M_L_upconverter_SXY\70M_1223\work\App\WebUI\HTTPPrint.c
                   __pa_8   0x011432    program     static C:\firmware\70M_L_upconverter_SXY\70M_1223\work\Singcom\Devices\MainControl_c1.c
                   __pa_8   0x01183a    program     static C:\firmware\70M_L_upconverter_SXY\70M_1223\work\Bootstrap\Initialization.c
                   __pa_8   0x00b1ea    program     static C:\firmware\70M_L_upconverter_SXY\70M_1223\work\Microchip\TCPIP Stack\MPFS2.c
                  __pa_80   0x00a6e0    program     static C:\firmware\70M_L_upconverter_SXY\70M_1223\work\SysLib\util.c
                  __pa_80   0x0094e0    program     static C:\firmware\70M_L_upconverter_SXY\70M_1223\work\App\WebUI\HTTPGetDevInfo.c
                  __pa_80   0x00338c    program     static C:\firmware\70M_L_upconverter_SXY\70M_1223\work\Microchip\TCPIP Stack\TCP.c
                  __pa_80   0x005f46    program     static C:\firmware\70M_L_upconverter_SXY\70M_1223\work\Microchip\TCPIP Stack\HTTP2.c
                  __pa_80   0x00c4ba    program     static C:\firmware\70M_L_upconverter_SXY\70M_1223\work\App\WebUI\HTTPPrint.c
                  __pa_80   0x007a70    program     static C:\firmware\70M_L_upconverter_SXY\70M_1223\work\Singcom\Drivers\lcd.c
                  __pa_81   0x00a6e6    program     static C:\firmware\70M_L_upconverter_SXY\70M_1223\work\SysLib\util.c
                  __pa_81   0x003394    program     static C:\firmware\70M_L_upconverter_SXY\70M_1223\work\Microchip\TCPIP Stack\TCP.c
                  __pa_81   0x007a78    program     static C:\firmware\70M_L_upconverter_SXY\70M_1223\work\Singcom\Drivers\lcd.c
                  __pa_81   0x009504    program     static C:\firmware\70M_L_upconverter_SXY\70M_1223\work\App\WebUI\HTTPGetDevInfo.c
                  __pa_81   0x005f54    program     static C:\firmware\70M_L_upconverter_SXY\70M_1223\work\Microchip\TCPIP Stack\HTTP2.c
                  __pa_81   0x00c4c8    program     static C:\firmware\70M_L_upconverter_SXY\70M_1223\work\App\WebUI\HTTPPrint.c
                  __pa_82   0x009514    program     static C:\firmware\70M_L_upconverter_SXY\70M_1223\work\App\WebUI\HTTPGetDevInfo.c
                  __pa_82   0x007a80    program     static C:\firmware\70M_L_upconverter_SXY\70M_1223\work\Singcom\Drivers\lcd.c
                  __pa_82   0x00a6ec    program     static C:\firmware\70M_L_upconverter_SXY\70M_1223\work\SysLib\util.c
                  __pa_82   0x0033a0    program     static C:\firmware\70M_L_upconverter_SXY\70M_1223\work\Microchip\TCPIP Stack\TCP.c
                  __pa_82   0x005f62    program     static C:\firmware\70M_L_upconverter_SXY\70M_1223\work\Microchip\TCPIP Stack\HTTP2.c
                  __pa_82   0x00c4d4    program     static C:\firmware\70M_L_upconverter_SXY\70M_1223\work\App\WebUI\HTTPPrint.c
                  __pa_83   0x007a86    program     static C:\firmware\70M_L_upconverter_SXY\70M_1223\work\Singcom\Drivers\lcd.c
                  __pa_83   0x0033aa    program     static C:\firmware\70M_L_upconverter_SXY\70M_1223\work\Microchip\TCPIP Stack\TCP.c
                  __pa_83   0x009522    program     static C:\firmware\70M_L_upconverter_SXY\70M_1223\work\App\WebUI\HTTPGetDevInfo.c
                  __pa_83   0x005f70    program     static C:\firmware\70M_L_upconverter_SXY\70M_1223\work\Microchip\TCPIP Stack\HTTP2.c
                  __pa_83   0x00c4da    program     static C:\firmware\70M_L_upconverter_SXY\70M_1223\work\App\WebUI\HTTPPrint.c
                  __pa_84   0x0033b4    program     static C:\firmware\70M_L_upconverter_SXY\70M_1223\work\Microchip\TCPIP Stack\TCP.c
                  __pa_84   0x009528    program     static C:\firmware\70M_L_upconverter_SXY\70M_1223\work\App\WebUI\HTTPGetDevInfo.c
                  __pa_84   0x007a98    program     static C:\firmware\70M_L_upconverter_SXY\70M_1223\work\Singcom\Drivers\lcd.c
                  __pa_84   0x005f7e    program     static C:\firmware\70M_L_upconverter_SXY\70M_1223\work\Microchip\TCPIP Stack\HTTP2.c
                  __pa_85   0x009530    program     static C:\firmware\70M_L_upconverter_SXY\70M_1223\work\App\WebUI\HTTPGetDevInfo.c
                  __pa_85   0x0033be    program     static C:\firmware\70M_L_upconverter_SXY\70M_1223\work\Microchip\TCPIP Stack\TCP.c
                  __pa_85   0x007aa4    program     static C:\firmware\70M_L_upconverter_SXY\70M_1223\work\Singcom\Drivers\lcd.c
                  __pa_85   0x005f8c    program     static C:\firmware\70M_L_upconverter_SXY\70M_1223\work\Microchip\TCPIP Stack\HTTP2.c
                  __pa_86   0x007aae    program     static C:\firmware\70M_L_upconverter_SXY\70M_1223\work\Singcom\Drivers\lcd.c
                  __pa_86   0x009544    program     static C:\firmware\70M_L_upconverter_SXY\70M_1223\work\App\WebUI\HTTPGetDevInfo.c
                  __pa_86   0x0033c8    program     static C:\firmware\70M_L_upconverter_SXY\70M_1223\work\Microchip\TCPIP Stack\TCP.c
                  __pa_86   0x005f9a    program     static C:\firmware\70M_L_upconverter_SXY\70M_1223\work\Microchip\TCPIP Stack\HTTP2.c
                  __pa_87   0x0033d8    program     static C:\firmware\70M_L_upconverter_SXY\70M_1223\work\Microchip\TCPIP Stack\TCP.c
                  __pa_87   0x007abe    program     static C:\firmware\70M_L_upconverter_SXY\70M_1223\work\Singcom\Drivers\lcd.c
                  __pa_87   0x00954e    program     static C:\firmware\70M_L_upconverter_SXY\70M_1223\work\App\WebUI\HTTPGetDevInfo.c
                  __pa_87   0x005fa4    program     static C:\firmware\70M_L_upconverter_SXY\70M_1223\work\Microchip\TCPIP Stack\HTTP2.c
                  __pa_88   0x007aca    program     static C:\firmware\70M_L_upconverter_SXY\70M_1223\work\Singcom\Drivers\lcd.c
                  __pa_88   0x00955c    program     static C:\firmware\70M_L_upconverter_SXY\70M_1223\work\App\WebUI\HTTPGetDevInfo.c
                  __pa_88   0x0033e6    program     static C:\firmware\70M_L_upconverter_SXY\70M_1223\work\Microchip\TCPIP Stack\TCP.c
                  __pa_88   0x005fae    program     static C:\firmware\70M_L_upconverter_SXY\70M_1223\work\Microchip\TCPIP Stack\HTTP2.c
                  __pa_89   0x00956a    program     static C:\firmware\70M_L_upconverter_SXY\70M_1223\work\App\WebUI\HTTPGetDevInfo.c
                  __pa_89   0x005fb6    program     static C:\firmware\70M_L_upconverter_SXY\70M_1223\work\Microchip\TCPIP Stack\HTTP2.c
                  __pa_89   0x003400    program     static C:\firmware\70M_L_upconverter_SXY\70M_1223\work\Microchip\TCPIP Stack\TCP.c
                  __pa_89   0x007ad0    program     static C:\firmware\70M_L_upconverter_SXY\70M_1223\work\Singcom\Drivers\lcd.c
                   __pa_9   0x00766e    program     static C:\firmware\70M_L_upconverter_SXY\70M_1223\work\Singcom\Drivers\lcd.c
                   __pa_9   0x011846    program     static C:\firmware\70M_L_upconverter_SXY\70M_1223\work\Bootstrap\Initialization.c
                   __pa_9   0x012142    program     static C:\firmware\70M_L_upconverter_SXY\70M_1223\work\Singcom\Drivers\i2c_c1.c
                   __pa_9   0x00dc38    program     static C:\Program Files\mcc18\src\traditional\stdclib\vfprintf.c
                   __pa_9   0x002ea4    program     static C:\firmware\70M_L_upconverter_SXY\70M_1223\work\Microchip\TCPIP Stack\TCP.c
                   __pa_9   0x005bca    program     static C:\firmware\70M_L_upconverter_SXY\70M_1223\work\Microchip\TCPIP Stack\HTTP2.c
                   __pa_9   0x01143e    program     static C:\firmware\70M_L_upconverter_SXY\70M_1223\work\Singcom\Devices\MainControl_c1.c
                   __pa_9   0x00c126    program     static C:\firmware\70M_L_upconverter_SXY\70M_1223\work\App\WebUI\HTTPPrint.c
                   __pa_9   0x009072    program     static C:\firmware\70M_L_upconverter_SXY\70M_1223\work\App\WebUI\HTTPGetDevInfo.c
                   __pa_9   0x00fbf2    program     static C:\firmware\70M_L_upconverter_SXY\70M_1223\work\App\WebUI\HTTPApp.c
                   __pa_9   0x00b1f0    program     static C:\firmware\70M_L_upconverter_SXY\70M_1223\work\Microchip\TCPIP Stack\MPFS2.c
                   __pa_9   0x010c4a    program     static C:\firmware\70M_L_upconverter_SXY\70M_1223\work\Microchip\TCPIP Stack\ARP.c
                   __pa_9   0x00e90c    program     static C:\firmware\70M_L_upconverter_SXY\70M_1223\work\Microchip\TCPIP Stack\ETH97J60.c
                   __pa_9   0x00d0f2    program     static C:\firmware\70M_L_upconverter_SXY\70M_1223\work\Microchip\TCPIP Stack\Helpers.c
                   __pa_9   0x00a2c0    program     static C:\firmware\70M_L_upconverter_SXY\70M_1223\work\SysLib\util.c
                   __pa_9   0x011b70    program     static C:\firmware\70M_L_upconverter_SXY\70M_1223\work\Microchip\TCPIP Stack\IP.c
                  __pa_90   0x007ad6    program     static C:\firmware\70M_L_upconverter_SXY\70M_1223\work\Singcom\Drivers\lcd.c
                  __pa_90   0x009574    program     static C:\firmware\70M_L_upconverter_SXY\70M_1223\work\App\WebUI\HTTPGetDevInfo.c
                  __pa_90   0x003408    program     static C:\firmware\70M_L_upconverter_SXY\70M_1223\work\Microchip\TCPIP Stack\TCP.c
                  __pa_90   0x005fcc    program     static C:\firmware\70M_L_upconverter_SXY\70M_1223\work\Microchip\TCPIP Stack\HTTP2.c
                  __pa_91   0x007ade    program     static C:\firmware\70M_L_upconverter_SXY\70M_1223\work\Singcom\Drivers\lcd.c
                  __pa_91   0x00957e    program     static C:\firmware\70M_L_upconverter_SXY\70M_1223\work\App\WebUI\HTTPGetDevInfo.c
                  __pa_91   0x005fd2    program     static C:\firmware\70M_L_upconverter_SXY\70M_1223\work\Microchip\TCPIP Stack\HTTP2.c
                  __pa_91   0x003412    program     static C:\firmware\70M_L_upconverter_SXY\70M_1223\work\Microchip\TCPIP Stack\TCP.c
                  __pa_92   0x007ae8    program     static C:\firmware\70M_L_upconverter_SXY\70M_1223\work\Singcom\Drivers\lcd.c
                  __pa_92   0x005fe0    program     static C:\firmware\70M_L_upconverter_SXY\70M_1223\work\Microchip\TCPIP Stack\HTTP2.c
                  __pa_92   0x00341c    program     static C:\firmware\70M_L_upconverter_SXY\70M_1223\work\Microchip\TCPIP Stack\TCP.c
                  __pa_92   0x009592    program     static C:\firmware\70M_L_upconverter_SXY\70M_1223\work\App\WebUI\HTTPGetDevInfo.c
                  __pa_93   0x003426    program     static C:\firmware\70M_L_upconverter_SXY\70M_1223\work\Microchip\TCPIP Stack\TCP.c
                  __pa_93   0x005fea    program     static C:\firmware\70M_L_upconverter_SXY\70M_1223\work\Microchip\TCPIP Stack\HTTP2.c
                  __pa_93   0x0095a4    program     static C:\firmware\70M_L_upconverter_SXY\70M_1223\work\App\WebUI\HTTPGetDevInfo.c
                  __pa_93   0x007af0    program     static C:\firmware\70M_L_upconverter_SXY\70M_1223\work\Singcom\Drivers\lcd.c
                  __pa_94   0x005ff4    program     static C:\firmware\70M_L_upconverter_SXY\70M_1223\work\Microchip\TCPIP Stack\HTTP2.c
                  __pa_94   0x003430    program     static C:\firmware\70M_L_upconverter_SXY\70M_1223\work\Microchip\TCPIP Stack\TCP.c
                  __pa_94   0x007af6    program     static C:\firmware\70M_L_upconverter_SXY\70M_1223\work\Singcom\Drivers\lcd.c
                  __pa_94   0x0095b6    program     static C:\firmware\70M_L_upconverter_SXY\70M_1223\work\App\WebUI\HTTPGetDevInfo.c
                  __pa_95   0x00343a    program     static C:\firmware\70M_L_upconverter_SXY\70M_1223\work\Microchip\TCPIP Stack\TCP.c
                  __pa_95   0x005ffe    program     static C:\firmware\70M_L_upconverter_SXY\70M_1223\work\Microchip\TCPIP Stack\HTTP2.c
                  __pa_95   0x0095c2    program     static C:\firmware\70M_L_upconverter_SXY\70M_1223\work\App\WebUI\HTTPGetDevInfo.c
                  __pa_95   0x007b00    program     static C:\firmware\70M_L_upconverter_SXY\70M_1223\work\Singcom\Drivers\lcd.c
                  __pa_96   0x0095cc    program     static C:\firmware\70M_L_upconverter_SXY\70M_1223\work\App\WebUI\HTTPGetDevInfo.c
                  __pa_96   0x003452    program     static C:\firmware\70M_L_upconverter_SXY\70M_1223\work\Microchip\TCPIP Stack\TCP.c
                  __pa_96   0x007b0a    program     static C:\firmware\70M_L_upconverter_SXY\70M_1223\work\Singcom\Drivers\lcd.c
                  __pa_96   0x00600c    program     static C:\firmware\70M_L_upconverter_SXY\70M_1223\work\Microchip\TCPIP Stack\HTTP2.c
                  __pa_97   0x007b1a    program     static C:\firmware\70M_L_upconverter_SXY\70M_1223\work\Singcom\Drivers\lcd.c
                  __pa_97   0x0095da    program     static C:\firmware\70M_L_upconverter_SXY\70M_1223\work\App\WebUI\HTTPGetDevInfo.c
                  __pa_97   0x006014    program     static C:\firmware\70M_L_upconverter_SXY\70M_1223\work\Microchip\TCPIP Stack\HTTP2.c
                  __pa_97   0x003460    program     static C:\firmware\70M_L_upconverter_SXY\70M_1223\work\Microchip\TCPIP Stack\TCP.c
                  __pa_98   0x007b26    program     static C:\firmware\70M_L_upconverter_SXY\70M_1223\work\Singcom\Drivers\lcd.c
                  __pa_98   0x0095e4    program     static C:\firmware\70M_L_upconverter_SXY\70M_1223\work\App\WebUI\HTTPGetDevInfo.c
                  __pa_98   0x00601e    program     static C:\firmware\70M_L_upconverter_SXY\70M_1223\work\Microchip\TCPIP Stack\HTTP2.c
                  __pa_98   0x003478    program     static C:\firmware\70M_L_upconverter_SXY\70M_1223\work\Microchip\TCPIP Stack\TCP.c
                  __pa_99   0x0095ee    program     static C:\firmware\70M_L_upconverter_SXY\70M_1223\work\App\WebUI\HTTPGetDevInfo.c
                  __pa_99   0x006034    program     static C:\firmware\70M_L_upconverter_SXY\70M_1223\work\Microchip\TCPIP Stack\HTTP2.c
                  __pa_99   0x003488    program     static C:\firmware\70M_L_upconverter_SXY\70M_1223\work\Microchip\TCPIP Stack\TCP.c
                  __pa_99   0x007b2e    program     static C:\firmware\70M_L_upconverter_SXY\70M_1223\work\Singcom\Drivers\lcd.c
               __string_0   0x00f523    program     static C:\firmware\70M_L_upconverter_SXY\70M_1223\work\App\WebUI\HTTPPrint.c
               __string_0   0x00f288    program     static C:\firmware\70M_L_upconverter_SXY\70M_1223\work\Singcom\Devices\MainControl_c1.c
               __string_0   0x00f24b    program     static C:\firmware\70M_L_upconverter_SXY\70M_1223\work\App\WebUI\HTTPApp.c
               __string_0   0x00f295    program     static C:\firmware\70M_L_upconverter_SXY\70M_1223\work\Singcom\Devices\UpConverter_c1.c
               __string_0   0x00f1b8    program     static C:\firmware\70M_L_upconverter_SXY\70M_1223\work\Microchip\TCPIP Stack\MPFS2.c
               __string_0   0x00f1bf    program     static C:\firmware\70M_L_upconverter_SXY\70M_1223\work\SysLib\util.c
               __string_0   0x00ea3a    program     static C:\firmware\70M_L_upconverter_SXY\70M_1223\work\Bootstrap\Initialization.c
               __string_0   0x00f43a    program     static C:\firmware\70M_L_upconverter_SXY\70M_1223\work\App\WebUI\HTTPGetDevInfo.c
               __string_0   0x00f1ad    program     static C:\firmware\70M_L_upconverter_SXY\70M_1223\work\Microchip\TCPIP Stack\HTTP2.c
               __string_1   0x00f281    program     static C:\firmware\70M_L_upconverter_SXY\70M_1223\work\Singcom\Devices\MainControl_c1.c
               __string_1   0x00f28c    program     static C:\firmware\70M_L_upconverter_SXY\70M_1223\work\Singcom\Devices\UpConverter_c1.c
               __string_1   0x00f246    program     static C:\firmware\70M_L_upconverter_SXY\70M_1223\work\App\WebUI\HTTPApp.c
               __string_1   0x00f433    program     static C:\firmware\70M_L_upconverter_SXY\70M_1223\work\App\WebUI\HTTPGetDevInfo.c
               __string_1   0x00f1a2    program     static C:\firmware\70M_L_upconverter_SXY\70M_1223\work\Microchip\TCPIP Stack\HTTP2.c
               __string_1   0x00ea30    program     static C:\firmware\70M_L_upconverter_SXY\70M_1223\work\Bootstrap\Initialization.c
               __string_1   0x00f51a    program     static C:\firmware\70M_L_upconverter_SXY\70M_1223\work\App\WebUI\HTTPPrint.c
              __string_10   0x00f180    program     static C:\firmware\70M_L_upconverter_SXY\70M_1223\work\Microchip\TCPIP Stack\HTTP2.c
              __string_10   0x00f201    program     static C:\firmware\70M_L_upconverter_SXY\70M_1223\work\App\WebUI\HTTPApp.c
              __string_10   0x00f4dc    program     static C:\firmware\70M_L_upconverter_SXY\70M_1223\work\App\WebUI\HTTPPrint.c
              __string_10   0x00f3c7    program     static C:\firmware\70M_L_upconverter_SXY\70M_1223\work\App\WebUI\HTTPGetDevInfo.c
              __string_11   0x00f17c    program     static C:\firmware\70M_L_upconverter_SXY\70M_1223\work\Microchip\TCPIP Stack\HTTP2.c
              __string_11   0x00f4d3    program     static C:\firmware\70M_L_upconverter_SXY\70M_1223\work\App\WebUI\HTTPPrint.c
              __string_11   0x00f1fc    program     static C:\firmware\70M_L_upconverter_SXY\70M_1223\work\App\WebUI\HTTPApp.c
              __string_11   0x00f3bd    program     static C:\firmware\70M_L_upconverter_SXY\70M_1223\work\App\WebUI\HTTPGetDevInfo.c
              __string_12   0x00f178    program     static C:\firmware\70M_L_upconverter_SXY\70M_1223\work\Microchip\TCPIP Stack\HTTP2.c
              __string_12   0x00f4ca    program     static C:\firmware\70M_L_upconverter_SXY\70M_1223\work\App\WebUI\HTTPPrint.c
              __string_12   0x00f1f8    program     static C:\firmware\70M_L_upconverter_SXY\70M_1223\work\App\WebUI\HTTPApp.c
              __string_12   0x00f3b3    program     static C:\firmware\70M_L_upconverter_SXY\70M_1223\work\App\WebUI\HTTPGetDevInfo.c
              __string_13   0x00f4c1    program     static C:\firmware\70M_L_upconverter_SXY\70M_1223\work\App\WebUI\HTTPPrint.c
              __string_13   0x00f3a5    program     static C:\firmware\70M_L_upconverter_SXY\70M_1223\work\App\WebUI\HTTPGetDevInfo.c
              __string_13   0x00f1f3    program     static C:\firmware\70M_L_upconverter_SXY\70M_1223\work\App\WebUI\HTTPApp.c
              __string_13   0x00f174    program     static C:\firmware\70M_L_upconverter_SXY\70M_1223\work\Microchip\TCPIP Stack\HTTP2.c
              __string_14   0x00f397    program     static C:\firmware\70M_L_upconverter_SXY\70M_1223\work\App\WebUI\HTTPGetDevInfo.c
              __string_14   0x00f1ee    program     static C:\firmware\70M_L_upconverter_SXY\70M_1223\work\App\WebUI\HTTPApp.c
              __string_14   0x00f4be    program     static C:\firmware\70M_L_upconverter_SXY\70M_1223\work\App\WebUI\HTTPPrint.c
              __string_14   0x00f170    program     static C:\firmware\70M_L_upconverter_SXY\70M_1223\work\Microchip\TCPIP Stack\HTTP2.c
              __string_15   0x00f1d9    program     static C:\firmware\70M_L_upconverter_SXY\70M_1223\work\App\WebUI\HTTPApp.c
              __string_15   0x00f38a    program     static C:\firmware\70M_L_upconverter_SXY\70M_1223\work\App\WebUI\HTTPGetDevInfo.c
              __string_15   0x00f4ba    program     static C:\firmware\70M_L_upconverter_SXY\70M_1223\work\App\WebUI\HTTPPrint.c
              __string_15   0x00f16c    program     static C:\firmware\70M_L_upconverter_SXY\70M_1223\work\Microchip\TCPIP Stack\HTTP2.c
              __string_16   0x00f4b4    program     static C:\firmware\70M_L_upconverter_SXY\70M_1223\work\App\WebUI\HTTPPrint.c
              __string_16   0x00f380    program     static C:\firmware\70M_L_upconverter_SXY\70M_1223\work\App\WebUI\HTTPGetDevInfo.c
              __string_16   0x00f1c5    program     static C:\firmware\70M_L_upconverter_SXY\70M_1223\work\App\WebUI\HTTPApp.c
              __string_16   0x00f161    program     static C:\firmware\70M_L_upconverter_SXY\70M_1223\work\Microchip\TCPIP Stack\HTTP2.c
              __string_17   0x00f157    program     static C:\firmware\70M_L_upconverter_SXY\70M_1223\work\Microchip\TCPIP Stack\HTTP2.c
              __string_17   0x00f4a4    program     static C:\firmware\70M_L_upconverter_SXY\70M_1223\work\App\WebUI\HTTPPrint.c
              __string_17   0x00f37b    program     static C:\firmware\70M_L_upconverter_SXY\70M_1223\work\App\WebUI\HTTPGetDevInfo.c
              __string_18   0x00f14e    program     static C:\firmware\70M_L_upconverter_SXY\70M_1223\work\Microchip\TCPIP Stack\HTTP2.c
              __string_18   0x00f487    program     static C:\firmware\70M_L_upconverter_SXY\70M_1223\work\App\WebUI\HTTPPrint.c
              __string_18   0x00f377    program     static C:\firmware\70M_L_upconverter_SXY\70M_1223\work\App\WebUI\HTTPGetDevInfo.c
              __string_19   0x00f145    program     static C:\firmware\70M_L_upconverter_SXY\70M_1223\work\Microchip\TCPIP Stack\HTTP2.c
              __string_19   0x00f373    program     static C:\firmware\70M_L_upconverter_SXY\70M_1223\work\App\WebUI\HTTPGetDevInfo.c
              __string_19   0x00f474    program     static C:\firmware\70M_L_upconverter_SXY\70M_1223\work\App\WebUI\HTTPPrint.c
               __string_2   0x00f19d    program     static C:\firmware\70M_L_upconverter_SXY\70M_1223\work\Microchip\TCPIP Stack\HTTP2.c
               __string_2   0x00f240    program     static C:\firmware\70M_L_upconverter_SXY\70M_1223\work\App\WebUI\HTTPApp.c
               __string_2   0x00f515    program     static C:\firmware\70M_L_upconverter_SXY\70M_1223\work\App\WebUI\HTTPPrint.c
               __string_2   0x00f27c    program     static C:\firmware\70M_L_upconverter_SXY\70M_1223\work\Singcom\Devices\MainControl_c1.c
               __string_2   0x00f42f    program     static C:\firmware\70M_L_upconverter_SXY\70M_1223\work\App\WebUI\HTTPGetDevInfo.c
              __string_20   0x00f460    program     static C:\firmware\70M_L_upconverter_SXY\70M_1223\work\App\WebUI\HTTPPrint.c
              __string_20   0x00f36e    program     static C:\firmware\70M_L_upconverter_SXY\70M_1223\work\App\WebUI\HTTPGetDevInfo.c
              __string_20   0x00f13b    program     static C:\firmware\70M_L_upconverter_SXY\70M_1223\work\Microchip\TCPIP Stack\HTTP2.c
              __string_21   0x00f131    program     static C:\firmware\70M_L_upconverter_SXY\70M_1223\work\Microchip\TCPIP Stack\HTTP2.c
              __string_21   0x00f442    program     static C:\firmware\70M_L_upconverter_SXY\70M_1223\work\App\WebUI\HTTPPrint.c
              __string_21   0x00f368    program     static C:\firmware\70M_L_upconverter_SXY\70M_1223\work\App\WebUI\HTTPGetDevInfo.c
              __string_22   0x00f126    program     static C:\firmware\70M_L_upconverter_SXY\70M_1223\work\Microchip\TCPIP Stack\HTTP2.c
              __string_22   0x00f35f    program     static C:\firmware\70M_L_upconverter_SXY\70M_1223\work\App\WebUI\HTTPGetDevInfo.c
              __string_22   0x00f43d    program     static C:\firmware\70M_L_upconverter_SXY\70M_1223\work\App\WebUI\HTTPPrint.c
              __string_23   0x00f112    program     static C:\firmware\70M_L_upconverter_SXY\70M_1223\work\Microchip\TCPIP Stack\HTTP2.c
              __string_23   0x00f356    program     static C:\firmware\70M_L_upconverter_SXY\70M_1223\work\App\WebUI\HTTPGetDevInfo.c
              __string_24   0x00f105    program     static C:\firmware\70M_L_upconverter_SXY\70M_1223\work\Microchip\TCPIP Stack\HTTP2.c
              __string_24   0x00f350    program     static C:\firmware\70M_L_upconverter_SXY\70M_1223\work\App\WebUI\HTTPGetDevInfo.c
              __string_25   0x00f348    program     static C:\firmware\70M_L_upconverter_SXY\70M_1223\work\App\WebUI\HTTPGetDevInfo.c
              __string_25   0x00f104    program     static C:\firmware\70M_L_upconverter_SXY\70M_1223\work\Microchip\TCPIP Stack\HTTP2.c
              __string_26   0x00f0df    program     static C:\firmware\70M_L_upconverter_SXY\70M_1223\work\Microchip\TCPIP Stack\HTTP2.c
              __string_26   0x00f340    program     static C:\firmware\70M_L_upconverter_SXY\70M_1223\work\App\WebUI\HTTPGetDevInfo.c
              __string_27   0x00f081    program     static C:\firmware\70M_L_upconverter_SXY\70M_1223\work\Microchip\TCPIP Stack\HTTP2.c
              __string_27   0x00f339    program     static C:\firmware\70M_L_upconverter_SXY\70M_1223\work\App\WebUI\HTTPGetDevInfo.c
              __string_28   0x00f000    program     static C:\firmware\70M_L_upconverter_SXY\70M_1223\work\Microchip\TCPIP Stack\HTTP2.c
              __string_28   0x00f332    program     static C:\firmware\70M_L_upconverter_SXY\70M_1223\work\App\WebUI\HTTPGetDevInfo.c
              __string_29   0x00f325    program     static C:\firmware\70M_L_upconverter_SXY\70M_1223\work\App\WebUI\HTTPGetDevInfo.c
              __string_29   0x00ef62    program     static C:\firmware\70M_L_upconverter_SXY\70M_1223\work\Microchip\TCPIP Stack\HTTP2.c
               __string_3   0x00f22d    program     static C:\firmware\70M_L_upconverter_SXY\70M_1223\work\App\WebUI\HTTPApp.c
               __string_3   0x00f427    program     static C:\firmware\70M_L_upconverter_SXY\70M_1223\work\App\WebUI\HTTPGetDevInfo.c
               __string_3   0x00f275    program     static C:\firmware\70M_L_upconverter_SXY\70M_1223\work\Singcom\Devices\MainControl_c1.c
               __string_3   0x00f50e    program     static C:\firmware\70M_L_upconverter_SXY\70M_1223\work\App\WebUI\HTTPPrint.c
              __string_30   0x00f318    program     static C:\firmware\70M_L_upconverter_SXY\70M_1223\work\App\WebUI\HTTPGetDevInfo.c
              __string_30   0x00eef5    program     static C:\firmware\70M_L_upconverter_SXY\70M_1223\work\Microchip\TCPIP Stack\HTTP2.c
              __string_31   0x00f305    program     static C:\firmware\70M_L_upconverter_SXY\70M_1223\work\App\WebUI\HTTPGetDevInfo.c
              __string_31   0x00ee85    program     static C:\firmware\70M_L_upconverter_SXY\70M_1223\work\Microchip\TCPIP Stack\HTTP2.c
              __string_32   0x00f2f1    program     static C:\firmware\70M_L_upconverter_SXY\70M_1223\work\App\WebUI\HTTPGetDevInfo.c
              __string_32   0x00ee1f    program     static C:\firmware\70M_L_upconverter_SXY\70M_1223\work\Microchip\TCPIP Stack\HTTP2.c
              __string_33   0x00ecff    program     static C:\firmware\70M_L_upconverter_SXY\70M_1223\work\Microchip\TCPIP Stack\HTTP2.c
              __string_33   0x00f2ed    program     static C:\firmware\70M_L_upconverter_SXY\70M_1223\work\App\WebUI\HTTPGetDevInfo.c
              __string_34   0x00ec52    program     static C:\firmware\70M_L_upconverter_SXY\70M_1223\work\Microchip\TCPIP Stack\HTTP2.c
              __string_34   0x00f2dd    program     static C:\firmware\70M_L_upconverter_SXY\70M_1223\work\App\WebUI\HTTPGetDevInfo.c
              __string_35   0x00f2d8    program     static C:\firmware\70M_L_upconverter_SXY\70M_1223\work\App\WebUI\HTTPGetDevInfo.c
              __string_35   0x00eb7f    program     static C:\firmware\70M_L_upconverter_SXY\70M_1223\work\Microchip\TCPIP Stack\HTTP2.c
              __string_36   0x00f2d3    program     static C:\firmware\70M_L_upconverter_SXY\70M_1223\work\App\WebUI\HTTPGetDevInfo.c
              __string_36   0x00eb4d    program     static C:\firmware\70M_L_upconverter_SXY\70M_1223\work\Microchip\TCPIP Stack\HTTP2.c
              __string_37   0x00eaf6    program     static C:\firmware\70M_L_upconverter_SXY\70M_1223\work\Microchip\TCPIP Stack\HTTP2.c
              __string_37   0x00f2cd    program     static C:\firmware\70M_L_upconverter_SXY\70M_1223\work\App\WebUI\HTTPGetDevInfo.c
              __string_38   0x00eaee    program     static C:\firmware\70M_L_upconverter_SXY\70M_1223\work\Microchip\TCPIP Stack\HTTP2.c
              __string_38   0x00f2c3    program     static C:\firmware\70M_L_upconverter_SXY\70M_1223\work\App\WebUI\HTTPGetDevInfo.c
              __string_39   0x00f2b9    program     static C:\firmware\70M_L_upconverter_SXY\70M_1223\work\App\WebUI\HTTPGetDevInfo.c
              __string_39   0x00eadf    program     static C:\firmware\70M_L_upconverter_SXY\70M_1223\work\Microchip\TCPIP Stack\HTTP2.c
               __string_4   0x00f199    program     static C:\firmware\70M_L_upconverter_SXY\70M_1223\work\Microchip\TCPIP Stack\HTTP2.c
               __string_4   0x00f420    program     static C:\firmware\70M_L_upconverter_SXY\70M_1223\work\App\WebUI\HTTPGetDevInfo.c
               __string_4   0x00f21d    program     static C:\firmware\70M_L_upconverter_SXY\70M_1223\work\App\WebUI\HTTPApp.c
               __string_4   0x00f26e    program     static C:\firmware\70M_L_upconverter_SXY\70M_1223\work\Singcom\Devices\MainControl_c1.c
               __string_4   0x00f50b    program     static C:\firmware\70M_L_upconverter_SXY\70M_1223\work\App\WebUI\HTTPPrint.c
              __string_40   0x00eacf    program     static C:\firmware\70M_L_upconverter_SXY\70M_1223\work\Microchip\TCPIP Stack\HTTP2.c
              __string_40   0x00f2ac    program     static C:\firmware\70M_L_upconverter_SXY\70M_1223\work\App\WebUI\HTTPGetDevInfo.c
              __string_41   0x00eacb    program     static C:\firmware\70M_L_upconverter_SXY\70M_1223\work\Microchip\TCPIP Stack\HTTP2.c
              __string_41   0x00f2a7    program     static C:\firmware\70M_L_upconverter_SXY\70M_1223\work\App\WebUI\HTTPGetDevInfo.c
              __string_42   0x00eac6    program     static C:\firmware\70M_L_upconverter_SXY\70M_1223\work\Microchip\TCPIP Stack\HTTP2.c
              __string_42   0x00f2a2    program     static C:\firmware\70M_L_upconverter_SXY\70M_1223\work\App\WebUI\HTTPGetDevInfo.c
              __string_43   0x00eabb    program     static C:\firmware\70M_L_upconverter_SXY\70M_1223\work\Microchip\TCPIP Stack\HTTP2.c
              __string_43   0x00f29e    program     static C:\firmware\70M_L_upconverter_SXY\70M_1223\work\App\WebUI\HTTPGetDevInfo.c
              __string_44   0x00eab1    program     static C:\firmware\70M_L_upconverter_SXY\70M_1223\work\Microchip\TCPIP Stack\HTTP2.c
              __string_45   0x00ea9e    program     static C:\firmware\70M_L_upconverter_SXY\70M_1223\work\Microchip\TCPIP Stack\HTTP2.c
              __string_45   0x00f5ad    program     static C:\firmware\70M_L_upconverter_SXY\70M_1223\work\Singcom\Drivers\lcd.c
              __string_46   0x00f5a9    program     static C:\firmware\70M_L_upconverter_SXY\70M_1223\work\Singcom\Drivers\lcd.c
              __string_46   0x00ea8f    program     static C:\firmware\70M_L_upconverter_SXY\70M_1223\work\Microchip\TCPIP Stack\HTTP2.c
              __string_47   0x00f5a6    program     static C:\firmware\70M_L_upconverter_SXY\70M_1223\work\Singcom\Drivers\lcd.c
              __string_47   0x00ea76    program     static C:\firmware\70M_L_upconverter_SXY\70M_1223\work\Microchip\TCPIP Stack\HTTP2.c
              __string_48   0x00f57d    program     static C:\firmware\70M_L_upconverter_SXY\70M_1223\work\Singcom\Drivers\lcd.c
              __string_48   0x00ea66    program     static C:\firmware\70M_L_upconverter_SXY\70M_1223\work\Microchip\TCPIP Stack\HTTP2.c
              __string_49   0x00f554    program     static C:\firmware\70M_L_upconverter_SXY\70M_1223\work\Singcom\Drivers\lcd.c
              __string_49   0x00ea5d    program     static C:\firmware\70M_L_upconverter_SXY\70M_1223\work\Microchip\TCPIP Stack\HTTP2.c
               __string_5   0x00f219    program     static C:\firmware\70M_L_upconverter_SXY\70M_1223\work\App\WebUI\HTTPApp.c
               __string_5   0x00f507    program     static C:\firmware\70M_L_upconverter_SXY\70M_1223\work\App\WebUI\HTTPPrint.c
               __string_5   0x00f265    program     static C:\firmware\70M_L_upconverter_SXY\70M_1223\work\Singcom\Devices\MainControl_c1.c
               __string_5   0x00f195    program     static C:\firmware\70M_L_upconverter_SXY\70M_1223\work\Microchip\TCPIP Stack\HTTP2.c
               __string_5   0x00f40f    program     static C:\firmware\70M_L_upconverter_SXY\70M_1223\work\App\WebUI\HTTPGetDevInfo.c
              __string_50   0x00ea54    program     static C:\firmware\70M_L_upconverter_SXY\70M_1223\work\Microchip\TCPIP Stack\HTTP2.c
              __string_50   0x00f52b    program     static C:\firmware\70M_L_upconverter_SXY\70M_1223\work\Singcom\Drivers\lcd.c
              __string_51   0x00ea50    program     static C:\firmware\70M_L_upconverter_SXY\70M_1223\work\Microchip\TCPIP Stack\HTTP2.c
              __string_52   0x00ea4b    program     static C:\firmware\70M_L_upconverter_SXY\70M_1223\work\Microchip\TCPIP Stack\HTTP2.c
              __string_53   0x00ea40    program     static C:\firmware\70M_L_upconverter_SXY\70M_1223\work\Microchip\TCPIP Stack\HTTP2.c
               __string_6   0x00f25c    program     static C:\firmware\70M_L_upconverter_SXY\70M_1223\work\Singcom\Devices\MainControl_c1.c
               __string_6   0x00f4fe    program     static C:\firmware\70M_L_upconverter_SXY\70M_1223\work\App\WebUI\HTTPPrint.c
               __string_6   0x00f3fe    program     static C:\firmware\70M_L_upconverter_SXY\70M_1223\work\App\WebUI\HTTPGetDevInfo.c
               __string_6   0x00f210    program     static C:\firmware\70M_L_upconverter_SXY\70M_1223\work\App\WebUI\HTTPApp.c
               __string_6   0x00f190    program     static C:\firmware\70M_L_upconverter_SXY\70M_1223\work\Microchip\TCPIP Stack\HTTP2.c
               __string_7   0x00f258    program     static C:\firmware\70M_L_upconverter_SXY\70M_1223\work\Singcom\Devices\MainControl_c1.c
               __string_7   0x00f4f5    program     static C:\firmware\70M_L_upconverter_SXY\70M_1223\work\App\WebUI\HTTPPrint.c
               __string_7   0x00f18c    program     static C:\firmware\70M_L_upconverter_SXY\70M_1223\work\Microchip\TCPIP Stack\HTTP2.c
               __string_7   0x00f20d    program     static C:\firmware\70M_L_upconverter_SXY\70M_1223\work\App\WebUI\HTTPApp.c
               __string_7   0x00f3ee    program     static C:\firmware\70M_L_upconverter_SXY\70M_1223\work\App\WebUI\HTTPGetDevInfo.c
               __string_8   0x00f188    program     static C:\firmware\70M_L_upconverter_SXY\70M_1223\work\Microchip\TCPIP Stack\HTTP2.c
               __string_8   0x00f20a    program     static C:\firmware\70M_L_upconverter_SXY\70M_1223\work\App\WebUI\HTTPApp.c
               __string_8   0x00f3de    program     static C:\firmware\70M_L_upconverter_SXY\70M_1223\work\App\WebUI\HTTPGetDevInfo.c
               __string_8   0x00f4ee    program     static C:\firmware\70M_L_upconverter_SXY\70M_1223\work\App\WebUI\HTTPPrint.c
               __string_8   0x00f253    program     static C:\firmware\70M_L_upconverter_SXY\70M_1223\work\Singcom\Devices\MainControl_c1.c
               __string_9   0x00f184    program     static C:\firmware\70M_L_upconverter_SXY\70M_1223\work\Microchip\TCPIP Stack\HTTP2.c
               __string_9   0x00f3d1    program     static C:\firmware\70M_L_upconverter_SXY\70M_1223\work\App\WebUI\HTTPGetDevInfo.c
               __string_9   0x00f4e6    program     static C:\firmware\70M_L_upconverter_SXY\70M_1223\work\App\WebUI\HTTPPrint.c
               __string_9   0x00f206    program     static C:\firmware\70M_L_upconverter_SXY\70M_1223\work\App\WebUI\HTTPApp.c
               __tmplbl_0   0x00c5e4    program     static                          
              __tmplbl_10   0x00e192    program     static                          
             __tmplbl_100   0x002da4    program     static                          
             __tmplbl_101   0x002da4    program     static                          
             __tmplbl_102   0x002da4    program     static                          
             __tmplbl_103   0x002da4    program     static                          
             __tmplbl_104   0x002da4    program     static                          
             __tmplbl_106   0x002da4    program     static                          
             __tmplbl_108   0x002da4    program     static                          
             __tmplbl_109   0x002da4    program     static                          
             __tmplbl_109   0x008fdc    program     static                          
              __tmplbl_11   0x00e190    program     static                          
             __tmplbl_110   0x008fdc    program     static                          
             __tmplbl_110   0x002da4    program     static                          
             __tmplbl_111   0x008fdc    program     static                          
             __tmplbl_111   0x002da4    program     static                          
             __tmplbl_112   0x008fdc    program     static                          
             __tmplbl_113   0x008fdc    program     static                          
             __tmplbl_114   0x008fdc    program     static                          
             __tmplbl_114   0x002da4    program     static                          
             __tmplbl_115   0x008fdc    program     static                          
             __tmplbl_116   0x008fdc    program     static                          
             __tmplbl_117   0x002da4    program     static                          
             __tmplbl_117   0x008fdc    program     static                          
             __tmplbl_118   0x002da4    program     static                          
             __tmplbl_118   0x008fdc    program     static                          
             __tmplbl_119   0x008fdc    program     static                          
              __tmplbl_12   0x00e26c    program     static                          
             __tmplbl_120   0x009528    program     static                          
             __tmplbl_121   0x009528    program     static                          
             __tmplbl_122   0x009528    program     static                          
             __tmplbl_123   0x009528    program     static                          
             __tmplbl_124   0x009528    program     static                          
             __tmplbl_125   0x009528    program     static                          
             __tmplbl_126   0x009528    program     static                          
             __tmplbl_127   0x009528    program     static                          
             __tmplbl_128   0x009528    program     static                          
             __tmplbl_129   0x009528    program     static                          
              __tmplbl_13   0x00e25e    program     static                          
             __tmplbl_130   0x002da4    program     static                          
             __tmplbl_131   0x002da4    program     static                          
              __tmplbl_14   0x00e264    program     static                          
             __tmplbl_148   0x002da4    program     static                          
             __tmplbl_151   0x002da4    program     static                          
             __tmplbl_152   0x002da4    program     static                          
             __tmplbl_155   0x002a1c    program     static                          
             __tmplbl_157   0x002a1c    program     static                          
             __tmplbl_158   0x002a2a    program     static                          
             __tmplbl_164   0x002a2a    program     static                          
             __tmplbl_166   0x002a2a    program     static                          
             __tmplbl_167   0x002a2a    program     static                          
             __tmplbl_168   0x005b64    program     static                          
             __tmplbl_169   0x005b64    program     static                          
             __tmplbl_170   0x005b64    program     static                          
             __tmplbl_171   0x005b64    program     static                          
             __tmplbl_172   0x005012    program     static                          
             __tmplbl_173   0x004fcc    program     static                          
             __tmplbl_174   0x004fa0    program     static                          
             __tmplbl_174   0x002a22    program     static                          
             __tmplbl_175   0x004f9a    program     static                          
             __tmplbl_182   0x00502e    program     static                          
             __tmplbl_183   0x00502e    program     static                          
             __tmplbl_184   0x00502e    program     static                          
             __tmplbl_198   0x0046e6    program     static                          
             __tmplbl_199   0x005b64    program     static                          
             __tmplbl_200   0x005b64    program     static                          
             __tmplbl_201   0x005b64    program     static                          
             __tmplbl_203   0x005b64    program     static                          
             __tmplbl_213   0x003db6    program     static                          
             __tmplbl_214   0x003b3a    program     static                          
             __tmplbl_215   0x003bae    program     static                          
             __tmplbl_216   0x003df4    program     static                          
              __tmplbl_25   0x00e89e    program     static                          
              __tmplbl_34   0x00698e    program     static                          
              __tmplbl_35   0x006e74    program     static                          
              __tmplbl_36   0x006e6c    program     static                          
              __tmplbl_37   0x006ed4    program     static                          
              __tmplbl_38   0x006ecc    program     static                          
              __tmplbl_39   0x00c55c    program     static                          
              __tmplbl_39   0x006faa    program     static                          
              __tmplbl_40   0x00c600    program     static                          
              __tmplbl_40   0x006fa2    program     static                          
              __tmplbl_41   0x00c640    program     static                          
              __tmplbl_41   0x00a220    program     static                          
              __tmplbl_41   0x006ff8    program     static                          
              __tmplbl_42   0x00a220    program     static                          
              __tmplbl_42   0x006ff0    program     static                          
              __tmplbl_42   0x00c6a4    program     static                          
              __tmplbl_42   0x00dd32    program     static                          
              __tmplbl_43   0x00db7a    program     static                          
              __tmplbl_44   0x00db60    program     static                          
               __tmplbl_5   0x00e1fc    program     static                          
              __tmplbl_55   0x00c45e    program     static                          
              __tmplbl_56   0x00c45e    program     static                          
              __tmplbl_58   0x00c336    program     static                          
               __tmplbl_6   0x00e1e6    program     static                          
              __tmplbl_60   0x00c114    program     static                          
              __tmplbl_60   0x00b15e    program     static                          
              __tmplbl_61   0x00c1c2    program     static                          
              __tmplbl_61   0x00b15e    program     static                          
              __tmplbl_63   0x00c1c2    program     static                          
              __tmplbl_64   0x00c1c2    program     static                          
              __tmplbl_65   0x00c1c2    program     static                          
              __tmplbl_66   0x00c1c2    program     static                          
              __tmplbl_67   0x00c114    program     static                          
              __tmplbl_68   0x00c114    program     static                          
              __tmplbl_69   0x00c336    program     static                          
               __tmplbl_7   0x00e1ce    program     static                          
              __tmplbl_75   0x00772e    program     static                          
              __tmplbl_76   0x00772e    program     static                          
              __tmplbl_77   0x00772e    program     static                          
              __tmplbl_79   0x002da4    program     static                          
               __tmplbl_8   0x00e1b8    program     static                          
              __tmplbl_81   0x002da4    program     static                          
              __tmplbl_85   0x00d2b2    program     static                          
              __tmplbl_85   0x002da4    program     static                          
              __tmplbl_87   0x002da4    program     static                          
              __tmplbl_88   0x002da4    program     static                          
              __tmplbl_89   0x002da4    program     static                          
               __tmplbl_9   0x00e1a0    program     static                          
              __tmplbl_90   0x002da4    program     static                          
              __tmplbl_91   0x002da4    program     static                          
              __tmplbl_92   0x002da4    program     static                          
              __tmplbl_93   0x002da4    program     static                          
              __tmplbl_95   0x002da4    program     static                          
              __tmplbl_97   0x002da4    program     static                          
              __tmplbl_99   0x002da4    program     static                          
            __zero_memory   0x013a30    program     extern C:\MCC18\src\traditional\proc\p18F97J60.asm
                _do_cinit   0x01358e    program     extern C:\Program Files\mcc18\src\traditional\startup\c018iz.c
                   _entry   0x000000    program     extern C:\Program Files\mcc18\src\traditional\startup\c018iz.c
                   _false   0x0138d4    program     static                          
                 _startup   0x01394e    program     extern C:\Program Files\mcc18\src\traditional\startup\c018iz.c
              _usart_putc   0x0139ac    program     extern C:\MCC18\src\pmc_common\USART\_usartpc.asm
               _user_putc   0x013a4a    program     extern C:\Program Files\mcc18\src\traditional\stdclib\_user_putc.c
                    atof1   0x00a046    program     extern C:\firmware\70M_L_upconverter_SXY\70M_1223\work\SysLib\util.c
                    atof5   0x009fc0    program     extern C:\firmware\70M_L_upconverter_SXY\70M_1223\work\SysLib\util.c
                     atol   0x012eb0    program     extern C:\Program Files\mcc18\src\traditional\stdclib\atol.asm
             btohexa_high   0x00cc68    program     extern C:\firmware\70M_L_upconverter_SXY\70M_1223\work\Microchip\TCPIP Stack\Helpers.c
              btohexa_low   0x00cc90    program     extern C:\firmware\70M_L_upconverter_SXY\70M_1223\work\Microchip\TCPIP Stack\Helpers.c
               clear_loop   0x013a36    program     static C:\MCC18\src\traditional\proc\p18F97J60.asm
                copy_loop   0x013600    program     static                          
            copy_one_byte   0x013606    program     static                          
                     done   0x01362a    program     static                          
             done_copying   0x013614    program     static                          
                  endloop   0x013900    program     static                          
                  endloop   0x0139de    program     static                          
                  hexatob   0x00cc1e    program     extern C:\firmware\70M_L_upconverter_SXY\70M_1223\work\Microchip\TCPIP Stack\Helpers.c
         httpContentTypes   0x01375d    program     static C:\firmware\70M_L_upconverter_SXY\70M_1223\work\Microchip\TCPIP Stack\HTTP2.c
       httpFileExtensions   0x013739    program     static C:\firmware\70M_L_upconverter_SXY\70M_1223\work\Microchip\TCPIP Stack\HTTP2.c
                 i2cclock   0x011f7c    program     extern C:\firmware\70M_L_upconverter_SXY\70M_1223\work\Singcom\Drivers\i2c_c1.c
                 i2cdelay   0x011fca    program     extern C:\firmware\70M_L_upconverter_SXY\70M_1223\work\Singcom\Drivers\i2c_c1.c
                i2cgetack   0x011fa8    program     extern C:\firmware\70M_L_upconverter_SXY\70M_1223\work\Singcom\Drivers\i2c_c1.c
               i2cgetbyte   0x011f1e    program     extern C:\firmware\70M_L_upconverter_SXY\70M_1223\work\Singcom\Drivers\i2c_c1.c
               i2creadbit   0x011f88    program     extern C:\firmware\70M_L_upconverter_SXY\70M_1223\work\Singcom\Drivers\i2c_c1.c
               i2csendack   0x011fc2    program     extern C:\firmware\70M_L_upconverter_SXY\70M_1223\work\Singcom\Drivers\i2c_c1.c
              i2csendbyte   0x011eec    program     extern C:\firmware\70M_L_upconverter_SXY\70M_1223\work\Singcom\Drivers\i2c_c1.c
              i2csendnack   0x011fc6    program     extern C:\firmware\70M_L_upconverter_SXY\70M_1223\work\Singcom\Drivers\i2c_c1.c
                 i2cstart   0x011f56    program     extern C:\firmware\70M_L_upconverter_SXY\70M_1223\work\Singcom\Drivers\i2c_c1.c
                  i2cstop   0x011f6a    program     extern C:\firmware\70M_L_upconverter_SXY\70M_1223\work\Singcom\Drivers\i2c_c1.c
                  isdigit   0x013906    program     extern C:\Program Files\mcc18\src\traditional\stdclib\isdigit.asm
                 jANotInf   0x00fe2c    program     static C:\Program Files\mcc18\src\traditional\math\divFP.asm
                 jANotInf   0x00fed2    program     static C:\Program Files\mcc18\src\traditional\math\mulFP.asm
                 jANotInf   0x00fd0a    program     static C:\Program Files\mcc18\src\traditional\math\addFP.asm
                 jANotNeg   0x00fd9e    program     static C:\Program Files\mcc18\src\traditional\math\addFP.asm
                jANotZero   0x00fe40    program     static C:\Program Files\mcc18\src\traditional\math\divFP.asm
              jAandWsetup   0x00fd6e    program     static C:\Program Files\mcc18\src\traditional\math\addFP.asm
                 jAltBexp   0x00fd5c    program     static C:\Program Files\mcc18\src\traditional\math\addFP.asm
                jBANotInf   0x00fd00    program     static C:\Program Files\mcc18\src\traditional\math\addFP.asm
                 jBNotInf   0x00fd18    program     static C:\Program Files\mcc18\src\traditional\math\addFP.asm
              jBothFinite   0x00fee0    program     static C:\Program Files\mcc18\src\traditional\math\mulFP.asm
             jBothNotZero   0x00feec    program     static C:\Program Files\mcc18\src\traditional\math\mulFP.asm
            jDifOrPosSign   0x00fd2c    program     static C:\Program Files\mcc18\src\traditional\math\addFP.asm
                     jEnd   0x010e40    program     static C:\Program Files\mcc18\src\traditional\stdclib\scatp2r.asm
                     jEnd   0x010f9c    program     static C:\Program Files\mcc18\src\traditional\stdclib\slenpgm.asm
                     jEnd   0x010f64    program     static C:\Program Files\mcc18\src\traditional\stdclib\strlen.asm
                     jEnd   0x010e68    program     static C:\Program Files\mcc18\src\traditional\stdclib\strchr.asm
                     jEnd   0x010f48    program     static C:\Program Files\mcc18\src\traditional\stdclib\scpyp2r.asm
                     jEnd   0x011000    program     static C:\Program Files\mcc18\src\traditional\stdclib\strncat.asm
                     jEnd   0x01105c    program     static C:\Program Files\mcc18\src\traditional\stdclib\strncpy.asm
                     jEnd   0x010e94    program     static C:\Program Files\mcc18\src\traditional\stdclib\strcmp.asm
                     jEnd   0x010dc0    program     static C:\Program Files\mcc18\src\traditional\stdclib\memset.asm
                     jEnd   0x010ed4    program     static C:\Program Files\mcc18\src\traditional\stdclib\scmpp2r.asm
                     jEnd   0x0110b8    program     static C:\Program Files\mcc18\src\traditional\stdclib\sncpyp2r.asm
                     jEnd   0x012fce    program     static C:\Program Files\mcc18\src\traditional\stdclib\atol.asm
                     jEnd   0x010d8c    program     static C:\Program Files\mcc18\src\traditional\stdclib\mcpyp2r.asm
                     jEnd   0x010cb2    program     static C:\Program Files\mcc18\src\traditional\stdclib\memchr.asm
                     jEnd   0x010cf0    program     static C:\Program Files\mcc18\src\traditional\stdclib\mcmpp2r.asm
                     jEnd   0x0110e2    program     static C:\Program Files\mcc18\src\traditional\stdclib\strupr.asm
                     jEnd   0x010d36    program     static C:\Program Files\mcc18\src\traditional\stdclib\memcpy.asm
                 jEndLoop   0x012f9e    program     static C:\Program Files\mcc18\src\traditional\stdclib\atol.asm
                    jExit   0x01015e    program     static C:\Program Files\mcc18\src\traditional\math\castFP16.asm
               jFinalSign   0x00fe06    program     static C:\Program Files\mcc18\src\traditional\math\addFP.asm
                jHaveZero   0x00fee8    program     static C:\Program Files\mcc18\src\traditional\math\mulFP.asm
                jI2F08Beg   0x00fca2    program     static C:\Program Files\mcc18\src\traditional\math\cast08FP.asm
                jI2F16Beg   0x00fcca    program     static C:\Program Files\mcc18\src\traditional\math\cast16FP.asm
                    jLoop   0x010fde    program     static C:\Program Files\mcc18\src\traditional\stdclib\strncat.asm
                    jLoop   0x01103a    program     static C:\Program Files\mcc18\src\traditional\stdclib\strncpy.asm
                    jLoop   0x00fe68    program     static C:\Program Files\mcc18\src\traditional\math\divFP.asm
                    jLoop   0x010f84    program     static C:\Program Files\mcc18\src\traditional\stdclib\slenpgm.asm
                    jLoop   0x010f5a    program     static C:\Program Files\mcc18\src\traditional\stdclib\strlen.asm
                    jLoop   0x011094    program     static C:\Program Files\mcc18\src\traditional\stdclib\sncpyp2r.asm
                    jLoop   0x0110ce    program     static C:\Program Files\mcc18\src\traditional\stdclib\strupr.asm
                    jLoop   0x010f3e    program     static C:\Program Files\mcc18\src\traditional\stdclib\scpyp2r.asm
                    jLoop   0x010efe    program     static C:\Program Files\mcc18\src\traditional\stdclib\strcpy.asm
                    jLoop   0x010d6e    program     static C:\Program Files\mcc18\src\traditional\stdclib\mcpyp2r.asm
                    jLoop   0x010d1a    program     static C:\Program Files\mcc18\src\traditional\stdclib\memcpy.asm
                    jLoop   0x010da2    program     static C:\Program Files\mcc18\src\traditional\stdclib\memset.asm
                    jLoop   0x010cd2    program     static C:\Program Files\mcc18\src\traditional\stdclib\mcmpp2r.asm
                    jLoop   0x012f10    program     static C:\Program Files\mcc18\src\traditional\stdclib\atol.asm
                    jLoop   0x01013e    program     static C:\Program Files\mcc18\src\traditional\math\castFP16.asm
                    jLoop   0x010df0    program     static C:\Program Files\mcc18\src\traditional\stdclib\strcat.asm
                    jLoop   0x010c84    program     static C:\Program Files\mcc18\src\traditional\stdclib\memchr.asm
                    jLoop   0x010e36    program     static C:\Program Files\mcc18\src\traditional\stdclib\scatp2r.asm
                    jLoop   0x010e4e    program     static C:\Program Files\mcc18\src\traditional\stdclib\strchr.asm
                    jLoop   0x010ec8    program     static C:\Program Files\mcc18\src\traditional\stdclib\scmpp2r.asm
                    jLoop   0x010e8a    program     static C:\Program Files\mcc18\src\traditional\stdclib\strcmp.asm
                jLoopExit   0x01014e    program     static C:\Program Files\mcc18\src\traditional\math\castFP16.asm
                   jMatch   0x013926    program     static C:\Program Files\mcc18\src\traditional\stdclib\isdigit.asm
                   jMatch   0x010e60    program     static C:\Program Files\mcc18\src\traditional\stdclib\strchr.asm
                     jMax   0x010112    program     static C:\Program Files\mcc18\src\traditional\math\castFP16.asm
                  jMaxNeg   0x010120    program     static C:\Program Files\mcc18\src\traditional\math\castFP16.asm
                  jMaxPos   0x010116    program     static C:\Program Files\mcc18\src\traditional\math\castFP16.asm
                    jNext   0x00fe8e    program     static C:\Program Files\mcc18\src\traditional\math\divFP.asm
                jNoAdjust   0x00fe8c    program     static C:\Program Files\mcc18\src\traditional\math\divFP.asm
                 jNoMatch   0x013928    program     static C:\Program Files\mcc18\src\traditional\stdclib\isdigit.asm
                 jNoMatch   0x010cae    program     static C:\Program Files\mcc18\src\traditional\stdclib\memchr.asm
             jNotBothZero   0x00fd30    program     static C:\Program Files\mcc18\src\traditional\math\addFP.asm
                  jNotInf   0x01012e    program     static C:\Program Files\mcc18\src\traditional\math\castFP16.asm
                jNullLoop   0x010fd8    program     static C:\Program Files\mcc18\src\traditional\stdclib\strncat.asm
                jNullLoop   0x010dea    program     static C:\Program Files\mcc18\src\traditional\stdclib\strcat.asm
                jNullLoop   0x010e30    program     static C:\Program Files\mcc18\src\traditional\stdclib\scatp2r.asm
                  jPkLoop   0x0101a6    program     static C:\Program Files\mcc18\src\traditional\math\packFP.asm
             jPkRoundDone   0x0101f0    program     static C:\Program Files\mcc18\src\traditional\math\packFP.asm
               jPkRoundIt   0x0101d8    program     static C:\Program Files\mcc18\src\traditional\math\packFP.asm
             jPkShiftDone   0x0101c2    program     static C:\Program Files\mcc18\src\traditional\math\packFP.asm
           jReturnPosInf0   0x01017c    program     static C:\Program Files\mcc18\src\traditional\math\packFP.asm
               jShiftDone   0x00fdc6    program     static C:\Program Files\mcc18\src\traditional\math\addFP.asm
               jShiftLoop   0x00fdb8    program     static C:\Program Files\mcc18\src\traditional\math\addFP.asm
                jSignDone   0x00fdf6    program     static C:\Program Files\mcc18\src\traditional\math\addFP.asm
              jSignedZero   0x00fe36    program     static C:\Program Files\mcc18\src\traditional\math\divFP.asm
                    jSkip   0x0110de    program     static C:\Program Files\mcc18\src\traditional\stdclib\strupr.asm
                  jSkipWS   0x012ee6    program     static C:\Program Files\mcc18\src\traditional\stdclib\atol.asm
                 jSkipWS1   0x012ef8    program     static C:\Program Files\mcc18\src\traditional\stdclib\atol.asm
                    jTerm   0x010ffe    program     static C:\Program Files\mcc18\src\traditional\stdclib\strncat.asm
                 jTstSign   0x012efc    program     static C:\Program Files\mcc18\src\traditional\stdclib\atol.asm
                jTstSign1   0x012f08    program     static C:\Program Files\mcc18\src\traditional\stdclib\atol.asm
                jTstSign2   0x012f0e    program     static C:\Program Files\mcc18\src\traditional\stdclib\atol.asm
                jTstSign3   0x012f10    program     static C:\Program Files\mcc18\src\traditional\stdclib\atol.asm
                  jUnpkA1   0x01021a    program     static C:\Program Files\mcc18\src\traditional\math\UnpackFP.asm
                  jUnpkA2   0x010232    program     static C:\Program Files\mcc18\src\traditional\math\UnpackFP.asm
                 jUnpkANZ   0x010228    program     static C:\Program Files\mcc18\src\traditional\math\UnpackFP.asm
                  jUnpkB1   0x01024a    program     static C:\Program Files\mcc18\src\traditional\math\UnpackFP.asm
                  jUnpkB2   0x010262    program     static C:\Program Files\mcc18\src\traditional\math\UnpackFP.asm
                 jUnpkBNZ   0x010258    program     static C:\Program Files\mcc18\src\traditional\math\UnpackFP.asm
                 jUnpkNaN   0x01023c    program     static C:\Program Files\mcc18\src\traditional\math\UnpackFP.asm
                 jWNotNeg   0x00fdb2    program     static C:\Program Files\mcc18\src\traditional\math\addFP.asm
                    jZero   0x010128    program     static C:\Program Files\mcc18\src\traditional\math\castFP16.asm
               jZero1and2   0x010180    program     static C:\Program Files\mcc18\src\traditional\math\packFP.asm
          leftRotateDWORD   0x00cf0c    program     extern C:\firmware\70M_L_upconverter_SXY\70M_1223\work\Microchip\TCPIP Stack\Helpers.c
                     loop   0x013962    program     static                          
                     loop   0x0138a0    program     static                          
                     loop   0x0139bc    program     static C:\MCC18\src\pmc_common\USART\_usartpc.asm
                     loop   0x0138e4    program     static                          
                     loop   0x0139d0    program     static                          
                     main   0x0125fe    program     extern C:\firmware\70M_L_upconverter_SXY\70M_1223\work\Main\Main.c
                   memchr   0x010c78    program     extern C:\Program Files\mcc18\src\traditional\stdclib\memchr.asm
            memcmppgm2ram   0x010cb4    program     extern C:\Program Files\mcc18\src\traditional\stdclib\mcmpp2r.asm
                   memcpy   0x010cf2    program     extern C:\Program Files\mcc18\src\traditional\stdclib\memcpy.asm
            memcpypgm2ram   0x010d48    program     extern C:\Program Files\mcc18\src\traditional\stdclib\mcpyp2r.asm
                   memset   0x010d8e    program     extern C:\Program Files\mcc18\src\traditional\stdclib\memset.asm
                     putc   0x0136b2    program     extern C:\Program Files\mcc18\src\traditional\stdclib\putc.c
                putsUSART   0x013434    program     extern C:\firmware\70M_L_upconverter_SXY\70M_1223\work\Microchip\TCPIP Stack\UART.c
               putsUSART2   0x013488    program     extern C:\firmware\70M_L_upconverter_SXY\70M_1223\work\Microchip\TCPIP Stack\UART.c
                     rand   0x013014    program     extern C:\Program Files\mcc18\src\traditional\stdclib\rand.asm
                 s_digits   0x013a0e    program     static C:\Program Files\mcc18\src\traditional\stdclib\vfprintf.c
            s_put_n_chars   0x00d25c    program     static C:\Program Files\mcc18\src\traditional\stdclib\vfprintf.c
                  sprintf   0x0134e2    program     extern C:\Program Files\mcc18\src\traditional\stdclib\sprintf.c
                    srand   0x013006    program     extern C:\Program Files\mcc18\src\traditional\stdclib\rand.asm
                   strcat   0x010dc2    program     extern C:\Program Files\mcc18\src\traditional\stdclib\strcat.asm
            strcatpgm2ram   0x010e0a    program     extern C:\Program Files\mcc18\src\traditional\stdclib\scatp2r.asm
                   strchr   0x010e42    program     extern C:\Program Files\mcc18\src\traditional\stdclib\strchr.asm
                   strcmp   0x010e6a    program     extern C:\Program Files\mcc18\src\traditional\stdclib\strcmp.asm
            strcmppgm2ram   0x010eaa    program     extern C:\Program Files\mcc18\src\traditional\stdclib\scmpp2r.asm
                   strcpy   0x010ed6    program     extern C:\Program Files\mcc18\src\traditional\stdclib\strcpy.asm
            strcpypgm2ram   0x010f18    program     extern C:\Program Files\mcc18\src\traditional\stdclib\scpyp2r.asm
           stricmppgm2ram   0x00ccb4    program     extern C:\firmware\70M_L_upconverter_SXY\70M_1223\work\Microchip\TCPIP Stack\Helpers.c
                   strlen   0x010f4a    program     extern C:\Program Files\mcc18\src\traditional\stdclib\strlen.asm
                strlenpgm   0x010f66    program     extern C:\Program Files\mcc18\src\traditional\stdclib\slenpgm.asm
                  strncat   0x010fb0    program     extern C:\Program Files\mcc18\src\traditional\stdclib\strncat.asm
                  strnchr   0x00cfe4    program     extern C:\firmware\70M_L_upconverter_SXY\70M_1223\work\Microchip\TCPIP Stack\Helpers.c
                  strncpy   0x011012    program     extern C:\Program Files\mcc18\src\traditional\stdclib\strncpy.asm
           strncpypgm2ram   0x01106e    program     extern C:\Program Files\mcc18\src\traditional\stdclib\sncpyp2r.asm
                   strupr   0x0110ba    program     extern C:\Program Files\mcc18\src\traditional\stdclib\strupr.asm
                    swapl   0x00cda2    program     extern C:\firmware\70M_L_upconverter_SXY\70M_1223\work\Microchip\TCPIP Stack\Helpers.c
                    swaps   0x00cd64    program     extern C:\firmware\70M_L_upconverter_SXY\70M_1223\work\Microchip\TCPIP Stack\Helpers.c
                     test   0x0135a8    program     static                          
                    uitoa   0x00cb28    program     extern C:\firmware\70M_L_upconverter_SXY\70M_1223\work\Microchip\TCPIP Stack\Helpers.c
                 vfprintf   0x00d288    program     extern C:\Program Files\mcc18\src\traditional\stdclib\vfprintf.c
                 ADCInfo1   0x0002df       data     extern C:\firmware\70M_L_upconverter_SXY\70M_1223\work\Drivers\MCU-Internal\internalADC.c
                   ADCON0   0x000fc2       data     extern C:\MCC18\src\traditional\proc\p18F97J60.asm
               ADCON0bits   0x000fc2       data     extern C:\MCC18\src\traditional\proc\p18F97J60.asm
                   ADCON1   0x000fc1       data     extern C:\MCC18\src\traditional\proc\p18F97J60.asm
               ADCON1bits   0x000fc1       data     extern C:\MCC18\src\traditional\proc\p18F97J60.asm
                   ADCON2   0x000fc0       data     extern C:\MCC18\src\traditional\proc\p18F97J60.asm
               ADCON2bits   0x000fc0       data     extern C:\MCC18\src\traditional\proc\p18F97J60.asm
               ADC_result   0x0002e7       data     extern C:\firmware\70M_L_upconverter_SXY\70M_1223\work\Drivers\MCU-Internal\internalADC.c
                    ADRES   0x000fc3       data     extern C:\MCC18\src\traditional\proc\p18F97J60.asm
                   ADRESH   0x000fc4       data     extern C:\MCC18\src\traditional\proc\p18F97J60.asm
                   ADRESL   0x000fc3       data     extern C:\MCC18\src\traditional\proc\p18F97J60.asm
                AppConfig   0x0003b8       data     extern C:\firmware\70M_L_upconverter_SXY\70M_1223\work\Main\Main.c
             AttenString1   0x000959       data     extern C:\firmware\70M_L_upconverter\70M_Test\work\Main\Global.c
             AttenString2   0x000961       data     extern C:\firmware\70M_L_upconverter\70M_Test\work\Main\Global.c
                  BAUDCON   0x000f7e       data     extern C:\MCC18\src\traditional\proc\p18F97J60.asm
                 BAUDCON1   0x000f7e       data     extern C:\MCC18\src\traditional\proc\p18F97J60.asm
             BAUDCON1bits   0x000f7e       data     extern C:\MCC18\src\traditional\proc\p18F97J60.asm
                 BAUDCON2   0x000f7c       data     extern C:\MCC18\src\traditional\proc\p18F97J60.asm
             BAUDCON2bits   0x000f7c       data     extern C:\MCC18\src\traditional\proc\p18F97J60.asm
              BAUDCONbits   0x000f7e       data     extern C:\MCC18\src\traditional\proc\p18F97J60.asm
                  BAUDCTL   0x000f7e       data     extern C:\MCC18\src\traditional\proc\p18F97J60.asm
                 BAUDCTL1   0x000f7e       data     extern C:\MCC18\src\traditional\proc\p18F97J60.asm
             BAUDCTL1bits   0x000f7e       data     extern C:\MCC18\src\traditional\proc\p18F97J60.asm
                 BAUDCTL2   0x000f7c       data     extern C:\MCC18\src\traditional\proc\p18F97J60.asm
             BAUDCTL2bits   0x000f7c       data     extern C:\MCC18\src\traditional\proc\p18F97J60.asm
              BAUDCTLbits   0x000f7e       data     extern C:\MCC18\src\traditional\proc\p18F97J60.asm
                      BSR   0x000fe0       data     extern C:\MCC18\src\traditional\proc\p18F97J60.asm
             BlinkingFlag   0x00092a       data     static C:\firmware\70M_L_upconverter_SXY\70M_1223\work\Singcom\Drivers\lcd.c
                  CCP1CON   0x000fbd       data     extern C:\MCC18\src\traditional\proc\p18F97J60.asm
              CCP1CONbits   0x000fbd       data     extern C:\MCC18\src\traditional\proc\p18F97J60.asm
                  CCP2CON   0x000fba       data     extern C:\MCC18\src\traditional\proc\p18F97J60.asm
              CCP2CONbits   0x000fba       data     extern C:\MCC18\src\traditional\proc\p18F97J60.asm
                  CCP3CON   0x000fb7       data     extern C:\MCC18\src\traditional\proc\p18F97J60.asm
              CCP3CONbits   0x000fb7       data     extern C:\MCC18\src\traditional\proc\p18F97J60.asm
                  CCP4CON   0x000f73       data     extern C:\MCC18\src\traditional\proc\p18F97J60.asm
              CCP4CONbits   0x000f73       data     extern C:\MCC18\src\traditional\proc\p18F97J60.asm
                  CCP5CON   0x000f70       data     extern C:\MCC18\src\traditional\proc\p18F97J60.asm
              CCP5CONbits   0x000f70       data     extern C:\MCC18\src\traditional\proc\p18F97J60.asm
                    CCPR1   0x000fbe       data     extern C:\MCC18\src\traditional\proc\p18F97J60.asm
                   CCPR1H   0x000fbf       data     extern C:\MCC18\src\traditional\proc\p18F97J60.asm
                   CCPR1L   0x000fbe       data     extern C:\MCC18\src\traditional\proc\p18F97J60.asm
                    CCPR2   0x000fbb       data     extern C:\MCC18\src\traditional\proc\p18F97J60.asm
                   CCPR2H   0x000fbc       data     extern C:\MCC18\src\traditional\proc\p18F97J60.asm
                   CCPR2L   0x000fbb       data     extern C:\MCC18\src\traditional\proc\p18F97J60.asm
                    CCPR3   0x000fb8       data     extern C:\MCC18\src\traditional\proc\p18F97J60.asm
                   CCPR3H   0x000fb9       data     extern C:\MCC18\src\traditional\proc\p18F97J60.asm
                   CCPR3L   0x000fb8       data     extern C:\MCC18\src\traditional\proc\p18F97J60.asm
                    CCPR4   0x000f74       data     extern C:\MCC18\src\traditional\proc\p18F97J60.asm
                   CCPR4H   0x000f75       data     extern C:\MCC18\src\traditional\proc\p18F97J60.asm
                   CCPR4L   0x000f74       data     extern C:\MCC18\src\traditional\proc\p18F97J60.asm
                    CCPR5   0x000f71       data     extern C:\MCC18\src\traditional\proc\p18F97J60.asm
                   CCPR5H   0x000f72       data     extern C:\MCC18\src\traditional\proc\p18F97J60.asm
                   CCPR5L   0x000f71       data     extern C:\MCC18\src\traditional\proc\p18F97J60.asm
                    CMCON   0x000fb4       data     extern C:\MCC18\src\traditional\proc\p18F97J60.asm
                CMCONbits   0x000fb4       data     extern C:\MCC18\src\traditional\proc\p18F97J60.asm
                   CVRCON   0x000fb5       data     extern C:\MCC18\src\traditional\proc\p18F97J60.asm
               CVRCONbits   0x000fb5       data     extern C:\MCC18\src\traditional\proc\p18F97J60.asm
                    Cache   0x0003eb       data     static C:\firmware\70M_L_upconverter_SXY\70M_1223\work\Microchip\TCPIP Stack\ARP.c
              CurrentMenu   0x000800       data     static C:\firmware\70M_L_upconverter_SXY\70M_1223\work\Singcom\Drivers\lcd.c
    CurrentPacketLocation   0x000449       data     static C:\firmware\70M_L_upconverter_SXY\70M_1223\work\Microchip\TCPIP Stack\ETH97J60.c
                     DDRA   0x000f92       data     extern C:\MCC18\src\traditional\proc\p18F97J60.asm
                 DDRAbits   0x000f92       data     extern C:\MCC18\src\traditional\proc\p18F97J60.asm
                     DDRB   0x000f93       data     extern C:\MCC18\src\traditional\proc\p18F97J60.asm
                 DDRBbits   0x000f93       data     extern C:\MCC18\src\traditional\proc\p18F97J60.asm
                     DDRC   0x000f94       data     extern C:\MCC18\src\traditional\proc\p18F97J60.asm
                 DDRCbits   0x000f94       data     extern C:\MCC18\src\traditional\proc\p18F97J60.asm
                     DDRD   0x000f95       data     extern C:\MCC18\src\traditional\proc\p18F97J60.asm
                 DDRDbits   0x000f95       data     extern C:\MCC18\src\traditional\proc\p18F97J60.asm
                     DDRE   0x000f96       data     extern C:\MCC18\src\traditional\proc\p18F97J60.asm
                 DDREbits   0x000f96       data     extern C:\MCC18\src\traditional\proc\p18F97J60.asm
                     DDRF   0x000f97       data     extern C:\MCC18\src\traditional\proc\p18F97J60.asm
                 DDRFbits   0x000f97       data     extern C:\MCC18\src\traditional\proc\p18F97J60.asm
                     DDRG   0x000f98       data     extern C:\MCC18\src\traditional\proc\p18F97J60.asm
                 DDRGbits   0x000f98       data     extern C:\MCC18\src\traditional\proc\p18F97J60.asm
                     DDRH   0x000f99       data     extern C:\MCC18\src\traditional\proc\p18F97J60.asm
                 DDRHbits   0x000f99       data     extern C:\MCC18\src\traditional\proc\p18F97J60.asm
                     DDRJ   0x000f9a       data     extern C:\MCC18\src\traditional\proc\p18F97J60.asm
                 DDRJbits   0x000f9a       data     extern C:\MCC18\src\traditional\proc\p18F97J60.asm
            DelayCounter1   0x00002c       data     extern C:\Program Files\mcc18\src\traditional\delays\delayd1.asm
                  ECCP1AS   0x000fb6       data     extern C:\MCC18\src\traditional\proc\p18F97J60.asm
              ECCP1ASbits   0x000fb6       data     extern C:\MCC18\src\traditional\proc\p18F97J60.asm
                 ECCP1CON   0x000fbd       data     extern C:\MCC18\src\traditional\proc\p18F97J60.asm
             ECCP1CONbits   0x000fbd       data     extern C:\MCC18\src\traditional\proc\p18F97J60.asm
                 ECCP1DEL   0x000f79       data     extern C:\MCC18\src\traditional\proc\p18F97J60.asm
             ECCP1DELbits   0x000f79       data     extern C:\MCC18\src\traditional\proc\p18F97J60.asm
                  ECCP2AS   0x000f68       data     extern C:\MCC18\src\traditional\proc\p18F97J60.asm
              ECCP2ASbits   0x000f68       data     extern C:\MCC18\src\traditional\proc\p18F97J60.asm
                 ECCP2CON   0x000fba       data     extern C:\MCC18\src\traditional\proc\p18F97J60.asm
             ECCP2CONbits   0x000fba       data     extern C:\MCC18\src\traditional\proc\p18F97J60.asm
                 ECCP2DEL   0x000f67       data     extern C:\MCC18\src\traditional\proc\p18F97J60.asm
             ECCP2DELbits   0x000f67       data     extern C:\MCC18\src\traditional\proc\p18F97J60.asm
                  ECCP3AS   0x000f6a       data     extern C:\MCC18\src\traditional\proc\p18F97J60.asm
              ECCP3ASbits   0x000f6a       data     extern C:\MCC18\src\traditional\proc\p18F97J60.asm
                 ECCP3CON   0x000fb7       data     extern C:\MCC18\src\traditional\proc\p18F97J60.asm
             ECCP3CONbits   0x000fb7       data     extern C:\MCC18\src\traditional\proc\p18F97J60.asm
                 ECCP3DEL   0x000f69       data     extern C:\MCC18\src\traditional\proc\p18F97J60.asm
             ECCP3DELbits   0x000f69       data     extern C:\MCC18\src\traditional\proc\p18F97J60.asm
                    ECON1   0x000fd2       data     extern C:\MCC18\src\traditional\proc\p18F97J60.asm
                ECON1bits   0x000fd2       data     extern C:\MCC18\src\traditional\proc\p18F97J60.asm
                    ECON2   0x000efe       data     extern C:\MCC18\src\traditional\proc\p18F97J60.asm
                ECON2bits   0x000efe       data     extern C:\MCC18\src\traditional\proc\p18F97J60.asm
                    EDATA   0x000f61       data     extern C:\MCC18\src\traditional\proc\p18F97J60.asm
                EDATAbits   0x000f61       data     extern C:\MCC18\src\traditional\proc\p18F97J60.asm
                   EDMACS   0x000ef6       data     extern C:\MCC18\src\traditional\proc\p18F97J60.asm
                  EDMACSH   0x000ef7       data     extern C:\MCC18\src\traditional\proc\p18F97J60.asm
                  EDMACSL   0x000ef6       data     extern C:\MCC18\src\traditional\proc\p18F97J60.asm
                  EDMADST   0x000ef4       data     extern C:\MCC18\src\traditional\proc\p18F97J60.asm
                 EDMADSTH   0x000ef5       data     extern C:\MCC18\src\traditional\proc\p18F97J60.asm
                 EDMADSTL   0x000ef4       data     extern C:\MCC18\src\traditional\proc\p18F97J60.asm
                   EDMAND   0x000ef2       data     extern C:\MCC18\src\traditional\proc\p18F97J60.asm
                  EDMANDH   0x000ef3       data     extern C:\MCC18\src\traditional\proc\p18F97J60.asm
                  EDMANDL   0x000ef2       data     extern C:\MCC18\src\traditional\proc\p18F97J60.asm
                   EDMAST   0x000ef0       data     extern C:\MCC18\src\traditional\proc\p18F97J60.asm
                  EDMASTH   0x000ef1       data     extern C:\MCC18\src\traditional\proc\p18F97J60.asm
                  EDMASTL   0x000ef0       data     extern C:\MCC18\src\traditional\proc\p18F97J60.asm
                   EECON1   0x000fa6       data     extern C:\MCC18\src\traditional\proc\p18F97J60.asm
               EECON1bits   0x000fa6       data     extern C:\MCC18\src\traditional\proc\p18F97J60.asm
                   EECON2   0x000fa7       data     extern C:\MCC18\src\traditional\proc\p18F97J60.asm
            EEPROMAddress   0x000400       data     static C:\firmware\70M_L_upconverter_SXY\70M_1223\work\Microchip\TCPIP Stack\SPIEEPROM.c
             EEPROMBuffer   0x000404       data     static C:\firmware\70M_L_upconverter_SXY\70M_1223\work\Microchip\TCPIP Stack\SPIEEPROM.c
                  EFLOCON   0x000e97       data     extern C:\MCC18\src\traditional\proc\p18F97J60.asm
              EFLOCONbits   0x000e97       data     extern C:\MCC18\src\traditional\proc\p18F97J60.asm
                     EHT0   0x000ec0       data     extern C:\MCC18\src\traditional\proc\p18F97J60.asm
                     EHT1   0x000ec1       data     extern C:\MCC18\src\traditional\proc\p18F97J60.asm
                     EHT2   0x000ec2       data     extern C:\MCC18\src\traditional\proc\p18F97J60.asm
                     EHT3   0x000ec3       data     extern C:\MCC18\src\traditional\proc\p18F97J60.asm
                     EHT4   0x000ec4       data     extern C:\MCC18\src\traditional\proc\p18F97J60.asm
                     EHT5   0x000ec5       data     extern C:\MCC18\src\traditional\proc\p18F97J60.asm
                     EHT6   0x000ec6       data     extern C:\MCC18\src\traditional\proc\p18F97J60.asm
                     EHT7   0x000ec7       data     extern C:\MCC18\src\traditional\proc\p18F97J60.asm
                      EIE   0x000efb       data     extern C:\MCC18\src\traditional\proc\p18F97J60.asm
                  EIEbits   0x000efb       data     extern C:\MCC18\src\traditional\proc\p18F97J60.asm
                      EIR   0x000f60       data     extern C:\MCC18\src\traditional\proc\p18F97J60.asm
                  EIRbits   0x000f60       data     extern C:\MCC18\src\traditional\proc\p18F97J60.asm
                    EPAUS   0x000e98       data     extern C:\MCC18\src\traditional\proc\p18F97J60.asm
                   EPAUSH   0x000e99       data     extern C:\MCC18\src\traditional\proc\p18F97J60.asm
                   EPAUSL   0x000e98       data     extern C:\MCC18\src\traditional\proc\p18F97J60.asm
                  EPKTCNT   0x000ed9       data     extern C:\MCC18\src\traditional\proc\p18F97J60.asm
                    EPMCS   0x000ed0       data     extern C:\MCC18\src\traditional\proc\p18F97J60.asm
                   EPMCSH   0x000ed1       data     extern C:\MCC18\src\traditional\proc\p18F97J60.asm
                   EPMCSL   0x000ed0       data     extern C:\MCC18\src\traditional\proc\p18F97J60.asm
                    EPMM0   0x000ec8       data     extern C:\MCC18\src\traditional\proc\p18F97J60.asm
                    EPMM1   0x000ec9       data     extern C:\MCC18\src\traditional\proc\p18F97J60.asm
                    EPMM2   0x000eca       data     extern C:\MCC18\src\traditional\proc\p18F97J60.asm
                    EPMM3   0x000ecb       data     extern C:\MCC18\src\traditional\proc\p18F97J60.asm
                    EPMM4   0x000ecc       data     extern C:\MCC18\src\traditional\proc\p18F97J60.asm
                    EPMM5   0x000ecd       data     extern C:\MCC18\src\traditional\proc\p18F97J60.asm
                    EPMM6   0x000ece       data     extern C:\MCC18\src\traditional\proc\p18F97J60.asm
                    EPMM7   0x000ecf       data     extern C:\MCC18\src\traditional\proc\p18F97J60.asm
                     EPMO   0x000ed4       data     extern C:\MCC18\src\traditional\proc\p18F97J60.asm
                    EPMOH   0x000ed5       data     extern C:\MCC18\src\traditional\proc\p18F97J60.asm
                    EPMOL   0x000ed4       data     extern C:\MCC18\src\traditional\proc\p18F97J60.asm
                    ERDPT   0x000f7a       data     extern C:\MCC18\src\traditional\proc\p18F97J60.asm
                   ERDPTH   0x000f7b       data     extern C:\MCC18\src\traditional\proc\p18F97J60.asm
                   ERDPTL   0x000f7a       data     extern C:\MCC18\src\traditional\proc\p18F97J60.asm
                  ERXFCON   0x000ed8       data     extern C:\MCC18\src\traditional\proc\p18F97J60.asm
              ERXFCONbits   0x000ed8       data     extern C:\MCC18\src\traditional\proc\p18F97J60.asm
                    ERXND   0x000eea       data     extern C:\MCC18\src\traditional\proc\p18F97J60.asm
                   ERXNDH   0x000eeb       data     extern C:\MCC18\src\traditional\proc\p18F97J60.asm
                   ERXNDL   0x000eea       data     extern C:\MCC18\src\traditional\proc\p18F97J60.asm
                  ERXRDPT   0x000eec       data     extern C:\MCC18\src\traditional\proc\p18F97J60.asm
                 ERXRDPTH   0x000eed       data     extern C:\MCC18\src\traditional\proc\p18F97J60.asm
                 ERXRDPTL   0x000eec       data     extern C:\MCC18\src\traditional\proc\p18F97J60.asm
                    ERXST   0x000ee8       data     extern C:\MCC18\src\traditional\proc\p18F97J60.asm
                   ERXSTH   0x000ee9       data     extern C:\MCC18\src\traditional\proc\p18F97J60.asm
                   ERXSTL   0x000ee8       data     extern C:\MCC18\src\traditional\proc\p18F97J60.asm
                  ERXWRPT   0x000eee       data     extern C:\MCC18\src\traditional\proc\p18F97J60.asm
                 ERXWRPTH   0x000eef       data     extern C:\MCC18\src\traditional\proc\p18F97J60.asm
                 ERXWRPTL   0x000eee       data     extern C:\MCC18\src\traditional\proc\p18F97J60.asm
                    ESTAT   0x000efd       data     extern C:\MCC18\src\traditional\proc\p18F97J60.asm
                ESTATbits   0x000efd       data     extern C:\MCC18\src\traditional\proc\p18F97J60.asm
                    ETXND   0x000ee6       data     extern C:\MCC18\src\traditional\proc\p18F97J60.asm
                   ETXNDH   0x000ee7       data     extern C:\MCC18\src\traditional\proc\p18F97J60.asm
                   ETXNDL   0x000ee6       data     extern C:\MCC18\src\traditional\proc\p18F97J60.asm
                    ETXST   0x000ee4       data     extern C:\MCC18\src\traditional\proc\p18F97J60.asm
                   ETXSTH   0x000ee5       data     extern C:\MCC18\src\traditional\proc\p18F97J60.asm
                   ETXSTL   0x000ee4       data     extern C:\MCC18\src\traditional\proc\p18F97J60.asm
                    EWRPT   0x000ee2       data     extern C:\MCC18\src\traditional\proc\p18F97J60.asm
                   EWRPTH   0x000ee3       data     extern C:\MCC18\src\traditional\proc\p18F97J60.asm
                   EWRPTL   0x000ee2       data     extern C:\MCC18\src\traditional\proc\p18F97J60.asm
                 EditMode   0x000803       data     extern C:\firmware\70M_L_upconverter_SXY\70M_1223\work\Singcom\Drivers\lcd.c
             EditPosition   0x000804       data     extern C:\firmware\70M_L_upconverter_SXY\70M_1223\work\Singcom\Drivers\lcd.c
                     FSR0   0x000fe9       data     extern C:\MCC18\src\traditional\proc\p18F97J60.asm
                    FSR0H   0x000fea       data     extern C:\MCC18\src\traditional\proc\p18F97J60.asm
                    FSR0L   0x000fe9       data     extern C:\MCC18\src\traditional\proc\p18F97J60.asm
                     FSR1   0x000fe1       data     extern C:\MCC18\src\traditional\proc\p18F97J60.asm
                    FSR1H   0x000fe2       data     extern C:\MCC18\src\traditional\proc\p18F97J60.asm
                    FSR1L   0x000fe1       data     extern C:\MCC18\src\traditional\proc\p18F97J60.asm
                     FSR2   0x000fd9       data     extern C:\MCC18\src\traditional\proc\p18F97J60.asm
                    FSR2H   0x000fda       data     extern C:\MCC18\src\traditional\proc\p18F97J60.asm
                    FSR2L   0x000fd9       data     extern C:\MCC18\src\traditional\proc\p18F97J60.asm
          FirmwareVersion   0x0009e8       data     extern C:\firmware\70M_L_upconverter_SXY\70M_1223\work\Main\Main.c
              HardwareWDT   0x0009ee       data     extern C:\firmware\70M_L_upconverter_SXY\70M_1223\work\Main\Main.c
         I2CReceiveBuffer   0x000e6f       data     extern C:\firmware\70M_L_upconverter_SXY\70M_1223\work\Singcom\Drivers\i2c_c1.c
          I2CSlaveAddress   0x000468       data     extern C:\firmware\70M_L_upconverter_SXY\70M_1223\work\App\WebUI\HTTPGetDevInfo.c
                    INDF0   0x000fef       data     extern C:\MCC18\src\traditional\proc\p18F97J60.asm
                    INDF1   0x000fe7       data     extern C:\MCC18\src\traditional\proc\p18F97J60.asm
                    INDF2   0x000fdf       data     extern C:\MCC18\src\traditional\proc\p18F97J60.asm
                   INTCON   0x000ff2       data     extern C:\MCC18\src\traditional\proc\p18F97J60.asm
                  INTCON2   0x000ff1       data     extern C:\MCC18\src\traditional\proc\p18F97J60.asm
              INTCON2bits   0x000ff1       data     extern C:\MCC18\src\traditional\proc\p18F97J60.asm
                  INTCON3   0x000ff0       data     extern C:\MCC18\src\traditional\proc\p18F97J60.asm
              INTCON3bits   0x000ff0       data     extern C:\MCC18\src\traditional\proc\p18F97J60.asm
               INTCONbits   0x000ff2       data     extern C:\MCC18\src\traditional\proc\p18F97J60.asm
              IPHeaderLen   0x0001ff       data     static C:\firmware\70M_L_upconverter_SXY\70M_1223\work\Microchip\TCPIP Stack\IP.c
                     IPR1   0x000f9f       data     extern C:\MCC18\src\traditional\proc\p18F97J60.asm
                 IPR1bits   0x000f9f       data     extern C:\MCC18\src\traditional\proc\p18F97J60.asm
                     IPR2   0x000fa2       data     extern C:\MCC18\src\traditional\proc\p18F97J60.asm
                 IPR2bits   0x000fa2       data     extern C:\MCC18\src\traditional\proc\p18F97J60.asm
                     IPR3   0x000fa5       data     extern C:\MCC18\src\traditional\proc\p18F97J60.asm
                 IPR3bits   0x000fa5       data     extern C:\MCC18\src\traditional\proc\p18F97J60.asm
                 IPString   0x000969       data     extern C:\firmware\70M_L_upconverter\70M_Test\work\Main\Global.c
           KeyPressedFlag   0x0009e6       data     extern C:\firmware\70M_L_upconverter\70M_Test\work\Main\Global.c
                        L   0x000f5d       data     extern C:\firmware\70M_L_upconverter_SXY\70M_1223\work\SysLib\util.c
                     LATA   0x000f89       data     extern C:\MCC18\src\traditional\proc\p18F97J60.asm
                 LATAbits   0x000f89       data     extern C:\MCC18\src\traditional\proc\p18F97J60.asm
                     LATB   0x000f8a       data     extern C:\MCC18\src\traditional\proc\p18F97J60.asm
                 LATBbits   0x000f8a       data     extern C:\MCC18\src\traditional\proc\p18F97J60.asm
                     LATC   0x000f8b       data     extern C:\MCC18\src\traditional\proc\p18F97J60.asm
                 LATCbits   0x000f8b       data     extern C:\MCC18\src\traditional\proc\p18F97J60.asm
                     LATD   0x000f8c       data     extern C:\MCC18\src\traditional\proc\p18F97J60.asm
                 LATDbits   0x000f8c       data     extern C:\MCC18\src\traditional\proc\p18F97J60.asm
                     LATE   0x000f8d       data     extern C:\MCC18\src\traditional\proc\p18F97J60.asm
                 LATEbits   0x000f8d       data     extern C:\MCC18\src\traditional\proc\p18F97J60.asm
                     LATF   0x000f8e       data     extern C:\MCC18\src\traditional\proc\p18F97J60.asm
                 LATFbits   0x000f8e       data     extern C:\MCC18\src\traditional\proc\p18F97J60.asm
                     LATG   0x000f8f       data     extern C:\MCC18\src\traditional\proc\p18F97J60.asm
                 LATGbits   0x000f8f       data     extern C:\MCC18\src\traditional\proc\p18F97J60.asm
                     LATH   0x000f90       data     extern C:\MCC18\src\traditional\proc\p18F97J60.asm
                 LATHbits   0x000f90       data     extern C:\MCC18\src\traditional\proc\p18F97J60.asm
                     LATJ   0x000f91       data     extern C:\MCC18\src\traditional\proc\p18F97J60.asm
                 LATJbits   0x000f91       data     extern C:\MCC18\src\traditional\proc\p18F97J60.asm
        LCDBufferPosition   0x000462       data     extern C:\firmware\70M_L_upconverter\70M_Test\work\Main\Global.c
       LCDDigitUpdateFlag   0x000811       data     extern C:\firmware\70M_L_upconverter_SXY\70M_1223\work\Singcom\Drivers\lcd.c
           LCDPrintBuffer   0x000200       data     extern C:\firmware\70M_L_upconverter_SXY\70M_1223\work\Singcom\Drivers\lcd.c
           LCDRefreshFlag   0x000810       data     extern C:\firmware\70M_L_upconverter_SXY\70M_1223\work\Singcom\Drivers\lcd.c
          LOStatusString1   0x00092f       data     extern C:\firmware\70M_L_upconverter\70M_Test\work\Main\Global.c
          LOStatusString2   0x000938       data     extern C:\firmware\70M_L_upconverter\70M_Test\work\Main\Global.c
                 LastMenu   0x000801       data     static C:\firmware\70M_L_upconverter_SXY\70M_1223\work\Singcom\Drivers\lcd.c
             LeftMostMenu   0x000802       data     static C:\firmware\70M_L_upconverter_SXY\70M_1223\work\Singcom\Drivers\lcd.c
                   MAADR1   0x000e84       data     extern C:\MCC18\src\traditional\proc\p18F97J60.asm
                   MAADR2   0x000e85       data     extern C:\MCC18\src\traditional\proc\p18F97J60.asm
                   MAADR3   0x000e82       data     extern C:\MCC18\src\traditional\proc\p18F97J60.asm
                   MAADR4   0x000e83       data     extern C:\MCC18\src\traditional\proc\p18F97J60.asm
                   MAADR5   0x000e80       data     extern C:\MCC18\src\traditional\proc\p18F97J60.asm
                   MAADR6   0x000e81       data     extern C:\MCC18\src\traditional\proc\p18F97J60.asm
                  MABBIPG   0x000ea4       data     extern C:\MCC18\src\traditional\proc\p18F97J60.asm
                   MACON1   0x000ea0       data     extern C:\MCC18\src\traditional\proc\p18F97J60.asm
               MACON1bits   0x000ea0       data     extern C:\MCC18\src\traditional\proc\p18F97J60.asm
                   MACON3   0x000ea2       data     extern C:\MCC18\src\traditional\proc\p18F97J60.asm
               MACON3bits   0x000ea2       data     extern C:\MCC18\src\traditional\proc\p18F97J60.asm
                   MACON4   0x000ea3       data     extern C:\MCC18\src\traditional\proc\p18F97J60.asm
               MACON4bits   0x000ea3       data     extern C:\MCC18\src\traditional\proc\p18F97J60.asm
                    MAIPG   0x000ea6       data     extern C:\MCC18\src\traditional\proc\p18F97J60.asm
                   MAIPGH   0x000ea7       data     extern C:\MCC18\src\traditional\proc\p18F97J60.asm
                   MAIPGL   0x000ea6       data     extern C:\MCC18\src\traditional\proc\p18F97J60.asm
                   MAMXFL   0x000eaa       data     extern C:\MCC18\src\traditional\proc\p18F97J60.asm
                  MAMXFLH   0x000eab       data     extern C:\MCC18\src\traditional\proc\p18F97J60.asm
                  MAMXFLL   0x000eaa       data     extern C:\MCC18\src\traditional\proc\p18F97J60.asm
                   MEMCON   0x000f9c       data     extern C:\MCC18\src\traditional\proc\p18F97J60.asm
               MEMCONbits   0x000f9c       data     extern C:\MCC18\src\traditional\proc\p18F97J60.asm
                    MICMD   0x000eb2       data     extern C:\MCC18\src\traditional\proc\p18F97J60.asm
                MICMDbits   0x000eb2       data     extern C:\MCC18\src\traditional\proc\p18F97J60.asm
                     MIRD   0x000eb8       data     extern C:\MCC18\src\traditional\proc\p18F97J60.asm
                    MIRDH   0x000eb9       data     extern C:\MCC18\src\traditional\proc\p18F97J60.asm
                    MIRDL   0x000eb8       data     extern C:\MCC18\src\traditional\proc\p18F97J60.asm
                 MIREGADR   0x000eb4       data     extern C:\MCC18\src\traditional\proc\p18F97J60.asm
                   MISTAT   0x000e8a       data     extern C:\MCC18\src\traditional\proc\p18F97J60.asm
               MISTATbits   0x000e8a       data     extern C:\MCC18\src\traditional\proc\p18F97J60.asm
                     MIWR   0x000eb6       data     extern C:\MCC18\src\traditional\proc\p18F97J60.asm
                    MIWRH   0x000eb7       data     extern C:\MCC18\src\traditional\proc\p18F97J60.asm
                    MIWRL   0x000eb6       data     extern C:\MCC18\src\traditional\proc\p18F97J60.asm
                 MNString   0x000979       data     extern C:\firmware\70M_L_upconverter\70M_Test\work\Main\Global.c
                MPFSStubs   0x000e00       data     static C:\firmware\70M_L_upconverter_SXY\70M_1223\work\Microchip\TCPIP Stack\MPFS2.c
               Manager_IP   0x0009fb       data     extern C:\firmware\70M_L_upconverter_SXY\70M_1223\work\Bootstrap\Initialization.c
                MenuValue   0x000812       data     extern C:\firmware\70M_L_upconverter_SXY\70M_1223\work\Singcom\Drivers\lcd.c
            MinuteCounter   0x0009ed       data     extern C:\firmware\70M_L_upconverter_SXY\70M_1223\work\Main\Main.c
           MyStaticIPAddr   0x0001f0       data     extern C:\firmware\70M_L_upconverter_SXY\70M_1223\work\Main\Main.c
                    MyTCB   0x000252       data     static C:\firmware\70M_L_upconverter_SXY\70M_1223\work\Microchip\TCPIP Stack\TCP.c
                MyTCBStub   0x000277       data     static C:\firmware\70M_L_upconverter_SXY\70M_1223\work\Microchip\TCPIP Stack\TCP.c
       NextPacketLocation   0x000447       data     static C:\firmware\70M_L_upconverter_SXY\70M_1223\work\Microchip\TCPIP Stack\ETH97J60.c
                 NextPort   0x000250       data     static C:\firmware\70M_L_upconverter_SXY\70M_1223\work\Microchip\TCPIP Stack\TCP.c
                   OSCCON   0x000fd3       data     extern C:\MCC18\src\traditional\proc\p18F97J60.asm
               OSCCONbits   0x000fd3       data     extern C:\MCC18\src\traditional\proc\p18F97J60.asm
                  OSCTUNE   0x000f9b       data     extern C:\MCC18\src\traditional\proc\p18F97J60.asm
              OSCTUNEbits   0x000f9b       data     extern C:\MCC18\src\traditional\proc\p18F97J60.asm
                       PC   0x000ff9       data     extern C:\MCC18\src\traditional\proc\p18F97J60.asm
                      PCL   0x000ff9       data     extern C:\MCC18\src\traditional\proc\p18F97J60.asm
                   PCLATH   0x000ffa       data     extern C:\MCC18\src\traditional\proc\p18F97J60.asm
                   PCLATU   0x000ffb       data     extern C:\MCC18\src\traditional\proc\p18F97J60.asm
                     PIE1   0x000f9d       data     extern C:\MCC18\src\traditional\proc\p18F97J60.asm
                 PIE1bits   0x000f9d       data     extern C:\MCC18\src\traditional\proc\p18F97J60.asm
                     PIE2   0x000fa0       data     extern C:\MCC18\src\traditional\proc\p18F97J60.asm
                 PIE2bits   0x000fa0       data     extern C:\MCC18\src\traditional\proc\p18F97J60.asm
                     PIE3   0x000fa3       data     extern C:\MCC18\src\traditional\proc\p18F97J60.asm
                 PIE3bits   0x000fa3       data     extern C:\MCC18\src\traditional\proc\p18F97J60.asm
                     PIR1   0x000f9e       data     extern C:\MCC18\src\traditional\proc\p18F97J60.asm
                 PIR1bits   0x000f9e       data     extern C:\MCC18\src\traditional\proc\p18F97J60.asm
                     PIR2   0x000fa1       data     extern C:\MCC18\src\traditional\proc\p18F97J60.asm
                 PIR2bits   0x000fa1       data     extern C:\MCC18\src\traditional\proc\p18F97J60.asm
                     PIR3   0x000fa4       data     extern C:\MCC18\src\traditional\proc\p18F97J60.asm
                 PIR3bits   0x000fa4       data     extern C:\MCC18\src\traditional\proc\p18F97J60.asm
                   PLUSW0   0x000feb       data     extern C:\MCC18\src\traditional\proc\p18F97J60.asm
                   PLUSW1   0x000fe3       data     extern C:\MCC18\src\traditional\proc\p18F97J60.asm
                   PLUSW2   0x000fdb       data     extern C:\MCC18\src\traditional\proc\p18F97J60.asm
                    PORTA   0x000f80       data     extern C:\MCC18\src\traditional\proc\p18F97J60.asm
                PORTAbits   0x000f80       data     extern C:\MCC18\src\traditional\proc\p18F97J60.asm
                    PORTB   0x000f81       data     extern C:\MCC18\src\traditional\proc\p18F97J60.asm
                PORTBbits   0x000f81       data     extern C:\MCC18\src\traditional\proc\p18F97J60.asm
                    PORTC   0x000f82       data     extern C:\MCC18\src\traditional\proc\p18F97J60.asm
                PORTCbits   0x000f82       data     extern C:\MCC18\src\traditional\proc\p18F97J60.asm
                    PORTD   0x000f83       data     extern C:\MCC18\src\traditional\proc\p18F97J60.asm
                PORTDbits   0x000f83       data     extern C:\MCC18\src\traditional\proc\p18F97J60.asm
                    PORTE   0x000f84       data     extern C:\MCC18\src\traditional\proc\p18F97J60.asm
                PORTEbits   0x000f84       data     extern C:\MCC18\src\traditional\proc\p18F97J60.asm
                    PORTF   0x000f85       data     extern C:\MCC18\src\traditional\proc\p18F97J60.asm
                PORTFbits   0x000f85       data     extern C:\MCC18\src\traditional\proc\p18F97J60.asm
                    PORTG   0x000f86       data     extern C:\MCC18\src\traditional\proc\p18F97J60.asm
                PORTGbits   0x000f86       data     extern C:\MCC18\src\traditional\proc\p18F97J60.asm
                    PORTH   0x000f87       data     extern C:\MCC18\src\traditional\proc\p18F97J60.asm
                PORTHbits   0x000f87       data     extern C:\MCC18\src\traditional\proc\p18F97J60.asm
                    PORTJ   0x000f88       data     extern C:\MCC18\src\traditional\proc\p18F97J60.asm
                PORTJbits   0x000f88       data     extern C:\MCC18\src\traditional\proc\p18F97J60.asm
                 POSTDEC0   0x000fed       data     extern C:\MCC18\src\traditional\proc\p18F97J60.asm
                 POSTDEC1   0x000fe5       data     extern C:\MCC18\src\traditional\proc\p18F97J60.asm
                 POSTDEC2   0x000fdd       data     extern C:\MCC18\src\traditional\proc\p18F97J60.asm
                 POSTINC0   0x000fee       data     extern C:\MCC18\src\traditional\proc\p18F97J60.asm
                 POSTINC1   0x000fe6       data     extern C:\MCC18\src\traditional\proc\p18F97J60.asm
                 POSTINC2   0x000fde       data     extern C:\MCC18\src\traditional\proc\p18F97J60.asm
                      PR2   0x000fcb       data     extern C:\MCC18\src\traditional\proc\p18F97J60.asm
                      PR4   0x000f77       data     extern C:\MCC18\src\traditional\proc\p18F97J60.asm
                  PREINC0   0x000fec       data     extern C:\MCC18\src\traditional\proc\p18F97J60.asm
                  PREINC1   0x000fe4       data     extern C:\MCC18\src\traditional\proc\p18F97J60.asm
                  PREINC2   0x000fdc       data     extern C:\MCC18\src\traditional\proc\p18F97J60.asm
                     PROD   0x000ff3       data     extern C:\MCC18\src\traditional\proc\p18F97J60.asm
                    PRODH   0x000ff4       data     extern C:\MCC18\src\traditional\proc\p18F97J60.asm
                    PRODL   0x000ff3       data     extern C:\MCC18\src\traditional\proc\p18F97J60.asm
                   PSPCON   0x000fb0       data     extern C:\MCC18\src\traditional\proc\p18F97J60.asm
               PSPCONbits   0x000fb0       data     extern C:\MCC18\src\traditional\proc\p18F97J60.asm
               PressedKey   0x0009e7       data     extern C:\firmware\70M_L_upconverter\70M_Test\work\Main\Global.c
                     RCON   0x000fd0       data     extern C:\MCC18\src\traditional\proc\p18F97J60.asm
                 RCONbits   0x000fd0       data     extern C:\MCC18\src\traditional\proc\p18F97J60.asm
                    RCREG   0x000fae       data     extern C:\MCC18\src\traditional\proc\p18F97J60.asm
                   RCREG1   0x000fae       data     extern C:\MCC18\src\traditional\proc\p18F97J60.asm
                   RCREG2   0x000f6e       data     extern C:\MCC18\src\traditional\proc\p18F97J60.asm
                    RCSTA   0x000fab       data     extern C:\MCC18\src\traditional\proc\p18F97J60.asm
                   RCSTA1   0x000fab       data     extern C:\MCC18\src\traditional\proc\p18F97J60.asm
               RCSTA1bits   0x000fab       data     extern C:\MCC18\src\traditional\proc\p18F97J60.asm
                   RCSTA2   0x000f6b       data     extern C:\MCC18\src\traditional\proc\p18F97J60.asm
               RCSTA2bits   0x000f6b       data     extern C:\MCC18\src\traditional\proc\p18F97J60.asm
                RCSTAbits   0x000fab       data     extern C:\MCC18\src\traditional\proc\p18F97J60.asm
            RFFreqString1   0x000941       data     extern C:\firmware\70M_L_upconverter\70M_Test\work\Main\Global.c
            RFFreqString2   0x00094d       data     extern C:\firmware\70M_L_upconverter\70M_Test\work\Main\Global.c
                RXHeadPtr   0x0002f3       data     static C:\firmware\70M_L_upconverter_SXY\70M_1223\work\Microchip\TCPIP Stack\UART2TCPBridge.c
                RXTailPtr   0x0002f5       data     static C:\firmware\70M_L_upconverter_SXY\70M_1223\work\Microchip\TCPIP Stack\UART2TCPBridge.c
              RdI2CBuffer   0x00039a       data     extern C:\firmware\70M_L_upconverter_SXY\70M_1223\work\App\WebUI\HTTPGetDevInfo.c
                    Read2   0x0001f7       data     extern C:\firmware\70M_L_upconverter_SXY\70M_1223\work\Main\Main.c
               RemoteInfo   0x000293       data     static C:\firmware\70M_L_upconverter_SXY\70M_1223\work\Microchip\TCPIP Stack\TCP.c
                     SIGN   0x000018       data     extern C:\Program Files\mcc18\src\traditional\math\cmath18.asm
                 SNString   0x00098b       data     extern C:\firmware\70M_L_upconverter\70M_Test\work\Main\Global.c
                    SPBRG   0x000faf       data     extern C:\MCC18\src\traditional\proc\p18F97J60.asm
                   SPBRG1   0x000faf       data     extern C:\MCC18\src\traditional\proc\p18F97J60.asm
                   SPBRG2   0x000f6f       data     extern C:\MCC18\src\traditional\proc\p18F97J60.asm
                   SPBRGH   0x000f7f       data     extern C:\MCC18\src\traditional\proc\p18F97J60.asm
                  SPBRGH1   0x000f7f       data     extern C:\MCC18\src\traditional\proc\p18F97J60.asm
                  SPBRGH2   0x000f7d       data     extern C:\MCC18\src\traditional\proc\p18F97J60.asm
                  SSP1ADD   0x000fc8       data     extern C:\MCC18\src\traditional\proc\p18F97J60.asm
                  SSP1BUF   0x000fc9       data     extern C:\MCC18\src\traditional\proc\p18F97J60.asm
                 SSP1CON1   0x000fc6       data     extern C:\MCC18\src\traditional\proc\p18F97J60.asm
             SSP1CON1bits   0x000fc6       data     extern C:\MCC18\src\traditional\proc\p18F97J60.asm
                 SSP1CON2   0x000fc5       data     extern C:\MCC18\src\traditional\proc\p18F97J60.asm
             SSP1CON2bits   0x000fc5       data     extern C:\MCC18\src\traditional\proc\p18F97J60.asm
                 SSP1STAT   0x000fc7       data     extern C:\MCC18\src\traditional\proc\p18F97J60.asm
             SSP1STATbits   0x000fc7       data     extern C:\MCC18\src\traditional\proc\p18F97J60.asm
                  SSP2ADD   0x000f65       data     extern C:\MCC18\src\traditional\proc\p18F97J60.asm
                  SSP2BUF   0x000f66       data     extern C:\MCC18\src\traditional\proc\p18F97J60.asm
                 SSP2CON1   0x000f63       data     extern C:\MCC18\src\traditional\proc\p18F97J60.asm
             SSP2CON1bits   0x000f63       data     extern C:\MCC18\src\traditional\proc\p18F97J60.asm
                 SSP2CON2   0x000f62       data     extern C:\MCC18\src\traditional\proc\p18F97J60.asm
             SSP2CON2bits   0x000f62       data     extern C:\MCC18\src\traditional\proc\p18F97J60.asm
                 SSP2STAT   0x000f64       data     extern C:\MCC18\src\traditional\proc\p18F97J60.asm
             SSP2STATbits   0x000f64       data     extern C:\MCC18\src\traditional\proc\p18F97J60.asm
                   SSPADD   0x000fc8       data     extern C:\MCC18\src\traditional\proc\p18F97J60.asm
                   SSPBUF   0x000fc9       data     extern C:\MCC18\src\traditional\proc\p18F97J60.asm
                  SSPCON1   0x000fc6       data     extern C:\MCC18\src\traditional\proc\p18F97J60.asm
              SSPCON1bits   0x000fc6       data     extern C:\MCC18\src\traditional\proc\p18F97J60.asm
                  SSPCON2   0x000fc5       data     extern C:\MCC18\src\traditional\proc\p18F97J60.asm
              SSPCON2bits   0x000fc5       data     extern C:\MCC18\src\traditional\proc\p18F97J60.asm
                  SSPSTAT   0x000fc7       data     extern C:\MCC18\src\traditional\proc\p18F97J60.asm
              SSPSTATbits   0x000fc7       data     extern C:\MCC18\src\traditional\proc\p18F97J60.asm
                   STATUS   0x000fd8       data     extern C:\MCC18\src\traditional\proc\p18F97J60.asm
               STATUSbits   0x000fd8       data     extern C:\MCC18\src\traditional\proc\p18F97J60.asm
                   STKPTR   0x000ffc       data     extern C:\MCC18\src\traditional\proc\p18F97J60.asm
               STKPTRbits   0x000ffc       data     extern C:\MCC18\src\traditional\proc\p18F97J60.asm
                 SYNQueue   0x000340       data     static C:\firmware\70M_L_upconverter_SXY\70M_1223\work\Microchip\TCPIP Stack\TCP.c
            SecondCounter   0x0009ec       data     extern C:\firmware\70M_L_upconverter_SXY\70M_1223\work\Main\Main.c
                     Seed   0x000460       data     static C:\Program Files\mcc18\src\traditional\stdclib\rand.asm
                    T0CON   0x000fd5       data     extern C:\MCC18\src\traditional\proc\p18F97J60.asm
                T0CONbits   0x000fd5       data     extern C:\MCC18\src\traditional\proc\p18F97J60.asm
                    T1CON   0x000fcd       data     extern C:\MCC18\src\traditional\proc\p18F97J60.asm
                T1CONbits   0x000fcd       data     extern C:\MCC18\src\traditional\proc\p18F97J60.asm
                    T2CON   0x000fca       data     extern C:\MCC18\src\traditional\proc\p18F97J60.asm
                T2CONbits   0x000fca       data     extern C:\MCC18\src\traditional\proc\p18F97J60.asm
                    T3CON   0x000fb1       data     extern C:\MCC18\src\traditional\proc\p18F97J60.asm
                T3CONbits   0x000fb1       data     extern C:\MCC18\src\traditional\proc\p18F97J60.asm
                    T4CON   0x000f76       data     extern C:\MCC18\src\traditional\proc\p18F97J60.asm
                T4CONbits   0x000f76       data     extern C:\MCC18\src\traditional\proc\p18F97J60.asm
                   TABLAT   0x000ff5       data     extern C:\MCC18\src\traditional\proc\p18F97J60.asm
                   TBLPTR   0x000ff6       data     extern C:\MCC18\src\traditional\proc\p18F97J60.asm
                  TBLPTRH   0x000ff7       data     extern C:\MCC18\src\traditional\proc\p18F97J60.asm
                  TBLPTRL   0x000ff6       data     extern C:\MCC18\src\traditional\proc\p18F97J60.asm
                  TBLPTRU   0x000ff8       data     extern C:\MCC18\src\traditional\proc\p18F97J60.asm
                 TCBStubs   0x000100       data     static C:\firmware\70M_L_upconverter_SXY\70M_1223\work\Microchip\TCPIP Stack\TCP.c
                  TEMP_IP   0x0002fc       data     extern C:\firmware\70M_L_upconverter_SXY\70M_1223\work\App\SNMP\SNMPLLiBUCDevInfo.c
                    TMR0H   0x000fd7       data     extern C:\MCC18\src\traditional\proc\p18F97J60.asm
                    TMR0L   0x000fd6       data     extern C:\MCC18\src\traditional\proc\p18F97J60.asm
                    TMR1H   0x000fcf       data     extern C:\MCC18\src\traditional\proc\p18F97J60.asm
                    TMR1L   0x000fce       data     extern C:\MCC18\src\traditional\proc\p18F97J60.asm
                     TMR2   0x000fcc       data     extern C:\MCC18\src\traditional\proc\p18F97J60.asm
                    TMR3H   0x000fb3       data     extern C:\MCC18\src\traditional\proc\p18F97J60.asm
                    TMR3L   0x000fb2       data     extern C:\MCC18\src\traditional\proc\p18F97J60.asm
                     TMR4   0x000f78       data     extern C:\MCC18\src\traditional\proc\p18F97J60.asm
                      TOS   0x000ffd       data     extern C:\MCC18\src\traditional\proc\p18F97J60.asm
                     TOSH   0x000ffe       data     extern C:\MCC18\src\traditional\proc\p18F97J60.asm
                     TOSL   0x000ffd       data     extern C:\MCC18\src\traditional\proc\p18F97J60.asm
                     TOSU   0x000fff       data     extern C:\MCC18\src\traditional\proc\p18F97J60.asm
                    TRISA   0x000f92       data     extern C:\MCC18\src\traditional\proc\p18F97J60.asm
                TRISAbits   0x000f92       data     extern C:\MCC18\src\traditional\proc\p18F97J60.asm
                    TRISB   0x000f93       data     extern C:\MCC18\src\traditional\proc\p18F97J60.asm
                TRISBbits   0x000f93       data     extern C:\MCC18\src\traditional\proc\p18F97J60.asm
                    TRISC   0x000f94       data     extern C:\MCC18\src\traditional\proc\p18F97J60.asm
                TRISCbits   0x000f94       data     extern C:\MCC18\src\traditional\proc\p18F97J60.asm
                    TRISD   0x000f95       data     extern C:\MCC18\src\traditional\proc\p18F97J60.asm
                TRISDbits   0x000f95       data     extern C:\MCC18\src\traditional\proc\p18F97J60.asm
                    TRISE   0x000f96       data     extern C:\MCC18\src\traditional\proc\p18F97J60.asm
                TRISEbits   0x000f96       data     extern C:\MCC18\src\traditional\proc\p18F97J60.asm
                    TRISF   0x000f97       data     extern C:\MCC18\src\traditional\proc\p18F97J60.asm
                TRISFbits   0x000f97       data     extern C:\MCC18\src\traditional\proc\p18F97J60.asm
                    TRISG   0x000f98       data     extern C:\MCC18\src\traditional\proc\p18F97J60.asm
                TRISGbits   0x000f98       data     extern C:\MCC18\src\traditional\proc\p18F97J60.asm
                    TRISH   0x000f99       data     extern C:\MCC18\src\traditional\proc\p18F97J60.asm
                TRISHbits   0x000f99       data     extern C:\MCC18\src\traditional\proc\p18F97J60.asm
                    TRISJ   0x000f9a       data     extern C:\MCC18\src\traditional\proc\p18F97J60.asm
                TRISJbits   0x000f9a       data     extern C:\MCC18\src\traditional\proc\p18F97J60.asm
                TXHeadPtr   0x0002f7       data     static C:\firmware\70M_L_upconverter_SXY\70M_1223\work\Microchip\TCPIP Stack\UART2TCPBridge.c
                    TXREG   0x000fad       data     extern C:\MCC18\src\traditional\proc\p18F97J60.asm
                   TXREG1   0x000fad       data     extern C:\MCC18\src\traditional\proc\p18F97J60.asm
                   TXREG2   0x000f6d       data     extern C:\MCC18\src\traditional\proc\p18F97J60.asm
                    TXSTA   0x000fac       data     extern C:\MCC18\src\traditional\proc\p18F97J60.asm
                   TXSTA1   0x000fac       data     extern C:\MCC18\src\traditional\proc\p18F97J60.asm
               TXSTA1bits   0x000fac       data     extern C:\MCC18\src\traditional\proc\p18F97J60.asm
                   TXSTA2   0x000f6c       data     extern C:\MCC18\src\traditional\proc\p18F97J60.asm
               TXSTA2bits   0x000f6c       data     extern C:\MCC18\src\traditional\proc\p18F97J60.asm
                TXSTAbits   0x000fac       data     extern C:\MCC18\src\traditional\proc\p18F97J60.asm
                TXTailPtr   0x0002f9       data     static C:\firmware\70M_L_upconverter_SXY\70M_1223\work\Microchip\TCPIP Stack\UART2TCPBridge.c
                   Target   0x0003f5       data     static C:\firmware\70M_L_upconverter_SXY\70M_1223\work\Microchip\TCPIP Stack\ARP.c
            Timer2Counter   0x0003ff       data     extern C:\firmware\70M_L_upconverter_SXY\70M_1223\work\Drivers\MCU-Internal\ISR.c
                   WDTCON   0x000fd1       data     extern C:\MCC18\src\traditional\proc\p18F97J60.asm
               WDTCONbits   0x000fd1       data     extern C:\MCC18\src\traditional\proc\p18F97J60.asm
                     WREG   0x000fe8       data     extern C:\MCC18\src\traditional\proc\p18F97J60.asm
             WasDiscarded   0x00044b       data     static C:\firmware\70M_L_upconverter_SXY\70M_1223\work\Microchip\TCPIP Stack\ETH97J60.c
      WebpageWriteI2CFlag   0x000469       data     extern C:\firmware\70M_L_upconverter_SXY\70M_1223\work\App\WebUI\HTTPGetDevInfo.c
              _Identifier   0x000466       data     static C:\firmware\70M_L_upconverter_SXY\70M_1223\work\Microchip\TCPIP Stack\IP.c
                 __AARGB0   0x000021       data     extern C:\Program Files\mcc18\src\traditional\math\aarg.asm
                 __AARGB1   0x000020       data     extern C:\Program Files\mcc18\src\traditional\math\aarg.asm
                 __AARGB2   0x00001f       data     extern C:\Program Files\mcc18\src\traditional\math\aarg.asm
                 __AARGB3   0x00001e       data     extern C:\Program Files\mcc18\src\traditional\math\aarg.asm
                 __AARGB4   0x00001d       data     extern C:\Program Files\mcc18\src\traditional\math\aarg.asm
                 __AARGB5   0x00001c       data     extern C:\Program Files\mcc18\src\traditional\math\aarg.asm
                 __AARGB6   0x00001b       data     extern C:\Program Files\mcc18\src\traditional\math\aarg.asm
                 __AARGB7   0x00001a       data     extern C:\Program Files\mcc18\src\traditional\math\aarg.asm
                   __AEXP   0x000022       data     extern C:\Program Files\mcc18\src\traditional\math\aarg.asm
                 __BARGB0   0x000026       data     extern C:\Program Files\mcc18\src\traditional\math\barg.asm
                 __BARGB1   0x000025       data     extern C:\Program Files\mcc18\src\traditional\math\barg.asm
                 __BARGB2   0x000024       data     extern C:\Program Files\mcc18\src\traditional\math\barg.asm
                 __BARGB3   0x000023       data     extern C:\Program Files\mcc18\src\traditional\math\barg.asm
                   __BEXP   0x000027       data     extern C:\Program Files\mcc18\src\traditional\math\barg.asm
                __FPFLAGS   0x000019       data     extern C:\Program Files\mcc18\src\traditional\math\cmath18.asm
            __FPFLAGSbits   0x000019       data     extern C:\Program Files\mcc18\src\traditional\math\cmath18.asm
                  __REMB0   0x00001d       data     extern C:\Program Files\mcc18\src\traditional\math\aarg.asm
                  __REMB1   0x00001c       data     extern C:\Program Files\mcc18\src\traditional\math\aarg.asm
                  __REMB2   0x00001b       data     extern C:\Program Files\mcc18\src\traditional\math\aarg.asm
                  __REMB3   0x00001a       data     extern C:\Program Files\mcc18\src\traditional\math\aarg.asm
                   __TEMP   0x00002b       data     extern C:\Program Files\mcc18\src\traditional\math\temparg.asm
                 __TEMPB0   0x00002b       data     extern C:\Program Files\mcc18\src\traditional\math\temparg.asm
                 __TEMPB1   0x00002a       data     extern C:\Program Files\mcc18\src\traditional\math\temparg.asm
                 __TEMPB2   0x000029       data     extern C:\Program Files\mcc18\src\traditional\math\temparg.asm
                 __TEMPB3   0x000028       data     extern C:\Program Files\mcc18\src\traditional\math\temparg.asm
                  __tmp_0   0x000000       data     static C:\MCC18\src\pmc_common\ADC\adcopen.c
                  __tmp_0   0x000000       data     static C:\Program Files\mcc18\src\traditional\stdclib\sprintf.c
                  __tmp_0   0x000000       data     static C:\Program Files\mcc18\src\traditional\stdclib\vfprintf.c
                  __tmp_0   0x000000       data     static C:\Program Files\mcc18\src\traditional\stdclib\putc.c
                  __tmp_0   0x000000       data     static C:\firmware\70M_L_upconverter_SXY\70M_1223\work\Drivers\MCU-Internal\devspi.c
                  __tmp_0   0x000000       data     static C:\firmware\70M_L_upconverter_SXY\70M_1223\work\Drivers\External-Peripherals\devadc.c
                  __tmp_0   0x000000       data     static C:\firmware\70M_L_upconverter_SXY\70M_1223\work\Drivers\MCU-Internal\internalADC.c
                  __tmp_0   0x000000       data     static C:\firmware\70M_L_upconverter_SXY\70M_1223\work\Microchip\TCPIP Stack\SPIEEPROM.c
                  __tmp_0   0x000000       data     static C:\firmware\70M_L_upconverter_SXY\70M_1223\work\Microchip\TCPIP Stack\ICMP.c
                  __tmp_0   0x000000       data     static C:\firmware\70M_L_upconverter_SXY\70M_1223\work\Microchip\TCPIP Stack\MPFS2.c
                  __tmp_0   0x000000       data     static C:\firmware\70M_L_upconverter_SXY\70M_1223\work\SysLib\util.c
                  __tmp_0   0x000000       data     static C:\firmware\70M_L_upconverter_SXY\70M_1223\work\App\WebUI\HTTPApp.c
                  __tmp_0   0x000000       data     static C:\firmware\70M_L_upconverter_SXY\70M_1223\work\Singcom\Devices\MainControl_c1.c
                  __tmp_0   0x000000       data     static C:\firmware\70M_L_upconverter_SXY\70M_1223\work\Singcom\Devices\UpConverter_c1.c
                  __tmp_0   0x000000       data     static C:\firmware\70M_L_upconverter_SXY\70M_1223\work\App\WebUI\HTTPGetDevInfo.c
                  __tmp_0   0x000000       data     static C:\firmware\70M_L_upconverter_SXY\70M_1223\work\App\WebUI\HTTPPrint.c
                  __tmp_0   0x000000       data     static C:\firmware\70M_L_upconverter_SXY\70M_1223\work\Microchip\TCPIP Stack\HTTP2.c
                  __tmp_0   0x000000       data     static C:\firmware\70M_L_upconverter_SXY\70M_1223\work\Main\Main.c
                  __tmp_0   0x000000       data     static C:\firmware\70M_L_upconverter_SXY\70M_1223\work\Microchip\TCPIP Stack\Helpers.c
                  __tmp_0   0x000000       data     static C:\firmware\70M_L_upconverter_SXY\70M_1223\work\Singcom\Drivers\i2c_c1.c
                  __tmp_0   0x000000       data     static C:\firmware\70M_L_upconverter_SXY\70M_1223\work\Singcom\Drivers\oled_c1.c
                  __tmp_0   0x000000       data     static C:\firmware\70M_L_upconverter_SXY\70M_1223\work\Singcom\Drivers\lcd.c
                  __tmp_0   0x000000       data     static C:\firmware\70M_L_upconverter_SXY\70M_1223\work\Bootstrap\Initialization.c
                  __tmp_0   0x000000       data     static C:\firmware\70M_L_upconverter_SXY\70M_1223\work\Microchip\TCPIP Stack\StackTsk.c
                  __tmp_0   0x000000       data     static C:\firmware\70M_L_upconverter_SXY\70M_1223\work\Microchip\TCPIP Stack\TCP.c
                  __tmp_0   0x000000       data     static C:\firmware\70M_L_upconverter_SXY\70M_1223\work\Microchip\TCPIP Stack\ARP.c
                  __tmp_0   0x000000       data     static C:\firmware\70M_L_upconverter_SXY\70M_1223\work\Microchip\TCPIP Stack\IP.c
                  __tmp_0   0x000000       data     static C:\firmware\70M_L_upconverter_SXY\70M_1223\work\Microchip\TCPIP Stack\ETH97J60.c
                    ctemp   0x0001f6       data     extern C:\firmware\70M_L_upconverter_SXY\70M_1223\work\Main\Main.c
                  curHTTP   0x000060       data     extern C:\firmware\70M_L_upconverter_SXY\70M_1223\work\Microchip\TCPIP Stack\HTTP2.c
                curHTTPID   0x0000e3       data     extern C:\firmware\70M_L_upconverter_SXY\70M_1223\work\Microchip\TCPIP Stack\HTTP2.c
                curr_byte   0x0002ec       data     static C:\Program Files\mcc18\src\traditional\startup\c018iz.c
               curr_entry   0x0002ee       data     static C:\Program Files\mcc18\src\traditional\startup\c018iz.c
                 data_ptr   0x0002f0       data     static C:\Program Files\mcc18\src\traditional\startup\c018iz.c
          dwInternalTicks   0x00045c       data     static C:\firmware\70M_L_upconverter_SXY\70M_1223\work\Microchip\TCPIP Stack\Tick.c
                 dwLastIP   0x000458       data     extern C:\firmware\70M_L_upconverter_SXY\70M_1223\work\SysLib\util.c
                 fatCache   0x000e51       data     static C:\firmware\70M_L_upconverter_SXY\70M_1223\work\Microchip\TCPIP Stack\MPFS2.c
               fatCacheID   0x000e67       data     static C:\firmware\70M_L_upconverter_SXY\70M_1223\work\Microchip\TCPIP Stack\MPFS2.c
         global_char_temp   0x0000e4       data     extern C:\firmware\70M_L_upconverter_SXY\70M_1223\work\App\WebUI\HTTPPrint.c
              hCurrentTCP   0x000464       data     static C:\firmware\70M_L_upconverter_SXY\70M_1223\work\Microchip\TCPIP Stack\TCP.c
                 hLastTCB   0x000465       data     static C:\firmware\70M_L_upconverter_SXY\70M_1223\work\Microchip\TCPIP Stack\TCP.c
                   hMPFS1   0x000f5f       data     extern C:\firmware\70M_L_upconverter_SXY\70M_1223\work\SysLib\util.c
                httpStubs   0x0000df       data     extern C:\firmware\70M_L_upconverter_SXY\70M_1223\work\Microchip\TCPIP Stack\HTTP2.c
             isMPFSLocked   0x000e50       data     static C:\firmware\70M_L_upconverter_SXY\70M_1223\work\Microchip\TCPIP Stack\MPFS2.c
               keypad_tmr   0x0009f7       data     static C:\firmware\70M_L_upconverter_SXY\70M_1223\work\Main\Main.c
              lastFailure   0x00046b       data     extern C:\firmware\70M_L_upconverter_SXY\70M_1223\work\App\WebUI\HTTPApp.c
                 lastRead   0x000e6b       data     extern C:\firmware\70M_L_upconverter_SXY\70M_1223\work\Microchip\TCPIP Stack\MPFS2.c
              lastSuccess   0x00046a       data     extern C:\firmware\70M_L_upconverter_SXY\70M_1223\work\App\WebUI\HTTPApp.c
                lcd_timer   0x0009f3       data     static C:\firmware\70M_L_upconverter_SXY\70M_1223\work\Main\Main.c
                    myRef   0x0002fb       data     extern C:\firmware\70M_L_upconverter_SXY\70M_1223\work\App\SNMP\SNMPLLiBUCDevInfo.c
                     newp   0x000386       data     extern C:\firmware\70M_L_upconverter_SXY\70M_1223\work\App\WebUI\HTTPGetDevInfo.c
                 numFiles   0x000e69       data     static C:\firmware\70M_L_upconverter_SXY\70M_1223\work\Microchip\TCPIP Stack\MPFS2.c
                     oend   0x0001f5       data     extern C:\firmware\70M_L_upconverter_SXY\70M_1223\work\Main\Main.c
                     oldp   0x00037c       data     extern C:\firmware\70M_L_upconverter_SXY\70M_1223\work\App\WebUI\HTTPGetDevInfo.c
                   ostart   0x0001f4       data     extern C:\firmware\70M_L_upconverter_SXY\70M_1223\work\Main\Main.c
                     prom   0x0002e9       data     static C:\Program Files\mcc18\src\traditional\startup\c018iz.c
               remoteNode   0x000f53       data     extern C:\firmware\70M_L_upconverter_SXY\70M_1223\work\Microchip\TCPIP Stack\StackTsk.c
                      rep   0x000390       data     extern C:\firmware\70M_L_upconverter_SXY\70M_1223\work\App\WebUI\HTTPGetDevInfo.c
                   s18VDC   0x000994       data     extern C:\firmware\70M_L_upconverter\70M_Test\work\Main\Global.c
                   s24VDC   0x000998       data     extern C:\firmware\70M_L_upconverter\70M_Test\work\Main\Global.c
                    sALCa   0x0009cc       data     extern C:\firmware\70M_L_upconverter\70M_Test\work\Main\Global.c
                    sALCb   0x0009d0       data     extern C:\firmware\70M_L_upconverter\70M_Test\work\Main\Global.c
                  sBUCREF   0x0009a0       data     extern C:\firmware\70M_L_upconverter\70M_Test\work\Main\Global.c
                 sDCPower   0x0009ae       data     extern C:\firmware\70M_L_upconverter\70M_Test\work\Main\Global.c
               sDNC_StPwr   0x0009c2       data     extern C:\firmware\70M_L_upconverter\70M_Test\work\Main\Global.c
                  sLNBREF   0x00099c       data     extern C:\firmware\70M_L_upconverter\70M_Test\work\Main\Global.c
                   sMutea   0x0009d4       data     extern C:\firmware\70M_L_upconverter\70M_Test\work\Main\Global.c
                   sMuteb   0x0009dd       data     extern C:\firmware\70M_L_upconverter\70M_Test\work\Main\Global.c
                 sUCPower   0x0009a4       data     extern C:\firmware\70M_L_upconverter\70M_Test\work\Main\Global.c
               sUPC_StPwr   0x0009b8       data     extern C:\firmware\70M_L_upconverter\70M_Test\work\Main\Global.c
                    smARP   0x0009ff       data     static C:\firmware\70M_L_upconverter_SXY\70M_1223\work\Microchip\TCPIP Stack\ARP.c
                  smStack   0x000f52       data     static C:\firmware\70M_L_upconverter_SXY\70M_1223\work\Microchip\TCPIP Stack\StackTsk.c
              stConverter   0x0001a8       data     extern C:\firmware\70M_L_upconverter_SXY\70M_1223\work\Main\Main.c
               stI2CDCMsg   0x000431       data     extern C:\firmware\70M_L_upconverter_SXY\70M_1223\work\Singcom\Devices\DownConverter_c1.c
              stI2CREFMsg   0x00043d       data     extern C:\firmware\70M_L_upconverter_SXY\70M_1223\work\Singcom\Devices\DownConverter_c1.c
               stI2CUCMsg   0x000425       data     extern C:\firmware\70M_L_upconverter_SXY\70M_1223\work\Singcom\Devices\DownConverter_c1.c
              systeminfo1   0x000300       data     extern C:\firmware\70M_L_upconverter_SXY\70M_1223\work\Main\Main.c
              systeminfo2   0x00029f       data     extern C:\firmware\70M_L_upconverter_SXY\70M_1223\work\Main\Main.c
                tempvalue   0x000f5e       data     extern C:\firmware\70M_L_upconverter_SXY\70M_1223\work\SysLib\util.c
            tiDisplay_tmr   0x00092b       data     static C:\firmware\70M_L_upconverter_SXY\70M_1223\work\Singcom\Drivers\lcd.c
                 toRotate   0x000454       data     extern C:\firmware\70M_L_upconverter_SXY\70M_1223\work\Microchip\TCPIP Stack\Helpers.c
           vBytesInBuffer   0x000424       data     static C:\firmware\70M_L_upconverter_SXY\70M_1223\work\Microchip\TCPIP Stack\SPIEEPROM.c
             vTickReading   0x00044e       data     static C:\firmware\70M_L_upconverter_SXY\70M_1223\work\Microchip\TCPIP Stack\Tick.c
              vUARTRXFIFO   0x000f00       data     static C:\firmware\70M_L_upconverter_SXY\70M_1223\work\Microchip\TCPIP Stack\UART2TCPBridge.c
              vUARTTXFIFO   0x000f41       data     static C:\firmware\70M_L_upconverter_SXY\70M_1223\work\Microchip\TCPIP Stack\UART2TCPBridge.c
              wTXWatchdog   0x00044c       data     static C:\firmware\70M_L_upconverter_SXY\70M_1223\work\Microchip\TCPIP Stack\ETH97J60.c
              webPass_tmr   0x0009ef       data     static C:\firmware\70M_L_upconverter_SXY\70M_1223\work\Main\Main.c
              webpassinfo   0x0000f3       data     extern C:\firmware\70M_L_upconverter_SXY\70M_1223\work\App\WebUI\HTTPApp.c
                    zeros   0x000805       data     extern C:\firmware\70M_L_upconverter_SXY\70M_1223\work\Singcom\Drivers\lcd.c



                              Symbols - Sorted by Address
                     Name    Address   Location    Storage File                     
                ---------  ---------  ---------  --------- ---------                
                   _entry   0x000000    program     extern C:\Program Files\mcc18\src\traditional\startup\c018iz.c
       ___return_lbl00000   0x000004    program     static                          
               HighVector   0x000008    program     extern C:\firmware\70M_L_upconverter_SXY\70M_1223\work\Drivers\MCU-Internal\ISR.c
       ___return_lbl00020   0x00000c    program     static                          
                LowVector   0x000018    program     extern C:\firmware\70M_L_upconverter_SXY\70M_1223\work\Drivers\MCU-Internal\ISR.c
       ___return_lbl00019   0x00001c    program     static                          
              SyncTCBStub   0x0000c8    program     static C:\firmware\70M_L_upconverter_SXY\70M_1223\work\Microchip\TCPIP Stack\TCP.c
                  SyncTCB   0x000132    program     static C:\firmware\70M_L_upconverter_SXY\70M_1223\work\Microchip\TCPIP Stack\TCP.c
                  TCPInit   0x0001b0    program     extern C:\firmware\70M_L_upconverter_SXY\70M_1223\work\Microchip\TCPIP Stack\TCP.c
                  TCPOpen   0x000360    program     extern C:\firmware\70M_L_upconverter_SXY\70M_1223\work\Microchip\TCPIP Stack\TCP.c
              TCPWasReset   0x000494    program     extern C:\firmware\70M_L_upconverter_SXY\70M_1223\work\Microchip\TCPIP Stack\TCP.c
           TCPIsConnected   0x0004aa    program     extern C:\firmware\70M_L_upconverter_SXY\70M_1223\work\Microchip\TCPIP Stack\TCP.c
            TCPDisconnect   0x0004c0    program     extern C:\firmware\70M_L_upconverter_SXY\70M_1223\work\Microchip\TCPIP Stack\TCP.c
                 TCPClose   0x00053c    program     extern C:\firmware\70M_L_upconverter_SXY\70M_1223\work\Microchip\TCPIP Stack\TCP.c
         TCPGetRemoteInfo   0x000550    program     extern C:\firmware\70M_L_upconverter_SXY\70M_1223\work\Microchip\TCPIP Stack\TCP.c
                 TCPFlush   0x00058a    program     extern C:\firmware\70M_L_upconverter_SXY\70M_1223\work\Microchip\TCPIP Stack\TCP.c
            TCPIsPutReady   0x0005a6    program     extern C:\firmware\70M_L_upconverter_SXY\70M_1223\work\Microchip\TCPIP Stack\TCP.c
                   TCPPut   0x00060c    program     extern C:\firmware\70M_L_upconverter_SXY\70M_1223\work\Microchip\TCPIP Stack\TCP.c
              TCPPutArray   0x00069a    program     extern C:\firmware\70M_L_upconverter_SXY\70M_1223\work\Microchip\TCPIP Stack\TCP.c
           TCPPutROMArray   0x00073e    program     extern C:\firmware\70M_L_upconverter_SXY\70M_1223\work\Microchip\TCPIP Stack\TCP.c
             TCPPutString   0x0007f0    program     extern C:\firmware\70M_L_upconverter_SXY\70M_1223\work\Microchip\TCPIP Stack\TCP.c
          TCPPutROMString   0x000850    program     extern C:\firmware\70M_L_upconverter_SXY\70M_1223\work\Microchip\TCPIP Stack\TCP.c
         TCPGetTxFIFOFull   0x0008ba    program     extern C:\firmware\70M_L_upconverter_SXY\70M_1223\work\Microchip\TCPIP Stack\TCP.c
               TCPDiscard   0x0008e2    program     extern C:\firmware\70M_L_upconverter_SXY\70M_1223\work\Microchip\TCPIP Stack\TCP.c
            TCPIsGetReady   0x000904    program     extern C:\firmware\70M_L_upconverter_SXY\70M_1223\work\Microchip\TCPIP Stack\TCP.c
                   TCPGet   0x00094a    program     extern C:\firmware\70M_L_upconverter_SXY\70M_1223\work\Microchip\TCPIP Stack\TCP.c
              TCPGetArray   0x0009b6    program     extern C:\firmware\70M_L_upconverter_SXY\70M_1223\work\Microchip\TCPIP Stack\TCP.c
         TCPGetRxFIFOFree   0x000aee    program     extern C:\firmware\70M_L_upconverter_SXY\70M_1223\work\Microchip\TCPIP Stack\TCP.c
             TCPPeekArray   0x000b16    program     extern C:\firmware\70M_L_upconverter_SXY\70M_1223\work\Microchip\TCPIP Stack\TCP.c
                  TCPPeek   0x000c46    program     extern C:\firmware\70M_L_upconverter_SXY\70M_1223\work\Microchip\TCPIP Stack\TCP.c
           TCPFindArrayEx   0x000c72    program     extern C:\firmware\70M_L_upconverter_SXY\70M_1223\work\Microchip\TCPIP Stack\TCP.c
        TCPFindROMArrayEx   0x000ef0    program     extern C:\firmware\70M_L_upconverter_SXY\70M_1223\work\Microchip\TCPIP Stack\TCP.c
                TCPFindEx   0x001140    program     extern C:\firmware\70M_L_upconverter_SXY\70M_1223\work\Microchip\TCPIP Stack\TCP.c
                  TCPTick   0x001176    program     extern C:\firmware\70M_L_upconverter_SXY\70M_1223\work\Microchip\TCPIP Stack\TCP.c
               TCPProcess   0x00154a    program     extern C:\firmware\70M_L_upconverter_SXY\70M_1223\work\Microchip\TCPIP Stack\TCP.c
                  SendTCP   0x0016a4    program     static C:\firmware\70M_L_upconverter_SXY\70M_1223\work\Microchip\TCPIP Stack\TCP.c
       FindMatchingSocket   0x001c0a    program     static C:\firmware\70M_L_upconverter_SXY\70M_1223\work\Microchip\TCPIP Stack\TCP.c
            SwapTCPHeader   0x001ea8    program     static C:\firmware\70M_L_upconverter_SXY\70M_1223\work\Microchip\TCPIP Stack\TCP.c
              CloseSocket   0x001f24    program     static C:\firmware\70M_L_upconverter_SXY\70M_1223\work\Microchip\TCPIP Stack\TCP.c
             HandleTCPSeg   0x001fa2    program     static C:\firmware\70M_L_upconverter_SXY\70M_1223\work\Microchip\TCPIP Stack\TCP.c
             __tmplbl_157   0x002a1c    program     static                          
             __tmplbl_155   0x002a1c    program     static                          
             __tmplbl_174   0x002a22    program     static                          
             __tmplbl_167   0x002a2a    program     static                          
             __tmplbl_166   0x002a2a    program     static                          
             __tmplbl_158   0x002a2a    program     static                          
             __tmplbl_164   0x002a2a    program     static                          
        TCPAdjustFIFOSize   0x002a38    program     extern C:\firmware\70M_L_upconverter_SXY\70M_1223\work\Microchip\TCPIP Stack\TCP.c
               TCPRAMCopy   0x002bf2    program     static C:\firmware\70M_L_upconverter_SXY\70M_1223\work\Microchip\TCPIP Stack\TCP.c
            TCPRAMCopyROM   0x002c80    program     static C:\firmware\70M_L_upconverter_SXY\70M_1223\work\Microchip\TCPIP Stack\TCP.c
                   __pa_0   0x002d60    program     static C:\firmware\70M_L_upconverter_SXY\70M_1223\work\Microchip\TCPIP Stack\TCP.c
                   __pa_1   0x002d88    program     static C:\firmware\70M_L_upconverter_SXY\70M_1223\work\Microchip\TCPIP Stack\TCP.c
                   __pa_2   0x002d96    program     static C:\firmware\70M_L_upconverter_SXY\70M_1223\work\Microchip\TCPIP Stack\TCP.c
                   __pa_3   0x002da4    program     static C:\firmware\70M_L_upconverter_SXY\70M_1223\work\Microchip\TCPIP Stack\TCP.c
             __tmplbl_130   0x002da4    program     static                          
             __tmplbl_131   0x002da4    program     static                          
             __tmplbl_148   0x002da4    program     static                          
             __tmplbl_151   0x002da4    program     static                          
             __tmplbl_152   0x002da4    program     static                          
             __tmplbl_111   0x002da4    program     static                          
             __tmplbl_110   0x002da4    program     static                          
              __tmplbl_99   0x002da4    program     static                          
              __tmplbl_97   0x002da4    program     static                          
              __tmplbl_95   0x002da4    program     static                          
              __tmplbl_93   0x002da4    program     static                          
              __tmplbl_92   0x002da4    program     static                          
              __tmplbl_91   0x002da4    program     static                          
              __tmplbl_90   0x002da4    program     static                          
              __tmplbl_89   0x002da4    program     static                          
              __tmplbl_88   0x002da4    program     static                          
             __tmplbl_118   0x002da4    program     static                          
             __tmplbl_100   0x002da4    program     static                          
             __tmplbl_101   0x002da4    program     static                          
             __tmplbl_102   0x002da4    program     static                          
             __tmplbl_103   0x002da4    program     static                          
             __tmplbl_117   0x002da4    program     static                          
             __tmplbl_104   0x002da4    program     static                          
             __tmplbl_106   0x002da4    program     static                          
             __tmplbl_108   0x002da4    program     static                          
             __tmplbl_109   0x002da4    program     static                          
             __tmplbl_114   0x002da4    program     static                          
              __tmplbl_79   0x002da4    program     static                          
              __tmplbl_81   0x002da4    program     static                          
              __tmplbl_85   0x002da4    program     static                          
              __tmplbl_87   0x002da4    program     static                          
                   __pa_4   0x002db0    program     static C:\firmware\70M_L_upconverter_SXY\70M_1223\work\Microchip\TCPIP Stack\TCP.c
                   __pa_5   0x002dba    program     static C:\firmware\70M_L_upconverter_SXY\70M_1223\work\Microchip\TCPIP Stack\TCP.c
                   __pa_6   0x002e4e    program     static C:\firmware\70M_L_upconverter_SXY\70M_1223\work\Microchip\TCPIP Stack\TCP.c
                   __pa_7   0x002e5a    program     static C:\firmware\70M_L_upconverter_SXY\70M_1223\work\Microchip\TCPIP Stack\TCP.c
                   __pa_8   0x002e7c    program     static C:\firmware\70M_L_upconverter_SXY\70M_1223\work\Microchip\TCPIP Stack\TCP.c
                   __pa_9   0x002ea4    program     static C:\firmware\70M_L_upconverter_SXY\70M_1223\work\Microchip\TCPIP Stack\TCP.c
                  __pa_10   0x002eaa    program     static C:\firmware\70M_L_upconverter_SXY\70M_1223\work\Microchip\TCPIP Stack\TCP.c
                  __pa_11   0x002ed6    program     static C:\firmware\70M_L_upconverter_SXY\70M_1223\work\Microchip\TCPIP Stack\TCP.c
                  __pa_12   0x002ede    program     static C:\firmware\70M_L_upconverter_SXY\70M_1223\work\Microchip\TCPIP Stack\TCP.c
                  __pa_13   0x002ee6    program     static C:\firmware\70M_L_upconverter_SXY\70M_1223\work\Microchip\TCPIP Stack\TCP.c
                  __pa_14   0x002ef2    program     static C:\firmware\70M_L_upconverter_SXY\70M_1223\work\Microchip\TCPIP Stack\TCP.c
                  __pa_15   0x002efc    program     static C:\firmware\70M_L_upconverter_SXY\70M_1223\work\Microchip\TCPIP Stack\TCP.c
                  __pa_16   0x002f06    program     static C:\firmware\70M_L_upconverter_SXY\70M_1223\work\Microchip\TCPIP Stack\TCP.c
                  __pa_17   0x002f12    program     static C:\firmware\70M_L_upconverter_SXY\70M_1223\work\Microchip\TCPIP Stack\TCP.c
                  __pa_18   0x002f20    program     static C:\firmware\70M_L_upconverter_SXY\70M_1223\work\Microchip\TCPIP Stack\TCP.c
                  __pa_19   0x002f2a    program     static C:\firmware\70M_L_upconverter_SXY\70M_1223\work\Microchip\TCPIP Stack\TCP.c
                  __pa_20   0x002f46    program     static C:\firmware\70M_L_upconverter_SXY\70M_1223\work\Microchip\TCPIP Stack\TCP.c
                  __pa_21   0x002f52    program     static C:\firmware\70M_L_upconverter_SXY\70M_1223\work\Microchip\TCPIP Stack\TCP.c
                  __pa_22   0x002f60    program     static C:\firmware\70M_L_upconverter_SXY\70M_1223\work\Microchip\TCPIP Stack\TCP.c
                  __pa_23   0x002f7e    program     static C:\firmware\70M_L_upconverter_SXY\70M_1223\work\Microchip\TCPIP Stack\TCP.c
                  __pa_24   0x002f88    program     static C:\firmware\70M_L_upconverter_SXY\70M_1223\work\Microchip\TCPIP Stack\TCP.c
                  __pa_25   0x002f92    program     static C:\firmware\70M_L_upconverter_SXY\70M_1223\work\Microchip\TCPIP Stack\TCP.c
                  __pa_26   0x002f9e    program     static C:\firmware\70M_L_upconverter_SXY\70M_1223\work\Microchip\TCPIP Stack\TCP.c
                  __pa_27   0x002fb4    program     static C:\firmware\70M_L_upconverter_SXY\70M_1223\work\Microchip\TCPIP Stack\TCP.c
                  __pa_28   0x002fc2    program     static C:\firmware\70M_L_upconverter_SXY\70M_1223\work\Microchip\TCPIP Stack\TCP.c
                  __pa_29   0x002fd0    program     static C:\firmware\70M_L_upconverter_SXY\70M_1223\work\Microchip\TCPIP Stack\TCP.c
                  __pa_30   0x002fde    program     static C:\firmware\70M_L_upconverter_SXY\70M_1223\work\Microchip\TCPIP Stack\TCP.c
                  __pa_31   0x002fea    program     static C:\firmware\70M_L_upconverter_SXY\70M_1223\work\Microchip\TCPIP Stack\TCP.c
                  __pa_32   0x002ff2    program     static C:\firmware\70M_L_upconverter_SXY\70M_1223\work\Microchip\TCPIP Stack\TCP.c
                  __pa_33   0x00301c    program     static C:\firmware\70M_L_upconverter_SXY\70M_1223\work\Microchip\TCPIP Stack\TCP.c
                  __pa_34   0x003030    program     static C:\firmware\70M_L_upconverter_SXY\70M_1223\work\Microchip\TCPIP Stack\TCP.c
                  __pa_35   0x00304c    program     static C:\firmware\70M_L_upconverter_SXY\70M_1223\work\Microchip\TCPIP Stack\TCP.c
                  __pa_36   0x003066    program     static C:\firmware\70M_L_upconverter_SXY\70M_1223\work\Microchip\TCPIP Stack\TCP.c
                  __pa_37   0x00306e    program     static C:\firmware\70M_L_upconverter_SXY\70M_1223\work\Microchip\TCPIP Stack\TCP.c
                  __pa_38   0x00307e    program     static C:\firmware\70M_L_upconverter_SXY\70M_1223\work\Microchip\TCPIP Stack\TCP.c
                  __pa_39   0x00308e    program     static C:\firmware\70M_L_upconverter_SXY\70M_1223\work\Microchip\TCPIP Stack\TCP.c
                  __pa_40   0x00309c    program     static C:\firmware\70M_L_upconverter_SXY\70M_1223\work\Microchip\TCPIP Stack\TCP.c
                  __pa_41   0x0030b8    program     static C:\firmware\70M_L_upconverter_SXY\70M_1223\work\Microchip\TCPIP Stack\TCP.c
                  __pa_42   0x0030c0    program     static C:\firmware\70M_L_upconverter_SXY\70M_1223\work\Microchip\TCPIP Stack\TCP.c
                  __pa_43   0x0030d8    program     static C:\firmware\70M_L_upconverter_SXY\70M_1223\work\Microchip\TCPIP Stack\TCP.c
                  __pa_44   0x0030ea    program     static C:\firmware\70M_L_upconverter_SXY\70M_1223\work\Microchip\TCPIP Stack\TCP.c
                  __pa_45   0x0030f4    program     static C:\firmware\70M_L_upconverter_SXY\70M_1223\work\Microchip\TCPIP Stack\TCP.c
                  __pa_46   0x003106    program     static C:\firmware\70M_L_upconverter_SXY\70M_1223\work\Microchip\TCPIP Stack\TCP.c
                  __pa_47   0x00312c    program     static C:\firmware\70M_L_upconverter_SXY\70M_1223\work\Microchip\TCPIP Stack\TCP.c
                  __pa_48   0x00314a    program     static C:\firmware\70M_L_upconverter_SXY\70M_1223\work\Microchip\TCPIP Stack\TCP.c
                  __pa_49   0x00316a    program     static C:\firmware\70M_L_upconverter_SXY\70M_1223\work\Microchip\TCPIP Stack\TCP.c
                  __pa_50   0x003180    program     static C:\firmware\70M_L_upconverter_SXY\70M_1223\work\Microchip\TCPIP Stack\TCP.c
                  __pa_51   0x003196    program     static C:\firmware\70M_L_upconverter_SXY\70M_1223\work\Microchip\TCPIP Stack\TCP.c
                  __pa_52   0x0031a2    program     static C:\firmware\70M_L_upconverter_SXY\70M_1223\work\Microchip\TCPIP Stack\TCP.c
                  __pa_53   0x0031b0    program     static C:\firmware\70M_L_upconverter_SXY\70M_1223\work\Microchip\TCPIP Stack\TCP.c
                  __pa_54   0x0031b8    program     static C:\firmware\70M_L_upconverter_SXY\70M_1223\work\Microchip\TCPIP Stack\TCP.c
                  __pa_55   0x0031c6    program     static C:\firmware\70M_L_upconverter_SXY\70M_1223\work\Microchip\TCPIP Stack\TCP.c
                  __pa_56   0x0031d4    program     static C:\firmware\70M_L_upconverter_SXY\70M_1223\work\Microchip\TCPIP Stack\TCP.c
                  __pa_57   0x0031de    program     static C:\firmware\70M_L_upconverter_SXY\70M_1223\work\Microchip\TCPIP Stack\TCP.c
                  __pa_58   0x0031fc    program     static C:\firmware\70M_L_upconverter_SXY\70M_1223\work\Microchip\TCPIP Stack\TCP.c
                  __pa_59   0x003220    program     static C:\firmware\70M_L_upconverter_SXY\70M_1223\work\Microchip\TCPIP Stack\TCP.c
                  __pa_60   0x003230    program     static C:\firmware\70M_L_upconverter_SXY\70M_1223\work\Microchip\TCPIP Stack\TCP.c
                  __pa_61   0x00323a    program     static C:\firmware\70M_L_upconverter_SXY\70M_1223\work\Microchip\TCPIP Stack\TCP.c
                  __pa_62   0x003244    program     static C:\firmware\70M_L_upconverter_SXY\70M_1223\work\Microchip\TCPIP Stack\TCP.c
                  __pa_63   0x003264    program     static C:\firmware\70M_L_upconverter_SXY\70M_1223\work\Microchip\TCPIP Stack\TCP.c
                  __pa_64   0x00327a    program     static C:\firmware\70M_L_upconverter_SXY\70M_1223\work\Microchip\TCPIP Stack\TCP.c
                  __pa_65   0x00328e    program     static C:\firmware\70M_L_upconverter_SXY\70M_1223\work\Microchip\TCPIP Stack\TCP.c
                  __pa_66   0x0032a4    program     static C:\firmware\70M_L_upconverter_SXY\70M_1223\work\Microchip\TCPIP Stack\TCP.c
                  __pa_67   0x0032c2    program     static C:\firmware\70M_L_upconverter_SXY\70M_1223\work\Microchip\TCPIP Stack\TCP.c
                  __pa_68   0x0032d8    program     static C:\firmware\70M_L_upconverter_SXY\70M_1223\work\Microchip\TCPIP Stack\TCP.c
                  __pa_69   0x0032e6    program     static C:\firmware\70M_L_upconverter_SXY\70M_1223\work\Microchip\TCPIP Stack\TCP.c
                  __pa_70   0x0032f8    program     static C:\firmware\70M_L_upconverter_SXY\70M_1223\work\Microchip\TCPIP Stack\TCP.c
                  __pa_71   0x00330a    program     static C:\firmware\70M_L_upconverter_SXY\70M_1223\work\Microchip\TCPIP Stack\TCP.c
                  __pa_72   0x00331c    program     static C:\firmware\70M_L_upconverter_SXY\70M_1223\work\Microchip\TCPIP Stack\TCP.c
                  __pa_73   0x00332e    program     static C:\firmware\70M_L_upconverter_SXY\70M_1223\work\Microchip\TCPIP Stack\TCP.c
                  __pa_74   0x003338    program     static C:\firmware\70M_L_upconverter_SXY\70M_1223\work\Microchip\TCPIP Stack\TCP.c
                  __pa_75   0x00334a    program     static C:\firmware\70M_L_upconverter_SXY\70M_1223\work\Microchip\TCPIP Stack\TCP.c
                  __pa_76   0x003354    program     static C:\firmware\70M_L_upconverter_SXY\70M_1223\work\Microchip\TCPIP Stack\TCP.c
                  __pa_77   0x003362    program     static C:\firmware\70M_L_upconverter_SXY\70M_1223\work\Microchip\TCPIP Stack\TCP.c
                  __pa_78   0x003370    program     static C:\firmware\70M_L_upconverter_SXY\70M_1223\work\Microchip\TCPIP Stack\TCP.c
                  __pa_79   0x00337e    program     static C:\firmware\70M_L_upconverter_SXY\70M_1223\work\Microchip\TCPIP Stack\TCP.c
                  __pa_80   0x00338c    program     static C:\firmware\70M_L_upconverter_SXY\70M_1223\work\Microchip\TCPIP Stack\TCP.c
                  __pa_81   0x003394    program     static C:\firmware\70M_L_upconverter_SXY\70M_1223\work\Microchip\TCPIP Stack\TCP.c
                  __pa_82   0x0033a0    program     static C:\firmware\70M_L_upconverter_SXY\70M_1223\work\Microchip\TCPIP Stack\TCP.c
                  __pa_83   0x0033aa    program     static C:\firmware\70M_L_upconverter_SXY\70M_1223\work\Microchip\TCPIP Stack\TCP.c
                  __pa_84   0x0033b4    program     static C:\firmware\70M_L_upconverter_SXY\70M_1223\work\Microchip\TCPIP Stack\TCP.c
                  __pa_85   0x0033be    program     static C:\firmware\70M_L_upconverter_SXY\70M_1223\work\Microchip\TCPIP Stack\TCP.c
                  __pa_86   0x0033c8    program     static C:\firmware\70M_L_upconverter_SXY\70M_1223\work\Microchip\TCPIP Stack\TCP.c
                  __pa_87   0x0033d8    program     static C:\firmware\70M_L_upconverter_SXY\70M_1223\work\Microchip\TCPIP Stack\TCP.c
                  __pa_88   0x0033e6    program     static C:\firmware\70M_L_upconverter_SXY\70M_1223\work\Microchip\TCPIP Stack\TCP.c
                  __pa_89   0x003400    program     static C:\firmware\70M_L_upconverter_SXY\70M_1223\work\Microchip\TCPIP Stack\TCP.c
                  __pa_90   0x003408    program     static C:\firmware\70M_L_upconverter_SXY\70M_1223\work\Microchip\TCPIP Stack\TCP.c
                  __pa_91   0x003412    program     static C:\firmware\70M_L_upconverter_SXY\70M_1223\work\Microchip\TCPIP Stack\TCP.c
                  __pa_92   0x00341c    program     static C:\firmware\70M_L_upconverter_SXY\70M_1223\work\Microchip\TCPIP Stack\TCP.c
                  __pa_93   0x003426    program     static C:\firmware\70M_L_upconverter_SXY\70M_1223\work\Microchip\TCPIP Stack\TCP.c
                  __pa_94   0x003430    program     static C:\firmware\70M_L_upconverter_SXY\70M_1223\work\Microchip\TCPIP Stack\TCP.c
                  __pa_95   0x00343a    program     static C:\firmware\70M_L_upconverter_SXY\70M_1223\work\Microchip\TCPIP Stack\TCP.c
                  __pa_96   0x003452    program     static C:\firmware\70M_L_upconverter_SXY\70M_1223\work\Microchip\TCPIP Stack\TCP.c
                  __pa_97   0x003460    program     static C:\firmware\70M_L_upconverter_SXY\70M_1223\work\Microchip\TCPIP Stack\TCP.c
                  __pa_98   0x003478    program     static C:\firmware\70M_L_upconverter_SXY\70M_1223\work\Microchip\TCPIP Stack\TCP.c
                  __pa_99   0x003488    program     static C:\firmware\70M_L_upconverter_SXY\70M_1223\work\Microchip\TCPIP Stack\TCP.c
                 __pa_100   0x0034a0    program     static C:\firmware\70M_L_upconverter_SXY\70M_1223\work\Microchip\TCPIP Stack\TCP.c
                 __pa_101   0x0034b8    program     static C:\firmware\70M_L_upconverter_SXY\70M_1223\work\Microchip\TCPIP Stack\TCP.c
                 __pa_102   0x0034c4    program     static C:\firmware\70M_L_upconverter_SXY\70M_1223\work\Microchip\TCPIP Stack\TCP.c
                 __pa_103   0x0034d0    program     static C:\firmware\70M_L_upconverter_SXY\70M_1223\work\Microchip\TCPIP Stack\TCP.c
                 __pa_104   0x0034dc    program     static C:\firmware\70M_L_upconverter_SXY\70M_1223\work\Microchip\TCPIP Stack\TCP.c
                 __pa_105   0x0034f2    program     static C:\firmware\70M_L_upconverter_SXY\70M_1223\work\Microchip\TCPIP Stack\TCP.c
                 __pa_106   0x003502    program     static C:\firmware\70M_L_upconverter_SXY\70M_1223\work\Microchip\TCPIP Stack\TCP.c
                 __pa_107   0x003518    program     static C:\firmware\70M_L_upconverter_SXY\70M_1223\work\Microchip\TCPIP Stack\TCP.c
                 __pa_108   0x00352e    program     static C:\firmware\70M_L_upconverter_SXY\70M_1223\work\Microchip\TCPIP Stack\TCP.c
                 __pa_109   0x00353c    program     static C:\firmware\70M_L_upconverter_SXY\70M_1223\work\Microchip\TCPIP Stack\TCP.c
                 __pa_110   0x00354a    program     static C:\firmware\70M_L_upconverter_SXY\70M_1223\work\Microchip\TCPIP Stack\TCP.c
                 __pa_111   0x003552    program     static C:\firmware\70M_L_upconverter_SXY\70M_1223\work\Microchip\TCPIP Stack\TCP.c
                 __pa_112   0x003560    program     static C:\firmware\70M_L_upconverter_SXY\70M_1223\work\Microchip\TCPIP Stack\TCP.c
                 __pa_113   0x003568    program     static C:\firmware\70M_L_upconverter_SXY\70M_1223\work\Microchip\TCPIP Stack\TCP.c
                 __pa_114   0x003576    program     static C:\firmware\70M_L_upconverter_SXY\70M_1223\work\Microchip\TCPIP Stack\TCP.c
                 __pa_115   0x003584    program     static C:\firmware\70M_L_upconverter_SXY\70M_1223\work\Microchip\TCPIP Stack\TCP.c
                 __pa_116   0x003592    program     static C:\firmware\70M_L_upconverter_SXY\70M_1223\work\Microchip\TCPIP Stack\TCP.c
                 __pa_117   0x00359c    program     static C:\firmware\70M_L_upconverter_SXY\70M_1223\work\Microchip\TCPIP Stack\TCP.c
                 __pa_118   0x0035a6    program     static C:\firmware\70M_L_upconverter_SXY\70M_1223\work\Microchip\TCPIP Stack\TCP.c
                 __pa_119   0x0035b0    program     static C:\firmware\70M_L_upconverter_SXY\70M_1223\work\Microchip\TCPIP Stack\TCP.c
                 __pa_120   0x0035ba    program     static C:\firmware\70M_L_upconverter_SXY\70M_1223\work\Microchip\TCPIP Stack\TCP.c
                 __pa_121   0x0035c4    program     static C:\firmware\70M_L_upconverter_SXY\70M_1223\work\Microchip\TCPIP Stack\TCP.c
                 __pa_122   0x0035cc    program     static C:\firmware\70M_L_upconverter_SXY\70M_1223\work\Microchip\TCPIP Stack\TCP.c
                 __pa_123   0x0035e0    program     static C:\firmware\70M_L_upconverter_SXY\70M_1223\work\Microchip\TCPIP Stack\TCP.c
                 __pa_124   0x0035f4    program     static C:\firmware\70M_L_upconverter_SXY\70M_1223\work\Microchip\TCPIP Stack\TCP.c
                 __pa_125   0x003608    program     static C:\firmware\70M_L_upconverter_SXY\70M_1223\work\Microchip\TCPIP Stack\TCP.c
                 __pa_126   0x003610    program     static C:\firmware\70M_L_upconverter_SXY\70M_1223\work\Microchip\TCPIP Stack\TCP.c
                 __pa_127   0x00361a    program     static C:\firmware\70M_L_upconverter_SXY\70M_1223\work\Microchip\TCPIP Stack\TCP.c
                 __pa_128   0x00362c    program     static C:\firmware\70M_L_upconverter_SXY\70M_1223\work\Microchip\TCPIP Stack\TCP.c
                 __pa_129   0x00363e    program     static C:\firmware\70M_L_upconverter_SXY\70M_1223\work\Microchip\TCPIP Stack\TCP.c
                 __pa_130   0x003650    program     static C:\firmware\70M_L_upconverter_SXY\70M_1223\work\Microchip\TCPIP Stack\TCP.c
                 __pa_131   0x003662    program     static C:\firmware\70M_L_upconverter_SXY\70M_1223\work\Microchip\TCPIP Stack\TCP.c
                 __pa_132   0x003674    program     static C:\firmware\70M_L_upconverter_SXY\70M_1223\work\Microchip\TCPIP Stack\TCP.c
                 __pa_133   0x003686    program     static C:\firmware\70M_L_upconverter_SXY\70M_1223\work\Microchip\TCPIP Stack\TCP.c
                 __pa_134   0x003698    program     static C:\firmware\70M_L_upconverter_SXY\70M_1223\work\Microchip\TCPIP Stack\TCP.c
                 __pa_135   0x0036aa    program     static C:\firmware\70M_L_upconverter_SXY\70M_1223\work\Microchip\TCPIP Stack\TCP.c
                 __pa_136   0x0036bc    program     static C:\firmware\70M_L_upconverter_SXY\70M_1223\work\Microchip\TCPIP Stack\TCP.c
                 __pa_137   0x0036c4    program     static C:\firmware\70M_L_upconverter_SXY\70M_1223\work\Microchip\TCPIP Stack\TCP.c
                 __pa_138   0x0036d2    program     static C:\firmware\70M_L_upconverter_SXY\70M_1223\work\Microchip\TCPIP Stack\TCP.c
                 __pa_139   0x0036de    program     static C:\firmware\70M_L_upconverter_SXY\70M_1223\work\Microchip\TCPIP Stack\TCP.c
                 __pa_140   0x0036ea    program     static C:\firmware\70M_L_upconverter_SXY\70M_1223\work\Microchip\TCPIP Stack\TCP.c
                 __pa_141   0x0036f4    program     static C:\firmware\70M_L_upconverter_SXY\70M_1223\work\Microchip\TCPIP Stack\TCP.c
                 __pa_142   0x0036fe    program     static C:\firmware\70M_L_upconverter_SXY\70M_1223\work\Microchip\TCPIP Stack\TCP.c
                 __pa_143   0x003708    program     static C:\firmware\70M_L_upconverter_SXY\70M_1223\work\Microchip\TCPIP Stack\TCP.c
                 __pa_144   0x003718    program     static C:\firmware\70M_L_upconverter_SXY\70M_1223\work\Microchip\TCPIP Stack\TCP.c
                 __pa_145   0x003728    program     static C:\firmware\70M_L_upconverter_SXY\70M_1223\work\Microchip\TCPIP Stack\TCP.c
                 __pa_146   0x003738    program     static C:\firmware\70M_L_upconverter_SXY\70M_1223\work\Microchip\TCPIP Stack\TCP.c
                 __pa_147   0x003748    program     static C:\firmware\70M_L_upconverter_SXY\70M_1223\work\Microchip\TCPIP Stack\TCP.c
                 __pa_148   0x003758    program     static C:\firmware\70M_L_upconverter_SXY\70M_1223\work\Microchip\TCPIP Stack\TCP.c
                 __pa_149   0x00375e    program     static C:\firmware\70M_L_upconverter_SXY\70M_1223\work\Microchip\TCPIP Stack\TCP.c
                 __pa_150   0x00376c    program     static C:\firmware\70M_L_upconverter_SXY\70M_1223\work\Microchip\TCPIP Stack\TCP.c
                 __pa_151   0x00377a    program     static C:\firmware\70M_L_upconverter_SXY\70M_1223\work\Microchip\TCPIP Stack\TCP.c
                 __pa_152   0x003788    program     static C:\firmware\70M_L_upconverter_SXY\70M_1223\work\Microchip\TCPIP Stack\TCP.c
                 __pa_153   0x003796    program     static C:\firmware\70M_L_upconverter_SXY\70M_1223\work\Microchip\TCPIP Stack\TCP.c
                 __pa_154   0x0037a4    program     static C:\firmware\70M_L_upconverter_SXY\70M_1223\work\Microchip\TCPIP Stack\TCP.c
                 __pa_155   0x0037b2    program     static C:\firmware\70M_L_upconverter_SXY\70M_1223\work\Microchip\TCPIP Stack\TCP.c
                 __pa_156   0x0037c0    program     static C:\firmware\70M_L_upconverter_SXY\70M_1223\work\Microchip\TCPIP Stack\TCP.c
                 __pa_157   0x0037ce    program     static C:\firmware\70M_L_upconverter_SXY\70M_1223\work\Microchip\TCPIP Stack\TCP.c
                 __pa_158   0x0037dc    program     static C:\firmware\70M_L_upconverter_SXY\70M_1223\work\Microchip\TCPIP Stack\TCP.c
                 __pa_159   0x0037ea    program     static C:\firmware\70M_L_upconverter_SXY\70M_1223\work\Microchip\TCPIP Stack\TCP.c
                 __pa_160   0x0037f8    program     static C:\firmware\70M_L_upconverter_SXY\70M_1223\work\Microchip\TCPIP Stack\TCP.c
                 __pa_161   0x003806    program     static C:\firmware\70M_L_upconverter_SXY\70M_1223\work\Microchip\TCPIP Stack\TCP.c
                 __pa_162   0x003814    program     static C:\firmware\70M_L_upconverter_SXY\70M_1223\work\Microchip\TCPIP Stack\TCP.c
                 __pa_163   0x003822    program     static C:\firmware\70M_L_upconverter_SXY\70M_1223\work\Microchip\TCPIP Stack\TCP.c
                 __pa_164   0x003830    program     static C:\firmware\70M_L_upconverter_SXY\70M_1223\work\Microchip\TCPIP Stack\TCP.c
                 __pa_165   0x00383a    program     static C:\firmware\70M_L_upconverter_SXY\70M_1223\work\Microchip\TCPIP Stack\TCP.c
                 __pa_166   0x003844    program     static C:\firmware\70M_L_upconverter_SXY\70M_1223\work\Microchip\TCPIP Stack\TCP.c
                 __pa_167   0x00384e    program     static C:\firmware\70M_L_upconverter_SXY\70M_1223\work\Microchip\TCPIP Stack\TCP.c
                 __pa_168   0x003858    program     static C:\firmware\70M_L_upconverter_SXY\70M_1223\work\Microchip\TCPIP Stack\TCP.c
                 __pa_169   0x003862    program     static C:\firmware\70M_L_upconverter_SXY\70M_1223\work\Microchip\TCPIP Stack\TCP.c
                 __pa_170   0x00386c    program     static C:\firmware\70M_L_upconverter_SXY\70M_1223\work\Microchip\TCPIP Stack\TCP.c
                 __pa_171   0x003876    program     static C:\firmware\70M_L_upconverter_SXY\70M_1223\work\Microchip\TCPIP Stack\TCP.c
                 __pa_172   0x003880    program     static C:\firmware\70M_L_upconverter_SXY\70M_1223\work\Microchip\TCPIP Stack\TCP.c
                 __pa_173   0x003888    program     static C:\firmware\70M_L_upconverter_SXY\70M_1223\work\Microchip\TCPIP Stack\TCP.c
                 __pa_174   0x003892    program     static C:\firmware\70M_L_upconverter_SXY\70M_1223\work\Microchip\TCPIP Stack\TCP.c
                 __pa_175   0x0038a0    program     static C:\firmware\70M_L_upconverter_SXY\70M_1223\work\Microchip\TCPIP Stack\TCP.c
                 __pa_176   0x0038c8    program     static C:\firmware\70M_L_upconverter_SXY\70M_1223\work\Microchip\TCPIP Stack\TCP.c
                 __pa_177   0x0038d6    program     static C:\firmware\70M_L_upconverter_SXY\70M_1223\work\Microchip\TCPIP Stack\TCP.c
                 __pa_178   0x0038de    program     static C:\firmware\70M_L_upconverter_SXY\70M_1223\work\Microchip\TCPIP Stack\TCP.c
                 __pa_179   0x0038e8    program     static C:\firmware\70M_L_upconverter_SXY\70M_1223\work\Microchip\TCPIP Stack\TCP.c
                 __pa_180   0x0038f6    program     static C:\firmware\70M_L_upconverter_SXY\70M_1223\work\Microchip\TCPIP Stack\TCP.c
                 __pa_181   0x003900    program     static C:\firmware\70M_L_upconverter_SXY\70M_1223\work\Microchip\TCPIP Stack\TCP.c
                 __pa_182   0x00390e    program     static C:\firmware\70M_L_upconverter_SXY\70M_1223\work\Microchip\TCPIP Stack\TCP.c
                 __pa_183   0x00391a    program     static C:\firmware\70M_L_upconverter_SXY\70M_1223\work\Microchip\TCPIP Stack\TCP.c
                 __pa_184   0x003924    program     static C:\firmware\70M_L_upconverter_SXY\70M_1223\work\Microchip\TCPIP Stack\TCP.c
                 __pa_185   0x003934    program     static C:\firmware\70M_L_upconverter_SXY\70M_1223\work\Microchip\TCPIP Stack\TCP.c
                 __pa_186   0x00393e    program     static C:\firmware\70M_L_upconverter_SXY\70M_1223\work\Microchip\TCPIP Stack\TCP.c
                 __pa_187   0x00395c    program     static C:\firmware\70M_L_upconverter_SXY\70M_1223\work\Microchip\TCPIP Stack\TCP.c
                 __pa_188   0x003972    program     static C:\firmware\70M_L_upconverter_SXY\70M_1223\work\Microchip\TCPIP Stack\TCP.c
                 __pa_189   0x003988    program     static C:\firmware\70M_L_upconverter_SXY\70M_1223\work\Microchip\TCPIP Stack\TCP.c
                 __pa_190   0x0039a4    program     static C:\firmware\70M_L_upconverter_SXY\70M_1223\work\Microchip\TCPIP Stack\TCP.c
                 __pa_191   0x0039c0    program     static C:\firmware\70M_L_upconverter_SXY\70M_1223\work\Microchip\TCPIP Stack\TCP.c
                 __pa_192   0x0039cc    program     static C:\firmware\70M_L_upconverter_SXY\70M_1223\work\Microchip\TCPIP Stack\TCP.c
                 __pa_193   0x0039da    program     static C:\firmware\70M_L_upconverter_SXY\70M_1223\work\Microchip\TCPIP Stack\TCP.c
                 __pa_194   0x0039e4    program     static C:\firmware\70M_L_upconverter_SXY\70M_1223\work\Microchip\TCPIP Stack\TCP.c
                 __pa_195   0x0039ee    program     static C:\firmware\70M_L_upconverter_SXY\70M_1223\work\Microchip\TCPIP Stack\TCP.c
                 __pa_196   0x0039f6    program     static C:\firmware\70M_L_upconverter_SXY\70M_1223\work\Microchip\TCPIP Stack\TCP.c
                 __pa_197   0x003a00    program     static C:\firmware\70M_L_upconverter_SXY\70M_1223\work\Microchip\TCPIP Stack\TCP.c
                 __pa_198   0x003a0a    program     static C:\firmware\70M_L_upconverter_SXY\70M_1223\work\Microchip\TCPIP Stack\TCP.c
                 __pa_199   0x003a14    program     static C:\firmware\70M_L_upconverter_SXY\70M_1223\work\Microchip\TCPIP Stack\TCP.c
                 __pa_200   0x003a1e    program     static C:\firmware\70M_L_upconverter_SXY\70M_1223\work\Microchip\TCPIP Stack\TCP.c
                 __pa_201   0x003a34    program     static C:\firmware\70M_L_upconverter_SXY\70M_1223\work\Microchip\TCPIP Stack\TCP.c
                 __pa_202   0x003a40    program     static C:\firmware\70M_L_upconverter_SXY\70M_1223\work\Microchip\TCPIP Stack\TCP.c
                 __pa_203   0x003a4c    program     static C:\firmware\70M_L_upconverter_SXY\70M_1223\work\Microchip\TCPIP Stack\TCP.c
                 __pa_204   0x003a52    program     static C:\firmware\70M_L_upconverter_SXY\70M_1223\work\Microchip\TCPIP Stack\TCP.c
                 __pa_205   0x003a5e    program     static C:\firmware\70M_L_upconverter_SXY\70M_1223\work\Microchip\TCPIP Stack\TCP.c
                 __pa_206   0x003a72    program     static C:\firmware\70M_L_upconverter_SXY\70M_1223\work\Microchip\TCPIP Stack\TCP.c
                 __pa_207   0x003a86    program     static C:\firmware\70M_L_upconverter_SXY\70M_1223\work\Microchip\TCPIP Stack\TCP.c
                 __pa_208   0x003a94    program     static C:\firmware\70M_L_upconverter_SXY\70M_1223\work\Microchip\TCPIP Stack\TCP.c
                 __pa_209   0x003a9e    program     static C:\firmware\70M_L_upconverter_SXY\70M_1223\work\Microchip\TCPIP Stack\TCP.c
                 __pa_210   0x003aa6    program     static C:\firmware\70M_L_upconverter_SXY\70M_1223\work\Microchip\TCPIP Stack\TCP.c
                 __pa_211   0x003ab0    program     static C:\firmware\70M_L_upconverter_SXY\70M_1223\work\Microchip\TCPIP Stack\TCP.c
                 __pa_212   0x003aba    program     static C:\firmware\70M_L_upconverter_SXY\70M_1223\work\Microchip\TCPIP Stack\TCP.c
                 __pa_213   0x003ac2    program     static C:\firmware\70M_L_upconverter_SXY\70M_1223\work\Microchip\TCPIP Stack\TCP.c
                 __pa_214   0x003ad0    program     static C:\firmware\70M_L_upconverter_SXY\70M_1223\work\Microchip\TCPIP Stack\TCP.c
                 __pa_215   0x003ada    program     static C:\firmware\70M_L_upconverter_SXY\70M_1223\work\Microchip\TCPIP Stack\TCP.c
                 __pa_216   0x003ae6    program     static C:\firmware\70M_L_upconverter_SXY\70M_1223\work\Microchip\TCPIP Stack\TCP.c
                 __pa_217   0x003af8    program     static C:\firmware\70M_L_upconverter_SXY\70M_1223\work\Microchip\TCPIP Stack\TCP.c
                 __pa_218   0x003afe    program     static C:\firmware\70M_L_upconverter_SXY\70M_1223\work\Microchip\TCPIP Stack\TCP.c
                 __pa_219   0x003b06    program     static C:\firmware\70M_L_upconverter_SXY\70M_1223\work\Microchip\TCPIP Stack\TCP.c
                 __pa_220   0x003b18    program     static C:\firmware\70M_L_upconverter_SXY\70M_1223\work\Microchip\TCPIP Stack\TCP.c
                 __pa_221   0x003b26    program     static C:\firmware\70M_L_upconverter_SXY\70M_1223\work\Microchip\TCPIP Stack\TCP.c
                 __pa_222   0x003b30    program     static C:\firmware\70M_L_upconverter_SXY\70M_1223\work\Microchip\TCPIP Stack\TCP.c
             __tmplbl_214   0x003b3a    program     static                          
                 __pa_223   0x003b3a    program     static C:\firmware\70M_L_upconverter_SXY\70M_1223\work\Microchip\TCPIP Stack\TCP.c
                 __pa_224   0x003b44    program     static C:\firmware\70M_L_upconverter_SXY\70M_1223\work\Microchip\TCPIP Stack\TCP.c
                 __pa_225   0x003b4c    program     static C:\firmware\70M_L_upconverter_SXY\70M_1223\work\Microchip\TCPIP Stack\TCP.c
                 __pa_226   0x003b56    program     static C:\firmware\70M_L_upconverter_SXY\70M_1223\work\Microchip\TCPIP Stack\TCP.c
                 __pa_227   0x003b60    program     static C:\firmware\70M_L_upconverter_SXY\70M_1223\work\Microchip\TCPIP Stack\TCP.c
                 __pa_228   0x003b68    program     static C:\firmware\70M_L_upconverter_SXY\70M_1223\work\Microchip\TCPIP Stack\TCP.c
                 __pa_229   0x003b72    program     static C:\firmware\70M_L_upconverter_SXY\70M_1223\work\Microchip\TCPIP Stack\TCP.c
                 __pa_230   0x003b80    program     static C:\firmware\70M_L_upconverter_SXY\70M_1223\work\Microchip\TCPIP Stack\TCP.c
                 __pa_231   0x003b90    program     static C:\firmware\70M_L_upconverter_SXY\70M_1223\work\Microchip\TCPIP Stack\TCP.c
                 __pa_232   0x003ba0    program     static C:\firmware\70M_L_upconverter_SXY\70M_1223\work\Microchip\TCPIP Stack\TCP.c
                 __pa_233   0x003bae    program     static C:\firmware\70M_L_upconverter_SXY\70M_1223\work\Microchip\TCPIP Stack\TCP.c
             __tmplbl_215   0x003bae    program     static                          
                 __pa_234   0x003bbc    program     static C:\firmware\70M_L_upconverter_SXY\70M_1223\work\Microchip\TCPIP Stack\TCP.c
                 __pa_235   0x003bc8    program     static C:\firmware\70M_L_upconverter_SXY\70M_1223\work\Microchip\TCPIP Stack\TCP.c
                 __pa_236   0x003bd4    program     static C:\firmware\70M_L_upconverter_SXY\70M_1223\work\Microchip\TCPIP Stack\TCP.c
                 __pa_237   0x003bde    program     static C:\firmware\70M_L_upconverter_SXY\70M_1223\work\Microchip\TCPIP Stack\TCP.c
                 __pa_238   0x003bea    program     static C:\firmware\70M_L_upconverter_SXY\70M_1223\work\Microchip\TCPIP Stack\TCP.c
                 __pa_239   0x003bf8    program     static C:\firmware\70M_L_upconverter_SXY\70M_1223\work\Microchip\TCPIP Stack\TCP.c
                 __pa_240   0x003c06    program     static C:\firmware\70M_L_upconverter_SXY\70M_1223\work\Microchip\TCPIP Stack\TCP.c
                 __pa_241   0x003c14    program     static C:\firmware\70M_L_upconverter_SXY\70M_1223\work\Microchip\TCPIP Stack\TCP.c
                 __pa_242   0x003c22    program     static C:\firmware\70M_L_upconverter_SXY\70M_1223\work\Microchip\TCPIP Stack\TCP.c
                 __pa_243   0x003c30    program     static C:\firmware\70M_L_upconverter_SXY\70M_1223\work\Microchip\TCPIP Stack\TCP.c
                 __pa_244   0x003c3e    program     static C:\firmware\70M_L_upconverter_SXY\70M_1223\work\Microchip\TCPIP Stack\TCP.c
                 __pa_245   0x003c4c    program     static C:\firmware\70M_L_upconverter_SXY\70M_1223\work\Microchip\TCPIP Stack\TCP.c
                 __pa_246   0x003c5a    program     static C:\firmware\70M_L_upconverter_SXY\70M_1223\work\Microchip\TCPIP Stack\TCP.c
                 __pa_247   0x003c68    program     static C:\firmware\70M_L_upconverter_SXY\70M_1223\work\Microchip\TCPIP Stack\TCP.c
                 __pa_248   0x003c76    program     static C:\firmware\70M_L_upconverter_SXY\70M_1223\work\Microchip\TCPIP Stack\TCP.c
                 __pa_249   0x003c84    program     static C:\firmware\70M_L_upconverter_SXY\70M_1223\work\Microchip\TCPIP Stack\TCP.c
                 __pa_250   0x003c92    program     static C:\firmware\70M_L_upconverter_SXY\70M_1223\work\Microchip\TCPIP Stack\TCP.c
                 __pa_251   0x003c9a    program     static C:\firmware\70M_L_upconverter_SXY\70M_1223\work\Microchip\TCPIP Stack\TCP.c
                 __pa_252   0x003ca4    program     static C:\firmware\70M_L_upconverter_SXY\70M_1223\work\Microchip\TCPIP Stack\TCP.c
                 __pa_253   0x003cae    program     static C:\firmware\70M_L_upconverter_SXY\70M_1223\work\Microchip\TCPIP Stack\TCP.c
                 __pa_254   0x003cb8    program     static C:\firmware\70M_L_upconverter_SXY\70M_1223\work\Microchip\TCPIP Stack\TCP.c
                 __pa_255   0x003cc2    program     static C:\firmware\70M_L_upconverter_SXY\70M_1223\work\Microchip\TCPIP Stack\TCP.c
                 __pa_256   0x003cca    program     static C:\firmware\70M_L_upconverter_SXY\70M_1223\work\Microchip\TCPIP Stack\TCP.c
                 __pa_257   0x003cd4    program     static C:\firmware\70M_L_upconverter_SXY\70M_1223\work\Microchip\TCPIP Stack\TCP.c
                 __pa_258   0x003cde    program     static C:\firmware\70M_L_upconverter_SXY\70M_1223\work\Microchip\TCPIP Stack\TCP.c
                 __pa_259   0x003ce8    program     static C:\firmware\70M_L_upconverter_SXY\70M_1223\work\Microchip\TCPIP Stack\TCP.c
                 __pa_260   0x003cf2    program     static C:\firmware\70M_L_upconverter_SXY\70M_1223\work\Microchip\TCPIP Stack\TCP.c
                 __pa_261   0x003cfa    program     static C:\firmware\70M_L_upconverter_SXY\70M_1223\work\Microchip\TCPIP Stack\TCP.c
                 __pa_262   0x003d06    program     static C:\firmware\70M_L_upconverter_SXY\70M_1223\work\Microchip\TCPIP Stack\TCP.c
                 __pa_263   0x003d16    program     static C:\firmware\70M_L_upconverter_SXY\70M_1223\work\Microchip\TCPIP Stack\TCP.c
                 __pa_264   0x003d20    program     static C:\firmware\70M_L_upconverter_SXY\70M_1223\work\Microchip\TCPIP Stack\TCP.c
                 __pa_265   0x003d32    program     static C:\firmware\70M_L_upconverter_SXY\70M_1223\work\Microchip\TCPIP Stack\TCP.c
                 __pa_266   0x003d42    program     static C:\firmware\70M_L_upconverter_SXY\70M_1223\work\Microchip\TCPIP Stack\TCP.c
                 __pa_267   0x003d50    program     static C:\firmware\70M_L_upconverter_SXY\70M_1223\work\Microchip\TCPIP Stack\TCP.c
                 __pa_268   0x003d56    program     static C:\firmware\70M_L_upconverter_SXY\70M_1223\work\Microchip\TCPIP Stack\TCP.c
                 __pa_269   0x003d64    program     static C:\firmware\70M_L_upconverter_SXY\70M_1223\work\Microchip\TCPIP Stack\TCP.c
                 __pa_270   0x003d6c    program     static C:\firmware\70M_L_upconverter_SXY\70M_1223\work\Microchip\TCPIP Stack\TCP.c
                 __pa_271   0x003d76    program     static C:\firmware\70M_L_upconverter_SXY\70M_1223\work\Microchip\TCPIP Stack\TCP.c
                 __pa_272   0x003d7e    program     static C:\firmware\70M_L_upconverter_SXY\70M_1223\work\Microchip\TCPIP Stack\TCP.c
                 __pa_273   0x003d86    program     static C:\firmware\70M_L_upconverter_SXY\70M_1223\work\Microchip\TCPIP Stack\TCP.c
                 __pa_274   0x003d92    program     static C:\firmware\70M_L_upconverter_SXY\70M_1223\work\Microchip\TCPIP Stack\TCP.c
                 __pa_275   0x003d9e    program     static C:\firmware\70M_L_upconverter_SXY\70M_1223\work\Microchip\TCPIP Stack\TCP.c
                 __pa_276   0x003daa    program     static C:\firmware\70M_L_upconverter_SXY\70M_1223\work\Microchip\TCPIP Stack\TCP.c
                 __pa_277   0x003db6    program     static C:\firmware\70M_L_upconverter_SXY\70M_1223\work\Microchip\TCPIP Stack\TCP.c
             __tmplbl_213   0x003db6    program     static                          
                 __pa_278   0x003dc2    program     static C:\firmware\70M_L_upconverter_SXY\70M_1223\work\Microchip\TCPIP Stack\TCP.c
                 __pa_279   0x003dca    program     static C:\firmware\70M_L_upconverter_SXY\70M_1223\work\Microchip\TCPIP Stack\TCP.c
                 __pa_280   0x003dd2    program     static C:\firmware\70M_L_upconverter_SXY\70M_1223\work\Microchip\TCPIP Stack\TCP.c
                 __pa_281   0x003dda    program     static C:\firmware\70M_L_upconverter_SXY\70M_1223\work\Microchip\TCPIP Stack\TCP.c
                 __pa_282   0x003de2    program     static C:\firmware\70M_L_upconverter_SXY\70M_1223\work\Microchip\TCPIP Stack\TCP.c
                 __pa_283   0x003dec    program     static C:\firmware\70M_L_upconverter_SXY\70M_1223\work\Microchip\TCPIP Stack\TCP.c
             __tmplbl_216   0x003df4    program     static                          
                 __pa_284   0x003df4    program     static C:\firmware\70M_L_upconverter_SXY\70M_1223\work\Microchip\TCPIP Stack\TCP.c
                 __pa_285   0x003dfc    program     static C:\firmware\70M_L_upconverter_SXY\70M_1223\work\Microchip\TCPIP Stack\TCP.c
                 __pa_286   0x003e04    program     static C:\firmware\70M_L_upconverter_SXY\70M_1223\work\Microchip\TCPIP Stack\TCP.c
                 __pa_287   0x003e0c    program     static C:\firmware\70M_L_upconverter_SXY\70M_1223\work\Microchip\TCPIP Stack\TCP.c
                HTTPPrint   0x003e16    program     extern C:\firmware\70M_L_upconverter_SXY\70M_1223\work\Microchip\Include\TCPIP Stack\HTTPPrint.h
               HTTPPrint_   0x004598    program     extern C:\firmware\70M_L_upconverter_SXY\70M_1223\work\Microchip\Include\TCPIP Stack\HTTPPrint.h
                 HTTPInit   0x0045aa    program     extern C:\firmware\70M_L_upconverter_SXY\70M_1223\work\Microchip\TCPIP Stack\HTTP2.c
               HTTPServer   0x00460c    program     extern C:\firmware\70M_L_upconverter_SXY\70M_1223\work\Microchip\TCPIP Stack\HTTP2.c
             HTTPLoadConn   0x00468e    program     static C:\firmware\70M_L_upconverter_SXY\70M_1223\work\Microchip\TCPIP Stack\HTTP2.c
              HTTPProcess   0x0046d6    program     static C:\firmware\70M_L_upconverter_SXY\70M_1223\work\Microchip\TCPIP Stack\HTTP2.c
             __tmplbl_198   0x0046e6    program     static                          
             __tmplbl_175   0x004f9a    program     static                          
             __tmplbl_174   0x004fa0    program     static                          
             __tmplbl_173   0x004fcc    program     static                          
             __tmplbl_172   0x005012    program     static                          
             __tmplbl_182   0x00502e    program     static                          
             __tmplbl_183   0x00502e    program     static                          
             __tmplbl_184   0x00502e    program     static                          
             HTTPSendFile   0x005048    program     static C:\firmware\70M_L_upconverter_SXY\70M_1223\work\Microchip\TCPIP Stack\HTTP2.c
    HTTPHeaderParseLookup   0x0051c0    program     static C:\firmware\70M_L_upconverter_SXY\70M_1223\work\Microchip\TCPIP Stack\HTTP2.c
HTTPHeaderParseAuthorization   0x0051dc    program     static C:\firmware\70M_L_upconverter_SXY\70M_1223\work\Microchip\TCPIP Stack\HTTP2.c
HTTPHeaderParseContentLength   0x005308    program     static C:\firmware\70M_L_upconverter_SXY\70M_1223\work\Microchip\TCPIP Stack\HTTP2.c
            HTTPURLDecode   0x005390    program     extern C:\firmware\70M_L_upconverter_SXY\70M_1223\work\Microchip\TCPIP Stack\HTTP2.c
               HTTPGetArg   0x0054ca    program     extern C:\firmware\70M_L_upconverter_SXY\70M_1223\work\Microchip\TCPIP Stack\HTTP2.c
            HTTPGetROMArg   0x005510    program     extern C:\firmware\70M_L_upconverter_SXY\70M_1223\work\Microchip\TCPIP Stack\HTTP2.c
         HTTPReadPostName   0x005572    program     extern C:\firmware\70M_L_upconverter_SXY\70M_1223\work\Microchip\TCPIP Stack\HTTP2.c
        HTTPReadPostValue   0x0055a2    program     extern C:\firmware\70M_L_upconverter_SXY\70M_1223\work\Microchip\TCPIP Stack\HTTP2.c
               HTTPReadTo   0x005612    program     static C:\firmware\70M_L_upconverter_SXY\70M_1223\work\Microchip\TCPIP Stack\HTTP2.c
           HTTPMPFSUpload   0x00579e    program     static C:\firmware\70M_L_upconverter_SXY\70M_1223\work\Microchip\TCPIP Stack\HTTP2.c
              HTTPIncFile   0x0059ce    program     extern C:\firmware\70M_L_upconverter_SXY\70M_1223\work\Microchip\TCPIP Stack\HTTP2.c
                   __pa_0   0x005ae0    program     static C:\firmware\70M_L_upconverter_SXY\70M_1223\work\Microchip\TCPIP Stack\HTTP2.c
                   __pa_1   0x005aea    program     static C:\firmware\70M_L_upconverter_SXY\70M_1223\work\Microchip\TCPIP Stack\HTTP2.c
                   __pa_2   0x005b3c    program     static C:\firmware\70M_L_upconverter_SXY\70M_1223\work\Microchip\TCPIP Stack\HTTP2.c
                   __pa_3   0x005b48    program     static C:\firmware\70M_L_upconverter_SXY\70M_1223\work\Microchip\TCPIP Stack\HTTP2.c
             __tmplbl_171   0x005b64    program     static                          
             __tmplbl_170   0x005b64    program     static                          
             __tmplbl_200   0x005b64    program     static                          
                   __pa_4   0x005b64    program     static C:\firmware\70M_L_upconverter_SXY\70M_1223\work\Microchip\TCPIP Stack\HTTP2.c
             __tmplbl_203   0x005b64    program     static                          
             __tmplbl_201   0x005b64    program     static                          
             __tmplbl_169   0x005b64    program     static                          
             __tmplbl_199   0x005b64    program     static                          
             __tmplbl_168   0x005b64    program     static                          
                   __pa_5   0x005b70    program     static C:\firmware\70M_L_upconverter_SXY\70M_1223\work\Microchip\TCPIP Stack\HTTP2.c
                   __pa_6   0x005b98    program     static C:\firmware\70M_L_upconverter_SXY\70M_1223\work\Microchip\TCPIP Stack\HTTP2.c
                   __pa_7   0x005ba0    program     static C:\firmware\70M_L_upconverter_SXY\70M_1223\work\Microchip\TCPIP Stack\HTTP2.c
                   __pa_8   0x005bbc    program     static C:\firmware\70M_L_upconverter_SXY\70M_1223\work\Microchip\TCPIP Stack\HTTP2.c
                   __pa_9   0x005bca    program     static C:\firmware\70M_L_upconverter_SXY\70M_1223\work\Microchip\TCPIP Stack\HTTP2.c
                  __pa_10   0x005bd0    program     static C:\firmware\70M_L_upconverter_SXY\70M_1223\work\Microchip\TCPIP Stack\HTTP2.c
                  __pa_11   0x005bd6    program     static C:\firmware\70M_L_upconverter_SXY\70M_1223\work\Microchip\TCPIP Stack\HTTP2.c
                  __pa_12   0x005be0    program     static C:\firmware\70M_L_upconverter_SXY\70M_1223\work\Microchip\TCPIP Stack\HTTP2.c
                  __pa_13   0x005c06    program     static C:\firmware\70M_L_upconverter_SXY\70M_1223\work\Microchip\TCPIP Stack\HTTP2.c
                  __pa_14   0x005c0e    program     static C:\firmware\70M_L_upconverter_SXY\70M_1223\work\Microchip\TCPIP Stack\HTTP2.c
                  __pa_15   0x005c16    program     static C:\firmware\70M_L_upconverter_SXY\70M_1223\work\Microchip\TCPIP Stack\HTTP2.c
                  __pa_16   0x005c24    program     static C:\firmware\70M_L_upconverter_SXY\70M_1223\work\Microchip\TCPIP Stack\HTTP2.c
                  __pa_17   0x005c2e    program     static C:\firmware\70M_L_upconverter_SXY\70M_1223\work\Microchip\TCPIP Stack\HTTP2.c
                  __pa_18   0x005c3e    program     static C:\firmware\70M_L_upconverter_SXY\70M_1223\work\Microchip\TCPIP Stack\HTTP2.c
                  __pa_19   0x005c4c    program     static C:\firmware\70M_L_upconverter_SXY\70M_1223\work\Microchip\TCPIP Stack\HTTP2.c
                  __pa_20   0x005c52    program     static C:\firmware\70M_L_upconverter_SXY\70M_1223\work\Microchip\TCPIP Stack\HTTP2.c
                  __pa_21   0x005c5c    program     static C:\firmware\70M_L_upconverter_SXY\70M_1223\work\Microchip\TCPIP Stack\HTTP2.c
                  __pa_22   0x005c66    program     static C:\firmware\70M_L_upconverter_SXY\70M_1223\work\Microchip\TCPIP Stack\HTTP2.c
                  __pa_23   0x005c7a    program     static C:\firmware\70M_L_upconverter_SXY\70M_1223\work\Microchip\TCPIP Stack\HTTP2.c
                  __pa_24   0x005c86    program     static C:\firmware\70M_L_upconverter_SXY\70M_1223\work\Microchip\TCPIP Stack\HTTP2.c
                  __pa_25   0x005c8c    program     static C:\firmware\70M_L_upconverter_SXY\70M_1223\work\Microchip\TCPIP Stack\HTTP2.c
                  __pa_26   0x005c92    program     static C:\firmware\70M_L_upconverter_SXY\70M_1223\work\Microchip\TCPIP Stack\HTTP2.c
                  __pa_27   0x005c98    program     static C:\firmware\70M_L_upconverter_SXY\70M_1223\work\Microchip\TCPIP Stack\HTTP2.c
                  __pa_28   0x005c9e    program     static C:\firmware\70M_L_upconverter_SXY\70M_1223\work\Microchip\TCPIP Stack\HTTP2.c
                  __pa_29   0x005ca8    program     static C:\firmware\70M_L_upconverter_SXY\70M_1223\work\Microchip\TCPIP Stack\HTTP2.c
                  __pa_30   0x005cb6    program     static C:\firmware\70M_L_upconverter_SXY\70M_1223\work\Microchip\TCPIP Stack\HTTP2.c
                  __pa_31   0x005cc0    program     static C:\firmware\70M_L_upconverter_SXY\70M_1223\work\Microchip\TCPIP Stack\HTTP2.c
                  __pa_32   0x005cd0    program     static C:\firmware\70M_L_upconverter_SXY\70M_1223\work\Microchip\TCPIP Stack\HTTP2.c
                  __pa_33   0x005cde    program     static C:\firmware\70M_L_upconverter_SXY\70M_1223\work\Microchip\TCPIP Stack\HTTP2.c
                  __pa_34   0x005cf2    program     static C:\firmware\70M_L_upconverter_SXY\70M_1223\work\Microchip\TCPIP Stack\HTTP2.c
                  __pa_35   0x005d02    program     static C:\firmware\70M_L_upconverter_SXY\70M_1223\work\Microchip\TCPIP Stack\HTTP2.c
                  __pa_36   0x005d16    program     static C:\firmware\70M_L_upconverter_SXY\70M_1223\work\Microchip\TCPIP Stack\HTTP2.c
                  __pa_37   0x005d26    program     static C:\firmware\70M_L_upconverter_SXY\70M_1223\work\Microchip\TCPIP Stack\HTTP2.c
                  __pa_38   0x005d34    program     static C:\firmware\70M_L_upconverter_SXY\70M_1223\work\Microchip\TCPIP Stack\HTTP2.c
                  __pa_39   0x005d3c    program     static C:\firmware\70M_L_upconverter_SXY\70M_1223\work\Microchip\TCPIP Stack\HTTP2.c
                  __pa_40   0x005d4a    program     static C:\firmware\70M_L_upconverter_SXY\70M_1223\work\Microchip\TCPIP Stack\HTTP2.c
                  __pa_41   0x005d56    program     static C:\firmware\70M_L_upconverter_SXY\70M_1223\work\Microchip\TCPIP Stack\HTTP2.c
                  __pa_42   0x005d62    program     static C:\firmware\70M_L_upconverter_SXY\70M_1223\work\Microchip\TCPIP Stack\HTTP2.c
                  __pa_43   0x005d6c    program     static C:\firmware\70M_L_upconverter_SXY\70M_1223\work\Microchip\TCPIP Stack\HTTP2.c
                  __pa_44   0x005d74    program     static C:\firmware\70M_L_upconverter_SXY\70M_1223\work\Microchip\TCPIP Stack\HTTP2.c
                  __pa_45   0x005d84    program     static C:\firmware\70M_L_upconverter_SXY\70M_1223\work\Microchip\TCPIP Stack\HTTP2.c
                  __pa_46   0x005d94    program     static C:\firmware\70M_L_upconverter_SXY\70M_1223\work\Microchip\TCPIP Stack\HTTP2.c
                  __pa_47   0x005da4    program     static C:\firmware\70M_L_upconverter_SXY\70M_1223\work\Microchip\TCPIP Stack\HTTP2.c
                  __pa_48   0x005db4    program     static C:\firmware\70M_L_upconverter_SXY\70M_1223\work\Microchip\TCPIP Stack\HTTP2.c
                  __pa_49   0x005dba    program     static C:\firmware\70M_L_upconverter_SXY\70M_1223\work\Microchip\TCPIP Stack\HTTP2.c
                  __pa_50   0x005dc6    program     static C:\firmware\70M_L_upconverter_SXY\70M_1223\work\Microchip\TCPIP Stack\HTTP2.c
                  __pa_51   0x005dd2    program     static C:\firmware\70M_L_upconverter_SXY\70M_1223\work\Microchip\TCPIP Stack\HTTP2.c
                  __pa_52   0x005de2    program     static C:\firmware\70M_L_upconverter_SXY\70M_1223\work\Microchip\TCPIP Stack\HTTP2.c
                  __pa_53   0x005df2    program     static C:\firmware\70M_L_upconverter_SXY\70M_1223\work\Microchip\TCPIP Stack\HTTP2.c
                  __pa_54   0x005e08    program     static C:\firmware\70M_L_upconverter_SXY\70M_1223\work\Microchip\TCPIP Stack\HTTP2.c
                  __pa_55   0x005e14    program     static C:\firmware\70M_L_upconverter_SXY\70M_1223\work\Microchip\TCPIP Stack\HTTP2.c
                  __pa_56   0x005e22    program     static C:\firmware\70M_L_upconverter_SXY\70M_1223\work\Microchip\TCPIP Stack\HTTP2.c
                  __pa_57   0x005e30    program     static C:\firmware\70M_L_upconverter_SXY\70M_1223\work\Microchip\TCPIP Stack\HTTP2.c
                  __pa_58   0x005e40    program     static C:\firmware\70M_L_upconverter_SXY\70M_1223\work\Microchip\TCPIP Stack\HTTP2.c
                  __pa_59   0x005e4e    program     static C:\firmware\70M_L_upconverter_SXY\70M_1223\work\Microchip\TCPIP Stack\HTTP2.c
                  __pa_60   0x005e62    program     static C:\firmware\70M_L_upconverter_SXY\70M_1223\work\Microchip\TCPIP Stack\HTTP2.c
                  __pa_61   0x005e6a    program     static C:\firmware\70M_L_upconverter_SXY\70M_1223\work\Microchip\TCPIP Stack\HTTP2.c
                  __pa_62   0x005e7c    program     static C:\firmware\70M_L_upconverter_SXY\70M_1223\work\Microchip\TCPIP Stack\HTTP2.c
                  __pa_63   0x005e88    program     static C:\firmware\70M_L_upconverter_SXY\70M_1223\work\Microchip\TCPIP Stack\HTTP2.c
                  __pa_64   0x005e9a    program     static C:\firmware\70M_L_upconverter_SXY\70M_1223\work\Microchip\TCPIP Stack\HTTP2.c
                  __pa_65   0x005ea6    program     static C:\firmware\70M_L_upconverter_SXY\70M_1223\work\Microchip\TCPIP Stack\HTTP2.c
                  __pa_66   0x005eb2    program     static C:\firmware\70M_L_upconverter_SXY\70M_1223\work\Microchip\TCPIP Stack\HTTP2.c
                  __pa_67   0x005ebe    program     static C:\firmware\70M_L_upconverter_SXY\70M_1223\work\Microchip\TCPIP Stack\HTTP2.c
                  __pa_68   0x005ec4    program     static C:\firmware\70M_L_upconverter_SXY\70M_1223\work\Microchip\TCPIP Stack\HTTP2.c
                  __pa_69   0x005eca    program     static C:\firmware\70M_L_upconverter_SXY\70M_1223\work\Microchip\TCPIP Stack\HTTP2.c
                  __pa_70   0x005ed4    program     static C:\firmware\70M_L_upconverter_SXY\70M_1223\work\Microchip\TCPIP Stack\HTTP2.c
                  __pa_71   0x005ede    program     static C:\firmware\70M_L_upconverter_SXY\70M_1223\work\Microchip\TCPIP Stack\HTTP2.c
                  __pa_72   0x005eea    program     static C:\firmware\70M_L_upconverter_SXY\70M_1223\work\Microchip\TCPIP Stack\HTTP2.c
                  __pa_73   0x005efa    program     static C:\firmware\70M_L_upconverter_SXY\70M_1223\work\Microchip\TCPIP Stack\HTTP2.c
                  __pa_74   0x005f04    program     static C:\firmware\70M_L_upconverter_SXY\70M_1223\work\Microchip\TCPIP Stack\HTTP2.c
                  __pa_75   0x005f0c    program     static C:\firmware\70M_L_upconverter_SXY\70M_1223\work\Microchip\TCPIP Stack\HTTP2.c
                  __pa_76   0x005f14    program     static C:\firmware\70M_L_upconverter_SXY\70M_1223\work\Microchip\TCPIP Stack\HTTP2.c
                  __pa_77   0x005f1c    program     static C:\firmware\70M_L_upconverter_SXY\70M_1223\work\Microchip\TCPIP Stack\HTTP2.c
                  __pa_78   0x005f2a    program     static C:\firmware\70M_L_upconverter_SXY\70M_1223\work\Microchip\TCPIP Stack\HTTP2.c
                  __pa_79   0x005f38    program     static C:\firmware\70M_L_upconverter_SXY\70M_1223\work\Microchip\TCPIP Stack\HTTP2.c
                  __pa_80   0x005f46    program     static C:\firmware\70M_L_upconverter_SXY\70M_1223\work\Microchip\TCPIP Stack\HTTP2.c
                  __pa_81   0x005f54    program     static C:\firmware\70M_L_upconverter_SXY\70M_1223\work\Microchip\TCPIP Stack\HTTP2.c
                  __pa_82   0x005f62    program     static C:\firmware\70M_L_upconverter_SXY\70M_1223\work\Microchip\TCPIP Stack\HTTP2.c
                  __pa_83   0x005f70    program     static C:\firmware\70M_L_upconverter_SXY\70M_1223\work\Microchip\TCPIP Stack\HTTP2.c
                  __pa_84   0x005f7e    program     static C:\firmware\70M_L_upconverter_SXY\70M_1223\work\Microchip\TCPIP Stack\HTTP2.c
                  __pa_85   0x005f8c    program     static C:\firmware\70M_L_upconverter_SXY\70M_1223\work\Microchip\TCPIP Stack\HTTP2.c
                  __pa_86   0x005f9a    program     static C:\firmware\70M_L_upconverter_SXY\70M_1223\work\Microchip\TCPIP Stack\HTTP2.c
                  __pa_87   0x005fa4    program     static C:\firmware\70M_L_upconverter_SXY\70M_1223\work\Microchip\TCPIP Stack\HTTP2.c
                  __pa_88   0x005fae    program     static C:\firmware\70M_L_upconverter_SXY\70M_1223\work\Microchip\TCPIP Stack\HTTP2.c
                  __pa_89   0x005fb6    program     static C:\firmware\70M_L_upconverter_SXY\70M_1223\work\Microchip\TCPIP Stack\HTTP2.c
                  __pa_90   0x005fcc    program     static C:\firmware\70M_L_upconverter_SXY\70M_1223\work\Microchip\TCPIP Stack\HTTP2.c
                  __pa_91   0x005fd2    program     static C:\firmware\70M_L_upconverter_SXY\70M_1223\work\Microchip\TCPIP Stack\HTTP2.c
                  __pa_92   0x005fe0    program     static C:\firmware\70M_L_upconverter_SXY\70M_1223\work\Microchip\TCPIP Stack\HTTP2.c
                  __pa_93   0x005fea    program     static C:\firmware\70M_L_upconverter_SXY\70M_1223\work\Microchip\TCPIP Stack\HTTP2.c
                  __pa_94   0x005ff4    program     static C:\firmware\70M_L_upconverter_SXY\70M_1223\work\Microchip\TCPIP Stack\HTTP2.c
                  __pa_95   0x005ffe    program     static C:\firmware\70M_L_upconverter_SXY\70M_1223\work\Microchip\TCPIP Stack\HTTP2.c
                  __pa_96   0x00600c    program     static C:\firmware\70M_L_upconverter_SXY\70M_1223\work\Microchip\TCPIP Stack\HTTP2.c
                  __pa_97   0x006014    program     static C:\firmware\70M_L_upconverter_SXY\70M_1223\work\Microchip\TCPIP Stack\HTTP2.c
                  __pa_98   0x00601e    program     static C:\firmware\70M_L_upconverter_SXY\70M_1223\work\Microchip\TCPIP Stack\HTTP2.c
                  __pa_99   0x006034    program     static C:\firmware\70M_L_upconverter_SXY\70M_1223\work\Microchip\TCPIP Stack\HTTP2.c
                 __pa_100   0x00603a    program     static C:\firmware\70M_L_upconverter_SXY\70M_1223\work\Microchip\TCPIP Stack\HTTP2.c
                 __pa_101   0x006044    program     static C:\firmware\70M_L_upconverter_SXY\70M_1223\work\Microchip\TCPIP Stack\HTTP2.c
                 __pa_102   0x00604c    program     static C:\firmware\70M_L_upconverter_SXY\70M_1223\work\Microchip\TCPIP Stack\HTTP2.c
                 __pa_103   0x00605a    program     static C:\firmware\70M_L_upconverter_SXY\70M_1223\work\Microchip\TCPIP Stack\HTTP2.c
                 __pa_104   0x006068    program     static C:\firmware\70M_L_upconverter_SXY\70M_1223\work\Microchip\TCPIP Stack\HTTP2.c
                 __pa_105   0x006070    program     static C:\firmware\70M_L_upconverter_SXY\70M_1223\work\Microchip\TCPIP Stack\HTTP2.c
                 __pa_106   0x00607e    program     static C:\firmware\70M_L_upconverter_SXY\70M_1223\work\Microchip\TCPIP Stack\HTTP2.c
                 __pa_107   0x006088    program     static C:\firmware\70M_L_upconverter_SXY\70M_1223\work\Microchip\TCPIP Stack\HTTP2.c
                 __pa_108   0x006094    program     static C:\firmware\70M_L_upconverter_SXY\70M_1223\work\Microchip\TCPIP Stack\HTTP2.c
                 __pa_109   0x0060a4    program     static C:\firmware\70M_L_upconverter_SXY\70M_1223\work\Microchip\TCPIP Stack\HTTP2.c
                 __pa_110   0x0060ac    program     static C:\firmware\70M_L_upconverter_SXY\70M_1223\work\Microchip\TCPIP Stack\HTTP2.c
                 __pa_111   0x0060b6    program     static C:\firmware\70M_L_upconverter_SXY\70M_1223\work\Microchip\TCPIP Stack\HTTP2.c
                 __pa_112   0x0060be    program     static C:\firmware\70M_L_upconverter_SXY\70M_1223\work\Microchip\TCPIP Stack\HTTP2.c
                 __pa_113   0x0060cc    program     static C:\firmware\70M_L_upconverter_SXY\70M_1223\work\Microchip\TCPIP Stack\HTTP2.c
                 __pa_114   0x0060d2    program     static C:\firmware\70M_L_upconverter_SXY\70M_1223\work\Microchip\TCPIP Stack\HTTP2.c
                 __pa_115   0x0060d8    program     static C:\firmware\70M_L_upconverter_SXY\70M_1223\work\Microchip\TCPIP Stack\HTTP2.c
                 __pa_116   0x0060e4    program     static C:\firmware\70M_L_upconverter_SXY\70M_1223\work\Microchip\TCPIP Stack\HTTP2.c
                 __pa_117   0x0060f0    program     static C:\firmware\70M_L_upconverter_SXY\70M_1223\work\Microchip\TCPIP Stack\HTTP2.c
                 __pa_118   0x0060fe    program     static C:\firmware\70M_L_upconverter_SXY\70M_1223\work\Microchip\TCPIP Stack\HTTP2.c
                 __pa_119   0x00610c    program     static C:\firmware\70M_L_upconverter_SXY\70M_1223\work\Microchip\TCPIP Stack\HTTP2.c
                 __pa_120   0x006114    program     static C:\firmware\70M_L_upconverter_SXY\70M_1223\work\Microchip\TCPIP Stack\HTTP2.c
                 __pa_121   0x00611a    program     static C:\firmware\70M_L_upconverter_SXY\70M_1223\work\Microchip\TCPIP Stack\HTTP2.c
                 __pa_122   0x006124    program     static C:\firmware\70M_L_upconverter_SXY\70M_1223\work\Microchip\TCPIP Stack\HTTP2.c
                 __pa_123   0x00612e    program     static C:\firmware\70M_L_upconverter_SXY\70M_1223\work\Microchip\TCPIP Stack\HTTP2.c
                 __pa_124   0x006138    program     static C:\firmware\70M_L_upconverter_SXY\70M_1223\work\Microchip\TCPIP Stack\HTTP2.c
                 __pa_125   0x006140    program     static C:\firmware\70M_L_upconverter_SXY\70M_1223\work\Microchip\TCPIP Stack\HTTP2.c
                 __pa_126   0x006148    program     static C:\firmware\70M_L_upconverter_SXY\70M_1223\work\Microchip\TCPIP Stack\HTTP2.c
                 __pa_127   0x006150    program     static C:\firmware\70M_L_upconverter_SXY\70M_1223\work\Microchip\TCPIP Stack\HTTP2.c
                 __pa_128   0x006156    program     static C:\firmware\70M_L_upconverter_SXY\70M_1223\work\Microchip\TCPIP Stack\HTTP2.c
                 __pa_129   0x006170    program     static C:\firmware\70M_L_upconverter_SXY\70M_1223\work\Microchip\TCPIP Stack\HTTP2.c
                 __pa_130   0x006178    program     static C:\firmware\70M_L_upconverter_SXY\70M_1223\work\Microchip\TCPIP Stack\HTTP2.c
                 __pa_131   0x00617e    program     static C:\firmware\70M_L_upconverter_SXY\70M_1223\work\Microchip\TCPIP Stack\HTTP2.c
                 __pa_132   0x006184    program     static C:\firmware\70M_L_upconverter_SXY\70M_1223\work\Microchip\TCPIP Stack\HTTP2.c
                 __pa_133   0x006194    program     static C:\firmware\70M_L_upconverter_SXY\70M_1223\work\Microchip\TCPIP Stack\HTTP2.c
                 __pa_134   0x00619e    program     static C:\firmware\70M_L_upconverter_SXY\70M_1223\work\Microchip\TCPIP Stack\HTTP2.c
                 __pa_135   0x0061ae    program     static C:\firmware\70M_L_upconverter_SXY\70M_1223\work\Microchip\TCPIP Stack\HTTP2.c
                 __pa_136   0x0061ba    program     static C:\firmware\70M_L_upconverter_SXY\70M_1223\work\Microchip\TCPIP Stack\HTTP2.c
                 __pa_137   0x0061c4    program     static C:\firmware\70M_L_upconverter_SXY\70M_1223\work\Microchip\TCPIP Stack\HTTP2.c
                 __pa_138   0x0061d4    program     static C:\firmware\70M_L_upconverter_SXY\70M_1223\work\Microchip\TCPIP Stack\HTTP2.c
                 __pa_139   0x0061de    program     static C:\firmware\70M_L_upconverter_SXY\70M_1223\work\Microchip\TCPIP Stack\HTTP2.c
                 __pa_140   0x0061ea    program     static C:\firmware\70M_L_upconverter_SXY\70M_1223\work\Microchip\TCPIP Stack\HTTP2.c
                 __pa_141   0x0061f4    program     static C:\firmware\70M_L_upconverter_SXY\70M_1223\work\Microchip\TCPIP Stack\HTTP2.c
                 __pa_142   0x006202    program     static C:\firmware\70M_L_upconverter_SXY\70M_1223\work\Microchip\TCPIP Stack\HTTP2.c
                 __pa_143   0x006210    program     static C:\firmware\70M_L_upconverter_SXY\70M_1223\work\Microchip\TCPIP Stack\HTTP2.c
                 __pa_144   0x00621c    program     static C:\firmware\70M_L_upconverter_SXY\70M_1223\work\Microchip\TCPIP Stack\HTTP2.c
                 __pa_145   0x006224    program     static C:\firmware\70M_L_upconverter_SXY\70M_1223\work\Microchip\TCPIP Stack\HTTP2.c
                 __pa_146   0x00622a    program     static C:\firmware\70M_L_upconverter_SXY\70M_1223\work\Microchip\TCPIP Stack\HTTP2.c
                 __pa_147   0x006230    program     static C:\firmware\70M_L_upconverter_SXY\70M_1223\work\Microchip\TCPIP Stack\HTTP2.c
                 __pa_148   0x006238    program     static C:\firmware\70M_L_upconverter_SXY\70M_1223\work\Microchip\TCPIP Stack\HTTP2.c
                 __pa_149   0x006240    program     static C:\firmware\70M_L_upconverter_SXY\70M_1223\work\Microchip\TCPIP Stack\HTTP2.c
                 __pa_150   0x00624a    program     static C:\firmware\70M_L_upconverter_SXY\70M_1223\work\Microchip\TCPIP Stack\HTTP2.c
            KeyProcessing   0x006250    program     extern C:\firmware\70M_L_upconverter_SXY\70M_1223\work\Singcom\Drivers\lcd.c
          LCDMenuInScreen   0x0067ee    program     extern C:\firmware\70M_L_upconverter_SXY\70M_1223\work\Singcom\Drivers\lcd.c
     PrintLCDEditPosition   0x0068b8    program     extern C:\firmware\70M_L_upconverter_SXY\70M_1223\work\Singcom\Drivers\lcd.c
                 PrintLCD   0x00693e    program     extern C:\firmware\70M_L_upconverter_SXY\70M_1223\work\Singcom\Drivers\lcd.c
              __tmplbl_34   0x00698e    program     static                          
        ___while_lbl00104   0x006a56    program     static                          
        ___while_lbl00105   0x006b88    program     static                          
           ___if_lbl00106   0x006cd2    program     static                          
          ___for_lbl00109   0x006cf4    program     static                          
          ___for_lbl00107   0x006d18    program     static                          
          ___for_lbl00108   0x006d1c    program     static                          
         ___else_lbl00114   0x006d1e    program     static                          
          ___for_lbl00112   0x006d38    program     static                          
          ___for_lbl00110   0x006d68    program     static                          
           ___if_lbl00113   0x006d6c    program     static                          
          ___for_lbl00111   0x006d6c    program     static                          
         ___else_lbl00116   0x006d96    program     static                          
           ___if_lbl00117   0x006db6    program     static                          
           ___if_lbl00115   0x006db6    program     static                          
           ___if_lbl00118   0x006dc2    program     static                          
       ___return_lbl00103   0x006dce    program     static                          
           ___if_lbl00119   0x006dce    program     static                          
        PrintLCDWholePage   0x006de6    program     extern C:\firmware\70M_L_upconverter_SXY\70M_1223\work\Singcom\Drivers\lcd.c
          ___for_lbl00127   0x006e44    program     static                          
              __tmplbl_36   0x006e6c    program     static                          
              __tmplbl_35   0x006e74    program     static                          
         ___else_lbl00126   0x006e82    program     static                          
           ___if_lbl00125   0x006e92    program     static                          
           ___if_lbl00124   0x006e92    program     static                          
          ___for_lbl00121   0x006e92    program     static                          
          ___for_lbl00122   0x006e96    program     static                          
          ___for_lbl00134   0x006ea4    program     static                          
              __tmplbl_38   0x006ecc    program     static                          
              __tmplbl_37   0x006ed4    program     static                          
         ___else_lbl00133   0x006ee2    program     static                          
           ___if_lbl00131   0x006ef2    program     static                          
          ___for_lbl00128   0x006ef2    program     static                          
           ___if_lbl00132   0x006ef2    program     static                          
          ___for_lbl00129   0x006ef6    program     static                          
         ___else_lbl00136   0x006f20    program     static                          
           ___if_lbl00135   0x006f40    program     static                          
       ___return_lbl00120   0x006f40    program     static                          
       PrintLCDFromBuffer   0x006f58    program     extern C:\firmware\70M_L_upconverter_SXY\70M_1223\work\Singcom\Drivers\lcd.c
          ___for_lbl00142   0x006f7a    program     static                          
              __tmplbl_40   0x006fa2    program     static                          
              __tmplbl_39   0x006faa    program     static                          
           ___if_lbl00141   0x006fb6    program     static                          
          ___for_lbl00138   0x006fb6    program     static                          
          ___for_lbl00139   0x006fba    program     static                          
          ___for_lbl00147   0x006fc8    program     static                          
              __tmplbl_42   0x006ff0    program     static                          
              __tmplbl_41   0x006ff8    program     static                          
          ___for_lbl00143   0x007004    program     static                          
           ___if_lbl00146   0x007004    program     static                          
          ___for_lbl00144   0x007008    program     static                          
       ___return_lbl00137   0x007008    program     static                          
       LCDDisplayLoadData   0x007018    program     extern C:\firmware\70M_L_upconverter_SXY\70M_1223\work\Singcom\Drivers\lcd.c
        LCDMenuValue2Char   0x0073d0    program     extern C:\firmware\70M_L_upconverter_SXY\70M_1223\work\Singcom\Drivers\lcd.c
            LCD_vSetKepad   0x00742a    program     extern C:\firmware\70M_L_upconverter_SXY\70M_1223\work\Singcom\Drivers\lcd.c
               LCD_vSetIO   0x00743c    program     extern C:\firmware\70M_L_upconverter_SXY\70M_1223\work\Singcom\Drivers\lcd.c
              Initial_LCD   0x007454    program     extern C:\firmware\70M_L_upconverter_SXY\70M_1223\work\Singcom\Drivers\lcd.c
       DisplayCompanyMenu   0x00746a    program     extern C:\firmware\70M_L_upconverter_SXY\70M_1223\work\Singcom\Drivers\lcd.c
     LCD_vEnableInterrupt   0x0074c2    program     extern C:\firmware\70M_L_upconverter_SXY\70M_1223\work\Singcom\Drivers\lcd.c
      Value2DisplayBuffer   0x0074d8    program     extern C:\firmware\70M_L_upconverter_SXY\70M_1223\work\Singcom\Drivers\lcd.c
                   __pa_0   0x0075f4    program     static C:\firmware\70M_L_upconverter_SXY\70M_1223\work\Singcom\Drivers\lcd.c
                   __pa_1   0x007606    program     static C:\firmware\70M_L_upconverter_SXY\70M_1223\work\Singcom\Drivers\lcd.c
                   __pa_2   0x007614    program     static C:\firmware\70M_L_upconverter_SXY\70M_1223\work\Singcom\Drivers\lcd.c
                   __pa_3   0x007626    program     static C:\firmware\70M_L_upconverter_SXY\70M_1223\work\Singcom\Drivers\lcd.c
                   __pa_4   0x00762c    program     static C:\firmware\70M_L_upconverter_SXY\70M_1223\work\Singcom\Drivers\lcd.c
                   __pa_5   0x007640    program     static C:\firmware\70M_L_upconverter_SXY\70M_1223\work\Singcom\Drivers\lcd.c
                   __pa_6   0x007652    program     static C:\firmware\70M_L_upconverter_SXY\70M_1223\work\Singcom\Drivers\lcd.c
                   __pa_7   0x007658    program     static C:\firmware\70M_L_upconverter_SXY\70M_1223\work\Singcom\Drivers\lcd.c
                   __pa_8   0x007666    program     static C:\firmware\70M_L_upconverter_SXY\70M_1223\work\Singcom\Drivers\lcd.c
                   __pa_9   0x00766e    program     static C:\firmware\70M_L_upconverter_SXY\70M_1223\work\Singcom\Drivers\lcd.c
                  __pa_10   0x007676    program     static C:\firmware\70M_L_upconverter_SXY\70M_1223\work\Singcom\Drivers\lcd.c
                  __pa_11   0x007680    program     static C:\firmware\70M_L_upconverter_SXY\70M_1223\work\Singcom\Drivers\lcd.c
                  __pa_12   0x00768c    program     static C:\firmware\70M_L_upconverter_SXY\70M_1223\work\Singcom\Drivers\lcd.c
                  __pa_13   0x0076a2    program     static C:\firmware\70M_L_upconverter_SXY\70M_1223\work\Singcom\Drivers\lcd.c
                  __pa_14   0x0076b0    program     static C:\firmware\70M_L_upconverter_SXY\70M_1223\work\Singcom\Drivers\lcd.c
                  __pa_15   0x0076be    program     static C:\firmware\70M_L_upconverter_SXY\70M_1223\work\Singcom\Drivers\lcd.c
                  __pa_16   0x0076d0    program     static C:\firmware\70M_L_upconverter_SXY\70M_1223\work\Singcom\Drivers\lcd.c
                  __pa_17   0x0076e6    program     static C:\firmware\70M_L_upconverter_SXY\70M_1223\work\Singcom\Drivers\lcd.c
                  __pa_18   0x0076f2    program     static C:\firmware\70M_L_upconverter_SXY\70M_1223\work\Singcom\Drivers\lcd.c
                  __pa_19   0x0076fe    program     static C:\firmware\70M_L_upconverter_SXY\70M_1223\work\Singcom\Drivers\lcd.c
                  __pa_20   0x007708    program     static C:\firmware\70M_L_upconverter_SXY\70M_1223\work\Singcom\Drivers\lcd.c
                  __pa_21   0x007712    program     static C:\firmware\70M_L_upconverter_SXY\70M_1223\work\Singcom\Drivers\lcd.c
                  __pa_22   0x00771e    program     static C:\firmware\70M_L_upconverter_SXY\70M_1223\work\Singcom\Drivers\lcd.c
              __tmplbl_77   0x00772e    program     static                          
              __tmplbl_75   0x00772e    program     static                          
                  __pa_23   0x00772e    program     static C:\firmware\70M_L_upconverter_SXY\70M_1223\work\Singcom\Drivers\lcd.c
              __tmplbl_76   0x00772e    program     static                          
                  __pa_24   0x00773a    program     static C:\firmware\70M_L_upconverter_SXY\70M_1223\work\Singcom\Drivers\lcd.c
                  __pa_25   0x00775e    program     static C:\firmware\70M_L_upconverter_SXY\70M_1223\work\Singcom\Drivers\lcd.c
                  __pa_26   0x00776c    program     static C:\firmware\70M_L_upconverter_SXY\70M_1223\work\Singcom\Drivers\lcd.c
                  __pa_27   0x00777a    program     static C:\firmware\70M_L_upconverter_SXY\70M_1223\work\Singcom\Drivers\lcd.c
                  __pa_28   0x007796    program     static C:\firmware\70M_L_upconverter_SXY\70M_1223\work\Singcom\Drivers\lcd.c
                  __pa_29   0x0077ac    program     static C:\firmware\70M_L_upconverter_SXY\70M_1223\work\Singcom\Drivers\lcd.c
                  __pa_30   0x0077ce    program     static C:\firmware\70M_L_upconverter_SXY\70M_1223\work\Singcom\Drivers\lcd.c
                  __pa_31   0x0077d8    program     static C:\firmware\70M_L_upconverter_SXY\70M_1223\work\Singcom\Drivers\lcd.c
                  __pa_32   0x0077ec    program     static C:\firmware\70M_L_upconverter_SXY\70M_1223\work\Singcom\Drivers\lcd.c
                  __pa_33   0x0077f2    program     static C:\firmware\70M_L_upconverter_SXY\70M_1223\work\Singcom\Drivers\lcd.c
                  __pa_34   0x0077f8    program     static C:\firmware\70M_L_upconverter_SXY\70M_1223\work\Singcom\Drivers\lcd.c
                  __pa_35   0x007812    program     static C:\firmware\70M_L_upconverter_SXY\70M_1223\work\Singcom\Drivers\lcd.c
                  __pa_36   0x00781c    program     static C:\firmware\70M_L_upconverter_SXY\70M_1223\work\Singcom\Drivers\lcd.c
                  __pa_37   0x007826    program     static C:\firmware\70M_L_upconverter_SXY\70M_1223\work\Singcom\Drivers\lcd.c
                  __pa_38   0x00783a    program     static C:\firmware\70M_L_upconverter_SXY\70M_1223\work\Singcom\Drivers\lcd.c
                  __pa_39   0x007846    program     static C:\firmware\70M_L_upconverter_SXY\70M_1223\work\Singcom\Drivers\lcd.c
                  __pa_40   0x007850    program     static C:\firmware\70M_L_upconverter_SXY\70M_1223\work\Singcom\Drivers\lcd.c
                  __pa_41   0x007866    program     static C:\firmware\70M_L_upconverter_SXY\70M_1223\work\Singcom\Drivers\lcd.c
                  __pa_42   0x007872    program     static C:\firmware\70M_L_upconverter_SXY\70M_1223\work\Singcom\Drivers\lcd.c
                  __pa_43   0x00787e    program     static C:\firmware\70M_L_upconverter_SXY\70M_1223\work\Singcom\Drivers\lcd.c
                  __pa_44   0x007888    program     static C:\firmware\70M_L_upconverter_SXY\70M_1223\work\Singcom\Drivers\lcd.c
                  __pa_45   0x007890    program     static C:\firmware\70M_L_upconverter_SXY\70M_1223\work\Singcom\Drivers\lcd.c
                  __pa_46   0x00789a    program     static C:\firmware\70M_L_upconverter_SXY\70M_1223\work\Singcom\Drivers\lcd.c
                  __pa_47   0x0078aa    program     static C:\firmware\70M_L_upconverter_SXY\70M_1223\work\Singcom\Drivers\lcd.c
                  __pa_48   0x0078b2    program     static C:\firmware\70M_L_upconverter_SXY\70M_1223\work\Singcom\Drivers\lcd.c
                  __pa_49   0x0078c0    program     static C:\firmware\70M_L_upconverter_SXY\70M_1223\work\Singcom\Drivers\lcd.c
                  __pa_50   0x0078ce    program     static C:\firmware\70M_L_upconverter_SXY\70M_1223\work\Singcom\Drivers\lcd.c
                  __pa_51   0x0078dc    program     static C:\firmware\70M_L_upconverter_SXY\70M_1223\work\Singcom\Drivers\lcd.c
                  __pa_52   0x0078ea    program     static C:\firmware\70M_L_upconverter_SXY\70M_1223\work\Singcom\Drivers\lcd.c
                  __pa_53   0x0078f8    program     static C:\firmware\70M_L_upconverter_SXY\70M_1223\work\Singcom\Drivers\lcd.c
                  __pa_54   0x007906    program     static C:\firmware\70M_L_upconverter_SXY\70M_1223\work\Singcom\Drivers\lcd.c
                  __pa_55   0x00790c    program     static C:\firmware\70M_L_upconverter_SXY\70M_1223\work\Singcom\Drivers\lcd.c
                  __pa_56   0x007916    program     static C:\firmware\70M_L_upconverter_SXY\70M_1223\work\Singcom\Drivers\lcd.c
                  __pa_57   0x00791e    program     static C:\firmware\70M_L_upconverter_SXY\70M_1223\work\Singcom\Drivers\lcd.c
                  __pa_58   0x007926    program     static C:\firmware\70M_L_upconverter_SXY\70M_1223\work\Singcom\Drivers\lcd.c
                  __pa_59   0x007936    program     static C:\firmware\70M_L_upconverter_SXY\70M_1223\work\Singcom\Drivers\lcd.c
                  __pa_60   0x00793c    program     static C:\firmware\70M_L_upconverter_SXY\70M_1223\work\Singcom\Drivers\lcd.c
                  __pa_61   0x00794a    program     static C:\firmware\70M_L_upconverter_SXY\70M_1223\work\Singcom\Drivers\lcd.c
                  __pa_62   0x00795a    program     static C:\firmware\70M_L_upconverter_SXY\70M_1223\work\Singcom\Drivers\lcd.c
                  __pa_63   0x007962    program     static C:\firmware\70M_L_upconverter_SXY\70M_1223\work\Singcom\Drivers\lcd.c
                  __pa_64   0x00798a    program     static C:\firmware\70M_L_upconverter_SXY\70M_1223\work\Singcom\Drivers\lcd.c
                  __pa_65   0x007996    program     static C:\firmware\70M_L_upconverter_SXY\70M_1223\work\Singcom\Drivers\lcd.c
                  __pa_66   0x0079b2    program     static C:\firmware\70M_L_upconverter_SXY\70M_1223\work\Singcom\Drivers\lcd.c
                  __pa_67   0x0079c8    program     static C:\firmware\70M_L_upconverter_SXY\70M_1223\work\Singcom\Drivers\lcd.c
                  __pa_68   0x0079d0    program     static C:\firmware\70M_L_upconverter_SXY\70M_1223\work\Singcom\Drivers\lcd.c
                  __pa_69   0x0079e2    program     static C:\firmware\70M_L_upconverter_SXY\70M_1223\work\Singcom\Drivers\lcd.c
                  __pa_70   0x0079ea    program     static C:\firmware\70M_L_upconverter_SXY\70M_1223\work\Singcom\Drivers\lcd.c
                  __pa_71   0x0079f0    program     static C:\firmware\70M_L_upconverter_SXY\70M_1223\work\Singcom\Drivers\lcd.c
                  __pa_72   0x007a16    program     static C:\firmware\70M_L_upconverter_SXY\70M_1223\work\Singcom\Drivers\lcd.c
                  __pa_73   0x007a1a    program     static C:\firmware\70M_L_upconverter_SXY\70M_1223\work\Singcom\Drivers\lcd.c
                  __pa_74   0x007a28    program     static C:\firmware\70M_L_upconverter_SXY\70M_1223\work\Singcom\Drivers\lcd.c
                  __pa_75   0x007a32    program     static C:\firmware\70M_L_upconverter_SXY\70M_1223\work\Singcom\Drivers\lcd.c
                  __pa_76   0x007a3e    program     static C:\firmware\70M_L_upconverter_SXY\70M_1223\work\Singcom\Drivers\lcd.c
                  __pa_77   0x007a4a    program     static C:\firmware\70M_L_upconverter_SXY\70M_1223\work\Singcom\Drivers\lcd.c
                  __pa_78   0x007a54    program     static C:\firmware\70M_L_upconverter_SXY\70M_1223\work\Singcom\Drivers\lcd.c
                  __pa_79   0x007a62    program     static C:\firmware\70M_L_upconverter_SXY\70M_1223\work\Singcom\Drivers\lcd.c
                  __pa_80   0x007a70    program     static C:\firmware\70M_L_upconverter_SXY\70M_1223\work\Singcom\Drivers\lcd.c
                  __pa_81   0x007a78    program     static C:\firmware\70M_L_upconverter_SXY\70M_1223\work\Singcom\Drivers\lcd.c
                  __pa_82   0x007a80    program     static C:\firmware\70M_L_upconverter_SXY\70M_1223\work\Singcom\Drivers\lcd.c
                  __pa_83   0x007a86    program     static C:\firmware\70M_L_upconverter_SXY\70M_1223\work\Singcom\Drivers\lcd.c
                  __pa_84   0x007a98    program     static C:\firmware\70M_L_upconverter_SXY\70M_1223\work\Singcom\Drivers\lcd.c
                  __pa_85   0x007aa4    program     static C:\firmware\70M_L_upconverter_SXY\70M_1223\work\Singcom\Drivers\lcd.c
                  __pa_86   0x007aae    program     static C:\firmware\70M_L_upconverter_SXY\70M_1223\work\Singcom\Drivers\lcd.c
                  __pa_87   0x007abe    program     static C:\firmware\70M_L_upconverter_SXY\70M_1223\work\Singcom\Drivers\lcd.c
                  __pa_88   0x007aca    program     static C:\firmware\70M_L_upconverter_SXY\70M_1223\work\Singcom\Drivers\lcd.c
                  __pa_89   0x007ad0    program     static C:\firmware\70M_L_upconverter_SXY\70M_1223\work\Singcom\Drivers\lcd.c
                  __pa_90   0x007ad6    program     static C:\firmware\70M_L_upconverter_SXY\70M_1223\work\Singcom\Drivers\lcd.c
                  __pa_91   0x007ade    program     static C:\firmware\70M_L_upconverter_SXY\70M_1223\work\Singcom\Drivers\lcd.c
                  __pa_92   0x007ae8    program     static C:\firmware\70M_L_upconverter_SXY\70M_1223\work\Singcom\Drivers\lcd.c
                  __pa_93   0x007af0    program     static C:\firmware\70M_L_upconverter_SXY\70M_1223\work\Singcom\Drivers\lcd.c
                  __pa_94   0x007af6    program     static C:\firmware\70M_L_upconverter_SXY\70M_1223\work\Singcom\Drivers\lcd.c
                  __pa_95   0x007b00    program     static C:\firmware\70M_L_upconverter_SXY\70M_1223\work\Singcom\Drivers\lcd.c
                  __pa_96   0x007b0a    program     static C:\firmware\70M_L_upconverter_SXY\70M_1223\work\Singcom\Drivers\lcd.c
                  __pa_97   0x007b1a    program     static C:\firmware\70M_L_upconverter_SXY\70M_1223\work\Singcom\Drivers\lcd.c
                  __pa_98   0x007b26    program     static C:\firmware\70M_L_upconverter_SXY\70M_1223\work\Singcom\Drivers\lcd.c
                  __pa_99   0x007b2e    program     static C:\firmware\70M_L_upconverter_SXY\70M_1223\work\Singcom\Drivers\lcd.c
                 __pa_100   0x007b3a    program     static C:\firmware\70M_L_upconverter_SXY\70M_1223\work\Singcom\Drivers\lcd.c
                 __pa_101   0x007b44    program     static C:\firmware\70M_L_upconverter_SXY\70M_1223\work\Singcom\Drivers\lcd.c
                 __pa_102   0x007b50    program     static C:\firmware\70M_L_upconverter_SXY\70M_1223\work\Singcom\Drivers\lcd.c
                 __pa_103   0x007b5a    program     static C:\firmware\70M_L_upconverter_SXY\70M_1223\work\Singcom\Drivers\lcd.c
                 __pa_104   0x007b68    program     static C:\firmware\70M_L_upconverter_SXY\70M_1223\work\Singcom\Drivers\lcd.c
                 __pa_105   0x007b70    program     static C:\firmware\70M_L_upconverter_SXY\70M_1223\work\Singcom\Drivers\lcd.c
                 __pa_106   0x007b78    program     static C:\firmware\70M_L_upconverter_SXY\70M_1223\work\Singcom\Drivers\lcd.c
                 __pa_107   0x007b80    program     static C:\firmware\70M_L_upconverter_SXY\70M_1223\work\Singcom\Drivers\lcd.c
                 __pa_108   0x007b88    program     static C:\firmware\70M_L_upconverter_SXY\70M_1223\work\Singcom\Drivers\lcd.c
                 __pa_109   0x007b8e    program     static C:\firmware\70M_L_upconverter_SXY\70M_1223\work\Singcom\Drivers\lcd.c
                 __pa_110   0x007b96    program     static C:\firmware\70M_L_upconverter_SXY\70M_1223\work\Singcom\Drivers\lcd.c
                 __pa_111   0x007ba8    program     static C:\firmware\70M_L_upconverter_SXY\70M_1223\work\Singcom\Drivers\lcd.c
                 __pa_112   0x007bb4    program     static C:\firmware\70M_L_upconverter_SXY\70M_1223\work\Singcom\Drivers\lcd.c
                 __pa_113   0x007bba    program     static C:\firmware\70M_L_upconverter_SXY\70M_1223\work\Singcom\Drivers\lcd.c
                 __pa_114   0x007bc4    program     static C:\firmware\70M_L_upconverter_SXY\70M_1223\work\Singcom\Drivers\lcd.c
                 __pa_115   0x007bca    program     static C:\firmware\70M_L_upconverter_SXY\70M_1223\work\Singcom\Drivers\lcd.c
                 __pa_116   0x007bda    program     static C:\firmware\70M_L_upconverter_SXY\70M_1223\work\Singcom\Drivers\lcd.c
                 __pa_117   0x007be4    program     static C:\firmware\70M_L_upconverter_SXY\70M_1223\work\Singcom\Drivers\lcd.c
                 __pa_118   0x007bee    program     static C:\firmware\70M_L_upconverter_SXY\70M_1223\work\Singcom\Drivers\lcd.c
                 __pa_119   0x007bf8    program     static C:\firmware\70M_L_upconverter_SXY\70M_1223\work\Singcom\Drivers\lcd.c
                 __pa_120   0x007c00    program     static C:\firmware\70M_L_upconverter_SXY\70M_1223\work\Singcom\Drivers\lcd.c
                 __pa_121   0x007c12    program     static C:\firmware\70M_L_upconverter_SXY\70M_1223\work\Singcom\Drivers\lcd.c
                 __pa_122   0x007c24    program     static C:\firmware\70M_L_upconverter_SXY\70M_1223\work\Singcom\Drivers\lcd.c
                 __pa_123   0x007c2a    program     static C:\firmware\70M_L_upconverter_SXY\70M_1223\work\Singcom\Drivers\lcd.c
                 __pa_124   0x007c32    program     static C:\firmware\70M_L_upconverter_SXY\70M_1223\work\Singcom\Drivers\lcd.c
                 __pa_125   0x007c40    program     static C:\firmware\70M_L_upconverter_SXY\70M_1223\work\Singcom\Drivers\lcd.c
                 __pa_126   0x007c4c    program     static C:\firmware\70M_L_upconverter_SXY\70M_1223\work\Singcom\Drivers\lcd.c
                 __pa_127   0x007c54    program     static C:\firmware\70M_L_upconverter_SXY\70M_1223\work\Singcom\Drivers\lcd.c
                 __pa_128   0x007c5c    program     static C:\firmware\70M_L_upconverter_SXY\70M_1223\work\Singcom\Drivers\lcd.c
                 __pa_129   0x007c66    program     static C:\firmware\70M_L_upconverter_SXY\70M_1223\work\Singcom\Drivers\lcd.c
                 __pa_130   0x007c72    program     static C:\firmware\70M_L_upconverter_SXY\70M_1223\work\Singcom\Drivers\lcd.c
                 __pa_131   0x007c7e    program     static C:\firmware\70M_L_upconverter_SXY\70M_1223\work\Singcom\Drivers\lcd.c
                 __pa_132   0x007c8c    program     static C:\firmware\70M_L_upconverter_SXY\70M_1223\work\Singcom\Drivers\lcd.c
                 __pa_133   0x007c94    program     static C:\firmware\70M_L_upconverter_SXY\70M_1223\work\Singcom\Drivers\lcd.c
                 __pa_134   0x007c9a    program     static C:\firmware\70M_L_upconverter_SXY\70M_1223\work\Singcom\Drivers\lcd.c
                 __pa_135   0x007ca2    program     static C:\firmware\70M_L_upconverter_SXY\70M_1223\work\Singcom\Drivers\lcd.c
                 __pa_136   0x007cac    program     static C:\firmware\70M_L_upconverter_SXY\70M_1223\work\Singcom\Drivers\lcd.c
                 __pa_137   0x007cb6    program     static C:\firmware\70M_L_upconverter_SXY\70M_1223\work\Singcom\Drivers\lcd.c
                 __pa_138   0x007cbe    program     static C:\firmware\70M_L_upconverter_SXY\70M_1223\work\Singcom\Drivers\lcd.c
                 __pa_139   0x007cc6    program     static C:\firmware\70M_L_upconverter_SXY\70M_1223\work\Singcom\Drivers\lcd.c
                 __pa_140   0x007cd0    program     static C:\firmware\70M_L_upconverter_SXY\70M_1223\work\Singcom\Drivers\lcd.c
    HTTPGet__boInfoConfig   0x007cd8    program     static C:\firmware\70M_L_upconverter_SXY\70M_1223\work\App\WebUI\HTTPGetDevInfo.c
 HTTPGet__boNetworkConfig   0x007d1e    program     static C:\firmware\70M_L_upconverter_SXY\70M_1223\work\App\WebUI\HTTPGetDevInfo.c
      HTTPGet__boSetOnOff   0x007dac    program     static C:\firmware\70M_L_upconverter_SXY\70M_1223\work\App\WebUI\HTTPGetDevInfo.c
HTTPGet__u8SetUpCvtRFFreq   0x007df4    program     static C:\firmware\70M_L_upconverter_SXY\70M_1223\work\App\WebUI\HTTPGetDevInfo.c
HTTPGet__u8SetDownCvtRFFreq   0x007f06    program     static C:\firmware\70M_L_upconverter_SXY\70M_1223\work\App\WebUI\HTTPGetDevInfo.c
  HTTPGet__u8SetUpCvtAttn   0x00801c    program     static C:\firmware\70M_L_upconverter_SXY\70M_1223\work\App\WebUI\HTTPGetDevInfo.c
HTTPGet__u8SetDownCvtAttn   0x00810e    program     static C:\firmware\70M_L_upconverter_SXY\70M_1223\work\App\WebUI\HTTPGetDevInfo.c
 HTTPGet__u8SetUpCvtPower   0x008204    program     static C:\firmware\70M_L_upconverter_SXY\70M_1223\work\App\WebUI\HTTPGetDevInfo.c
HTTPGet__u8SetUpCvtSetPower   0x0082d2    program     static C:\firmware\70M_L_upconverter_SXY\70M_1223\work\App\WebUI\HTTPGetDevInfo.c
HTTPGet__u8SetDownCvtPower   0x0083d6    program     static C:\firmware\70M_L_upconverter_SXY\70M_1223\work\App\WebUI\HTTPGetDevInfo.c
HTTPGet__u8SetDownCvtSetPower   0x0084a8    program     static C:\firmware\70M_L_upconverter_SXY\70M_1223\work\App\WebUI\HTTPGetDevInfo.c
   HTTPGet__u8SetUpCvtALC   0x0085b0    program     static C:\firmware\70M_L_upconverter_SXY\70M_1223\work\App\WebUI\HTTPGetDevInfo.c
 HTTPGet__u8SetDownCvtALC   0x00864c    program     static C:\firmware\70M_L_upconverter_SXY\70M_1223\work\App\WebUI\HTTPGetDevInfo.c
  HTTPGet__u8SetUpCvtMute   0x0086ee    program     static C:\firmware\70M_L_upconverter_SXY\70M_1223\work\App\WebUI\HTTPGetDevInfo.c
HTTPGet__u8SetDownCvtMute   0x0087a0    program     static C:\firmware\70M_L_upconverter_SXY\70M_1223\work\App\WebUI\HTTPGetDevInfo.c
   HTTPGet__u8SetVOL18VDC   0x00884a    program     static C:\firmware\70M_L_upconverter_SXY\70M_1223\work\App\WebUI\HTTPGetDevInfo.c
   HTTPGet__u8SetVOL24VDC   0x0088b2    program     static C:\firmware\70M_L_upconverter_SXY\70M_1223\work\App\WebUI\HTTPGetDevInfo.c
     HTTPGet__u8SetBUCREF   0x008918    program     static C:\firmware\70M_L_upconverter_SXY\70M_1223\work\App\WebUI\HTTPGetDevInfo.c
     HTTPGet__u8SetLNBREF   0x00897e    program     static C:\firmware\70M_L_upconverter_SXY\70M_1223\work\App\WebUI\HTTPGetDevInfo.c
   HTTPGet__u8ClearBUCIAm   0x0089e0    program     static C:\firmware\70M_L_upconverter_SXY\70M_1223\work\App\WebUI\HTTPGetDevInfo.c
   HTTPGet__u8ClearLNBIAm   0x008a12    program     static C:\firmware\70M_L_upconverter_SXY\70M_1223\work\App\WebUI\HTTPGetDevInfo.c
  HTTPGet__boDeviceConfig   0x008a44    program     static C:\firmware\70M_L_upconverter_SXY\70M_1223\work\App\WebUI\HTTPGetDevInfo.c
   HTTPExe_get_deviceinfo   0x008a6e    program     extern C:\firmware\70M_L_upconverter_SXY\70M_1223\work\App\WebUI\HTTPGetDevInfo.c
                   __pa_0   0x008f72    program     static C:\firmware\70M_L_upconverter_SXY\70M_1223\work\App\WebUI\HTTPGetDevInfo.c
                   __pa_1   0x008f88    program     static C:\firmware\70M_L_upconverter_SXY\70M_1223\work\App\WebUI\HTTPGetDevInfo.c
                   __pa_2   0x008fa2    program     static C:\firmware\70M_L_upconverter_SXY\70M_1223\work\App\WebUI\HTTPGetDevInfo.c
                   __pa_3   0x008fbe    program     static C:\firmware\70M_L_upconverter_SXY\70M_1223\work\App\WebUI\HTTPGetDevInfo.c
                   __pa_4   0x008fd0    program     static C:\firmware\70M_L_upconverter_SXY\70M_1223\work\App\WebUI\HTTPGetDevInfo.c
                   __pa_5   0x008fd6    program     static C:\firmware\70M_L_upconverter_SXY\70M_1223\work\App\WebUI\HTTPGetDevInfo.c
             __tmplbl_119   0x008fdc    program     static                          
             __tmplbl_118   0x008fdc    program     static                          
             __tmplbl_117   0x008fdc    program     static                          
             __tmplbl_116   0x008fdc    program     static                          
             __tmplbl_115   0x008fdc    program     static                          
             __tmplbl_114   0x008fdc    program     static                          
             __tmplbl_113   0x008fdc    program     static                          
                   __pa_6   0x008fdc    program     static C:\firmware\70M_L_upconverter_SXY\70M_1223\work\App\WebUI\HTTPGetDevInfo.c
             __tmplbl_112   0x008fdc    program     static                          
             __tmplbl_111   0x008fdc    program     static                          
             __tmplbl_110   0x008fdc    program     static                          
             __tmplbl_109   0x008fdc    program     static                          
                   __pa_7   0x008fe8    program     static C:\firmware\70M_L_upconverter_SXY\70M_1223\work\App\WebUI\HTTPGetDevInfo.c
                   __pa_8   0x008ff0    program     static C:\firmware\70M_L_upconverter_SXY\70M_1223\work\App\WebUI\HTTPGetDevInfo.c
                   __pa_9   0x009072    program     static C:\firmware\70M_L_upconverter_SXY\70M_1223\work\App\WebUI\HTTPGetDevInfo.c
                  __pa_10   0x009078    program     static C:\firmware\70M_L_upconverter_SXY\70M_1223\work\App\WebUI\HTTPGetDevInfo.c
                  __pa_11   0x009080    program     static C:\firmware\70M_L_upconverter_SXY\70M_1223\work\App\WebUI\HTTPGetDevInfo.c
                  __pa_12   0x00909c    program     static C:\firmware\70M_L_upconverter_SXY\70M_1223\work\App\WebUI\HTTPGetDevInfo.c
                  __pa_13   0x0090bc    program     static C:\firmware\70M_L_upconverter_SXY\70M_1223\work\App\WebUI\HTTPGetDevInfo.c
                  __pa_14   0x0090d8    program     static C:\firmware\70M_L_upconverter_SXY\70M_1223\work\App\WebUI\HTTPGetDevInfo.c
                  __pa_15   0x0090e0    program     static C:\firmware\70M_L_upconverter_SXY\70M_1223\work\App\WebUI\HTTPGetDevInfo.c
                  __pa_16   0x0090f6    program     static C:\firmware\70M_L_upconverter_SXY\70M_1223\work\App\WebUI\HTTPGetDevInfo.c
                  __pa_17   0x00912c    program     static C:\firmware\70M_L_upconverter_SXY\70M_1223\work\App\WebUI\HTTPGetDevInfo.c
                  __pa_18   0x009144    program     static C:\firmware\70M_L_upconverter_SXY\70M_1223\work\App\WebUI\HTTPGetDevInfo.c
                  __pa_19   0x009158    program     static C:\firmware\70M_L_upconverter_SXY\70M_1223\work\App\WebUI\HTTPGetDevInfo.c
                  __pa_20   0x00916c    program     static C:\firmware\70M_L_upconverter_SXY\70M_1223\work\App\WebUI\HTTPGetDevInfo.c
                  __pa_21   0x00917c    program     static C:\firmware\70M_L_upconverter_SXY\70M_1223\work\App\WebUI\HTTPGetDevInfo.c
                  __pa_22   0x00918c    program     static C:\firmware\70M_L_upconverter_SXY\70M_1223\work\App\WebUI\HTTPGetDevInfo.c
                  __pa_23   0x00919c    program     static C:\firmware\70M_L_upconverter_SXY\70M_1223\work\App\WebUI\HTTPGetDevInfo.c
                  __pa_24   0x0091a6    program     static C:\firmware\70M_L_upconverter_SXY\70M_1223\work\App\WebUI\HTTPGetDevInfo.c
                  __pa_25   0x0091ae    program     static C:\firmware\70M_L_upconverter_SXY\70M_1223\work\App\WebUI\HTTPGetDevInfo.c
                  __pa_26   0x0091bc    program     static C:\firmware\70M_L_upconverter_SXY\70M_1223\work\App\WebUI\HTTPGetDevInfo.c
                  __pa_27   0x0091d4    program     static C:\firmware\70M_L_upconverter_SXY\70M_1223\work\App\WebUI\HTTPGetDevInfo.c
                  __pa_28   0x0091e0    program     static C:\firmware\70M_L_upconverter_SXY\70M_1223\work\App\WebUI\HTTPGetDevInfo.c
                  __pa_29   0x00920a    program     static C:\firmware\70M_L_upconverter_SXY\70M_1223\work\App\WebUI\HTTPGetDevInfo.c
                  __pa_30   0x009214    program     static C:\firmware\70M_L_upconverter_SXY\70M_1223\work\App\WebUI\HTTPGetDevInfo.c
                  __pa_31   0x009224    program     static C:\firmware\70M_L_upconverter_SXY\70M_1223\work\App\WebUI\HTTPGetDevInfo.c
                  __pa_32   0x00922a    program     static C:\firmware\70M_L_upconverter_SXY\70M_1223\work\App\WebUI\HTTPGetDevInfo.c
                  __pa_33   0x009230    program     static C:\firmware\70M_L_upconverter_SXY\70M_1223\work\App\WebUI\HTTPGetDevInfo.c
                  __pa_34   0x00923a    program     static C:\firmware\70M_L_upconverter_SXY\70M_1223\work\App\WebUI\HTTPGetDevInfo.c
                  __pa_35   0x009248    program     static C:\firmware\70M_L_upconverter_SXY\70M_1223\work\App\WebUI\HTTPGetDevInfo.c
                  __pa_36   0x009250    program     static C:\firmware\70M_L_upconverter_SXY\70M_1223\work\App\WebUI\HTTPGetDevInfo.c
                  __pa_37   0x009262    program     static C:\firmware\70M_L_upconverter_SXY\70M_1223\work\App\WebUI\HTTPGetDevInfo.c
                  __pa_38   0x009272    program     static C:\firmware\70M_L_upconverter_SXY\70M_1223\work\App\WebUI\HTTPGetDevInfo.c
                  __pa_39   0x00928e    program     static C:\firmware\70M_L_upconverter_SXY\70M_1223\work\App\WebUI\HTTPGetDevInfo.c
                  __pa_40   0x0092a6    program     static C:\firmware\70M_L_upconverter_SXY\70M_1223\work\App\WebUI\HTTPGetDevInfo.c
                  __pa_41   0x0092b4    program     static C:\firmware\70M_L_upconverter_SXY\70M_1223\work\App\WebUI\HTTPGetDevInfo.c
                  __pa_42   0x0092c2    program     static C:\firmware\70M_L_upconverter_SXY\70M_1223\work\App\WebUI\HTTPGetDevInfo.c
                  __pa_43   0x0092d0    program     static C:\firmware\70M_L_upconverter_SXY\70M_1223\work\App\WebUI\HTTPGetDevInfo.c
                  __pa_44   0x0092e6    program     static C:\firmware\70M_L_upconverter_SXY\70M_1223\work\App\WebUI\HTTPGetDevInfo.c
                  __pa_45   0x0092f0    program     static C:\firmware\70M_L_upconverter_SXY\70M_1223\work\App\WebUI\HTTPGetDevInfo.c
                  __pa_46   0x0092fa    program     static C:\firmware\70M_L_upconverter_SXY\70M_1223\work\App\WebUI\HTTPGetDevInfo.c
                  __pa_47   0x009306    program     static C:\firmware\70M_L_upconverter_SXY\70M_1223\work\App\WebUI\HTTPGetDevInfo.c
                  __pa_48   0x009312    program     static C:\firmware\70M_L_upconverter_SXY\70M_1223\work\App\WebUI\HTTPGetDevInfo.c
                  __pa_49   0x00931e    program     static C:\firmware\70M_L_upconverter_SXY\70M_1223\work\App\WebUI\HTTPGetDevInfo.c
                  __pa_50   0x00932e    program     static C:\firmware\70M_L_upconverter_SXY\70M_1223\work\App\WebUI\HTTPGetDevInfo.c
                  __pa_51   0x009338    program     static C:\firmware\70M_L_upconverter_SXY\70M_1223\work\App\WebUI\HTTPGetDevInfo.c
                  __pa_52   0x009348    program     static C:\firmware\70M_L_upconverter_SXY\70M_1223\work\App\WebUI\HTTPGetDevInfo.c
                  __pa_53   0x009356    program     static C:\firmware\70M_L_upconverter_SXY\70M_1223\work\App\WebUI\HTTPGetDevInfo.c
                  __pa_54   0x009360    program     static C:\firmware\70M_L_upconverter_SXY\70M_1223\work\App\WebUI\HTTPGetDevInfo.c
                  __pa_55   0x009374    program     static C:\firmware\70M_L_upconverter_SXY\70M_1223\work\App\WebUI\HTTPGetDevInfo.c
                  __pa_56   0x009388    program     static C:\firmware\70M_L_upconverter_SXY\70M_1223\work\App\WebUI\HTTPGetDevInfo.c
                  __pa_57   0x00939c    program     static C:\firmware\70M_L_upconverter_SXY\70M_1223\work\App\WebUI\HTTPGetDevInfo.c
                  __pa_58   0x0093a4    program     static C:\firmware\70M_L_upconverter_SXY\70M_1223\work\App\WebUI\HTTPGetDevInfo.c
                  __pa_59   0x0093ac    program     static C:\firmware\70M_L_upconverter_SXY\70M_1223\work\App\WebUI\HTTPGetDevInfo.c
                  __pa_60   0x0093be    program     static C:\firmware\70M_L_upconverter_SXY\70M_1223\work\App\WebUI\HTTPGetDevInfo.c
                  __pa_61   0x0093d0    program     static C:\firmware\70M_L_upconverter_SXY\70M_1223\work\App\WebUI\HTTPGetDevInfo.c
                  __pa_62   0x0093dc    program     static C:\firmware\70M_L_upconverter_SXY\70M_1223\work\App\WebUI\HTTPGetDevInfo.c
                  __pa_63   0x0093e8    program     static C:\firmware\70M_L_upconverter_SXY\70M_1223\work\App\WebUI\HTTPGetDevInfo.c
                  __pa_64   0x0093f4    program     static C:\firmware\70M_L_upconverter_SXY\70M_1223\work\App\WebUI\HTTPGetDevInfo.c
                  __pa_65   0x009404    program     static C:\firmware\70M_L_upconverter_SXY\70M_1223\work\App\WebUI\HTTPGetDevInfo.c
                  __pa_66   0x009412    program     static C:\firmware\70M_L_upconverter_SXY\70M_1223\work\App\WebUI\HTTPGetDevInfo.c
                  __pa_67   0x009420    program     static C:\firmware\70M_L_upconverter_SXY\70M_1223\work\App\WebUI\HTTPGetDevInfo.c
                  __pa_68   0x00942e    program     static C:\firmware\70M_L_upconverter_SXY\70M_1223\work\App\WebUI\HTTPGetDevInfo.c
                  __pa_69   0x00943c    program     static C:\firmware\70M_L_upconverter_SXY\70M_1223\work\App\WebUI\HTTPGetDevInfo.c
                  __pa_70   0x00944a    program     static C:\firmware\70M_L_upconverter_SXY\70M_1223\work\App\WebUI\HTTPGetDevInfo.c
                  __pa_71   0x009452    program     static C:\firmware\70M_L_upconverter_SXY\70M_1223\work\App\WebUI\HTTPGetDevInfo.c
                  __pa_72   0x009460    program     static C:\firmware\70M_L_upconverter_SXY\70M_1223\work\App\WebUI\HTTPGetDevInfo.c
                  __pa_73   0x009468    program     static C:\firmware\70M_L_upconverter_SXY\70M_1223\work\App\WebUI\HTTPGetDevInfo.c
                  __pa_74   0x009470    program     static C:\firmware\70M_L_upconverter_SXY\70M_1223\work\App\WebUI\HTTPGetDevInfo.c
                  __pa_75   0x00947a    program     static C:\firmware\70M_L_upconverter_SXY\70M_1223\work\App\WebUI\HTTPGetDevInfo.c
                  __pa_76   0x009484    program     static C:\firmware\70M_L_upconverter_SXY\70M_1223\work\App\WebUI\HTTPGetDevInfo.c
                  __pa_77   0x00948e    program     static C:\firmware\70M_L_upconverter_SXY\70M_1223\work\App\WebUI\HTTPGetDevInfo.c
                  __pa_78   0x009498    program     static C:\firmware\70M_L_upconverter_SXY\70M_1223\work\App\WebUI\HTTPGetDevInfo.c
                  __pa_79   0x0094a2    program     static C:\firmware\70M_L_upconverter_SXY\70M_1223\work\App\WebUI\HTTPGetDevInfo.c
                  __pa_80   0x0094e0    program     static C:\firmware\70M_L_upconverter_SXY\70M_1223\work\App\WebUI\HTTPGetDevInfo.c
                  __pa_81   0x009504    program     static C:\firmware\70M_L_upconverter_SXY\70M_1223\work\App\WebUI\HTTPGetDevInfo.c
                  __pa_82   0x009514    program     static C:\firmware\70M_L_upconverter_SXY\70M_1223\work\App\WebUI\HTTPGetDevInfo.c
                  __pa_83   0x009522    program     static C:\firmware\70M_L_upconverter_SXY\70M_1223\work\App\WebUI\HTTPGetDevInfo.c
             __tmplbl_125   0x009528    program     static                          
             __tmplbl_128   0x009528    program     static                          
                  __pa_84   0x009528    program     static C:\firmware\70M_L_upconverter_SXY\70M_1223\work\App\WebUI\HTTPGetDevInfo.c
             __tmplbl_129   0x009528    program     static                          
             __tmplbl_127   0x009528    program     static                          
             __tmplbl_126   0x009528    program     static                          
             __tmplbl_124   0x009528    program     static                          
             __tmplbl_123   0x009528    program     static                          
             __tmplbl_122   0x009528    program     static                          
             __tmplbl_120   0x009528    program     static                          
             __tmplbl_121   0x009528    program     static                          
                  __pa_85   0x009530    program     static C:\firmware\70M_L_upconverter_SXY\70M_1223\work\App\WebUI\HTTPGetDevInfo.c
                  __pa_86   0x009544    program     static C:\firmware\70M_L_upconverter_SXY\70M_1223\work\App\WebUI\HTTPGetDevInfo.c
                  __pa_87   0x00954e    program     static C:\firmware\70M_L_upconverter_SXY\70M_1223\work\App\WebUI\HTTPGetDevInfo.c
                  __pa_88   0x00955c    program     static C:\firmware\70M_L_upconverter_SXY\70M_1223\work\App\WebUI\HTTPGetDevInfo.c
                  __pa_89   0x00956a    program     static C:\firmware\70M_L_upconverter_SXY\70M_1223\work\App\WebUI\HTTPGetDevInfo.c
                  __pa_90   0x009574    program     static C:\firmware\70M_L_upconverter_SXY\70M_1223\work\App\WebUI\HTTPGetDevInfo.c
                  __pa_91   0x00957e    program     static C:\firmware\70M_L_upconverter_SXY\70M_1223\work\App\WebUI\HTTPGetDevInfo.c
                  __pa_92   0x009592    program     static C:\firmware\70M_L_upconverter_SXY\70M_1223\work\App\WebUI\HTTPGetDevInfo.c
                  __pa_93   0x0095a4    program     static C:\firmware\70M_L_upconverter_SXY\70M_1223\work\App\WebUI\HTTPGetDevInfo.c
                  __pa_94   0x0095b6    program     static C:\firmware\70M_L_upconverter_SXY\70M_1223\work\App\WebUI\HTTPGetDevInfo.c
                  __pa_95   0x0095c2    program     static C:\firmware\70M_L_upconverter_SXY\70M_1223\work\App\WebUI\HTTPGetDevInfo.c
                  __pa_96   0x0095cc    program     static C:\firmware\70M_L_upconverter_SXY\70M_1223\work\App\WebUI\HTTPGetDevInfo.c
                  __pa_97   0x0095da    program     static C:\firmware\70M_L_upconverter_SXY\70M_1223\work\App\WebUI\HTTPGetDevInfo.c
                  __pa_98   0x0095e4    program     static C:\firmware\70M_L_upconverter_SXY\70M_1223\work\App\WebUI\HTTPGetDevInfo.c
                  __pa_99   0x0095ee    program     static C:\firmware\70M_L_upconverter_SXY\70M_1223\work\App\WebUI\HTTPGetDevInfo.c
                 __pa_100   0x0095fc    program     static C:\firmware\70M_L_upconverter_SXY\70M_1223\work\App\WebUI\HTTPGetDevInfo.c
                 __pa_101   0x00960a    program     static C:\firmware\70M_L_upconverter_SXY\70M_1223\work\App\WebUI\HTTPGetDevInfo.c
                 __pa_102   0x009618    program     static C:\firmware\70M_L_upconverter_SXY\70M_1223\work\App\WebUI\HTTPGetDevInfo.c
                 __pa_103   0x009626    program     static C:\firmware\70M_L_upconverter_SXY\70M_1223\work\App\WebUI\HTTPGetDevInfo.c
                 __pa_104   0x00962e    program     static C:\firmware\70M_L_upconverter_SXY\70M_1223\work\App\WebUI\HTTPGetDevInfo.c
                 __pa_105   0x009634    program     static C:\firmware\70M_L_upconverter_SXY\70M_1223\work\App\WebUI\HTTPGetDevInfo.c
                 __pa_106   0x00963a    program     static C:\firmware\70M_L_upconverter_SXY\70M_1223\work\App\WebUI\HTTPGetDevInfo.c
                 __pa_107   0x009640    program     static C:\firmware\70M_L_upconverter_SXY\70M_1223\work\App\WebUI\HTTPGetDevInfo.c
                 __pa_108   0x00964c    program     static C:\firmware\70M_L_upconverter_SXY\70M_1223\work\App\WebUI\HTTPGetDevInfo.c
                 __pa_109   0x009652    program     static C:\firmware\70M_L_upconverter_SXY\70M_1223\work\App\WebUI\HTTPGetDevInfo.c
                 __pa_110   0x009658    program     static C:\firmware\70M_L_upconverter_SXY\70M_1223\work\App\WebUI\HTTPGetDevInfo.c
                 __pa_111   0x009660    program     static C:\firmware\70M_L_upconverter_SXY\70M_1223\work\App\WebUI\HTTPGetDevInfo.c
                 __pa_112   0x009668    program     static C:\firmware\70M_L_upconverter_SXY\70M_1223\work\App\WebUI\HTTPGetDevInfo.c
                 __pa_113   0x009676    program     static C:\firmware\70M_L_upconverter_SXY\70M_1223\work\App\WebUI\HTTPGetDevInfo.c
                 __pa_114   0x009684    program     static C:\firmware\70M_L_upconverter_SXY\70M_1223\work\App\WebUI\HTTPGetDevInfo.c
                 __pa_115   0x009692    program     static C:\firmware\70M_L_upconverter_SXY\70M_1223\work\App\WebUI\HTTPGetDevInfo.c
                 __pa_116   0x0096a0    program     static C:\firmware\70M_L_upconverter_SXY\70M_1223\work\App\WebUI\HTTPGetDevInfo.c
                 __pa_117   0x0096aa    program     static C:\firmware\70M_L_upconverter_SXY\70M_1223\work\App\WebUI\HTTPGetDevInfo.c
                 __pa_118   0x0096b2    program     static C:\firmware\70M_L_upconverter_SXY\70M_1223\work\App\WebUI\HTTPGetDevInfo.c
                 __pa_119   0x0096ba    program     static C:\firmware\70M_L_upconverter_SXY\70M_1223\work\App\WebUI\HTTPGetDevInfo.c
                 __pa_120   0x0096ce    program     static C:\firmware\70M_L_upconverter_SXY\70M_1223\work\App\WebUI\HTTPGetDevInfo.c
                 __pa_121   0x0096d8    program     static C:\firmware\70M_L_upconverter_SXY\70M_1223\work\App\WebUI\HTTPGetDevInfo.c
                 __pa_122   0x0096e6    program     static C:\firmware\70M_L_upconverter_SXY\70M_1223\work\App\WebUI\HTTPGetDevInfo.c
         Util_u16ByteSwap   0x0096ee    program     extern C:\firmware\70M_L_upconverter_SXY\70M_1223\work\SysLib\util.c
        Util_u16DWORDSwap   0x00977a    program     extern C:\firmware\70M_L_upconverter_SXY\70M_1223\work\SysLib\util.c
      Util_u8String2int16   0x009964    program     extern C:\firmware\70M_L_upconverter_SXY\70M_1223\work\SysLib\util.c
Util_u8String2int32_noDotH   0x009a30    program     extern C:\firmware\70M_L_upconverter_SXY\70M_1223\work\SysLib\util.c
Util_u8String2int32_noDotL   0x009ad6    program     extern C:\firmware\70M_L_upconverter_SXY\70M_1223\work\SysLib\util.c
      Util_u8String2DWORD   0x009b7c    program     extern C:\firmware\70M_L_upconverter_SXY\70M_1223\work\SysLib\util.c
      Util_u8Float2String   0x009bb6    program     extern C:\firmware\70M_L_upconverter_SXY\70M_1223\work\SysLib\util.c
      Util_u8String2Float   0x009c74    program     extern C:\firmware\70M_L_upconverter_SXY\70M_1223\work\SysLib\util.c
     Util_u8String2NFloat   0x009d48    program     extern C:\firmware\70M_L_upconverter_SXY\70M_1223\work\SysLib\util.c
                ASC2toHEX   0x009e34    program     extern C:\firmware\70M_L_upconverter_SXY\70M_1223\work\SysLib\util.c
                HEXto2ASC   0x009ea6    program     extern C:\firmware\70M_L_upconverter_SXY\70M_1223\work\SysLib\util.c
                  DelayMS   0x009eee    program     extern C:\firmware\70M_L_upconverter_SXY\70M_1223\work\SysLib\util.c
                  Hex2Int   0x009f1e    program     extern C:\firmware\70M_L_upconverter_SXY\70M_1223\work\SysLib\util.c
                  Int2Hex   0x009f58    program     extern C:\firmware\70M_L_upconverter_SXY\70M_1223\work\SysLib\util.c
                    atof5   0x009fc0    program     extern C:\firmware\70M_L_upconverter_SXY\70M_1223\work\SysLib\util.c
                    atof1   0x00a046    program     extern C:\firmware\70M_L_upconverter_SXY\70M_1223\work\SysLib\util.c
            SaveAppConfig   0x00a0e2    program     extern C:\firmware\70M_L_upconverter_SXY\70M_1223\work\SysLib\util.c
              SaveSetting   0x00a106    program     extern C:\firmware\70M_L_upconverter_SXY\70M_1223\work\SysLib\util.c
           DisplayIPValue   0x00a154    program     extern C:\firmware\70M_L_upconverter_SXY\70M_1223\work\SysLib\util.c
                   __pa_0   0x00a1d8    program     static C:\firmware\70M_L_upconverter_SXY\70M_1223\work\SysLib\util.c
                   __pa_1   0x00a1e2    program     static C:\firmware\70M_L_upconverter_SXY\70M_1223\work\SysLib\util.c
                   __pa_2   0x00a1ee    program     static C:\firmware\70M_L_upconverter_SXY\70M_1223\work\SysLib\util.c
                   __pa_3   0x00a1f4    program     static C:\firmware\70M_L_upconverter_SXY\70M_1223\work\SysLib\util.c
              __tmplbl_41   0x00a220    program     static                          
                   __pa_4   0x00a220    program     static C:\firmware\70M_L_upconverter_SXY\70M_1223\work\SysLib\util.c
              __tmplbl_42   0x00a220    program     static                          
                   __pa_5   0x00a22c    program     static C:\firmware\70M_L_upconverter_SXY\70M_1223\work\SysLib\util.c
                   __pa_6   0x00a232    program     static C:\firmware\70M_L_upconverter_SXY\70M_1223\work\SysLib\util.c
                   __pa_7   0x00a28c    program     static C:\firmware\70M_L_upconverter_SXY\70M_1223\work\SysLib\util.c
                   __pa_8   0x00a2a6    program     static C:\firmware\70M_L_upconverter_SXY\70M_1223\work\SysLib\util.c
                   __pa_9   0x00a2c0    program     static C:\firmware\70M_L_upconverter_SXY\70M_1223\work\SysLib\util.c
                  __pa_10   0x00a2ca    program     static C:\firmware\70M_L_upconverter_SXY\70M_1223\work\SysLib\util.c
                  __pa_11   0x00a2d2    program     static C:\firmware\70M_L_upconverter_SXY\70M_1223\work\SysLib\util.c
                  __pa_12   0x00a2da    program     static C:\firmware\70M_L_upconverter_SXY\70M_1223\work\SysLib\util.c
                  __pa_13   0x00a30e    program     static C:\firmware\70M_L_upconverter_SXY\70M_1223\work\SysLib\util.c
                  __pa_14   0x00a320    program     static C:\firmware\70M_L_upconverter_SXY\70M_1223\work\SysLib\util.c
                  __pa_15   0x00a328    program     static C:\firmware\70M_L_upconverter_SXY\70M_1223\work\SysLib\util.c
                  __pa_16   0x00a35a    program     static C:\firmware\70M_L_upconverter_SXY\70M_1223\work\SysLib\util.c
                  __pa_17   0x00a36c    program     static C:\firmware\70M_L_upconverter_SXY\70M_1223\work\SysLib\util.c
                  __pa_18   0x00a378    program     static C:\firmware\70M_L_upconverter_SXY\70M_1223\work\SysLib\util.c
                  __pa_19   0x00a386    program     static C:\firmware\70M_L_upconverter_SXY\70M_1223\work\SysLib\util.c
                  __pa_20   0x00a3a0    program     static C:\firmware\70M_L_upconverter_SXY\70M_1223\work\SysLib\util.c
                  __pa_21   0x00a3ba    program     static C:\firmware\70M_L_upconverter_SXY\70M_1223\work\SysLib\util.c
                  __pa_22   0x00a3c4    program     static C:\firmware\70M_L_upconverter_SXY\70M_1223\work\SysLib\util.c
                  __pa_23   0x00a3ce    program     static C:\firmware\70M_L_upconverter_SXY\70M_1223\work\SysLib\util.c
                  __pa_24   0x00a3e2    program     static C:\firmware\70M_L_upconverter_SXY\70M_1223\work\SysLib\util.c
                  __pa_25   0x00a3f0    program     static C:\firmware\70M_L_upconverter_SXY\70M_1223\work\SysLib\util.c
                  __pa_26   0x00a402    program     static C:\firmware\70M_L_upconverter_SXY\70M_1223\work\SysLib\util.c
                  __pa_27   0x00a410    program     static C:\firmware\70M_L_upconverter_SXY\70M_1223\work\SysLib\util.c
                  __pa_28   0x00a428    program     static C:\firmware\70M_L_upconverter_SXY\70M_1223\work\SysLib\util.c
                  __pa_29   0x00a434    program     static C:\firmware\70M_L_upconverter_SXY\70M_1223\work\SysLib\util.c
                  __pa_30   0x00a440    program     static C:\firmware\70M_L_upconverter_SXY\70M_1223\work\SysLib\util.c
                  __pa_31   0x00a44e    program     static C:\firmware\70M_L_upconverter_SXY\70M_1223\work\SysLib\util.c
                  __pa_32   0x00a45c    program     static C:\firmware\70M_L_upconverter_SXY\70M_1223\work\SysLib\util.c
                  __pa_33   0x00a470    program     static C:\firmware\70M_L_upconverter_SXY\70M_1223\work\SysLib\util.c
                  __pa_34   0x00a47c    program     static C:\firmware\70M_L_upconverter_SXY\70M_1223\work\SysLib\util.c
                  __pa_35   0x00a48e    program     static C:\firmware\70M_L_upconverter_SXY\70M_1223\work\SysLib\util.c
                  __pa_36   0x00a496    program     static C:\firmware\70M_L_upconverter_SXY\70M_1223\work\SysLib\util.c
                  __pa_37   0x00a4a2    program     static C:\firmware\70M_L_upconverter_SXY\70M_1223\work\SysLib\util.c
                  __pa_38   0x00a4ac    program     static C:\firmware\70M_L_upconverter_SXY\70M_1223\work\SysLib\util.c
                  __pa_39   0x00a4ba    program     static C:\firmware\70M_L_upconverter_SXY\70M_1223\work\SysLib\util.c
                  __pa_40   0x00a4c8    program     static C:\firmware\70M_L_upconverter_SXY\70M_1223\work\SysLib\util.c
                  __pa_41   0x00a4d6    program     static C:\firmware\70M_L_upconverter_SXY\70M_1223\work\SysLib\util.c
                  __pa_42   0x00a4e4    program     static C:\firmware\70M_L_upconverter_SXY\70M_1223\work\SysLib\util.c
                  __pa_43   0x00a4ee    program     static C:\firmware\70M_L_upconverter_SXY\70M_1223\work\SysLib\util.c
                  __pa_44   0x00a4f8    program     static C:\firmware\70M_L_upconverter_SXY\70M_1223\work\SysLib\util.c
                  __pa_45   0x00a502    program     static C:\firmware\70M_L_upconverter_SXY\70M_1223\work\SysLib\util.c
                  __pa_46   0x00a50a    program     static C:\firmware\70M_L_upconverter_SXY\70M_1223\work\SysLib\util.c
                  __pa_47   0x00a530    program     static C:\firmware\70M_L_upconverter_SXY\70M_1223\work\SysLib\util.c
                  __pa_48   0x00a552    program     static C:\firmware\70M_L_upconverter_SXY\70M_1223\work\SysLib\util.c
                  __pa_49   0x00a55a    program     static C:\firmware\70M_L_upconverter_SXY\70M_1223\work\SysLib\util.c
                  __pa_50   0x00a568    program     static C:\firmware\70M_L_upconverter_SXY\70M_1223\work\SysLib\util.c
                  __pa_51   0x00a570    program     static C:\firmware\70M_L_upconverter_SXY\70M_1223\work\SysLib\util.c
                  __pa_52   0x00a578    program     static C:\firmware\70M_L_upconverter_SXY\70M_1223\work\SysLib\util.c
                  __pa_53   0x00a58a    program     static C:\firmware\70M_L_upconverter_SXY\70M_1223\work\SysLib\util.c
                  __pa_54   0x00a598    program     static C:\firmware\70M_L_upconverter_SXY\70M_1223\work\SysLib\util.c
                  __pa_55   0x00a5a0    program     static C:\firmware\70M_L_upconverter_SXY\70M_1223\work\SysLib\util.c
                  __pa_56   0x00a5ae    program     static C:\firmware\70M_L_upconverter_SXY\70M_1223\work\SysLib\util.c
                  __pa_57   0x00a5bc    program     static C:\firmware\70M_L_upconverter_SXY\70M_1223\work\SysLib\util.c
                  __pa_58   0x00a5c6    program     static C:\firmware\70M_L_upconverter_SXY\70M_1223\work\SysLib\util.c
                  __pa_59   0x00a5d8    program     static C:\firmware\70M_L_upconverter_SXY\70M_1223\work\SysLib\util.c
                  __pa_60   0x00a5e0    program     static C:\firmware\70M_L_upconverter_SXY\70M_1223\work\SysLib\util.c
                  __pa_61   0x00a5ea    program     static C:\firmware\70M_L_upconverter_SXY\70M_1223\work\SysLib\util.c
                  __pa_62   0x00a5f0    program     static C:\firmware\70M_L_upconverter_SXY\70M_1223\work\SysLib\util.c
                  __pa_63   0x00a5fe    program     static C:\firmware\70M_L_upconverter_SXY\70M_1223\work\SysLib\util.c
                  __pa_64   0x00a60c    program     static C:\firmware\70M_L_upconverter_SXY\70M_1223\work\SysLib\util.c
                  __pa_65   0x00a618    program     static C:\firmware\70M_L_upconverter_SXY\70M_1223\work\SysLib\util.c
                  __pa_66   0x00a626    program     static C:\firmware\70M_L_upconverter_SXY\70M_1223\work\SysLib\util.c
                  __pa_67   0x00a630    program     static C:\firmware\70M_L_upconverter_SXY\70M_1223\work\SysLib\util.c
                  __pa_68   0x00a636    program     static C:\firmware\70M_L_upconverter_SXY\70M_1223\work\SysLib\util.c
                  __pa_69   0x00a640    program     static C:\firmware\70M_L_upconverter_SXY\70M_1223\work\SysLib\util.c
                  __pa_70   0x00a648    program     static C:\firmware\70M_L_upconverter_SXY\70M_1223\work\SysLib\util.c
                  __pa_71   0x00a652    program     static C:\firmware\70M_L_upconverter_SXY\70M_1223\work\SysLib\util.c
                  __pa_72   0x00a65c    program     static C:\firmware\70M_L_upconverter_SXY\70M_1223\work\SysLib\util.c
                  __pa_73   0x00a666    program     static C:\firmware\70M_L_upconverter_SXY\70M_1223\work\SysLib\util.c
                  __pa_74   0x00a684    program     static C:\firmware\70M_L_upconverter_SXY\70M_1223\work\SysLib\util.c
                  __pa_75   0x00a6a2    program     static C:\firmware\70M_L_upconverter_SXY\70M_1223\work\SysLib\util.c
                  __pa_76   0x00a6a8    program     static C:\firmware\70M_L_upconverter_SXY\70M_1223\work\SysLib\util.c
                  __pa_77   0x00a6ba    program     static C:\firmware\70M_L_upconverter_SXY\70M_1223\work\SysLib\util.c
                  __pa_78   0x00a6cc    program     static C:\firmware\70M_L_upconverter_SXY\70M_1223\work\SysLib\util.c
                  __pa_79   0x00a6da    program     static C:\firmware\70M_L_upconverter_SXY\70M_1223\work\SysLib\util.c
                  __pa_80   0x00a6e0    program     static C:\firmware\70M_L_upconverter_SXY\70M_1223\work\SysLib\util.c
                  __pa_81   0x00a6e6    program     static C:\firmware\70M_L_upconverter_SXY\70M_1223\work\SysLib\util.c
                  __pa_82   0x00a6ec    program     static C:\firmware\70M_L_upconverter_SXY\70M_1223\work\SysLib\util.c
                 MPFSInit   0x00a6f4    program     extern C:\firmware\70M_L_upconverter_SXY\70M_1223\work\Microchip\TCPIP Stack\MPFS2.c
                 MPFSOpen   0x00a72a    program     extern C:\firmware\70M_L_upconverter_SXY\70M_1223\work\Microchip\TCPIP Stack\MPFS2.c
              MPFSOpenROM   0x00a878    program     extern C:\firmware\70M_L_upconverter_SXY\70M_1223\work\Microchip\TCPIP Stack\MPFS2.c
               MPFSOpenID   0x00a9bc    program     extern C:\firmware\70M_L_upconverter_SXY\70M_1223\work\Microchip\TCPIP Stack\MPFS2.c
                MPFSClose   0x00aa3a    program     extern C:\firmware\70M_L_upconverter_SXY\70M_1223\work\Microchip\TCPIP Stack\MPFS2.c
                  MPFSGet   0x00aa52    program     extern C:\firmware\70M_L_upconverter_SXY\70M_1223\work\Microchip\TCPIP Stack\MPFS2.c
             MPFSGetArray   0x00aaf8    program     extern C:\firmware\70M_L_upconverter_SXY\70M_1223\work\Microchip\TCPIP Stack\MPFS2.c
              MPFSGetLong   0x00ab88    program     extern C:\firmware\70M_L_upconverter_SXY\70M_1223\work\Microchip\TCPIP Stack\MPFS2.c
                 MPFSSeek   0x00abc8    program     extern C:\firmware\70M_L_upconverter_SXY\70M_1223\work\Microchip\TCPIP Stack\MPFS2.c
               MPFSFormat   0x00ace6    program     extern C:\firmware\70M_L_upconverter_SXY\70M_1223\work\Microchip\TCPIP Stack\MPFS2.c
             MPFSPutArray   0x00ad68    program     extern C:\firmware\70M_L_upconverter_SXY\70M_1223\work\Microchip\TCPIP Stack\MPFS2.c
               MPFSPutEnd   0x00adee    program     extern C:\firmware\70M_L_upconverter_SXY\70M_1223\work\Microchip\TCPIP Stack\MPFS2.c
           _LoadFATRecord   0x00ae0a    program     static C:\firmware\70M_L_upconverter_SXY\70M_1223\work\Microchip\TCPIP Stack\MPFS2.c
         MPFSGetTimestamp   0x00ae96    program     extern C:\firmware\70M_L_upconverter_SXY\70M_1223\work\Microchip\TCPIP Stack\MPFS2.c
         MPFSGetMicrotime   0x00aec8    program     extern C:\firmware\70M_L_upconverter_SXY\70M_1223\work\Microchip\TCPIP Stack\MPFS2.c
             MPFSGetFlags   0x00aefa    program     extern C:\firmware\70M_L_upconverter_SXY\70M_1223\work\Microchip\TCPIP Stack\MPFS2.c
              MPFSGetSize   0x00af26    program     extern C:\firmware\70M_L_upconverter_SXY\70M_1223\work\Microchip\TCPIP Stack\MPFS2.c
          MPFSGetBytesRem   0x00af58    program     extern C:\firmware\70M_L_upconverter_SXY\70M_1223\work\Microchip\TCPIP Stack\MPFS2.c
         MPFSGetStartAddr   0x00af82    program     extern C:\firmware\70M_L_upconverter_SXY\70M_1223\work\Microchip\TCPIP Stack\MPFS2.c
           MPFSGetEndAddr   0x00afbe    program     extern C:\firmware\70M_L_upconverter_SXY\70M_1223\work\Microchip\TCPIP Stack\MPFS2.c
          MPFSGetFilename   0x00b00c    program     extern C:\firmware\70M_L_upconverter_SXY\70M_1223\work\Microchip\TCPIP Stack\MPFS2.c
          MPFSGetPosition   0x00b092    program     extern C:\firmware\70M_L_upconverter_SXY\70M_1223\work\Microchip\TCPIP Stack\MPFS2.c
                MPFSGetID   0x00b0c4    program     extern C:\firmware\70M_L_upconverter_SXY\70M_1223\work\Microchip\TCPIP Stack\MPFS2.c
                _Validate   0x00b0d6    program     static C:\firmware\70M_L_upconverter_SXY\70M_1223\work\Microchip\TCPIP Stack\MPFS2.c
                   __pa_0   0x00b14e    program     static C:\firmware\70M_L_upconverter_SXY\70M_1223\work\Microchip\TCPIP Stack\MPFS2.c
                   __pa_1   0x00b154    program     static C:\firmware\70M_L_upconverter_SXY\70M_1223\work\Microchip\TCPIP Stack\MPFS2.c
                   __pa_2   0x00b15a    program     static C:\firmware\70M_L_upconverter_SXY\70M_1223\work\Microchip\TCPIP Stack\MPFS2.c
                   __pa_3   0x00b15e    program     static C:\firmware\70M_L_upconverter_SXY\70M_1223\work\Microchip\TCPIP Stack\MPFS2.c
              __tmplbl_61   0x00b15e    program     static                          
              __tmplbl_60   0x00b15e    program     static                          
                   __pa_4   0x00b16a    program     static C:\firmware\70M_L_upconverter_SXY\70M_1223\work\Microchip\TCPIP Stack\MPFS2.c
                   __pa_5   0x00b17c    program     static C:\firmware\70M_L_upconverter_SXY\70M_1223\work\Microchip\TCPIP Stack\MPFS2.c
                   __pa_6   0x00b19e    program     static C:\firmware\70M_L_upconverter_SXY\70M_1223\work\Microchip\TCPIP Stack\MPFS2.c
                   __pa_7   0x00b1e2    program     static C:\firmware\70M_L_upconverter_SXY\70M_1223\work\Microchip\TCPIP Stack\MPFS2.c
                   __pa_8   0x00b1ea    program     static C:\firmware\70M_L_upconverter_SXY\70M_1223\work\Microchip\TCPIP Stack\MPFS2.c
                   __pa_9   0x00b1f0    program     static C:\firmware\70M_L_upconverter_SXY\70M_1223\work\Microchip\TCPIP Stack\MPFS2.c
                  __pa_10   0x00b1fa    program     static C:\firmware\70M_L_upconverter_SXY\70M_1223\work\Microchip\TCPIP Stack\MPFS2.c
                  __pa_11   0x00b210    program     static C:\firmware\70M_L_upconverter_SXY\70M_1223\work\Microchip\TCPIP Stack\MPFS2.c
                  __pa_12   0x00b21a    program     static C:\firmware\70M_L_upconverter_SXY\70M_1223\work\Microchip\TCPIP Stack\MPFS2.c
                  __pa_13   0x00b224    program     static C:\firmware\70M_L_upconverter_SXY\70M_1223\work\Microchip\TCPIP Stack\MPFS2.c
                  __pa_14   0x00b238    program     static C:\firmware\70M_L_upconverter_SXY\70M_1223\work\Microchip\TCPIP Stack\MPFS2.c
                  __pa_15   0x00b24a    program     static C:\firmware\70M_L_upconverter_SXY\70M_1223\work\Microchip\TCPIP Stack\MPFS2.c
                  __pa_16   0x00b270    program     static C:\firmware\70M_L_upconverter_SXY\70M_1223\work\Microchip\TCPIP Stack\MPFS2.c
                  __pa_17   0x00b28a    program     static C:\firmware\70M_L_upconverter_SXY\70M_1223\work\Microchip\TCPIP Stack\MPFS2.c
                  __pa_18   0x00b29e    program     static C:\firmware\70M_L_upconverter_SXY\70M_1223\work\Microchip\TCPIP Stack\MPFS2.c
                  __pa_19   0x00b2a8    program     static C:\firmware\70M_L_upconverter_SXY\70M_1223\work\Microchip\TCPIP Stack\MPFS2.c
                  __pa_20   0x00b2b6    program     static C:\firmware\70M_L_upconverter_SXY\70M_1223\work\Microchip\TCPIP Stack\MPFS2.c
                  __pa_21   0x00b2d8    program     static C:\firmware\70M_L_upconverter_SXY\70M_1223\work\Microchip\TCPIP Stack\MPFS2.c
                  __pa_22   0x00b2f8    program     static C:\firmware\70M_L_upconverter_SXY\70M_1223\work\Microchip\TCPIP Stack\MPFS2.c
                  __pa_23   0x00b30a    program     static C:\firmware\70M_L_upconverter_SXY\70M_1223\work\Microchip\TCPIP Stack\MPFS2.c
                  __pa_24   0x00b31c    program     static C:\firmware\70M_L_upconverter_SXY\70M_1223\work\Microchip\TCPIP Stack\MPFS2.c
                  __pa_25   0x00b32a    program     static C:\firmware\70M_L_upconverter_SXY\70M_1223\work\Microchip\TCPIP Stack\MPFS2.c
                  __pa_26   0x00b346    program     static C:\firmware\70M_L_upconverter_SXY\70M_1223\work\Microchip\TCPIP Stack\MPFS2.c
                  __pa_27   0x00b360    program     static C:\firmware\70M_L_upconverter_SXY\70M_1223\work\Microchip\TCPIP Stack\MPFS2.c
                  __pa_28   0x00b37a    program     static C:\firmware\70M_L_upconverter_SXY\70M_1223\work\Microchip\TCPIP Stack\MPFS2.c
                  __pa_29   0x00b394    program     static C:\firmware\70M_L_upconverter_SXY\70M_1223\work\Microchip\TCPIP Stack\MPFS2.c
                  __pa_30   0x00b3a4    program     static C:\firmware\70M_L_upconverter_SXY\70M_1223\work\Microchip\TCPIP Stack\MPFS2.c
                  __pa_31   0x00b3bc    program     static C:\firmware\70M_L_upconverter_SXY\70M_1223\work\Microchip\TCPIP Stack\MPFS2.c
                  __pa_32   0x00b3ce    program     static C:\firmware\70M_L_upconverter_SXY\70M_1223\work\Microchip\TCPIP Stack\MPFS2.c
                  __pa_33   0x00b3e4    program     static C:\firmware\70M_L_upconverter_SXY\70M_1223\work\Microchip\TCPIP Stack\MPFS2.c
                  __pa_34   0x00b3f2    program     static C:\firmware\70M_L_upconverter_SXY\70M_1223\work\Microchip\TCPIP Stack\MPFS2.c
                  __pa_35   0x00b400    program     static C:\firmware\70M_L_upconverter_SXY\70M_1223\work\Microchip\TCPIP Stack\MPFS2.c
                  __pa_36   0x00b40e    program     static C:\firmware\70M_L_upconverter_SXY\70M_1223\work\Microchip\TCPIP Stack\MPFS2.c
                  __pa_37   0x00b418    program     static C:\firmware\70M_L_upconverter_SXY\70M_1223\work\Microchip\TCPIP Stack\MPFS2.c
                  __pa_38   0x00b42a    program     static C:\firmware\70M_L_upconverter_SXY\70M_1223\work\Microchip\TCPIP Stack\MPFS2.c
                  __pa_39   0x00b438    program     static C:\firmware\70M_L_upconverter_SXY\70M_1223\work\Microchip\TCPIP Stack\MPFS2.c
                  __pa_40   0x00b446    program     static C:\firmware\70M_L_upconverter_SXY\70M_1223\work\Microchip\TCPIP Stack\MPFS2.c
                  __pa_41   0x00b450    program     static C:\firmware\70M_L_upconverter_SXY\70M_1223\work\Microchip\TCPIP Stack\MPFS2.c
                  __pa_42   0x00b45a    program     static C:\firmware\70M_L_upconverter_SXY\70M_1223\work\Microchip\TCPIP Stack\MPFS2.c
                  __pa_43   0x00b46c    program     static C:\firmware\70M_L_upconverter_SXY\70M_1223\work\Microchip\TCPIP Stack\MPFS2.c
                  __pa_44   0x00b494    program     static C:\firmware\70M_L_upconverter_SXY\70M_1223\work\Microchip\TCPIP Stack\MPFS2.c
                  __pa_45   0x00b49e    program     static C:\firmware\70M_L_upconverter_SXY\70M_1223\work\Microchip\TCPIP Stack\MPFS2.c
                  __pa_46   0x00b4b8    program     static C:\firmware\70M_L_upconverter_SXY\70M_1223\work\Microchip\TCPIP Stack\MPFS2.c
                  __pa_47   0x00b4c0    program     static C:\firmware\70M_L_upconverter_SXY\70M_1223\work\Microchip\TCPIP Stack\MPFS2.c
                  __pa_48   0x00b4d0    program     static C:\firmware\70M_L_upconverter_SXY\70M_1223\work\Microchip\TCPIP Stack\MPFS2.c
                  __pa_49   0x00b4e8    program     static C:\firmware\70M_L_upconverter_SXY\70M_1223\work\Microchip\TCPIP Stack\MPFS2.c
                  __pa_50   0x00b4f6    program     static C:\firmware\70M_L_upconverter_SXY\70M_1223\work\Microchip\TCPIP Stack\MPFS2.c
                  __pa_51   0x00b4fc    program     static C:\firmware\70M_L_upconverter_SXY\70M_1223\work\Microchip\TCPIP Stack\MPFS2.c
                  __pa_52   0x00b518    program     static C:\firmware\70M_L_upconverter_SXY\70M_1223\work\Microchip\TCPIP Stack\MPFS2.c
                  __pa_53   0x00b528    program     static C:\firmware\70M_L_upconverter_SXY\70M_1223\work\Microchip\TCPIP Stack\MPFS2.c
                  __pa_54   0x00b540    program     static C:\firmware\70M_L_upconverter_SXY\70M_1223\work\Microchip\TCPIP Stack\MPFS2.c
                  __pa_55   0x00b54e    program     static C:\firmware\70M_L_upconverter_SXY\70M_1223\work\Microchip\TCPIP Stack\MPFS2.c
                  __pa_56   0x00b562    program     static C:\firmware\70M_L_upconverter_SXY\70M_1223\work\Microchip\TCPIP Stack\MPFS2.c
                  __pa_57   0x00b570    program     static C:\firmware\70M_L_upconverter_SXY\70M_1223\work\Microchip\TCPIP Stack\MPFS2.c
                  __pa_58   0x00b582    program     static C:\firmware\70M_L_upconverter_SXY\70M_1223\work\Microchip\TCPIP Stack\MPFS2.c
                  __pa_59   0x00b58c    program     static C:\firmware\70M_L_upconverter_SXY\70M_1223\work\Microchip\TCPIP Stack\MPFS2.c
                  __pa_60   0x00b598    program     static C:\firmware\70M_L_upconverter_SXY\70M_1223\work\Microchip\TCPIP Stack\MPFS2.c
                  __pa_61   0x00b5a6    program     static C:\firmware\70M_L_upconverter_SXY\70M_1223\work\Microchip\TCPIP Stack\MPFS2.c
                  __pa_62   0x00b5b4    program     static C:\firmware\70M_L_upconverter_SXY\70M_1223\work\Microchip\TCPIP Stack\MPFS2.c
                  __pa_63   0x00b5bc    program     static C:\firmware\70M_L_upconverter_SXY\70M_1223\work\Microchip\TCPIP Stack\MPFS2.c
                  __pa_64   0x00b5c6    program     static C:\firmware\70M_L_upconverter_SXY\70M_1223\work\Microchip\TCPIP Stack\MPFS2.c
                  __pa_65   0x00b5cc    program     static C:\firmware\70M_L_upconverter_SXY\70M_1223\work\Microchip\TCPIP Stack\MPFS2.c
                  __pa_66   0x00b5e6    program     static C:\firmware\70M_L_upconverter_SXY\70M_1223\work\Microchip\TCPIP Stack\MPFS2.c
                  __pa_67   0x00b5f4    program     static C:\firmware\70M_L_upconverter_SXY\70M_1223\work\Microchip\TCPIP Stack\MPFS2.c
                  __pa_68   0x00b5fe    program     static C:\firmware\70M_L_upconverter_SXY\70M_1223\work\Microchip\TCPIP Stack\MPFS2.c
    HTTPPrint_DeviceModel   0x00b606    program     extern C:\firmware\70M_L_upconverter_SXY\70M_1223\work\App\WebUI\HTTPPrint.c
   HTTPPrint_DeviceSerial   0x00b612    program     extern C:\firmware\70M_L_upconverter_SXY\70M_1223\work\App\WebUI\HTTPPrint.c
    HTTPPrint_dhcp_status   0x00b61e    program     extern C:\firmware\70M_L_upconverter_SXY\70M_1223\work\App\WebUI\HTTPPrint.c
              HTTPPrintIP   0x00b646    program     extern C:\firmware\70M_L_upconverter_SXY\70M_1223\work\App\WebUI\HTTPPrint.c
            HTTPPrint_MIP   0x00b6a2    program     extern C:\firmware\70M_L_upconverter_SXY\70M_1223\work\App\WebUI\HTTPPrint.c
      HTTPPrint_static_ip   0x00b6b6    program     extern C:\firmware\70M_L_upconverter_SXY\70M_1223\work\App\WebUI\HTTPPrint.c
      HTTPPrint_config_ip   0x00b6d6    program     extern C:\firmware\70M_L_upconverter_SXY\70M_1223\work\App\WebUI\HTTPPrint.c
  HTTPPrint_config_subnet   0x00b6de    program     extern C:\firmware\70M_L_upconverter_SXY\70M_1223\work\App\WebUI\HTTPPrint.c
      HTTPPrint_config_gw   0x00b6f2    program     extern C:\firmware\70M_L_upconverter_SXY\70M_1223\work\App\WebUI\HTTPPrint.c
    HTTPPrint_Devicefwver   0x00b706    program     extern C:\firmware\70M_L_upconverter_SXY\70M_1223\work\App\WebUI\HTTPPrint.c
                 GetPower   0x00b726    program     extern C:\firmware\70M_L_upconverter_SXY\70M_1223\work\App\WebUI\HTTPPrint.c
            GetWORDString   0x00b780    program     extern C:\firmware\70M_L_upconverter_SXY\70M_1223\work\App\WebUI\HTTPPrint.c
           GetDWORDString   0x00b80e    program     extern C:\firmware\70M_L_upconverter_SXY\70M_1223\work\App\WebUI\HTTPPrint.c
HTTPPrint_converterarffreq   0x00ba0a    program     extern C:\firmware\70M_L_upconverter_SXY\70M_1223\work\App\WebUI\HTTPPrint.c
HTTPPrint_converterbrffreq   0x00ba42    program     extern C:\firmware\70M_L_upconverter_SXY\70M_1223\work\App\WebUI\HTTPPrint.c
HTTPPrint_converteraatten   0x00ba7a    program     extern C:\firmware\70M_L_upconverter_SXY\70M_1223\work\App\WebUI\HTTPPrint.c
HTTPPrint_converterbatten   0x00bab2    program     extern C:\firmware\70M_L_upconverter_SXY\70M_1223\work\App\WebUI\HTTPPrint.c
         HTTPPrint_swmode   0x00baea    program     extern C:\firmware\70M_L_upconverter_SXY\70M_1223\work\App\WebUI\HTTPPrint.c
   HTTPPrint_converteralo   0x00baec    program     extern C:\firmware\70M_L_upconverter_SXY\70M_1223\work\App\WebUI\HTTPPrint.c
   HTTPPrint_outputpowera   0x00bb0c    program     extern C:\firmware\70M_L_upconverter_SXY\70M_1223\work\App\WebUI\HTTPPrint.c
      HTTPPrint_setpowera   0x00bb2c    program     extern C:\firmware\70M_L_upconverter_SXY\70M_1223\work\App\WebUI\HTTPPrint.c
           HTTPPrint_ALCa   0x00bb4c    program     extern C:\firmware\70M_L_upconverter_SXY\70M_1223\work\App\WebUI\HTTPPrint.c
          HTTPPrint_Mutea   0x00bb5a    program     extern C:\firmware\70M_L_upconverter_SXY\70M_1223\work\App\WebUI\HTTPPrint.c
   HTTPPrint_converterblo   0x00bb78    program     extern C:\firmware\70M_L_upconverter_SXY\70M_1223\work\App\WebUI\HTTPPrint.c
   HTTPPrint_outputpowerb   0x00bb96    program     extern C:\firmware\70M_L_upconverter_SXY\70M_1223\work\App\WebUI\HTTPPrint.c
      HTTPPrint_setpowerb   0x00bbb4    program     extern C:\firmware\70M_L_upconverter_SXY\70M_1223\work\App\WebUI\HTTPPrint.c
           HTTPPrint_ALCb   0x00bbd2    program     extern C:\firmware\70M_L_upconverter_SXY\70M_1223\work\App\WebUI\HTTPPrint.c
          HTTPPrint_Muteb   0x00bbe0    program     extern C:\firmware\70M_L_upconverter_SXY\70M_1223\work\App\WebUI\HTTPPrint.c
        HTTPPrint_24Vctrl   0x00bbfe    program     extern C:\firmware\70M_L_upconverter_SXY\70M_1223\work\App\WebUI\HTTPPrint.c
        HTTPPrint_18Vctrl   0x00bc0c    program     extern C:\firmware\70M_L_upconverter_SXY\70M_1223\work\App\WebUI\HTTPPrint.c
HTTPPrint_config_dhcpchecked   0x00bc1a    program     extern C:\firmware\70M_L_upconverter_SXY\70M_1223\work\App\WebUI\HTTPPrint.c
   HTTPPrint_ALCaSelected   0x00bc40    program     extern C:\firmware\70M_L_upconverter_SXY\70M_1223\work\App\WebUI\HTTPPrint.c
  HTTPPrint_MuteaSelected   0x00bc58    program     extern C:\firmware\70M_L_upconverter_SXY\70M_1223\work\App\WebUI\HTTPPrint.c
   HTTPPrint_ALCbSelected   0x00bc70    program     extern C:\firmware\70M_L_upconverter_SXY\70M_1223\work\App\WebUI\HTTPPrint.c
  HTTPPrint_MutebSelected   0x00bc88    program     extern C:\firmware\70M_L_upconverter_SXY\70M_1223\work\App\WebUI\HTTPPrint.c
  HTTPPrint_DC18VSelected   0x00bca0    program     extern C:\firmware\70M_L_upconverter_SXY\70M_1223\work\App\WebUI\HTTPPrint.c
  HTTPPrint_DC24VSelected   0x00bcb8    program     extern C:\firmware\70M_L_upconverter_SXY\70M_1223\work\App\WebUI\HTTPPrint.c
 HTTPPrint_LNBREFSelected   0x00bcd0    program     extern C:\firmware\70M_L_upconverter_SXY\70M_1223\work\App\WebUI\HTTPPrint.c
 HTTPPrint_BUCREFSelected   0x00bce8    program     extern C:\firmware\70M_L_upconverter_SXY\70M_1223\work\App\WebUI\HTTPPrint.c
         HTTPPrint_BUCREF   0x00bd00    program     extern C:\firmware\70M_L_upconverter_SXY\70M_1223\work\App\WebUI\HTTPPrint.c
         HTTPPrint_LNBREF   0x00bd0e    program     extern C:\firmware\70M_L_upconverter_SXY\70M_1223\work\App\WebUI\HTTPPrint.c
         HTTPPrint_EXTREF   0x00bd1c    program     extern C:\firmware\70M_L_upconverter_SXY\70M_1223\work\App\WebUI\HTTPPrint.c
     HTTPPrint_BUCCurrent   0x00bd3a    program     extern C:\firmware\70M_L_upconverter_SXY\70M_1223\work\App\WebUI\HTTPPrint.c
     HTTPPrint_LNBCurrent   0x00bd64    program     extern C:\firmware\70M_L_upconverter_SXY\70M_1223\work\App\WebUI\HTTPPrint.c
      HTTPPrint_rdi2cdata   0x00bd8e    program     extern C:\firmware\70M_L_upconverter_SXY\70M_1223\work\App\WebUI\HTTPPrint.c
      HTTPPrint_wri2cdata   0x00bdbe    program     extern C:\firmware\70M_L_upconverter_SXY\70M_1223\work\App\WebUI\HTTPPrint.c
   HTTPPrint_setpasscolor   0x00bdee    program     extern C:\firmware\70M_L_upconverter_SXY\70M_1223\work\App\WebUI\HTTPPrint.c
        HTTPPrint_setpass   0x00be2e    program     extern C:\firmware\70M_L_upconverter_SXY\70M_1223\work\App\WebUI\HTTPPrint.c
HTTPPrint_converteraalarm   0x00beca    program     extern C:\firmware\70M_L_upconverter_SXY\70M_1223\work\App\WebUI\HTTPPrint.c
HTTPPrint_converterbalarm   0x00bee0    program     extern C:\firmware\70M_L_upconverter_SXY\70M_1223\work\App\WebUI\HTTPPrint.c
        HTTPPrint_BUCIAlm   0x00bef6    program     extern C:\firmware\70M_L_upconverter_SXY\70M_1223\work\App\WebUI\HTTPPrint.c
        HTTPPrint_LNBIAlm   0x00bf14    program     extern C:\firmware\70M_L_upconverter_SXY\70M_1223\work\App\WebUI\HTTPPrint.c
   HTTPPrint_ClearBUCIAlm   0x00bf32    program     extern C:\firmware\70M_L_upconverter_SXY\70M_1223\work\App\WebUI\HTTPPrint.c
   HTTPPrint_ClearLNBIAlm   0x00bf38    program     extern C:\firmware\70M_L_upconverter_SXY\70M_1223\work\App\WebUI\HTTPPrint.c
            HTTPPrint_led   0x00bf3e    program     extern C:\firmware\70M_L_upconverter_SXY\70M_1223\work\App\WebUI\HTTPPrint.c
            HTTPPrint_ned   0x00bfa2    program     extern C:\firmware\70M_L_upconverter_SXY\70M_1223\work\App\WebUI\HTTPPrint.c
            HTTPPrint_maf   0x00c006    program     extern C:\firmware\70M_L_upconverter_SXY\70M_1223\work\App\WebUI\HTTPPrint.c
            HTTPPrint_mas   0x00c020    program     extern C:\firmware\70M_L_upconverter_SXY\70M_1223\work\App\WebUI\HTTPPrint.c
     HTTPPrint_config_mac   0x00c03a    program     extern C:\firmware\70M_L_upconverter_SXY\70M_1223\work\App\WebUI\HTTPPrint.c
      HTTPPrint_read_comm   0x00c096    program     extern C:\firmware\70M_L_upconverter_SXY\70M_1223\work\App\WebUI\HTTPPrint.c
     HTTPPrint_write_comm   0x00c09a    program     extern C:\firmware\70M_L_upconverter_SXY\70M_1223\work\App\WebUI\HTTPPrint.c
                   __pa_0   0x00c09e    program     static C:\firmware\70M_L_upconverter_SXY\70M_1223\work\App\WebUI\HTTPPrint.c
                   __pa_1   0x00c0bc    program     static C:\firmware\70M_L_upconverter_SXY\70M_1223\work\App\WebUI\HTTPPrint.c
                   __pa_2   0x00c0c4    program     static C:\firmware\70M_L_upconverter_SXY\70M_1223\work\App\WebUI\HTTPPrint.c
                   __pa_3   0x00c0de    program     static C:\firmware\70M_L_upconverter_SXY\70M_1223\work\App\WebUI\HTTPPrint.c
                   __pa_4   0x00c0ea    program     static C:\firmware\70M_L_upconverter_SXY\70M_1223\work\App\WebUI\HTTPPrint.c
                   __pa_5   0x00c0fa    program     static C:\firmware\70M_L_upconverter_SXY\70M_1223\work\App\WebUI\HTTPPrint.c
                   __pa_6   0x00c10a    program     static C:\firmware\70M_L_upconverter_SXY\70M_1223\work\App\WebUI\HTTPPrint.c
              __tmplbl_60   0x00c114    program     static                          
              __tmplbl_68   0x00c114    program     static                          
                   __pa_7   0x00c114    program     static C:\firmware\70M_L_upconverter_SXY\70M_1223\work\App\WebUI\HTTPPrint.c
              __tmplbl_67   0x00c114    program     static                          
                   __pa_8   0x00c120    program     static C:\firmware\70M_L_upconverter_SXY\70M_1223\work\App\WebUI\HTTPPrint.c
                   __pa_9   0x00c126    program     static C:\firmware\70M_L_upconverter_SXY\70M_1223\work\App\WebUI\HTTPPrint.c
                  __pa_10   0x00c13c    program     static C:\firmware\70M_L_upconverter_SXY\70M_1223\work\App\WebUI\HTTPPrint.c
                  __pa_11   0x00c148    program     static C:\firmware\70M_L_upconverter_SXY\70M_1223\work\App\WebUI\HTTPPrint.c
                  __pa_12   0x00c15a    program     static C:\firmware\70M_L_upconverter_SXY\70M_1223\work\App\WebUI\HTTPPrint.c
                  __pa_13   0x00c16c    program     static C:\firmware\70M_L_upconverter_SXY\70M_1223\work\App\WebUI\HTTPPrint.c
                  __pa_14   0x00c176    program     static C:\firmware\70M_L_upconverter_SXY\70M_1223\work\App\WebUI\HTTPPrint.c
                  __pa_15   0x00c17e    program     static C:\firmware\70M_L_upconverter_SXY\70M_1223\work\App\WebUI\HTTPPrint.c
                  __pa_16   0x00c194    program     static C:\firmware\70M_L_upconverter_SXY\70M_1223\work\App\WebUI\HTTPPrint.c
                  __pa_17   0x00c1ac    program     static C:\firmware\70M_L_upconverter_SXY\70M_1223\work\App\WebUI\HTTPPrint.c
                  __pa_18   0x00c1b2    program     static C:\firmware\70M_L_upconverter_SXY\70M_1223\work\App\WebUI\HTTPPrint.c
              __tmplbl_61   0x00c1c2    program     static                          
              __tmplbl_63   0x00c1c2    program     static                          
              __tmplbl_66   0x00c1c2    program     static                          
              __tmplbl_65   0x00c1c2    program     static                          
                  __pa_19   0x00c1c2    program     static C:\firmware\70M_L_upconverter_SXY\70M_1223\work\App\WebUI\HTTPPrint.c
              __tmplbl_64   0x00c1c2    program     static                          
                  __pa_20   0x00c1c8    program     static C:\firmware\70M_L_upconverter_SXY\70M_1223\work\App\WebUI\HTTPPrint.c
                  __pa_21   0x00c1d6    program     static C:\firmware\70M_L_upconverter_SXY\70M_1223\work\App\WebUI\HTTPPrint.c
                  __pa_22   0x00c1e2    program     static C:\firmware\70M_L_upconverter_SXY\70M_1223\work\App\WebUI\HTTPPrint.c
                  __pa_23   0x00c1ee    program     static C:\firmware\70M_L_upconverter_SXY\70M_1223\work\App\WebUI\HTTPPrint.c
                  __pa_24   0x00c208    program     static C:\firmware\70M_L_upconverter_SXY\70M_1223\work\App\WebUI\HTTPPrint.c
                  __pa_25   0x00c214    program     static C:\firmware\70M_L_upconverter_SXY\70M_1223\work\App\WebUI\HTTPPrint.c
                  __pa_26   0x00c220    program     static C:\firmware\70M_L_upconverter_SXY\70M_1223\work\App\WebUI\HTTPPrint.c
                  __pa_27   0x00c22a    program     static C:\firmware\70M_L_upconverter_SXY\70M_1223\work\App\WebUI\HTTPPrint.c
                  __pa_28   0x00c236    program     static C:\firmware\70M_L_upconverter_SXY\70M_1223\work\App\WebUI\HTTPPrint.c
                  __pa_29   0x00c23c    program     static C:\firmware\70M_L_upconverter_SXY\70M_1223\work\App\WebUI\HTTPPrint.c
                  __pa_30   0x00c24a    program     static C:\firmware\70M_L_upconverter_SXY\70M_1223\work\App\WebUI\HTTPPrint.c
                  __pa_31   0x00c25e    program     static C:\firmware\70M_L_upconverter_SXY\70M_1223\work\App\WebUI\HTTPPrint.c
                  __pa_32   0x00c270    program     static C:\firmware\70M_L_upconverter_SXY\70M_1223\work\App\WebUI\HTTPPrint.c
                  __pa_33   0x00c282    program     static C:\firmware\70M_L_upconverter_SXY\70M_1223\work\App\WebUI\HTTPPrint.c
                  __pa_34   0x00c294    program     static C:\firmware\70M_L_upconverter_SXY\70M_1223\work\App\WebUI\HTTPPrint.c
                  __pa_35   0x00c2a6    program     static C:\firmware\70M_L_upconverter_SXY\70M_1223\work\App\WebUI\HTTPPrint.c
                  __pa_36   0x00c2b2    program     static C:\firmware\70M_L_upconverter_SXY\70M_1223\work\App\WebUI\HTTPPrint.c
                  __pa_37   0x00c2bc    program     static C:\firmware\70M_L_upconverter_SXY\70M_1223\work\App\WebUI\HTTPPrint.c
                  __pa_38   0x00c2c2    program     static C:\firmware\70M_L_upconverter_SXY\70M_1223\work\App\WebUI\HTTPPrint.c
                  __pa_39   0x00c2d2    program     static C:\firmware\70M_L_upconverter_SXY\70M_1223\work\App\WebUI\HTTPPrint.c
                  __pa_40   0x00c2e2    program     static C:\firmware\70M_L_upconverter_SXY\70M_1223\work\App\WebUI\HTTPPrint.c
                  __pa_41   0x00c2f2    program     static C:\firmware\70M_L_upconverter_SXY\70M_1223\work\App\WebUI\HTTPPrint.c
                  __pa_42   0x00c302    program     static C:\firmware\70M_L_upconverter_SXY\70M_1223\work\App\WebUI\HTTPPrint.c
                  __pa_43   0x00c310    program     static C:\firmware\70M_L_upconverter_SXY\70M_1223\work\App\WebUI\HTTPPrint.c
                  __pa_44   0x00c324    program     static C:\firmware\70M_L_upconverter_SXY\70M_1223\work\App\WebUI\HTTPPrint.c
                  __pa_45   0x00c332    program     static C:\firmware\70M_L_upconverter_SXY\70M_1223\work\App\WebUI\HTTPPrint.c
              __tmplbl_69   0x00c336    program     static                          
                  __pa_46   0x00c336    program     static C:\firmware\70M_L_upconverter_SXY\70M_1223\work\App\WebUI\HTTPPrint.c
              __tmplbl_58   0x00c336    program     static                          
                  __pa_47   0x00c33a    program     static C:\firmware\70M_L_upconverter_SXY\70M_1223\work\App\WebUI\HTTPPrint.c
                  __pa_48   0x00c33e    program     static C:\firmware\70M_L_upconverter_SXY\70M_1223\work\App\WebUI\HTTPPrint.c
                  __pa_49   0x00c346    program     static C:\firmware\70M_L_upconverter_SXY\70M_1223\work\App\WebUI\HTTPPrint.c
                  __pa_50   0x00c358    program     static C:\firmware\70M_L_upconverter_SXY\70M_1223\work\App\WebUI\HTTPPrint.c
                  __pa_51   0x00c35e    program     static C:\firmware\70M_L_upconverter_SXY\70M_1223\work\App\WebUI\HTTPPrint.c
                  __pa_52   0x00c368    program     static C:\firmware\70M_L_upconverter_SXY\70M_1223\work\App\WebUI\HTTPPrint.c
                  __pa_53   0x00c376    program     static C:\firmware\70M_L_upconverter_SXY\70M_1223\work\App\WebUI\HTTPPrint.c
                  __pa_54   0x00c384    program     static C:\firmware\70M_L_upconverter_SXY\70M_1223\work\App\WebUI\HTTPPrint.c
                  __pa_55   0x00c394    program     static C:\firmware\70M_L_upconverter_SXY\70M_1223\work\App\WebUI\HTTPPrint.c
                  __pa_56   0x00c39a    program     static C:\firmware\70M_L_upconverter_SXY\70M_1223\work\App\WebUI\HTTPPrint.c
                  __pa_57   0x00c3aa    program     static C:\firmware\70M_L_upconverter_SXY\70M_1223\work\App\WebUI\HTTPPrint.c
                  __pa_58   0x00c3b8    program     static C:\firmware\70M_L_upconverter_SXY\70M_1223\work\App\WebUI\HTTPPrint.c
                  __pa_59   0x00c3c6    program     static C:\firmware\70M_L_upconverter_SXY\70M_1223\work\App\WebUI\HTTPPrint.c
                  __pa_60   0x00c3ce    program     static C:\firmware\70M_L_upconverter_SXY\70M_1223\work\App\WebUI\HTTPPrint.c
                  __pa_61   0x00c3d4    program     static C:\firmware\70M_L_upconverter_SXY\70M_1223\work\App\WebUI\HTTPPrint.c
                  __pa_62   0x00c3e4    program     static C:\firmware\70M_L_upconverter_SXY\70M_1223\work\App\WebUI\HTTPPrint.c
                  __pa_63   0x00c3f4    program     static C:\firmware\70M_L_upconverter_SXY\70M_1223\work\App\WebUI\HTTPPrint.c
                  __pa_64   0x00c3fe    program     static C:\firmware\70M_L_upconverter_SXY\70M_1223\work\App\WebUI\HTTPPrint.c
                  __pa_65   0x00c406    program     static C:\firmware\70M_L_upconverter_SXY\70M_1223\work\App\WebUI\HTTPPrint.c
                  __pa_66   0x00c412    program     static C:\firmware\70M_L_upconverter_SXY\70M_1223\work\App\WebUI\HTTPPrint.c
                  __pa_67   0x00c41c    program     static C:\firmware\70M_L_upconverter_SXY\70M_1223\work\App\WebUI\HTTPPrint.c
                  __pa_68   0x00c426    program     static C:\firmware\70M_L_upconverter_SXY\70M_1223\work\App\WebUI\HTTPPrint.c
                  __pa_69   0x00c430    program     static C:\firmware\70M_L_upconverter_SXY\70M_1223\work\App\WebUI\HTTPPrint.c
                  __pa_70   0x00c448    program     static C:\firmware\70M_L_upconverter_SXY\70M_1223\work\App\WebUI\HTTPPrint.c
              __tmplbl_56   0x00c45e    program     static                          
              __tmplbl_55   0x00c45e    program     static                          
                  __pa_71   0x00c45e    program     static C:\firmware\70M_L_upconverter_SXY\70M_1223\work\App\WebUI\HTTPPrint.c
                  __pa_72   0x00c464    program     static C:\firmware\70M_L_upconverter_SXY\70M_1223\work\App\WebUI\HTTPPrint.c
                  __pa_73   0x00c46c    program     static C:\firmware\70M_L_upconverter_SXY\70M_1223\work\App\WebUI\HTTPPrint.c
                  __pa_74   0x00c476    program     static C:\firmware\70M_L_upconverter_SXY\70M_1223\work\App\WebUI\HTTPPrint.c
                  __pa_75   0x00c47e    program     static C:\firmware\70M_L_upconverter_SXY\70M_1223\work\App\WebUI\HTTPPrint.c
                  __pa_76   0x00c486    program     static C:\firmware\70M_L_upconverter_SXY\70M_1223\work\App\WebUI\HTTPPrint.c
                  __pa_77   0x00c498    program     static C:\firmware\70M_L_upconverter_SXY\70M_1223\work\App\WebUI\HTTPPrint.c
                  __pa_78   0x00c4aa    program     static C:\firmware\70M_L_upconverter_SXY\70M_1223\work\App\WebUI\HTTPPrint.c
                  __pa_79   0x00c4b4    program     static C:\firmware\70M_L_upconverter_SXY\70M_1223\work\App\WebUI\HTTPPrint.c
                  __pa_80   0x00c4ba    program     static C:\firmware\70M_L_upconverter_SXY\70M_1223\work\App\WebUI\HTTPPrint.c
                  __pa_81   0x00c4c8    program     static C:\firmware\70M_L_upconverter_SXY\70M_1223\work\App\WebUI\HTTPPrint.c
                  __pa_82   0x00c4d4    program     static C:\firmware\70M_L_upconverter_SXY\70M_1223\work\App\WebUI\HTTPPrint.c
                  __pa_83   0x00c4da    program     static C:\firmware\70M_L_upconverter_SXY\70M_1223\work\App\WebUI\HTTPPrint.c
      GenerateRandomDWORD   0x00c4e4    program     extern C:\firmware\70M_L_upconverter_SXY\70M_1223\work\Microchip\TCPIP Stack\Helpers.c
              __tmplbl_39   0x00c55c    program     static                          
        ___while_lbl00001   0x00c574    program     static                          
        ___while_lbl00003   0x00c57c    program     static                          
        ___while_lbl00004   0x00c580    program     static                          
               __tmplbl_0   0x00c5e4    program     static                          
              __tmplbl_40   0x00c600    program     static                          
              __tmplbl_41   0x00c640    program     static                          
              __tmplbl_42   0x00c6a4    program     static                          
           ___if_lbl00005   0x00c6e6    program     static                          
           ___if_lbl00006   0x00c704    program     static                          
           ___if_lbl00007   0x00c79e    program     static                          
           ___if_lbl00008   0x00c7a4    program     static                          
        ___while_lbl00002   0x00c7a6    program     static                          
       ___return_lbl00000   0x00c7ee    program     static                          
        StringToIPAddress   0x00c806    program     extern C:\firmware\70M_L_upconverter_SXY\70M_1223\work\Microchip\TCPIP Stack\Helpers.c
     ROMStringToIPAddress   0x00c8d6    program     extern C:\firmware\70M_L_upconverter_SXY\70M_1223\work\Microchip\TCPIP Stack\Helpers.c
             Base64Decode   0x00c9b8    program     extern C:\firmware\70M_L_upconverter_SXY\70M_1223\work\Microchip\TCPIP Stack\Helpers.c
                    uitoa   0x00cb28    program     extern C:\firmware\70M_L_upconverter_SXY\70M_1223\work\Microchip\TCPIP Stack\Helpers.c
                  hexatob   0x00cc1e    program     extern C:\firmware\70M_L_upconverter_SXY\70M_1223\work\Microchip\TCPIP Stack\Helpers.c
             btohexa_high   0x00cc68    program     extern C:\firmware\70M_L_upconverter_SXY\70M_1223\work\Microchip\TCPIP Stack\Helpers.c
              btohexa_low   0x00cc90    program     extern C:\firmware\70M_L_upconverter_SXY\70M_1223\work\Microchip\TCPIP Stack\Helpers.c
           stricmppgm2ram   0x00ccb4    program     extern C:\firmware\70M_L_upconverter_SXY\70M_1223\work\Microchip\TCPIP Stack\Helpers.c
                    swaps   0x00cd64    program     extern C:\firmware\70M_L_upconverter_SXY\70M_1223\work\Microchip\TCPIP Stack\Helpers.c
                    swapl   0x00cda2    program     extern C:\firmware\70M_L_upconverter_SXY\70M_1223\work\Microchip\TCPIP Stack\Helpers.c
           CalcIPChecksum   0x00cdf0    program     extern C:\firmware\70M_L_upconverter_SXY\70M_1223\work\Microchip\TCPIP Stack\Helpers.c
          leftRotateDWORD   0x00cf0c    program     extern C:\firmware\70M_L_upconverter_SXY\70M_1223\work\Microchip\TCPIP Stack\Helpers.c
          ___for_lbl00124   0x00cf3e    program     static                          
          ___for_lbl00122   0x00cf5c    program     static                          
          ___for_lbl00123   0x00cf62    program     static                          
          ___for_lbl00127   0x00cf62    program     static                          
          ___for_lbl00125   0x00cf76    program     static                          
          ___for_lbl00126   0x00cf7a    program     static                          
       ___return_lbl00121   0x00cf8c    program     static                          
        FormatNetBIOSName   0x00cf9c    program     extern C:\firmware\70M_L_upconverter_SXY\70M_1223\work\Microchip\TCPIP Stack\Helpers.c
                  strnchr   0x00cfe4    program     extern C:\firmware\70M_L_upconverter_SXY\70M_1223\work\Microchip\TCPIP Stack\Helpers.c
                   __pa_0   0x00d024    program     static C:\firmware\70M_L_upconverter_SXY\70M_1223\work\Microchip\TCPIP Stack\Helpers.c
                   __pa_1   0x00d036    program     static C:\firmware\70M_L_upconverter_SXY\70M_1223\work\Microchip\TCPIP Stack\Helpers.c
                   __pa_2   0x00d052    program     static C:\firmware\70M_L_upconverter_SXY\70M_1223\work\Microchip\TCPIP Stack\Helpers.c
                   __pa_3   0x00d05e    program     static C:\firmware\70M_L_upconverter_SXY\70M_1223\work\Microchip\TCPIP Stack\Helpers.c
                   __pa_4   0x00d080    program     static C:\firmware\70M_L_upconverter_SXY\70M_1223\work\Microchip\TCPIP Stack\Helpers.c
                   __pa_5   0x00d08e    program     static C:\firmware\70M_L_upconverter_SXY\70M_1223\work\Microchip\TCPIP Stack\Helpers.c
                   __pa_6   0x00d0b4    program     static C:\firmware\70M_L_upconverter_SXY\70M_1223\work\Microchip\TCPIP Stack\Helpers.c
                   __pa_7   0x00d0d6    program     static C:\firmware\70M_L_upconverter_SXY\70M_1223\work\Microchip\TCPIP Stack\Helpers.c
                   __pa_8   0x00d0e8    program     static C:\firmware\70M_L_upconverter_SXY\70M_1223\work\Microchip\TCPIP Stack\Helpers.c
                   __pa_9   0x00d0f2    program     static C:\firmware\70M_L_upconverter_SXY\70M_1223\work\Microchip\TCPIP Stack\Helpers.c
                  __pa_10   0x00d10c    program     static C:\firmware\70M_L_upconverter_SXY\70M_1223\work\Microchip\TCPIP Stack\Helpers.c
                  __pa_11   0x00d126    program     static C:\firmware\70M_L_upconverter_SXY\70M_1223\work\Microchip\TCPIP Stack\Helpers.c
                  __pa_12   0x00d136    program     static C:\firmware\70M_L_upconverter_SXY\70M_1223\work\Microchip\TCPIP Stack\Helpers.c
                  __pa_13   0x00d146    program     static C:\firmware\70M_L_upconverter_SXY\70M_1223\work\Microchip\TCPIP Stack\Helpers.c
                  __pa_14   0x00d15e    program     static C:\firmware\70M_L_upconverter_SXY\70M_1223\work\Microchip\TCPIP Stack\Helpers.c
                  __pa_15   0x00d174    program     static C:\firmware\70M_L_upconverter_SXY\70M_1223\work\Microchip\TCPIP Stack\Helpers.c
                  __pa_16   0x00d17e    program     static C:\firmware\70M_L_upconverter_SXY\70M_1223\work\Microchip\TCPIP Stack\Helpers.c
                  __pa_17   0x00d190    program     static C:\firmware\70M_L_upconverter_SXY\70M_1223\work\Microchip\TCPIP Stack\Helpers.c
                  __pa_18   0x00d1a0    program     static C:\firmware\70M_L_upconverter_SXY\70M_1223\work\Microchip\TCPIP Stack\Helpers.c
                  __pa_19   0x00d1b0    program     static C:\firmware\70M_L_upconverter_SXY\70M_1223\work\Microchip\TCPIP Stack\Helpers.c
                  __pa_20   0x00d1c0    program     static C:\firmware\70M_L_upconverter_SXY\70M_1223\work\Microchip\TCPIP Stack\Helpers.c
                  __pa_21   0x00d1c8    program     static C:\firmware\70M_L_upconverter_SXY\70M_1223\work\Microchip\TCPIP Stack\Helpers.c
                  __pa_22   0x00d1d6    program     static C:\firmware\70M_L_upconverter_SXY\70M_1223\work\Microchip\TCPIP Stack\Helpers.c
                  __pa_23   0x00d1e4    program     static C:\firmware\70M_L_upconverter_SXY\70M_1223\work\Microchip\TCPIP Stack\Helpers.c
                  __pa_24   0x00d1f8    program     static C:\firmware\70M_L_upconverter_SXY\70M_1223\work\Microchip\TCPIP Stack\Helpers.c
                  __pa_25   0x00d202    program     static C:\firmware\70M_L_upconverter_SXY\70M_1223\work\Microchip\TCPIP Stack\Helpers.c
                  __pa_26   0x00d210    program     static C:\firmware\70M_L_upconverter_SXY\70M_1223\work\Microchip\TCPIP Stack\Helpers.c
                  __pa_27   0x00d21e    program     static C:\firmware\70M_L_upconverter_SXY\70M_1223\work\Microchip\TCPIP Stack\Helpers.c
                  __pa_28   0x00d22e    program     static C:\firmware\70M_L_upconverter_SXY\70M_1223\work\Microchip\TCPIP Stack\Helpers.c
                  __pa_29   0x00d23c    program     static C:\firmware\70M_L_upconverter_SXY\70M_1223\work\Microchip\TCPIP Stack\Helpers.c
                  __pa_30   0x00d246    program     static C:\firmware\70M_L_upconverter_SXY\70M_1223\work\Microchip\TCPIP Stack\Helpers.c
                  __pa_31   0x00d24e    program     static C:\firmware\70M_L_upconverter_SXY\70M_1223\work\Microchip\TCPIP Stack\Helpers.c
            s_put_n_chars   0x00d25c    program     static C:\Program Files\mcc18\src\traditional\stdclib\vfprintf.c
                 vfprintf   0x00d288    program     extern C:\Program Files\mcc18\src\traditional\stdclib\vfprintf.c
              __tmplbl_85   0x00d2b2    program     static                          
              __tmplbl_44   0x00db60    program     static                          
              __tmplbl_43   0x00db7a    program     static                          
                   __pa_0   0x00db9c    program     static C:\Program Files\mcc18\src\traditional\stdclib\vfprintf.c
                   __pa_1   0x00dba4    program     static C:\Program Files\mcc18\src\traditional\stdclib\vfprintf.c
                   __pa_2   0x00dbae    program     static C:\Program Files\mcc18\src\traditional\stdclib\vfprintf.c
                   __pa_3   0x00dbb8    program     static C:\Program Files\mcc18\src\traditional\stdclib\vfprintf.c
                   __pa_4   0x00dbd0    program     static C:\Program Files\mcc18\src\traditional\stdclib\vfprintf.c
                   __pa_5   0x00dbe4    program     static C:\Program Files\mcc18\src\traditional\stdclib\vfprintf.c
                   __pa_6   0x00dc00    program     static C:\Program Files\mcc18\src\traditional\stdclib\vfprintf.c
                   __pa_7   0x00dc0a    program     static C:\Program Files\mcc18\src\traditional\stdclib\vfprintf.c
                   __pa_8   0x00dc16    program     static C:\Program Files\mcc18\src\traditional\stdclib\vfprintf.c
                   __pa_9   0x00dc38    program     static C:\Program Files\mcc18\src\traditional\stdclib\vfprintf.c
                  __pa_10   0x00dc58    program     static C:\Program Files\mcc18\src\traditional\stdclib\vfprintf.c
                  __pa_11   0x00dc66    program     static C:\Program Files\mcc18\src\traditional\stdclib\vfprintf.c
                  __pa_12   0x00dc7c    program     static C:\Program Files\mcc18\src\traditional\stdclib\vfprintf.c
                  __pa_13   0x00dc96    program     static C:\Program Files\mcc18\src\traditional\stdclib\vfprintf.c
                  __pa_14   0x00dcae    program     static C:\Program Files\mcc18\src\traditional\stdclib\vfprintf.c
                  __pa_15   0x00dcbe    program     static C:\Program Files\mcc18\src\traditional\stdclib\vfprintf.c
                  __pa_16   0x00dcd4    program     static C:\Program Files\mcc18\src\traditional\stdclib\vfprintf.c
                  __pa_17   0x00dce6    program     static C:\Program Files\mcc18\src\traditional\stdclib\vfprintf.c
                  __pa_18   0x00dcf8    program     static C:\Program Files\mcc18\src\traditional\stdclib\vfprintf.c
                  __pa_19   0x00dd02    program     static C:\Program Files\mcc18\src\traditional\stdclib\vfprintf.c
                  __pa_20   0x00dd12    program     static C:\Program Files\mcc18\src\traditional\stdclib\vfprintf.c
                  __pa_21   0x00dd22    program     static C:\Program Files\mcc18\src\traditional\stdclib\vfprintf.c
                  __pa_22   0x00dd32    program     static C:\Program Files\mcc18\src\traditional\stdclib\vfprintf.c
              __tmplbl_42   0x00dd32    program     static                          
                  __pa_23   0x00dd3e    program     static C:\Program Files\mcc18\src\traditional\stdclib\vfprintf.c
                  __pa_24   0x00dd4c    program     static C:\Program Files\mcc18\src\traditional\stdclib\vfprintf.c
                  __pa_25   0x00dd54    program     static C:\Program Files\mcc18\src\traditional\stdclib\vfprintf.c
                  __pa_26   0x00dd5e    program     static C:\Program Files\mcc18\src\traditional\stdclib\vfprintf.c
                  __pa_27   0x00dd68    program     static C:\Program Files\mcc18\src\traditional\stdclib\vfprintf.c
                  __pa_28   0x00dd70    program     static C:\Program Files\mcc18\src\traditional\stdclib\vfprintf.c
                  __pa_29   0x00dd7e    program     static C:\Program Files\mcc18\src\traditional\stdclib\vfprintf.c
                  __pa_30   0x00dd9a    program     static C:\Program Files\mcc18\src\traditional\stdclib\vfprintf.c
                  __pa_31   0x00ddb4    program     static C:\Program Files\mcc18\src\traditional\stdclib\vfprintf.c
                  __pa_32   0x00ddce    program     static C:\Program Files\mcc18\src\traditional\stdclib\vfprintf.c
                  __pa_33   0x00dde6    program     static C:\Program Files\mcc18\src\traditional\stdclib\vfprintf.c
                  __pa_34   0x00ddf0    program     static C:\Program Files\mcc18\src\traditional\stdclib\vfprintf.c
                  __pa_35   0x00ddfe    program     static C:\Program Files\mcc18\src\traditional\stdclib\vfprintf.c
                  __pa_36   0x00de06    program     static C:\Program Files\mcc18\src\traditional\stdclib\vfprintf.c
                  __pa_37   0x00de10    program     static C:\Program Files\mcc18\src\traditional\stdclib\vfprintf.c
                  __pa_38   0x00de20    program     static C:\Program Files\mcc18\src\traditional\stdclib\vfprintf.c
                  __pa_39   0x00de2e    program     static C:\Program Files\mcc18\src\traditional\stdclib\vfprintf.c
                  __pa_40   0x00de3a    program     static C:\Program Files\mcc18\src\traditional\stdclib\vfprintf.c
                  __pa_41   0x00de46    program     static C:\Program Files\mcc18\src\traditional\stdclib\vfprintf.c
                  __pa_42   0x00de4e    program     static C:\Program Files\mcc18\src\traditional\stdclib\vfprintf.c
                  __pa_43   0x00de58    program     static C:\Program Files\mcc18\src\traditional\stdclib\vfprintf.c
                  __pa_44   0x00de5e    program     static C:\Program Files\mcc18\src\traditional\stdclib\vfprintf.c
                  __pa_45   0x00de68    program     static C:\Program Files\mcc18\src\traditional\stdclib\vfprintf.c
                  __pa_46   0x00de74    program     static C:\Program Files\mcc18\src\traditional\stdclib\vfprintf.c
                  MACInit   0x00de7e    program     extern C:\firmware\70M_L_upconverter_SXY\70M_1223\work\Microchip\TCPIP Stack\ETH97J60.c
        ___while_lbl00001   0x00de98    program     static                          
        ___while_lbl00002   0x00de9e    program     static                          
       ___return_lbl00000   0x00df86    program     static                          
              MACIsLinked   0x00df94    program     extern C:\firmware\70M_L_upconverter_SXY\70M_1223\work\Microchip\TCPIP Stack\ETH97J60.c
             MACIsTxReady   0x00dfa8    program     extern C:\firmware\70M_L_upconverter_SXY\70M_1223\work\Microchip\TCPIP Stack\ETH97J60.c
             MACDiscardRx   0x00dfd0    program     extern C:\firmware\70M_L_upconverter_SXY\70M_1223\work\Microchip\TCPIP Stack\ETH97J60.c
         MACGetFreeRxSize   0x00e030    program     extern C:\firmware\70M_L_upconverter_SXY\70M_1223\work\Microchip\TCPIP Stack\ETH97J60.c
             MACGetHeader   0x00e0f8    program     extern C:\firmware\70M_L_upconverter_SXY\70M_1223\work\Microchip\TCPIP Stack\ETH97J60.c
           ___if_lbl00020   0x00e11e    program     static                          
           ___if_lbl00021   0x00e12a    program     static                          
              __tmplbl_11   0x00e190    program     static                          
              __tmplbl_10   0x00e192    program     static                          
               __tmplbl_9   0x00e1a0    program     static                          
               __tmplbl_8   0x00e1b8    program     static                          
               __tmplbl_7   0x00e1ce    program     static                          
               __tmplbl_6   0x00e1e6    program     static                          
               __tmplbl_5   0x00e1fc    program     static                          
           ___if_lbl00027   0x00e1fe    program     static                          
              __tmplbl_13   0x00e25e    program     static                          
              __tmplbl_14   0x00e264    program     static                          
              __tmplbl_12   0x00e26c    program     static                          
           ___if_lbl00030   0x00e27e    program     static                          
       ___return_lbl00019   0x00e286    program     static                          
             MACPutHeader   0x00e2a2    program     extern C:\firmware\70M_L_upconverter_SXY\70M_1223\work\Microchip\TCPIP Stack\ETH97J60.c
                 MACFlush   0x00e306    program     extern C:\firmware\70M_L_upconverter_SXY\70M_1223\work\Microchip\TCPIP Stack\ETH97J60.c
        MACSetReadPtrInRx   0x00e32e    program     extern C:\firmware\70M_L_upconverter_SXY\70M_1223\work\Microchip\TCPIP Stack\ETH97J60.c
           MACSetWritePtr   0x00e346    program     extern C:\firmware\70M_L_upconverter_SXY\70M_1223\work\Microchip\TCPIP Stack\ETH97J60.c
            MACSetReadPtr   0x00e35a    program     extern C:\firmware\70M_L_upconverter_SXY\70M_1223\work\Microchip\TCPIP Stack\ETH97J60.c
        MACCalcRxChecksum   0x00e372    program     extern C:\firmware\70M_L_upconverter_SXY\70M_1223\work\Microchip\TCPIP Stack\ETH97J60.c
     CalcIPBufferChecksum   0x00e3be    program     extern C:\firmware\70M_L_upconverter_SXY\70M_1223\work\Microchip\TCPIP Stack\ETH97J60.c
          MACMemCopyAsync   0x00e52e    program     extern C:\firmware\70M_L_upconverter_SXY\70M_1223\work\Microchip\TCPIP Stack\ETH97J60.c
         MACIsMemCopyDone   0x00e67c    program     extern C:\firmware\70M_L_upconverter_SXY\70M_1223\work\Microchip\TCPIP Stack\ETH97J60.c
                   MACGet   0x00e688    program     extern C:\firmware\70M_L_upconverter_SXY\70M_1223\work\Microchip\TCPIP Stack\ETH97J60.c
              MACGetArray   0x00e68c    program     extern C:\firmware\70M_L_upconverter_SXY\70M_1223\work\Microchip\TCPIP Stack\ETH97J60.c
                   MACPut   0x00e6e6    program     extern C:\firmware\70M_L_upconverter_SXY\70M_1223\work\Microchip\TCPIP Stack\ETH97J60.c
       ___return_lbl00079   0x00e700    program     static                          
              MACPutArray   0x00e70c    program     extern C:\firmware\70M_L_upconverter_SXY\70M_1223\work\Microchip\TCPIP Stack\ETH97J60.c
        ___while_lbl00081   0x00e71c    program     static                          
        ___while_lbl00082   0x00e750    program     static                          
       ___return_lbl00080   0x00e750    program     static                          
           MACPutROMArray   0x00e75c    program     extern C:\firmware\70M_L_upconverter_SXY\70M_1223\work\Microchip\TCPIP Stack\ETH97J60.c
        ___while_lbl00084   0x00e76c    program     static                          
       ___return_lbl00083   0x00e7b2    program     static                          
        ___while_lbl00085   0x00e7b2    program     static                          
               ReadPHYReg   0x00e7be    program     extern C:\firmware\70M_L_upconverter_SXY\70M_1223\work\Microchip\TCPIP Stack\ETH97J60.c
        ___while_lbl00087   0x00e7e2    program     static                          
        ___while_lbl00088   0x00e7e8    program     static                          
       ___return_lbl00086   0x00e80c    program     static                          
              WritePHYReg   0x00e81c    program     extern C:\firmware\70M_L_upconverter_SXY\70M_1223\work\Microchip\TCPIP Stack\ETH97J60.c
        ___while_lbl00090   0x00e858    program     static                          
       ___return_lbl00089   0x00e85e    program     static                          
        ___while_lbl00091   0x00e85e    program     static                          
             MACPowerDown   0x00e86c    program     extern C:\firmware\70M_L_upconverter_SXY\70M_1223\work\Microchip\TCPIP Stack\ETH97J60.c
               MACPowerUp   0x00e87e    program     extern C:\firmware\70M_L_upconverter_SXY\70M_1223\work\Microchip\TCPIP Stack\ETH97J60.c
                   __pa_0   0x00e88c    program     static C:\firmware\70M_L_upconverter_SXY\70M_1223\work\Microchip\TCPIP Stack\ETH97J60.c
                   __pa_1   0x00e89e    program     static C:\firmware\70M_L_upconverter_SXY\70M_1223\work\Microchip\TCPIP Stack\ETH97J60.c
              __tmplbl_25   0x00e89e    program     static                          
                   __pa_2   0x00e8aa    program     static C:\firmware\70M_L_upconverter_SXY\70M_1223\work\Microchip\TCPIP Stack\ETH97J60.c
                   __pa_3   0x00e8c8    program     static C:\firmware\70M_L_upconverter_SXY\70M_1223\work\Microchip\TCPIP Stack\ETH97J60.c
                   __pa_4   0x00e8e0    program     static C:\firmware\70M_L_upconverter_SXY\70M_1223\work\Microchip\TCPIP Stack\ETH97J60.c
                   __pa_5   0x00e8ea    program     static C:\firmware\70M_L_upconverter_SXY\70M_1223\work\Microchip\TCPIP Stack\ETH97J60.c
                   __pa_6   0x00e8ee    program     static C:\firmware\70M_L_upconverter_SXY\70M_1223\work\Microchip\TCPIP Stack\ETH97J60.c
                   __pa_7   0x00e8f4    program     static C:\firmware\70M_L_upconverter_SXY\70M_1223\work\Microchip\TCPIP Stack\ETH97J60.c
                   __pa_8   0x00e8fe    program     static C:\firmware\70M_L_upconverter_SXY\70M_1223\work\Microchip\TCPIP Stack\ETH97J60.c
                   __pa_9   0x00e90c    program     static C:\firmware\70M_L_upconverter_SXY\70M_1223\work\Microchip\TCPIP Stack\ETH97J60.c
                  __pa_10   0x00e91e    program     static C:\firmware\70M_L_upconverter_SXY\70M_1223\work\Microchip\TCPIP Stack\ETH97J60.c
                  __pa_11   0x00e92e    program     static C:\firmware\70M_L_upconverter_SXY\70M_1223\work\Microchip\TCPIP Stack\ETH97J60.c
                  __pa_12   0x00e93a    program     static C:\firmware\70M_L_upconverter_SXY\70M_1223\work\Microchip\TCPIP Stack\ETH97J60.c
                  __pa_13   0x00e948    program     static C:\firmware\70M_L_upconverter_SXY\70M_1223\work\Microchip\TCPIP Stack\ETH97J60.c
                  __pa_14   0x00e956    program     static C:\firmware\70M_L_upconverter_SXY\70M_1223\work\Microchip\TCPIP Stack\ETH97J60.c
                  __pa_15   0x00e964    program     static C:\firmware\70M_L_upconverter_SXY\70M_1223\work\Microchip\TCPIP Stack\ETH97J60.c
                  __pa_16   0x00e972    program     static C:\firmware\70M_L_upconverter_SXY\70M_1223\work\Microchip\TCPIP Stack\ETH97J60.c
                  __pa_17   0x00e980    program     static C:\firmware\70M_L_upconverter_SXY\70M_1223\work\Microchip\TCPIP Stack\ETH97J60.c
                  __pa_18   0x00e988    program     static C:\firmware\70M_L_upconverter_SXY\70M_1223\work\Microchip\TCPIP Stack\ETH97J60.c
                  __pa_19   0x00e992    program     static C:\firmware\70M_L_upconverter_SXY\70M_1223\work\Microchip\TCPIP Stack\ETH97J60.c
                  __pa_20   0x00e99c    program     static C:\firmware\70M_L_upconverter_SXY\70M_1223\work\Microchip\TCPIP Stack\ETH97J60.c
                  __pa_21   0x00e9b4    program     static C:\firmware\70M_L_upconverter_SXY\70M_1223\work\Microchip\TCPIP Stack\ETH97J60.c
                  __pa_22   0x00e9bc    program     static C:\firmware\70M_L_upconverter_SXY\70M_1223\work\Microchip\TCPIP Stack\ETH97J60.c
                  __pa_23   0x00e9ca    program     static C:\firmware\70M_L_upconverter_SXY\70M_1223\work\Microchip\TCPIP Stack\ETH97J60.c
                  __pa_24   0x00e9d2    program     static C:\firmware\70M_L_upconverter_SXY\70M_1223\work\Microchip\TCPIP Stack\ETH97J60.c
                  __pa_25   0x00e9e2    program     static C:\firmware\70M_L_upconverter_SXY\70M_1223\work\Microchip\TCPIP Stack\ETH97J60.c
                  __pa_26   0x00e9ee    program     static C:\firmware\70M_L_upconverter_SXY\70M_1223\work\Microchip\TCPIP Stack\ETH97J60.c
                  __pa_27   0x00e9fc    program     static C:\firmware\70M_L_upconverter_SXY\70M_1223\work\Microchip\TCPIP Stack\ETH97J60.c
                  __pa_28   0x00ea0c    program     static C:\firmware\70M_L_upconverter_SXY\70M_1223\work\Microchip\TCPIP Stack\ETH97J60.c
                  __pa_29   0x00ea16    program     static C:\firmware\70M_L_upconverter_SXY\70M_1223\work\Microchip\TCPIP Stack\ETH97J60.c
                  __pa_30   0x00ea20    program     static C:\firmware\70M_L_upconverter_SXY\70M_1223\work\Microchip\TCPIP Stack\ETH97J60.c
                  __pa_31   0x00ea28    program     static C:\firmware\70M_L_upconverter_SXY\70M_1223\work\Microchip\TCPIP Stack\ETH97J60.c
               __string_1   0x00ea30    program     static C:\firmware\70M_L_upconverter_SXY\70M_1223\work\Bootstrap\Initialization.c
               __string_0   0x00ea3a    program     static C:\firmware\70M_L_upconverter_SXY\70M_1223\work\Bootstrap\Initialization.c
              __string_53   0x00ea40    program     static C:\firmware\70M_L_upconverter_SXY\70M_1223\work\Microchip\TCPIP Stack\HTTP2.c
              __string_52   0x00ea4b    program     static C:\firmware\70M_L_upconverter_SXY\70M_1223\work\Microchip\TCPIP Stack\HTTP2.c
              __string_51   0x00ea50    program     static C:\firmware\70M_L_upconverter_SXY\70M_1223\work\Microchip\TCPIP Stack\HTTP2.c
              __string_50   0x00ea54    program     static C:\firmware\70M_L_upconverter_SXY\70M_1223\work\Microchip\TCPIP Stack\HTTP2.c
              __string_49   0x00ea5d    program     static C:\firmware\70M_L_upconverter_SXY\70M_1223\work\Microchip\TCPIP Stack\HTTP2.c
              __string_48   0x00ea66    program     static C:\firmware\70M_L_upconverter_SXY\70M_1223\work\Microchip\TCPIP Stack\HTTP2.c
              __string_47   0x00ea76    program     static C:\firmware\70M_L_upconverter_SXY\70M_1223\work\Microchip\TCPIP Stack\HTTP2.c
              __string_46   0x00ea8f    program     static C:\firmware\70M_L_upconverter_SXY\70M_1223\work\Microchip\TCPIP Stack\HTTP2.c
              __string_45   0x00ea9e    program     static C:\firmware\70M_L_upconverter_SXY\70M_1223\work\Microchip\TCPIP Stack\HTTP2.c
              __string_44   0x00eab1    program     static C:\firmware\70M_L_upconverter_SXY\70M_1223\work\Microchip\TCPIP Stack\HTTP2.c
              __string_43   0x00eabb    program     static C:\firmware\70M_L_upconverter_SXY\70M_1223\work\Microchip\TCPIP Stack\HTTP2.c
              __string_42   0x00eac6    program     static C:\firmware\70M_L_upconverter_SXY\70M_1223\work\Microchip\TCPIP Stack\HTTP2.c
              __string_41   0x00eacb    program     static C:\firmware\70M_L_upconverter_SXY\70M_1223\work\Microchip\TCPIP Stack\HTTP2.c
              __string_40   0x00eacf    program     static C:\firmware\70M_L_upconverter_SXY\70M_1223\work\Microchip\TCPIP Stack\HTTP2.c
              __string_39   0x00eadf    program     static C:\firmware\70M_L_upconverter_SXY\70M_1223\work\Microchip\TCPIP Stack\HTTP2.c
              __string_38   0x00eaee    program     static C:\firmware\70M_L_upconverter_SXY\70M_1223\work\Microchip\TCPIP Stack\HTTP2.c
              __string_37   0x00eaf6    program     static C:\firmware\70M_L_upconverter_SXY\70M_1223\work\Microchip\TCPIP Stack\HTTP2.c
              __string_36   0x00eb4d    program     static C:\firmware\70M_L_upconverter_SXY\70M_1223\work\Microchip\TCPIP Stack\HTTP2.c
              __string_35   0x00eb7f    program     static C:\firmware\70M_L_upconverter_SXY\70M_1223\work\Microchip\TCPIP Stack\HTTP2.c
              __string_34   0x00ec52    program     static C:\firmware\70M_L_upconverter_SXY\70M_1223\work\Microchip\TCPIP Stack\HTTP2.c
              __string_33   0x00ecff    program     static C:\firmware\70M_L_upconverter_SXY\70M_1223\work\Microchip\TCPIP Stack\HTTP2.c
              __string_32   0x00ee1f    program     static C:\firmware\70M_L_upconverter_SXY\70M_1223\work\Microchip\TCPIP Stack\HTTP2.c
              __string_31   0x00ee85    program     static C:\firmware\70M_L_upconverter_SXY\70M_1223\work\Microchip\TCPIP Stack\HTTP2.c
              __string_30   0x00eef5    program     static C:\firmware\70M_L_upconverter_SXY\70M_1223\work\Microchip\TCPIP Stack\HTTP2.c
              __string_29   0x00ef62    program     static C:\firmware\70M_L_upconverter_SXY\70M_1223\work\Microchip\TCPIP Stack\HTTP2.c
              __string_28   0x00f000    program     static C:\firmware\70M_L_upconverter_SXY\70M_1223\work\Microchip\TCPIP Stack\HTTP2.c
              __string_27   0x00f081    program     static C:\firmware\70M_L_upconverter_SXY\70M_1223\work\Microchip\TCPIP Stack\HTTP2.c
              __string_26   0x00f0df    program     static C:\firmware\70M_L_upconverter_SXY\70M_1223\work\Microchip\TCPIP Stack\HTTP2.c
              __string_25   0x00f104    program     static C:\firmware\70M_L_upconverter_SXY\70M_1223\work\Microchip\TCPIP Stack\HTTP2.c
              __string_24   0x00f105    program     static C:\firmware\70M_L_upconverter_SXY\70M_1223\work\Microchip\TCPIP Stack\HTTP2.c
              __string_23   0x00f112    program     static C:\firmware\70M_L_upconverter_SXY\70M_1223\work\Microchip\TCPIP Stack\HTTP2.c
              __string_22   0x00f126    program     static C:\firmware\70M_L_upconverter_SXY\70M_1223\work\Microchip\TCPIP Stack\HTTP2.c
              __string_21   0x00f131    program     static C:\firmware\70M_L_upconverter_SXY\70M_1223\work\Microchip\TCPIP Stack\HTTP2.c
              __string_20   0x00f13b    program     static C:\firmware\70M_L_upconverter_SXY\70M_1223\work\Microchip\TCPIP Stack\HTTP2.c
              __string_19   0x00f145    program     static C:\firmware\70M_L_upconverter_SXY\70M_1223\work\Microchip\TCPIP Stack\HTTP2.c
              __string_18   0x00f14e    program     static C:\firmware\70M_L_upconverter_SXY\70M_1223\work\Microchip\TCPIP Stack\HTTP2.c
              __string_17   0x00f157    program     static C:\firmware\70M_L_upconverter_SXY\70M_1223\work\Microchip\TCPIP Stack\HTTP2.c
              __string_16   0x00f161    program     static C:\firmware\70M_L_upconverter_SXY\70M_1223\work\Microchip\TCPIP Stack\HTTP2.c
              __string_15   0x00f16c    program     static C:\firmware\70M_L_upconverter_SXY\70M_1223\work\Microchip\TCPIP Stack\HTTP2.c
              __string_14   0x00f170    program     static C:\firmware\70M_L_upconverter_SXY\70M_1223\work\Microchip\TCPIP Stack\HTTP2.c
              __string_13   0x00f174    program     static C:\firmware\70M_L_upconverter_SXY\70M_1223\work\Microchip\TCPIP Stack\HTTP2.c
              __string_12   0x00f178    program     static C:\firmware\70M_L_upconverter_SXY\70M_1223\work\Microchip\TCPIP Stack\HTTP2.c
              __string_11   0x00f17c    program     static C:\firmware\70M_L_upconverter_SXY\70M_1223\work\Microchip\TCPIP Stack\HTTP2.c
              __string_10   0x00f180    program     static C:\firmware\70M_L_upconverter_SXY\70M_1223\work\Microchip\TCPIP Stack\HTTP2.c
               __string_9   0x00f184    program     static C:\firmware\70M_L_upconverter_SXY\70M_1223\work\Microchip\TCPIP Stack\HTTP2.c
               __string_8   0x00f188    program     static C:\firmware\70M_L_upconverter_SXY\70M_1223\work\Microchip\TCPIP Stack\HTTP2.c
               __string_7   0x00f18c    program     static C:\firmware\70M_L_upconverter_SXY\70M_1223\work\Microchip\TCPIP Stack\HTTP2.c
               __string_6   0x00f190    program     static C:\firmware\70M_L_upconverter_SXY\70M_1223\work\Microchip\TCPIP Stack\HTTP2.c
               __string_5   0x00f195    program     static C:\firmware\70M_L_upconverter_SXY\70M_1223\work\Microchip\TCPIP Stack\HTTP2.c
               __string_4   0x00f199    program     static C:\firmware\70M_L_upconverter_SXY\70M_1223\work\Microchip\TCPIP Stack\HTTP2.c
               __string_2   0x00f19d    program     static C:\firmware\70M_L_upconverter_SXY\70M_1223\work\Microchip\TCPIP Stack\HTTP2.c
               __string_1   0x00f1a2    program     static C:\firmware\70M_L_upconverter_SXY\70M_1223\work\Microchip\TCPIP Stack\HTTP2.c
               __string_0   0x00f1ad    program     static C:\firmware\70M_L_upconverter_SXY\70M_1223\work\Microchip\TCPIP Stack\HTTP2.c
               __string_0   0x00f1b8    program     static C:\firmware\70M_L_upconverter_SXY\70M_1223\work\Microchip\TCPIP Stack\MPFS2.c
               __string_0   0x00f1bf    program     static C:\firmware\70M_L_upconverter_SXY\70M_1223\work\SysLib\util.c
              __string_16   0x00f1c5    program     static C:\firmware\70M_L_upconverter_SXY\70M_1223\work\App\WebUI\HTTPApp.c
              __string_15   0x00f1d9    program     static C:\firmware\70M_L_upconverter_SXY\70M_1223\work\App\WebUI\HTTPApp.c
              __string_14   0x00f1ee    program     static C:\firmware\70M_L_upconverter_SXY\70M_1223\work\App\WebUI\HTTPApp.c
              __string_13   0x00f1f3    program     static C:\firmware\70M_L_upconverter_SXY\70M_1223\work\App\WebUI\HTTPApp.c
              __string_12   0x00f1f8    program     static C:\firmware\70M_L_upconverter_SXY\70M_1223\work\App\WebUI\HTTPApp.c
              __string_11   0x00f1fc    program     static C:\firmware\70M_L_upconverter_SXY\70M_1223\work\App\WebUI\HTTPApp.c
              __string_10   0x00f201    program     static C:\firmware\70M_L_upconverter_SXY\70M_1223\work\App\WebUI\HTTPApp.c
               __string_9   0x00f206    program     static C:\firmware\70M_L_upconverter_SXY\70M_1223\work\App\WebUI\HTTPApp.c
               __string_8   0x00f20a    program     static C:\firmware\70M_L_upconverter_SXY\70M_1223\work\App\WebUI\HTTPApp.c
               __string_7   0x00f20d    program     static C:\firmware\70M_L_upconverter_SXY\70M_1223\work\App\WebUI\HTTPApp.c
               __string_6   0x00f210    program     static C:\firmware\70M_L_upconverter_SXY\70M_1223\work\App\WebUI\HTTPApp.c
               __string_5   0x00f219    program     static C:\firmware\70M_L_upconverter_SXY\70M_1223\work\App\WebUI\HTTPApp.c
               __string_4   0x00f21d    program     static C:\firmware\70M_L_upconverter_SXY\70M_1223\work\App\WebUI\HTTPApp.c
               __string_3   0x00f22d    program     static C:\firmware\70M_L_upconverter_SXY\70M_1223\work\App\WebUI\HTTPApp.c
               __string_2   0x00f240    program     static C:\firmware\70M_L_upconverter_SXY\70M_1223\work\App\WebUI\HTTPApp.c
               __string_1   0x00f246    program     static C:\firmware\70M_L_upconverter_SXY\70M_1223\work\App\WebUI\HTTPApp.c
               __string_0   0x00f24b    program     static C:\firmware\70M_L_upconverter_SXY\70M_1223\work\App\WebUI\HTTPApp.c
               __string_8   0x00f253    program     static C:\firmware\70M_L_upconverter_SXY\70M_1223\work\Singcom\Devices\MainControl_c1.c
               __string_7   0x00f258    program     static C:\firmware\70M_L_upconverter_SXY\70M_1223\work\Singcom\Devices\MainControl_c1.c
               __string_6   0x00f25c    program     static C:\firmware\70M_L_upconverter_SXY\70M_1223\work\Singcom\Devices\MainControl_c1.c
               __string_5   0x00f265    program     static C:\firmware\70M_L_upconverter_SXY\70M_1223\work\Singcom\Devices\MainControl_c1.c
               __string_4   0x00f26e    program     static C:\firmware\70M_L_upconverter_SXY\70M_1223\work\Singcom\Devices\MainControl_c1.c
               __string_3   0x00f275    program     static C:\firmware\70M_L_upconverter_SXY\70M_1223\work\Singcom\Devices\MainControl_c1.c
               __string_2   0x00f27c    program     static C:\firmware\70M_L_upconverter_SXY\70M_1223\work\Singcom\Devices\MainControl_c1.c
               __string_1   0x00f281    program     static C:\firmware\70M_L_upconverter_SXY\70M_1223\work\Singcom\Devices\MainControl_c1.c
               __string_0   0x00f288    program     static C:\firmware\70M_L_upconverter_SXY\70M_1223\work\Singcom\Devices\MainControl_c1.c
               __string_1   0x00f28c    program     static C:\firmware\70M_L_upconverter_SXY\70M_1223\work\Singcom\Devices\UpConverter_c1.c
               __string_0   0x00f295    program     static C:\firmware\70M_L_upconverter_SXY\70M_1223\work\Singcom\Devices\UpConverter_c1.c
              __string_43   0x00f29e    program     static C:\firmware\70M_L_upconverter_SXY\70M_1223\work\App\WebUI\HTTPGetDevInfo.c
              __string_42   0x00f2a2    program     static C:\firmware\70M_L_upconverter_SXY\70M_1223\work\App\WebUI\HTTPGetDevInfo.c
              __string_41   0x00f2a7    program     static C:\firmware\70M_L_upconverter_SXY\70M_1223\work\App\WebUI\HTTPGetDevInfo.c
              __string_40   0x00f2ac    program     static C:\firmware\70M_L_upconverter_SXY\70M_1223\work\App\WebUI\HTTPGetDevInfo.c
              __string_39   0x00f2b9    program     static C:\firmware\70M_L_upconverter_SXY\70M_1223\work\App\WebUI\HTTPGetDevInfo.c
              __string_38   0x00f2c3    program     static C:\firmware\70M_L_upconverter_SXY\70M_1223\work\App\WebUI\HTTPGetDevInfo.c
              __string_37   0x00f2cd    program     static C:\firmware\70M_L_upconverter_SXY\70M_1223\work\App\WebUI\HTTPGetDevInfo.c
              __string_36   0x00f2d3    program     static C:\firmware\70M_L_upconverter_SXY\70M_1223\work\App\WebUI\HTTPGetDevInfo.c
              __string_35   0x00f2d8    program     static C:\firmware\70M_L_upconverter_SXY\70M_1223\work\App\WebUI\HTTPGetDevInfo.c
              __string_34   0x00f2dd    program     static C:\firmware\70M_L_upconverter_SXY\70M_1223\work\App\WebUI\HTTPGetDevInfo.c
              __string_33   0x00f2ed    program     static C:\firmware\70M_L_upconverter_SXY\70M_1223\work\App\WebUI\HTTPGetDevInfo.c
              __string_32   0x00f2f1    program     static C:\firmware\70M_L_upconverter_SXY\70M_1223\work\App\WebUI\HTTPGetDevInfo.c
              __string_31   0x00f305    program     static C:\firmware\70M_L_upconverter_SXY\70M_1223\work\App\WebUI\HTTPGetDevInfo.c
              __string_30   0x00f318    program     static C:\firmware\70M_L_upconverter_SXY\70M_1223\work\App\WebUI\HTTPGetDevInfo.c
              __string_29   0x00f325    program     static C:\firmware\70M_L_upconverter_SXY\70M_1223\work\App\WebUI\HTTPGetDevInfo.c
              __string_28   0x00f332    program     static C:\firmware\70M_L_upconverter_SXY\70M_1223\work\App\WebUI\HTTPGetDevInfo.c
              __string_27   0x00f339    program     static C:\firmware\70M_L_upconverter_SXY\70M_1223\work\App\WebUI\HTTPGetDevInfo.c
              __string_26   0x00f340    program     static C:\firmware\70M_L_upconverter_SXY\70M_1223\work\App\WebUI\HTTPGetDevInfo.c
              __string_25   0x00f348    program     static C:\firmware\70M_L_upconverter_SXY\70M_1223\work\App\WebUI\HTTPGetDevInfo.c
              __string_24   0x00f350    program     static C:\firmware\70M_L_upconverter_SXY\70M_1223\work\App\WebUI\HTTPGetDevInfo.c
              __string_23   0x00f356    program     static C:\firmware\70M_L_upconverter_SXY\70M_1223\work\App\WebUI\HTTPGetDevInfo.c
              __string_22   0x00f35f    program     static C:\firmware\70M_L_upconverter_SXY\70M_1223\work\App\WebUI\HTTPGetDevInfo.c
              __string_21   0x00f368    program     static C:\firmware\70M_L_upconverter_SXY\70M_1223\work\App\WebUI\HTTPGetDevInfo.c
              __string_20   0x00f36e    program     static C:\firmware\70M_L_upconverter_SXY\70M_1223\work\App\WebUI\HTTPGetDevInfo.c
              __string_19   0x00f373    program     static C:\firmware\70M_L_upconverter_SXY\70M_1223\work\App\WebUI\HTTPGetDevInfo.c
              __string_18   0x00f377    program     static C:\firmware\70M_L_upconverter_SXY\70M_1223\work\App\WebUI\HTTPGetDevInfo.c
              __string_17   0x00f37b    program     static C:\firmware\70M_L_upconverter_SXY\70M_1223\work\App\WebUI\HTTPGetDevInfo.c
              __string_16   0x00f380    program     static C:\firmware\70M_L_upconverter_SXY\70M_1223\work\App\WebUI\HTTPGetDevInfo.c
              __string_15   0x00f38a    program     static C:\firmware\70M_L_upconverter_SXY\70M_1223\work\App\WebUI\HTTPGetDevInfo.c
              __string_14   0x00f397    program     static C:\firmware\70M_L_upconverter_SXY\70M_1223\work\App\WebUI\HTTPGetDevInfo.c
              __string_13   0x00f3a5    program     static C:\firmware\70M_L_upconverter_SXY\70M_1223\work\App\WebUI\HTTPGetDevInfo.c
              __string_12   0x00f3b3    program     static C:\firmware\70M_L_upconverter_SXY\70M_1223\work\App\WebUI\HTTPGetDevInfo.c
              __string_11   0x00f3bd    program     static C:\firmware\70M_L_upconverter_SXY\70M_1223\work\App\WebUI\HTTPGetDevInfo.c
              __string_10   0x00f3c7    program     static C:\firmware\70M_L_upconverter_SXY\70M_1223\work\App\WebUI\HTTPGetDevInfo.c
               __string_9   0x00f3d1    program     static C:\firmware\70M_L_upconverter_SXY\70M_1223\work\App\WebUI\HTTPGetDevInfo.c
               __string_8   0x00f3de    program     static C:\firmware\70M_L_upconverter_SXY\70M_1223\work\App\WebUI\HTTPGetDevInfo.c
               __string_7   0x00f3ee    program     static C:\firmware\70M_L_upconverter_SXY\70M_1223\work\App\WebUI\HTTPGetDevInfo.c
               __string_6   0x00f3fe    program     static C:\firmware\70M_L_upconverter_SXY\70M_1223\work\App\WebUI\HTTPGetDevInfo.c
               __string_5   0x00f40f    program     static C:\firmware\70M_L_upconverter_SXY\70M_1223\work\App\WebUI\HTTPGetDevInfo.c
               __string_4   0x00f420    program     static C:\firmware\70M_L_upconverter_SXY\70M_1223\work\App\WebUI\HTTPGetDevInfo.c
               __string_3   0x00f427    program     static C:\firmware\70M_L_upconverter_SXY\70M_1223\work\App\WebUI\HTTPGetDevInfo.c
               __string_2   0x00f42f    program     static C:\firmware\70M_L_upconverter_SXY\70M_1223\work\App\WebUI\HTTPGetDevInfo.c
               __string_1   0x00f433    program     static C:\firmware\70M_L_upconverter_SXY\70M_1223\work\App\WebUI\HTTPGetDevInfo.c
               __string_0   0x00f43a    program     static C:\firmware\70M_L_upconverter_SXY\70M_1223\work\App\WebUI\HTTPGetDevInfo.c
              __string_22   0x00f43d    program     static C:\firmware\70M_L_upconverter_SXY\70M_1223\work\App\WebUI\HTTPPrint.c
              __string_21   0x00f442    program     static C:\firmware\70M_L_upconverter_SXY\70M_1223\work\App\WebUI\HTTPPrint.c
              __string_20   0x00f460    program     static C:\firmware\70M_L_upconverter_SXY\70M_1223\work\App\WebUI\HTTPPrint.c
              __string_19   0x00f474    program     static C:\firmware\70M_L_upconverter_SXY\70M_1223\work\App\WebUI\HTTPPrint.c
              __string_18   0x00f487    program     static C:\firmware\70M_L_upconverter_SXY\70M_1223\work\App\WebUI\HTTPPrint.c
              __string_17   0x00f4a4    program     static C:\firmware\70M_L_upconverter_SXY\70M_1223\work\App\WebUI\HTTPPrint.c
              __string_16   0x00f4b4    program     static C:\firmware\70M_L_upconverter_SXY\70M_1223\work\App\WebUI\HTTPPrint.c
              __string_15   0x00f4ba    program     static C:\firmware\70M_L_upconverter_SXY\70M_1223\work\App\WebUI\HTTPPrint.c
              __string_14   0x00f4be    program     static C:\firmware\70M_L_upconverter_SXY\70M_1223\work\App\WebUI\HTTPPrint.c
              __string_13   0x00f4c1    program     static C:\firmware\70M_L_upconverter_SXY\70M_1223\work\App\WebUI\HTTPPrint.c
              __string_12   0x00f4ca    program     static C:\firmware\70M_L_upconverter_SXY\70M_1223\work\App\WebUI\HTTPPrint.c
              __string_11   0x00f4d3    program     static C:\firmware\70M_L_upconverter_SXY\70M_1223\work\App\WebUI\HTTPPrint.c
              __string_10   0x00f4dc    program     static C:\firmware\70M_L_upconverter_SXY\70M_1223\work\App\WebUI\HTTPPrint.c
               __string_9   0x00f4e6    program     static C:\firmware\70M_L_upconverter_SXY\70M_1223\work\App\WebUI\HTTPPrint.c
               __string_8   0x00f4ee    program     static C:\firmware\70M_L_upconverter_SXY\70M_1223\work\App\WebUI\HTTPPrint.c
               __string_7   0x00f4f5    program     static C:\firmware\70M_L_upconverter_SXY\70M_1223\work\App\WebUI\HTTPPrint.c
               __string_6   0x00f4fe    program     static C:\firmware\70M_L_upconverter_SXY\70M_1223\work\App\WebUI\HTTPPrint.c
               __string_5   0x00f507    program     static C:\firmware\70M_L_upconverter_SXY\70M_1223\work\App\WebUI\HTTPPrint.c
               __string_4   0x00f50b    program     static C:\firmware\70M_L_upconverter_SXY\70M_1223\work\App\WebUI\HTTPPrint.c
               __string_3   0x00f50e    program     static C:\firmware\70M_L_upconverter_SXY\70M_1223\work\App\WebUI\HTTPPrint.c
               __string_2   0x00f515    program     static C:\firmware\70M_L_upconverter_SXY\70M_1223\work\App\WebUI\HTTPPrint.c
               __string_1   0x00f51a    program     static C:\firmware\70M_L_upconverter_SXY\70M_1223\work\App\WebUI\HTTPPrint.c
               __string_0   0x00f523    program     static C:\firmware\70M_L_upconverter_SXY\70M_1223\work\App\WebUI\HTTPPrint.c
              __string_50   0x00f52b    program     static C:\firmware\70M_L_upconverter_SXY\70M_1223\work\Singcom\Drivers\lcd.c
              __string_49   0x00f554    program     static C:\firmware\70M_L_upconverter_SXY\70M_1223\work\Singcom\Drivers\lcd.c
              __string_48   0x00f57d    program     static C:\firmware\70M_L_upconverter_SXY\70M_1223\work\Singcom\Drivers\lcd.c
              __string_47   0x00f5a6    program     static C:\firmware\70M_L_upconverter_SXY\70M_1223\work\Singcom\Drivers\lcd.c
              __string_46   0x00f5a9    program     static C:\firmware\70M_L_upconverter_SXY\70M_1223\work\Singcom\Drivers\lcd.c
              __string_45   0x00f5ad    program     static C:\firmware\70M_L_upconverter_SXY\70M_1223\work\Singcom\Drivers\lcd.c
            HTTPNeedsAuth   0x00f5b2    program     extern C:\firmware\70M_L_upconverter_SXY\70M_1223\work\App\WebUI\HTTPApp.c
            HTTPCheckAuth   0x00f5f4    program     extern C:\firmware\70M_L_upconverter_SXY\70M_1223\work\App\WebUI\HTTPApp.c
           HTTPExecuteGet   0x00f63c    program     extern C:\firmware\70M_L_upconverter_SXY\70M_1223\work\App\WebUI\HTTPApp.c
          HTTPExecutePost   0x00f640    program     extern C:\firmware\70M_L_upconverter_SXY\70M_1223\work\App\WebUI\HTTPApp.c
              HTTPPostlut   0x00f6be    program     static C:\firmware\70M_L_upconverter_SXY\70M_1223\work\App\WebUI\HTTPApp.c
           HTTPPostConfig   0x00f756    program     static C:\firmware\70M_L_upconverter_SXY\70M_1223\work\App\WebUI\HTTPApp.c
                   __pa_0   0x00fb6e    program     static C:\firmware\70M_L_upconverter_SXY\70M_1223\work\App\WebUI\HTTPApp.c
                   __pa_1   0x00fb7e    program     static C:\firmware\70M_L_upconverter_SXY\70M_1223\work\App\WebUI\HTTPApp.c
                   __pa_2   0x00fb8a    program     static C:\firmware\70M_L_upconverter_SXY\70M_1223\work\App\WebUI\HTTPApp.c
                   __pa_3   0x00fb98    program     static C:\firmware\70M_L_upconverter_SXY\70M_1223\work\App\WebUI\HTTPApp.c
                   __pa_4   0x00fbb6    program     static C:\firmware\70M_L_upconverter_SXY\70M_1223\work\App\WebUI\HTTPApp.c
                   __pa_5   0x00fbc2    program     static C:\firmware\70M_L_upconverter_SXY\70M_1223\work\App\WebUI\HTTPApp.c
                   __pa_6   0x00fbd2    program     static C:\firmware\70M_L_upconverter_SXY\70M_1223\work\App\WebUI\HTTPApp.c
                   __pa_7   0x00fbde    program     static C:\firmware\70M_L_upconverter_SXY\70M_1223\work\App\WebUI\HTTPApp.c
                   __pa_8   0x00fbea    program     static C:\firmware\70M_L_upconverter_SXY\70M_1223\work\App\WebUI\HTTPApp.c
                   __pa_9   0x00fbf2    program     static C:\firmware\70M_L_upconverter_SXY\70M_1223\work\App\WebUI\HTTPApp.c
                  __pa_10   0x00fbf6    program     static C:\firmware\70M_L_upconverter_SXY\70M_1223\work\App\WebUI\HTTPApp.c
                  __pa_11   0x00fc04    program     static C:\firmware\70M_L_upconverter_SXY\70M_1223\work\App\WebUI\HTTPApp.c
                  __pa_12   0x00fc0a    program     static C:\firmware\70M_L_upconverter_SXY\70M_1223\work\App\WebUI\HTTPApp.c
                  __pa_13   0x00fc18    program     static C:\firmware\70M_L_upconverter_SXY\70M_1223\work\App\WebUI\HTTPApp.c
                  __pa_14   0x00fc20    program     static C:\firmware\70M_L_upconverter_SXY\70M_1223\work\App\WebUI\HTTPApp.c
                  __pa_15   0x00fc28    program     static C:\firmware\70M_L_upconverter_SXY\70M_1223\work\App\WebUI\HTTPApp.c
                  __pa_16   0x00fc30    program     static C:\firmware\70M_L_upconverter_SXY\70M_1223\work\App\WebUI\HTTPApp.c
                  __pa_17   0x00fc3e    program     static C:\firmware\70M_L_upconverter_SXY\70M_1223\work\App\WebUI\HTTPApp.c
                  __pa_18   0x00fc48    program     static C:\firmware\70M_L_upconverter_SXY\70M_1223\work\App\WebUI\HTTPApp.c
                  __pa_19   0x00fc52    program     static C:\firmware\70M_L_upconverter_SXY\70M_1223\work\App\WebUI\HTTPApp.c
                  __pa_20   0x00fc5c    program     static C:\firmware\70M_L_upconverter_SXY\70M_1223\work\App\WebUI\HTTPApp.c
                  __pa_21   0x00fc6c    program     static C:\firmware\70M_L_upconverter_SXY\70M_1223\work\App\WebUI\HTTPApp.c
                  __pa_22   0x00fc78    program     static C:\firmware\70M_L_upconverter_SXY\70M_1223\work\App\WebUI\HTTPApp.c
                  __pa_23   0x00fc82    program     static C:\firmware\70M_L_upconverter_SXY\70M_1223\work\App\WebUI\HTTPApp.c
                  __pa_24   0x00fc88    program     static C:\firmware\70M_L_upconverter_SXY\70M_1223\work\App\WebUI\HTTPApp.c
                 FLO0832U   0x00fc94    program     extern C:\Program Files\mcc18\src\traditional\math\cast08FP.asm
                 FLO0832S   0x00fc98    program     extern C:\Program Files\mcc18\src\traditional\math\cast08FP.asm
                jI2F08Beg   0x00fca2    program     static C:\Program Files\mcc18\src\traditional\math\cast08FP.asm
                 FLO1632U   0x00fcb6    program     extern C:\Program Files\mcc18\src\traditional\math\cast16FP.asm
                 FLO1632S   0x00fcba    program     extern C:\Program Files\mcc18\src\traditional\math\cast16FP.asm
                jI2F16Beg   0x00fcca    program     static C:\Program Files\mcc18\src\traditional\math\cast16FP.asm
                    FPS32   0x00fce0    program     extern C:\Program Files\mcc18\src\traditional\math\addFP.asm
                    FPA32   0x00fce2    program     extern C:\Program Files\mcc18\src\traditional\math\addFP.asm
                jBANotInf   0x00fd00    program     static C:\Program Files\mcc18\src\traditional\math\addFP.asm
                 jANotInf   0x00fd0a    program     static C:\Program Files\mcc18\src\traditional\math\addFP.asm
                 jBNotInf   0x00fd18    program     static C:\Program Files\mcc18\src\traditional\math\addFP.asm
            jDifOrPosSign   0x00fd2c    program     static C:\Program Files\mcc18\src\traditional\math\addFP.asm
             jNotBothZero   0x00fd30    program     static C:\Program Files\mcc18\src\traditional\math\addFP.asm
                 jAltBexp   0x00fd5c    program     static C:\Program Files\mcc18\src\traditional\math\addFP.asm
              jAandWsetup   0x00fd6e    program     static C:\Program Files\mcc18\src\traditional\math\addFP.asm
                 jANotNeg   0x00fd9e    program     static C:\Program Files\mcc18\src\traditional\math\addFP.asm
                 jWNotNeg   0x00fdb2    program     static C:\Program Files\mcc18\src\traditional\math\addFP.asm
               jShiftLoop   0x00fdb8    program     static C:\Program Files\mcc18\src\traditional\math\addFP.asm
               jShiftDone   0x00fdc6    program     static C:\Program Files\mcc18\src\traditional\math\addFP.asm
                jSignDone   0x00fdf6    program     static C:\Program Files\mcc18\src\traditional\math\addFP.asm
               jFinalSign   0x00fe06    program     static C:\Program Files\mcc18\src\traditional\math\addFP.asm
                    FPD32   0x00fe0e    program     extern C:\Program Files\mcc18\src\traditional\math\divFP.asm
                 jANotInf   0x00fe2c    program     static C:\Program Files\mcc18\src\traditional\math\divFP.asm
              jSignedZero   0x00fe36    program     static C:\Program Files\mcc18\src\traditional\math\divFP.asm
                jANotZero   0x00fe40    program     static C:\Program Files\mcc18\src\traditional\math\divFP.asm
                    jLoop   0x00fe68    program     static C:\Program Files\mcc18\src\traditional\math\divFP.asm
                jNoAdjust   0x00fe8c    program     static C:\Program Files\mcc18\src\traditional\math\divFP.asm
                    jNext   0x00fe8e    program     static C:\Program Files\mcc18\src\traditional\math\divFP.asm
                    FPM32   0x00feb4    program     extern C:\Program Files\mcc18\src\traditional\math\mulFP.asm
                 jANotInf   0x00fed2    program     static C:\Program Files\mcc18\src\traditional\math\mulFP.asm
              jBothFinite   0x00fee0    program     static C:\Program Files\mcc18\src\traditional\math\mulFP.asm
                jHaveZero   0x00fee8    program     static C:\Program Files\mcc18\src\traditional\math\mulFP.asm
             jBothNotZero   0x00feec    program     static C:\Program Files\mcc18\src\traditional\math\mulFP.asm
                 FXD1616S   0x00ff8e    program     extern C:\Program Files\mcc18\src\traditional\math\fxd1616s.asm
                  DA1616S   0x00ffa0    program     static C:\Program Files\mcc18\src\traditional\math\fxd1616s.asm
                   D1616S   0x00ffb0    program     static C:\Program Files\mcc18\src\traditional\math\fxd1616s.asm
                 D1616SOK   0x00ffba    program     static C:\Program Files\mcc18\src\traditional\math\fxd1616s.asm
                D1616SNEG   0x00ffbe    program     static C:\Program Files\mcc18\src\traditional\math\fxd1616s.asm
                  D1616SX   0x00ffd0    program     static C:\Program Files\mcc18\src\traditional\math\fxd1616s.asm
                 FXM1616S   0x00ffda    program     extern C:\Program Files\mcc18\src\traditional\math\fxm1616s.asm
               TSIGN1616A   0x010026    program     static C:\Program Files\mcc18\src\traditional\math\fxm1616s.asm
                 FXM1616U   0x010034    program     extern C:\Program Files\mcc18\src\traditional\math\fxm1616u.asm
                 FXM2424U   0x010070    program     extern C:\Program Files\mcc18\src\traditional\math\fxm2424u.asm
                  INT3216   0x010102    program     extern C:\Program Files\mcc18\src\traditional\math\castFP16.asm
                     jMax   0x010112    program     static C:\Program Files\mcc18\src\traditional\math\castFP16.asm
                  jMaxPos   0x010116    program     static C:\Program Files\mcc18\src\traditional\math\castFP16.asm
                  jMaxNeg   0x010120    program     static C:\Program Files\mcc18\src\traditional\math\castFP16.asm
                    jZero   0x010128    program     static C:\Program Files\mcc18\src\traditional\math\castFP16.asm
                  jNotInf   0x01012e    program     static C:\Program Files\mcc18\src\traditional\math\castFP16.asm
                    jLoop   0x01013e    program     static C:\Program Files\mcc18\src\traditional\math\castFP16.asm
                jLoopExit   0x01014e    program     static C:\Program Files\mcc18\src\traditional\math\castFP16.asm
                    jExit   0x01015e    program     static C:\Program Files\mcc18\src\traditional\math\castFP16.asm
            __FpReturnNaN   0x010160    program     extern C:\Program Files\mcc18\src\traditional\math\packFP.asm
                 __FpExit   0x01016c    program     extern C:\Program Files\mcc18\src\traditional\math\packFP.asm
        __FpReturnSignInf   0x01016e    program     extern C:\Program Files\mcc18\src\traditional\math\packFP.asm
         __FpReturnNegInf   0x010172    program     extern C:\Program Files\mcc18\src\traditional\math\packFP.asm
         __FpReturnPosInf   0x010178    program     extern C:\Program Files\mcc18\src\traditional\math\packFP.asm
           jReturnPosInf0   0x01017c    program     static C:\Program Files\mcc18\src\traditional\math\packFP.asm
               jZero1and2   0x010180    program     static C:\Program Files\mcc18\src\traditional\math\packFP.asm
       __FpReturnSignZero   0x010186    program     extern C:\Program Files\mcc18\src\traditional\math\packFP.asm
        __FpReturnNegZero   0x01018a    program     extern C:\Program Files\mcc18\src\traditional\math\packFP.asm
        __FpReturnPosZero   0x010192    program     extern C:\Program Files\mcc18\src\traditional\math\packFP.asm
                 __FpPack   0x010198    program     extern C:\Program Files\mcc18\src\traditional\math\packFP.asm
                  jPkLoop   0x0101a6    program     static C:\Program Files\mcc18\src\traditional\math\packFP.asm
             jPkShiftDone   0x0101c2    program     static C:\Program Files\mcc18\src\traditional\math\packFP.asm
               jPkRoundIt   0x0101d8    program     static C:\Program Files\mcc18\src\traditional\math\packFP.asm
             jPkRoundDone   0x0101f0    program     static C:\Program Files\mcc18\src\traditional\math\packFP.asm
              __FpReturnW   0x0101f0    program     extern C:\Program Files\mcc18\src\traditional\math\packFP.asm
              __FpUnPackA   0x010210    program     extern C:\Program Files\mcc18\src\traditional\math\UnpackFP.asm
                  jUnpkA1   0x01021a    program     static C:\Program Files\mcc18\src\traditional\math\UnpackFP.asm
                 jUnpkANZ   0x010228    program     static C:\Program Files\mcc18\src\traditional\math\UnpackFP.asm
                  jUnpkA2   0x010232    program     static C:\Program Files\mcc18\src\traditional\math\UnpackFP.asm
                 jUnpkNaN   0x01023c    program     static C:\Program Files\mcc18\src\traditional\math\UnpackFP.asm
              __FpUnPackB   0x010240    program     extern C:\Program Files\mcc18\src\traditional\math\UnpackFP.asm
                  jUnpkB1   0x01024a    program     static C:\Program Files\mcc18\src\traditional\math\UnpackFP.asm
                 jUnpkBNZ   0x010258    program     static C:\Program Files\mcc18\src\traditional\math\UnpackFP.asm
                  jUnpkB2   0x010262    program     static C:\Program Files\mcc18\src\traditional\math\UnpackFP.asm
              MenuDisplay   0x01026c    program     extern C:\firmware\70M_L_upconverter_SXY\70M_1223\work\Singcom\Drivers\lcd.c
                   ARPPut   0x0107e4    program     static C:\firmware\70M_L_upconverter_SXY\70M_1223\work\Microchip\TCPIP Stack\ARP.c
                  ARPInit   0x0108ac    program     extern C:\firmware\70M_L_upconverter_SXY\70M_1223\work\Microchip\TCPIP Stack\ARP.c
               ARPProcess   0x0108c4    program     extern C:\firmware\70M_L_upconverter_SXY\70M_1223\work\Microchip\TCPIP Stack\ARP.c
               ARPResolve   0x010a5a    program     extern C:\firmware\70M_L_upconverter_SXY\70M_1223\work\Microchip\TCPIP Stack\ARP.c
            ARPIsResolved   0x010b04    program     extern C:\firmware\70M_L_upconverter_SXY\70M_1223\work\Microchip\TCPIP Stack\ARP.c
            SwapARPPacket   0x010ba6    program     extern C:\firmware\70M_L_upconverter_SXY\70M_1223\work\Microchip\TCPIP Stack\ARP.c
                   __pa_0   0x010bce    program     static C:\firmware\70M_L_upconverter_SXY\70M_1223\work\Microchip\TCPIP Stack\ARP.c
                   __pa_1   0x010bdc    program     static C:\firmware\70M_L_upconverter_SXY\70M_1223\work\Microchip\TCPIP Stack\ARP.c
                   __pa_2   0x010be8    program     static C:\firmware\70M_L_upconverter_SXY\70M_1223\work\Microchip\TCPIP Stack\ARP.c
                   __pa_3   0x010bf4    program     static C:\firmware\70M_L_upconverter_SXY\70M_1223\work\Microchip\TCPIP Stack\ARP.c
                   __pa_4   0x010c08    program     static C:\firmware\70M_L_upconverter_SXY\70M_1223\work\Microchip\TCPIP Stack\ARP.c
                   __pa_5   0x010c12    program     static C:\firmware\70M_L_upconverter_SXY\70M_1223\work\Microchip\TCPIP Stack\ARP.c
                   __pa_6   0x010c22    program     static C:\firmware\70M_L_upconverter_SXY\70M_1223\work\Microchip\TCPIP Stack\ARP.c
                   __pa_7   0x010c2e    program     static C:\firmware\70M_L_upconverter_SXY\70M_1223\work\Microchip\TCPIP Stack\ARP.c
                   __pa_8   0x010c3c    program     static C:\firmware\70M_L_upconverter_SXY\70M_1223\work\Microchip\TCPIP Stack\ARP.c
                   __pa_9   0x010c4a    program     static C:\firmware\70M_L_upconverter_SXY\70M_1223\work\Microchip\TCPIP Stack\ARP.c
                  __pa_10   0x010c66    program     static C:\firmware\70M_L_upconverter_SXY\70M_1223\work\Microchip\TCPIP Stack\ARP.c
                  __pa_11   0x010c6e    program     static C:\firmware\70M_L_upconverter_SXY\70M_1223\work\Microchip\TCPIP Stack\ARP.c
                   memchr   0x010c78    program     extern C:\Program Files\mcc18\src\traditional\stdclib\memchr.asm
                    jLoop   0x010c84    program     static C:\Program Files\mcc18\src\traditional\stdclib\memchr.asm
              _2jContinue   0x010c90    program     static C:\Program Files\mcc18\src\traditional\stdclib\memchr.asm
                   _3jEnd   0x010c9a    program     static C:\Program Files\mcc18\src\traditional\stdclib\memchr.asm
                 jNoMatch   0x010cae    program     static C:\Program Files\mcc18\src\traditional\stdclib\memchr.asm
                     jEnd   0x010cb2    program     static C:\Program Files\mcc18\src\traditional\stdclib\memchr.asm
            memcmppgm2ram   0x010cb4    program     extern C:\Program Files\mcc18\src\traditional\stdclib\mcmpp2r.asm
                    jLoop   0x010cd2    program     static C:\Program Files\mcc18\src\traditional\stdclib\mcmpp2r.asm
              _3jContinue   0x010cde    program     static C:\Program Files\mcc18\src\traditional\stdclib\mcmpp2r.asm
                   _4jEnd   0x010ce8    program     static C:\Program Files\mcc18\src\traditional\stdclib\mcmpp2r.asm
                     jEnd   0x010cf0    program     static C:\Program Files\mcc18\src\traditional\stdclib\mcmpp2r.asm
                   memcpy   0x010cf2    program     extern C:\Program Files\mcc18\src\traditional\stdclib\memcpy.asm
                    jLoop   0x010d1a    program     static C:\Program Files\mcc18\src\traditional\stdclib\memcpy.asm
              _4jContinue   0x010d26    program     static C:\Program Files\mcc18\src\traditional\stdclib\memcpy.asm
                   _5jEnd   0x010d30    program     static C:\Program Files\mcc18\src\traditional\stdclib\memcpy.asm
                     jEnd   0x010d36    program     static C:\Program Files\mcc18\src\traditional\stdclib\memcpy.asm
            memcpypgm2ram   0x010d48    program     extern C:\Program Files\mcc18\src\traditional\stdclib\mcpyp2r.asm
                    jLoop   0x010d6e    program     static C:\Program Files\mcc18\src\traditional\stdclib\mcpyp2r.asm
              _3jContinue   0x010d7a    program     static C:\Program Files\mcc18\src\traditional\stdclib\mcpyp2r.asm
                   _4jEnd   0x010d84    program     static C:\Program Files\mcc18\src\traditional\stdclib\mcpyp2r.asm
                     jEnd   0x010d8c    program     static C:\Program Files\mcc18\src\traditional\stdclib\mcpyp2r.asm
                   memset   0x010d8e    program     extern C:\Program Files\mcc18\src\traditional\stdclib\memset.asm
                    jLoop   0x010da2    program     static C:\Program Files\mcc18\src\traditional\stdclib\memset.asm
              _2jContinue   0x010dae    program     static C:\Program Files\mcc18\src\traditional\stdclib\memset.asm
                   _3jEnd   0x010db8    program     static C:\Program Files\mcc18\src\traditional\stdclib\memset.asm
                     jEnd   0x010dc0    program     static C:\Program Files\mcc18\src\traditional\stdclib\memset.asm
                   strcat   0x010dc2    program     extern C:\Program Files\mcc18\src\traditional\stdclib\strcat.asm
                jNullLoop   0x010dea    program     static C:\Program Files\mcc18\src\traditional\stdclib\strcat.asm
                    jLoop   0x010df0    program     static C:\Program Files\mcc18\src\traditional\stdclib\strcat.asm
            strcatpgm2ram   0x010e0a    program     extern C:\Program Files\mcc18\src\traditional\stdclib\scatp2r.asm
                jNullLoop   0x010e30    program     static C:\Program Files\mcc18\src\traditional\stdclib\scatp2r.asm
                    jLoop   0x010e36    program     static C:\Program Files\mcc18\src\traditional\stdclib\scatp2r.asm
                     jEnd   0x010e40    program     static C:\Program Files\mcc18\src\traditional\stdclib\scatp2r.asm
                   strchr   0x010e42    program     extern C:\Program Files\mcc18\src\traditional\stdclib\strchr.asm
                    jLoop   0x010e4e    program     static C:\Program Files\mcc18\src\traditional\stdclib\strchr.asm
                   jMatch   0x010e60    program     static C:\Program Files\mcc18\src\traditional\stdclib\strchr.asm
                     jEnd   0x010e68    program     static C:\Program Files\mcc18\src\traditional\stdclib\strchr.asm
                   strcmp   0x010e6a    program     extern C:\Program Files\mcc18\src\traditional\stdclib\strcmp.asm
                    jLoop   0x010e8a    program     static C:\Program Files\mcc18\src\traditional\stdclib\strcmp.asm
                     jEnd   0x010e94    program     static C:\Program Files\mcc18\src\traditional\stdclib\strcmp.asm
            strcmppgm2ram   0x010eaa    program     extern C:\Program Files\mcc18\src\traditional\stdclib\scmpp2r.asm
                    jLoop   0x010ec8    program     static C:\Program Files\mcc18\src\traditional\stdclib\scmpp2r.asm
                     jEnd   0x010ed4    program     static C:\Program Files\mcc18\src\traditional\stdclib\scmpp2r.asm
                   strcpy   0x010ed6    program     extern C:\Program Files\mcc18\src\traditional\stdclib\strcpy.asm
                    jLoop   0x010efe    program     static C:\Program Files\mcc18\src\traditional\stdclib\strcpy.asm
            strcpypgm2ram   0x010f18    program     extern C:\Program Files\mcc18\src\traditional\stdclib\scpyp2r.asm
                    jLoop   0x010f3e    program     static C:\Program Files\mcc18\src\traditional\stdclib\scpyp2r.asm
                     jEnd   0x010f48    program     static C:\Program Files\mcc18\src\traditional\stdclib\scpyp2r.asm
                   strlen   0x010f4a    program     extern C:\Program Files\mcc18\src\traditional\stdclib\strlen.asm
                    jLoop   0x010f5a    program     static C:\Program Files\mcc18\src\traditional\stdclib\strlen.asm
                     jEnd   0x010f64    program     static C:\Program Files\mcc18\src\traditional\stdclib\strlen.asm
                strlenpgm   0x010f66    program     extern C:\Program Files\mcc18\src\traditional\stdclib\slenpgm.asm
                    jLoop   0x010f84    program     static C:\Program Files\mcc18\src\traditional\stdclib\slenpgm.asm
                   _2jEnd   0x010f9a    program     static C:\Program Files\mcc18\src\traditional\stdclib\slenpgm.asm
                     jEnd   0x010f9c    program     static C:\Program Files\mcc18\src\traditional\stdclib\slenpgm.asm
                  strncat   0x010fb0    program     extern C:\Program Files\mcc18\src\traditional\stdclib\strncat.asm
                jNullLoop   0x010fd8    program     static C:\Program Files\mcc18\src\traditional\stdclib\strncat.asm
                    jLoop   0x010fde    program     static C:\Program Files\mcc18\src\traditional\stdclib\strncat.asm
              _4jContinue   0x010fea    program     static C:\Program Files\mcc18\src\traditional\stdclib\strncat.asm
                   _5jEnd   0x010ff4    program     static C:\Program Files\mcc18\src\traditional\stdclib\strncat.asm
                    jTerm   0x010ffe    program     static C:\Program Files\mcc18\src\traditional\stdclib\strncat.asm
                     jEnd   0x011000    program     static C:\Program Files\mcc18\src\traditional\stdclib\strncat.asm
                  strncpy   0x011012    program     extern C:\Program Files\mcc18\src\traditional\stdclib\strncpy.asm
                    jLoop   0x01103a    program     static C:\Program Files\mcc18\src\traditional\stdclib\strncpy.asm
              _4jContinue   0x011046    program     static C:\Program Files\mcc18\src\traditional\stdclib\strncpy.asm
                   _5jEnd   0x011050    program     static C:\Program Files\mcc18\src\traditional\stdclib\strncpy.asm
                     jEnd   0x01105c    program     static C:\Program Files\mcc18\src\traditional\stdclib\strncpy.asm
           strncpypgm2ram   0x01106e    program     extern C:\Program Files\mcc18\src\traditional\stdclib\sncpyp2r.asm
                    jLoop   0x011094    program     static C:\Program Files\mcc18\src\traditional\stdclib\sncpyp2r.asm
              _3jContinue   0x0110a0    program     static C:\Program Files\mcc18\src\traditional\stdclib\sncpyp2r.asm
                   _4jEnd   0x0110aa    program     static C:\Program Files\mcc18\src\traditional\stdclib\sncpyp2r.asm
                     jEnd   0x0110b8    program     static C:\Program Files\mcc18\src\traditional\stdclib\sncpyp2r.asm
                   strupr   0x0110ba    program     extern C:\Program Files\mcc18\src\traditional\stdclib\strupr.asm
                    jLoop   0x0110ce    program     static C:\Program Files\mcc18\src\traditional\stdclib\strupr.asm
                    jSkip   0x0110de    program     static C:\Program Files\mcc18\src\traditional\stdclib\strupr.asm
                     jEnd   0x0110e2    program     static C:\Program Files\mcc18\src\traditional\stdclib\strupr.asm
   Main_vPrintUpConverter   0x0110e4    program     extern C:\firmware\70M_L_upconverter_SXY\70M_1223\work\Singcom\Devices\MainControl_c1.c
 Main_vPrintDownConverter   0x01114a    program     extern C:\firmware\70M_L_upconverter_SXY\70M_1223\work\Singcom\Devices\MainControl_c1.c
       Main_vPrintVolCtrl   0x0111b0    program     extern C:\firmware\70M_L_upconverter_SXY\70M_1223\work\Singcom\Devices\MainControl_c1.c
    Main_vPrintDeviceInfo   0x0111f4    program     extern C:\firmware\70M_L_upconverter_SXY\70M_1223\work\Singcom\Devices\MainControl_c1.c
            Main_vPrintIP   0x0112e4    program     extern C:\firmware\70M_L_upconverter_SXY\70M_1223\work\Singcom\Devices\MainControl_c1.c
       Main_vPrintModelNo   0x0112fe    program     extern C:\firmware\70M_L_upconverter_SXY\70M_1223\work\Singcom\Devices\MainControl_c1.c
      Main_vPrintSerialNo   0x01130e    program     extern C:\firmware\70M_L_upconverter_SXY\70M_1223\work\Singcom\Devices\MainControl_c1.c
              Main_vSetIP   0x011328    program     extern C:\firmware\70M_L_upconverter_SXY\70M_1223\work\Singcom\Devices\MainControl_c1.c
              Main_vLEDLO   0x01138e    program     extern C:\firmware\70M_L_upconverter_SXY\70M_1223\work\Singcom\Devices\MainControl_c1.c
              Main_vLEDTX   0x0113a2    program     extern C:\firmware\70M_L_upconverter_SXY\70M_1223\work\Singcom\Devices\MainControl_c1.c
              Main_vLEDRX   0x0113b6    program     extern C:\firmware\70M_L_upconverter_SXY\70M_1223\work\Singcom\Devices\MainControl_c1.c
            Main_vLEDInit   0x0113ca    program     extern C:\firmware\70M_L_upconverter_SXY\70M_1223\work\Singcom\Devices\MainControl_c1.c
                   __pa_0   0x0113d2    program     static C:\firmware\70M_L_upconverter_SXY\70M_1223\work\Singcom\Devices\MainControl_c1.c
                   __pa_1   0x0113de    program     static C:\firmware\70M_L_upconverter_SXY\70M_1223\work\Singcom\Devices\MainControl_c1.c
                   __pa_2   0x0113ea    program     static C:\firmware\70M_L_upconverter_SXY\70M_1223\work\Singcom\Devices\MainControl_c1.c
                   __pa_3   0x0113f6    program     static C:\firmware\70M_L_upconverter_SXY\70M_1223\work\Singcom\Devices\MainControl_c1.c
                   __pa_4   0x011402    program     static C:\firmware\70M_L_upconverter_SXY\70M_1223\work\Singcom\Devices\MainControl_c1.c
                   __pa_5   0x01140e    program     static C:\firmware\70M_L_upconverter_SXY\70M_1223\work\Singcom\Devices\MainControl_c1.c
                   __pa_6   0x01141a    program     static C:\firmware\70M_L_upconverter_SXY\70M_1223\work\Singcom\Devices\MainControl_c1.c
                   __pa_7   0x011426    program     static C:\firmware\70M_L_upconverter_SXY\70M_1223\work\Singcom\Devices\MainControl_c1.c
                   __pa_8   0x011432    program     static C:\firmware\70M_L_upconverter_SXY\70M_1223\work\Singcom\Devices\MainControl_c1.c
                   __pa_9   0x01143e    program     static C:\firmware\70M_L_upconverter_SXY\70M_1223\work\Singcom\Devices\MainControl_c1.c
                  __pa_10   0x011448    program     static C:\firmware\70M_L_upconverter_SXY\70M_1223\work\Singcom\Devices\MainControl_c1.c
                  __pa_11   0x01144e    program     static C:\firmware\70M_L_upconverter_SXY\70M_1223\work\Singcom\Devices\MainControl_c1.c
                  __pa_12   0x011454    program     static C:\firmware\70M_L_upconverter_SXY\70M_1223\work\Singcom\Devices\MainControl_c1.c
                  __pa_13   0x01145e    program     static C:\firmware\70M_L_upconverter_SXY\70M_1223\work\Singcom\Devices\MainControl_c1.c
                  __pa_14   0x01146c    program     static C:\firmware\70M_L_upconverter_SXY\70M_1223\work\Singcom\Devices\MainControl_c1.c
                  __pa_15   0x011472    program     static C:\firmware\70M_L_upconverter_SXY\70M_1223\work\Singcom\Devices\MainControl_c1.c
                  __pa_16   0x01147c    program     static C:\firmware\70M_L_upconverter_SXY\70M_1223\work\Singcom\Devices\MainControl_c1.c
                  __pa_17   0x011484    program     static C:\firmware\70M_L_upconverter_SXY\70M_1223\work\Singcom\Devices\MainControl_c1.c
                  __pa_18   0x011496    program     static C:\firmware\70M_L_upconverter_SXY\70M_1223\work\Singcom\Devices\MainControl_c1.c
                  __pa_19   0x0114a8    program     static C:\firmware\70M_L_upconverter_SXY\70M_1223\work\Singcom\Devices\MainControl_c1.c
                  __pa_20   0x0114b8    program     static C:\firmware\70M_L_upconverter_SXY\70M_1223\work\Singcom\Devices\MainControl_c1.c
                  __pa_21   0x0114c6    program     static C:\firmware\70M_L_upconverter_SXY\70M_1223\work\Singcom\Devices\MainControl_c1.c
                  __pa_22   0x0114d4    program     static C:\firmware\70M_L_upconverter_SXY\70M_1223\work\Singcom\Devices\MainControl_c1.c
                 InitData   0x0114da    program     extern C:\firmware\70M_L_upconverter_SXY\70M_1223\work\Bootstrap\Initialization.c
          InitializeBoard   0x0115d2    program     extern C:\firmware\70M_L_upconverter_SXY\70M_1223\work\Bootstrap\Initialization.c
            InitAppConfig   0x01161a    program     extern C:\firmware\70M_L_upconverter_SXY\70M_1223\work\Bootstrap\Initialization.c
          SetDefaultValue   0x0116d2    program     extern C:\firmware\70M_L_upconverter_SXY\70M_1223\work\Bootstrap\Initialization.c
                   __pa_0   0x011754    program     static C:\firmware\70M_L_upconverter_SXY\70M_1223\work\Bootstrap\Initialization.c
                   __pa_1   0x011774    program     static C:\firmware\70M_L_upconverter_SXY\70M_1223\work\Bootstrap\Initialization.c
                   __pa_2   0x0117cc    program     static C:\firmware\70M_L_upconverter_SXY\70M_1223\work\Bootstrap\Initialization.c
                   __pa_3   0x0117dc    program     static C:\firmware\70M_L_upconverter_SXY\70M_1223\work\Bootstrap\Initialization.c
                   __pa_4   0x011806    program     static C:\firmware\70M_L_upconverter_SXY\70M_1223\work\Bootstrap\Initialization.c
                   __pa_5   0x011814    program     static C:\firmware\70M_L_upconverter_SXY\70M_1223\work\Bootstrap\Initialization.c
                   __pa_6   0x011822    program     static C:\firmware\70M_L_upconverter_SXY\70M_1223\work\Bootstrap\Initialization.c
                   __pa_7   0x01182c    program     static C:\firmware\70M_L_upconverter_SXY\70M_1223\work\Bootstrap\Initialization.c
                   __pa_8   0x01183a    program     static C:\firmware\70M_L_upconverter_SXY\70M_1223\work\Bootstrap\Initialization.c
                   __pa_9   0x011846    program     static C:\firmware\70M_L_upconverter_SXY\70M_1223\work\Bootstrap\Initialization.c
                  __pa_10   0x011850    program     static C:\firmware\70M_L_upconverter_SXY\70M_1223\work\Bootstrap\Initialization.c
              IPGetHeader   0x01185c    program     extern C:\firmware\70M_L_upconverter_SXY\70M_1223\work\Microchip\TCPIP Stack\IP.c
              IPPutHeader   0x011998    program     extern C:\firmware\70M_L_upconverter_SXY\70M_1223\work\Microchip\TCPIP Stack\IP.c
            IPSetRxBuffer   0x011a9e    program     extern C:\firmware\70M_L_upconverter_SXY\70M_1223\work\Microchip\TCPIP Stack\IP.c
             SwapIPHeader   0x011acc    program     static C:\firmware\70M_L_upconverter_SXY\70M_1223\work\Microchip\TCPIP Stack\IP.c
                   __pa_0   0x011aea    program     static C:\firmware\70M_L_upconverter_SXY\70M_1223\work\Microchip\TCPIP Stack\IP.c
                   __pa_1   0x011b0c    program     static C:\firmware\70M_L_upconverter_SXY\70M_1223\work\Microchip\TCPIP Stack\IP.c
                   __pa_2   0x011b18    program     static C:\firmware\70M_L_upconverter_SXY\70M_1223\work\Microchip\TCPIP Stack\IP.c
                   __pa_3   0x011b24    program     static C:\firmware\70M_L_upconverter_SXY\70M_1223\work\Microchip\TCPIP Stack\IP.c
                   __pa_4   0x011b2a    program     static C:\firmware\70M_L_upconverter_SXY\70M_1223\work\Microchip\TCPIP Stack\IP.c
                   __pa_5   0x011b40    program     static C:\firmware\70M_L_upconverter_SXY\70M_1223\work\Microchip\TCPIP Stack\IP.c
                   __pa_6   0x011b4a    program     static C:\firmware\70M_L_upconverter_SXY\70M_1223\work\Microchip\TCPIP Stack\IP.c
                   __pa_7   0x011b54    program     static C:\firmware\70M_L_upconverter_SXY\70M_1223\work\Microchip\TCPIP Stack\IP.c
                   __pa_8   0x011b62    program     static C:\firmware\70M_L_upconverter_SXY\70M_1223\work\Microchip\TCPIP Stack\IP.c
                   __pa_9   0x011b70    program     static C:\firmware\70M_L_upconverter_SXY\70M_1223\work\Microchip\TCPIP Stack\IP.c
                  __pa_10   0x011b80    program     static C:\firmware\70M_L_upconverter_SXY\70M_1223\work\Microchip\TCPIP Stack\IP.c
                  XEEInit   0x011b8a    program     extern C:\firmware\70M_L_upconverter_SXY\70M_1223\work\Microchip\TCPIP Stack\SPIEEPROM.c
             XEEBeginRead   0x011ba0    program     extern C:\firmware\70M_L_upconverter_SXY\70M_1223\work\Microchip\TCPIP Stack\SPIEEPROM.c
                  XEERead   0x011bac    program     extern C:\firmware\70M_L_upconverter_SXY\70M_1223\work\Microchip\TCPIP Stack\SPIEEPROM.c
               XEEEndRead   0x011c02    program     extern C:\firmware\70M_L_upconverter_SXY\70M_1223\work\Microchip\TCPIP Stack\SPIEEPROM.c
             XEEReadArray   0x011c04    program     extern C:\firmware\70M_L_upconverter_SXY\70M_1223\work\Microchip\TCPIP Stack\SPIEEPROM.c
            XEEBeginWrite   0x011c98    program     extern C:\firmware\70M_L_upconverter_SXY\70M_1223\work\Microchip\TCPIP Stack\SPIEEPROM.c
                 XEEWrite   0x011ca4    program     extern C:\firmware\70M_L_upconverter_SXY\70M_1223\work\Microchip\TCPIP Stack\SPIEEPROM.c
            XEEWriteArray   0x011cd2    program     extern C:\firmware\70M_L_upconverter_SXY\70M_1223\work\Microchip\TCPIP Stack\SPIEEPROM.c
              XEEEndWrite   0x011d0c    program     extern C:\firmware\70M_L_upconverter_SXY\70M_1223\work\Microchip\TCPIP Stack\SPIEEPROM.c
                  DoWrite   0x011d16    program     static C:\firmware\70M_L_upconverter_SXY\70M_1223\work\Microchip\TCPIP Stack\SPIEEPROM.c
                XEEIsBusy   0x011dbe    program     extern C:\firmware\70M_L_upconverter_SXY\70M_1223\work\Microchip\TCPIP Stack\SPIEEPROM.c
                   __pa_0   0x011dfc    program     static C:\firmware\70M_L_upconverter_SXY\70M_1223\work\Microchip\TCPIP Stack\SPIEEPROM.c
                   __pa_1   0x011e0e    program     static C:\firmware\70M_L_upconverter_SXY\70M_1223\work\Microchip\TCPIP Stack\SPIEEPROM.c
                   __pa_2   0x011e1a    program     static C:\firmware\70M_L_upconverter_SXY\70M_1223\work\Microchip\TCPIP Stack\SPIEEPROM.c
                   __pa_3   0x011e34    program     static C:\firmware\70M_L_upconverter_SXY\70M_1223\work\Microchip\TCPIP Stack\SPIEEPROM.c
                   __pa_4   0x011e44    program     static C:\firmware\70M_L_upconverter_SXY\70M_1223\work\Microchip\TCPIP Stack\SPIEEPROM.c
                   __pa_5   0x011e4e    program     static C:\firmware\70M_L_upconverter_SXY\70M_1223\work\Microchip\TCPIP Stack\SPIEEPROM.c
                   __pa_6   0x011e60    program     static C:\firmware\70M_L_upconverter_SXY\70M_1223\work\Microchip\TCPIP Stack\SPIEEPROM.c
                   __pa_7   0x011e6c    program     static C:\firmware\70M_L_upconverter_SXY\70M_1223\work\Microchip\TCPIP Stack\SPIEEPROM.c
                   __pa_8   0x011e7c    program     static C:\firmware\70M_L_upconverter_SXY\70M_1223\work\Microchip\TCPIP Stack\SPIEEPROM.c
                 I2C_Send   0x011e84    program     extern C:\firmware\70M_L_upconverter_SXY\70M_1223\work\Singcom\Drivers\i2c_c1.c
                 I2C_Read   0x011eb0    program     extern C:\firmware\70M_L_upconverter_SXY\70M_1223\work\Singcom\Drivers\i2c_c1.c
              i2csendbyte   0x011eec    program     extern C:\firmware\70M_L_upconverter_SXY\70M_1223\work\Singcom\Drivers\i2c_c1.c
               i2cgetbyte   0x011f1e    program     extern C:\firmware\70M_L_upconverter_SXY\70M_1223\work\Singcom\Drivers\i2c_c1.c
                 i2cstart   0x011f56    program     extern C:\firmware\70M_L_upconverter_SXY\70M_1223\work\Singcom\Drivers\i2c_c1.c
                  i2cstop   0x011f6a    program     extern C:\firmware\70M_L_upconverter_SXY\70M_1223\work\Singcom\Drivers\i2c_c1.c
                 i2cclock   0x011f7c    program     extern C:\firmware\70M_L_upconverter_SXY\70M_1223\work\Singcom\Drivers\i2c_c1.c
               i2creadbit   0x011f88    program     extern C:\firmware\70M_L_upconverter_SXY\70M_1223\work\Singcom\Drivers\i2c_c1.c
                i2cgetack   0x011fa8    program     extern C:\firmware\70M_L_upconverter_SXY\70M_1223\work\Singcom\Drivers\i2c_c1.c
               i2csendack   0x011fc2    program     extern C:\firmware\70M_L_upconverter_SXY\70M_1223\work\Singcom\Drivers\i2c_c1.c
              i2csendnack   0x011fc6    program     extern C:\firmware\70M_L_upconverter_SXY\70M_1223\work\Singcom\Drivers\i2c_c1.c
                 i2cdelay   0x011fca    program     extern C:\firmware\70M_L_upconverter_SXY\70M_1223\work\Singcom\Drivers\i2c_c1.c
                   SetI2C   0x012012    program     extern C:\firmware\70M_L_upconverter_SXY\70M_1223\work\Singcom\Drivers\i2c_c1.c
                   __pa_0   0x0120b0    program     static C:\firmware\70M_L_upconverter_SXY\70M_1223\work\Singcom\Drivers\i2c_c1.c
                   __pa_1   0x0120b8    program     static C:\firmware\70M_L_upconverter_SXY\70M_1223\work\Singcom\Drivers\i2c_c1.c
                   __pa_2   0x0120ca    program     static C:\firmware\70M_L_upconverter_SXY\70M_1223\work\Singcom\Drivers\i2c_c1.c
                   __pa_3   0x0120ea    program     static C:\firmware\70M_L_upconverter_SXY\70M_1223\work\Singcom\Drivers\i2c_c1.c
                   __pa_4   0x0120f6    program     static C:\firmware\70M_L_upconverter_SXY\70M_1223\work\Singcom\Drivers\i2c_c1.c
                   __pa_5   0x012110    program     static C:\firmware\70M_L_upconverter_SXY\70M_1223\work\Singcom\Drivers\i2c_c1.c
                   __pa_6   0x01211c    program     static C:\firmware\70M_L_upconverter_SXY\70M_1223\work\Singcom\Drivers\i2c_c1.c
                   __pa_7   0x01212a    program     static C:\firmware\70M_L_upconverter_SXY\70M_1223\work\Singcom\Drivers\i2c_c1.c
                   __pa_8   0x012138    program     static C:\firmware\70M_L_upconverter_SXY\70M_1223\work\Singcom\Drivers\i2c_c1.c
                   __pa_9   0x012142    program     static C:\firmware\70M_L_upconverter_SXY\70M_1223\work\Singcom\Drivers\i2c_c1.c
                  __pa_10   0x01214c    program     static C:\firmware\70M_L_upconverter_SXY\70M_1223\work\Singcom\Drivers\i2c_c1.c
                  __pa_11   0x01215c    program     static C:\firmware\70M_L_upconverter_SXY\70M_1223\work\Singcom\Drivers\i2c_c1.c
                  __pa_12   0x01216a    program     static C:\firmware\70M_L_upconverter_SXY\70M_1223\work\Singcom\Drivers\i2c_c1.c
                  __pa_13   0x012174    program     static C:\firmware\70M_L_upconverter_SXY\70M_1223\work\Singcom\Drivers\i2c_c1.c
           OLED_vSetKepad   0x01217a    program     extern C:\firmware\70M_L_upconverter_SXY\70M_1223\work\Singcom\Drivers\oled_c1.c
                CheckBusy   0x01218c    program     extern C:\firmware\70M_L_upconverter_SXY\70M_1223\work\Singcom\Drivers\oled_c1.c
           ___do_lbl00004   0x0121a6    program     static                          
           ___do_lbl00002   0x0121b6    program     static                          
           ___do_lbl00003   0x0121ba    program     static                          
       ___return_lbl00001   0x0121bc    program     static                          
                 WriteIns   0x0121ca    program     extern C:\firmware\70M_L_upconverter_SXY\70M_1223\work\Singcom\Drivers\oled_c1.c
       ___return_lbl00005   0x0121ec    program     static                          
                WriteData   0x0121f8    program     extern C:\firmware\70M_L_upconverter_SXY\70M_1223\work\Singcom\Drivers\oled_c1.c
       ___return_lbl00006   0x01221e    program     static                          
                 ReadData   0x01222a    program     extern C:\firmware\70M_L_upconverter_SXY\70M_1223\work\Singcom\Drivers\oled_c1.c
       ___return_lbl00007   0x012254    program     static                          
              WriteString   0x012262    program     extern C:\firmware\70M_L_upconverter_SXY\70M_1223\work\Singcom\Drivers\oled_c1.c
           LCDWriteString   0x012292    program     extern C:\firmware\70M_L_upconverter_SXY\70M_1223\work\Singcom\Drivers\oled_c1.c
          DRI_vPrintCGRAM   0x0122ca    program     extern C:\firmware\70M_L_upconverter_SXY\70M_1223\work\Singcom\Drivers\oled_c1.c
            DRI_vLCDClear   0x012340    program     extern C:\firmware\70M_L_upconverter_SXY\70M_1223\work\Singcom\Drivers\oled_c1.c
       DRI_vLCDReturnhome   0x012346    program     extern C:\firmware\70M_L_upconverter_SXY\70M_1223\work\Singcom\Drivers\oled_c1.c
        DRI_vLCDEntryMode   0x01234c    program     extern C:\firmware\70M_L_upconverter_SXY\70M_1223\work\Singcom\Drivers\oled_c1.c
          DRI_vLCDDisplay   0x012352    program     extern C:\firmware\70M_L_upconverter_SXY\70M_1223\work\Singcom\Drivers\oled_c1.c
          PrintCompanyLCD   0x01237c    program     extern C:\firmware\70M_L_upconverter_SXY\70M_1223\work\Singcom\Drivers\oled_c1.c
                   __pa_0   0x0123de    program     static C:\firmware\70M_L_upconverter_SXY\70M_1223\work\Singcom\Drivers\oled_c1.c
                   __pa_1   0x0123f2    program     static C:\firmware\70M_L_upconverter_SXY\70M_1223\work\Singcom\Drivers\oled_c1.c
                   __pa_2   0x01240c    program     static C:\firmware\70M_L_upconverter_SXY\70M_1223\work\Singcom\Drivers\oled_c1.c
                   __pa_3   0x01241a    program     static C:\firmware\70M_L_upconverter_SXY\70M_1223\work\Singcom\Drivers\oled_c1.c
                   __pa_4   0x012432    program     static C:\firmware\70M_L_upconverter_SXY\70M_1223\work\Singcom\Drivers\oled_c1.c
                   __pa_5   0x01244a    program     static C:\firmware\70M_L_upconverter_SXY\70M_1223\work\Singcom\Drivers\oled_c1.c
                   __pa_6   0x012452    program     static C:\firmware\70M_L_upconverter_SXY\70M_1223\work\Singcom\Drivers\oled_c1.c
        DRI__vHitWatchDog   0x01245e    program     static C:\firmware\70M_L_upconverter_SXY\70M_1223\work\Main\Main.c
       ___return_lbl00000   0x012460    program     static                          
    DRI__vEnableGlobalInt   0x012462    program     static C:\firmware\70M_L_upconverter_SXY\70M_1223\work\Main\Main.c
          DRI__vConfigSPI   0x01246c    program     static C:\firmware\70M_L_upconverter_SXY\70M_1223\work\Main\Main.c
         SYS__vStatusTask   0x01247c    program     static C:\firmware\70M_L_upconverter_SXY\70M_1223\work\Main\Main.c
      SYS__vLcdKeyPadTask   0x0124c4    program     static C:\firmware\70M_L_upconverter_SXY\70M_1223\work\Main\Main.c
   HTTP_vClearWebPassword   0x0124f0    program     static C:\firmware\70M_L_upconverter_SXY\70M_1223\work\Main\Main.c
          SYS__u8InitData   0x012546    program     static C:\firmware\70M_L_upconverter_SXY\70M_1223\work\Main\Main.c
                     main   0x0125fe    program     extern C:\firmware\70M_L_upconverter_SXY\70M_1223\work\Main\Main.c
               UpdateData   0x0126d0    program     extern C:\firmware\70M_L_upconverter_SXY\70M_1223\work\Main\Main.c
      UpdateDataModuleSys   0x0126da    program     extern C:\firmware\70M_L_upconverter_SXY\70M_1223\work\Main\Main.c
        UpdateDataMenuSys   0x0126dc    program     extern C:\firmware\70M_L_upconverter_SXY\70M_1223\work\Main\Main.c
        UpdateDataUartSys   0x0126de    program     extern C:\firmware\70M_L_upconverter_SXY\70M_1223\work\Main\Main.c
         UpdateDataLEDSys   0x0126e0    program     extern C:\firmware\70M_L_upconverter_SXY\70M_1223\work\Main\Main.c
             UpdateStatus   0x0126e2    program     extern C:\firmware\70M_L_upconverter_SXY\70M_1223\work\Main\Main.c
                  AD_init   0x0126e4    program     extern C:\firmware\70M_L_upconverter_SXY\70M_1223\work\Drivers\MCU-Internal\internalADC.c
                 Read_ADC   0x012716    program     extern C:\firmware\70M_L_upconverter_SXY\70M_1223\work\Drivers\MCU-Internal\internalADC.c
        ___while_lbl00002   0x0127d4    program     static                          
        ___while_lbl00003   0x0127dc    program     static                          
       ___return_lbl00001   0x0127f0    program     static                          
                ADC_Value   0x0127fc    program     extern C:\firmware\70M_L_upconverter_SXY\70M_1223\work\Drivers\MCU-Internal\internalADC.c
       ___return_lbl00004   0x0128c8    program     static                          
                GetOneADC   0x0128e0    program     extern C:\firmware\70M_L_upconverter_SXY\70M_1223\work\Drivers\MCU-Internal\internalADC.c
                StackInit   0x012936    program     extern C:\firmware\70M_L_upconverter_SXY\70M_1223\work\Microchip\TCPIP Stack\StackTsk.c
                StackTask   0x012966    program     extern C:\firmware\70M_L_upconverter_SXY\70M_1223\work\Microchip\TCPIP Stack\StackTsk.c
        StackApplications   0x012af2    program     extern C:\firmware\70M_L_upconverter_SXY\70M_1223\work\Microchip\TCPIP Stack\StackTsk.c
                   __pa_0   0x012af6    program     static C:\firmware\70M_L_upconverter_SXY\70M_1223\work\Microchip\TCPIP Stack\StackTsk.c
                   __pa_1   0x012b04    program     static C:\firmware\70M_L_upconverter_SXY\70M_1223\work\Microchip\TCPIP Stack\StackTsk.c
                   __pa_2   0x012b10    program     static C:\firmware\70M_L_upconverter_SXY\70M_1223\work\Microchip\TCPIP Stack\StackTsk.c
             GetOneCHADC0   0x012b1a    program     extern C:\firmware\70M_L_upconverter_SXY\70M_1223\work\Drivers\External-Peripherals\devadc.c
       GetOneCHADC012Bits   0x012b50    program     extern C:\firmware\70M_L_upconverter_SXY\70M_1223\work\Drivers\External-Peripherals\devadc.c
             GetOneCHADC1   0x012b6e    program     extern C:\firmware\70M_L_upconverter_SXY\70M_1223\work\Drivers\External-Peripherals\devadc.c
       GetOneCHADC112Bits   0x012ba4    program     extern C:\firmware\70M_L_upconverter_SXY\70M_1223\work\Drivers\External-Peripherals\devadc.c
   GetCurrentFromHexValue   0x012bc0    program     extern C:\firmware\70M_L_upconverter_SXY\70M_1223\work\Drivers\External-Peripherals\devadc.c
                   __pa_0   0x012c32    program     static C:\firmware\70M_L_upconverter_SXY\70M_1223\work\Drivers\External-Peripherals\devadc.c
                   __pa_1   0x012c78    program     static C:\firmware\70M_L_upconverter_SXY\70M_1223\work\Drivers\External-Peripherals\devadc.c
                   __pa_2   0x012c80    program     static C:\firmware\70M_L_upconverter_SXY\70M_1223\work\Drivers\External-Peripherals\devadc.c
                   __pa_3   0x012c8c    program     static C:\firmware\70M_L_upconverter_SXY\70M_1223\work\Drivers\External-Peripherals\devadc.c
                   __pa_4   0x012ca6    program     static C:\firmware\70M_L_upconverter_SXY\70M_1223\work\Drivers\External-Peripherals\devadc.c
                   __pa_5   0x012cb4    program     static C:\firmware\70M_L_upconverter_SXY\70M_1223\work\Drivers\External-Peripherals\devadc.c
                   __pa_6   0x012cc6    program     static C:\firmware\70M_L_upconverter_SXY\70M_1223\work\Drivers\External-Peripherals\devadc.c
                   __pa_7   0x012cd8    program     static C:\firmware\70M_L_upconverter_SXY\70M_1223\work\Drivers\External-Peripherals\devadc.c
                   __pa_8   0x012cea    program     static C:\firmware\70M_L_upconverter_SXY\70M_1223\work\Drivers\External-Peripherals\devadc.c
                   LowISR   0x012cf8    program     extern C:\firmware\70M_L_upconverter_SXY\70M_1223\work\Drivers\MCU-Internal\ISR.c
                  HighISR   0x012de2    program     extern C:\firmware\70M_L_upconverter_SXY\70M_1223\work\Drivers\MCU-Internal\ISR.c
                   __pa_0   0x012e32    program     static C:\firmware\70M_L_upconverter_SXY\70M_1223\work\Drivers\MCU-Internal\ISR.c
                   __pa_1   0x012e5c    program     static C:\firmware\70M_L_upconverter_SXY\70M_1223\work\Drivers\MCU-Internal\ISR.c
                   __pa_2   0x012e86    program     static C:\firmware\70M_L_upconverter_SXY\70M_1223\work\Drivers\MCU-Internal\ISR.c
                   __pa_3   0x012e9e    program     static C:\firmware\70M_L_upconverter_SXY\70M_1223\work\Drivers\MCU-Internal\ISR.c
                     atol   0x012eb0    program     extern C:\Program Files\mcc18\src\traditional\stdclib\atol.asm
                  jSkipWS   0x012ee6    program     static C:\Program Files\mcc18\src\traditional\stdclib\atol.asm
                 jSkipWS1   0x012ef8    program     static C:\Program Files\mcc18\src\traditional\stdclib\atol.asm
                 jTstSign   0x012efc    program     static C:\Program Files\mcc18\src\traditional\stdclib\atol.asm
                jTstSign1   0x012f08    program     static C:\Program Files\mcc18\src\traditional\stdclib\atol.asm
                jTstSign2   0x012f0e    program     static C:\Program Files\mcc18\src\traditional\stdclib\atol.asm
                jTstSign3   0x012f10    program     static C:\Program Files\mcc18\src\traditional\stdclib\atol.asm
                    jLoop   0x012f10    program     static C:\Program Files\mcc18\src\traditional\stdclib\atol.asm
                 jEndLoop   0x012f9e    program     static C:\Program Files\mcc18\src\traditional\stdclib\atol.asm
                  _14jEnd   0x012fce    program     static C:\Program Files\mcc18\src\traditional\stdclib\atol.asm
                     jEnd   0x012fce    program     static C:\Program Files\mcc18\src\traditional\stdclib\atol.asm
                    srand   0x013006    program     extern C:\Program Files\mcc18\src\traditional\stdclib\rand.asm
                     rand   0x013014    program     extern C:\Program Files\mcc18\src\traditional\stdclib\rand.asm
         UpCvt_vPrintFreq   0x013042    program     extern C:\firmware\70M_L_upconverter_SXY\70M_1223\work\Singcom\Devices\UpConverter_c1.c
        UpCvt_vPrintPower   0x01305c    program     extern C:\firmware\70M_L_upconverter_SXY\70M_1223\work\Singcom\Devices\UpConverter_c1.c
        UpCvt_vPrintStPwr   0x013076    program     extern C:\firmware\70M_L_upconverter_SXY\70M_1223\work\Singcom\Devices\UpConverter_c1.c
           UpCvt_vPrintLo   0x013090    program     extern C:\firmware\70M_L_upconverter_SXY\70M_1223\work\Singcom\Devices\UpConverter_c1.c
         UpCvt_vPrintAttn   0x0130c2    program     extern C:\firmware\70M_L_upconverter_SXY\70M_1223\work\Singcom\Devices\UpConverter_c1.c
          UpCvt_vPrintALC   0x0130dc    program     extern C:\firmware\70M_L_upconverter_SXY\70M_1223\work\Singcom\Devices\UpConverter_c1.c
         UpCvt_vPrintMute   0x0130f6    program     extern C:\firmware\70M_L_upconverter_SXY\70M_1223\work\Singcom\Devices\UpConverter_c1.c
           UpCvt_vSendI2C   0x013148    program     extern C:\firmware\70M_L_upconverter_SXY\70M_1223\work\Singcom\Devices\UpConverter_c1.c
           UpCvt_vSetFreq   0x013158    program     extern C:\firmware\70M_L_upconverter_SXY\70M_1223\work\Singcom\Devices\UpConverter_c1.c
           UpCvt_vSetAttn   0x01315a    program     extern C:\firmware\70M_L_upconverter_SXY\70M_1223\work\Singcom\Devices\UpConverter_c1.c
          UpCvt_vSetPower   0x01315c    program     extern C:\firmware\70M_L_upconverter_SXY\70M_1223\work\Singcom\Devices\UpConverter_c1.c
          UpCvt_vSetStPwr   0x01315e    program     extern C:\firmware\70M_L_upconverter_SXY\70M_1223\work\Singcom\Devices\UpConverter_c1.c
            UpCvt_vSetALC   0x013160    program     extern C:\firmware\70M_L_upconverter_SXY\70M_1223\work\Singcom\Devices\UpConverter_c1.c
           UpCvt_vSetMute   0x013162    program     extern C:\firmware\70M_L_upconverter_SXY\70M_1223\work\Singcom\Devices\UpConverter_c1.c
                   __pa_0   0x013164    program     static C:\firmware\70M_L_upconverter_SXY\70M_1223\work\Singcom\Devices\UpConverter_c1.c
                   __pa_1   0x01317a    program     static C:\firmware\70M_L_upconverter_SXY\70M_1223\work\Singcom\Devices\UpConverter_c1.c
              ICMPProcess   0x013190    program     extern C:\firmware\70M_L_upconverter_SXY\70M_1223\work\Microchip\TCPIP Stack\ICMP.c
                   __pa_0   0x0132b2    program     static C:\firmware\70M_L_upconverter_SXY\70M_1223\work\Microchip\TCPIP Stack\ICMP.c
                   __pa_1   0x0132c2    program     static C:\firmware\70M_L_upconverter_SXY\70M_1223\work\Microchip\TCPIP Stack\ICMP.c
                   __pa_2   0x0132d0    program     static C:\firmware\70M_L_upconverter_SXY\70M_1223\work\Microchip\TCPIP Stack\ICMP.c
                 TickInit   0x0132da    program     extern C:\firmware\70M_L_upconverter_SXY\70M_1223\work\Microchip\TCPIP Stack\Tick.c
           ___do_lbl00004   0x0132ea    program     static                          
              GetTickCopy   0x0132ea    program     static C:\firmware\70M_L_upconverter_SXY\70M_1223\work\Microchip\TCPIP Stack\Tick.c
           ___do_lbl00002   0x013308    program     static                          
           ___do_lbl00003   0x01330c    program     static                          
       ___return_lbl00001   0x01330e    program     static                          
                  TickGet   0x013310    program     extern C:\firmware\70M_L_upconverter_SXY\70M_1223\work\Microchip\TCPIP Stack\Tick.c
            TickGetDiv256   0x013324    program     extern C:\firmware\70M_L_upconverter_SXY\70M_1223\work\Microchip\TCPIP Stack\Tick.c
            TickGetDiv64K   0x013348    program     extern C:\firmware\70M_L_upconverter_SXY\70M_1223\work\Microchip\TCPIP Stack\Tick.c
TickConvertToMilliseconds   0x01336c    program     extern C:\firmware\70M_L_upconverter_SXY\70M_1223\work\Microchip\TCPIP Stack\Tick.c
               TickUpdate   0x0133a2    program     extern C:\firmware\70M_L_upconverter_SXY\70M_1223\work\Microchip\TCPIP Stack\Tick.c
                   __pa_0   0x0133b6    program     static C:\firmware\70M_L_upconverter_SXY\70M_1223\work\Microchip\TCPIP Stack\Tick.c
                   __pa_1   0x0133c4    program     static C:\firmware\70M_L_upconverter_SXY\70M_1223\work\Microchip\TCPIP Stack\Tick.c
                   __pa_2   0x0133de    program     static C:\firmware\70M_L_upconverter_SXY\70M_1223\work\Microchip\TCPIP Stack\Tick.c
                   __pa_3   0x0133ea    program     static C:\firmware\70M_L_upconverter_SXY\70M_1223\work\Microchip\TCPIP Stack\Tick.c
                BusyUSART   0x0133fc    program     extern C:\firmware\70M_L_upconverter_SXY\70M_1223\work\Microchip\TCPIP Stack\UART.c
               CloseUSART   0x013408    program     extern C:\firmware\70M_L_upconverter_SXY\70M_1223\work\Microchip\TCPIP Stack\UART.c
             DataRdyUSART   0x013414    program     extern C:\firmware\70M_L_upconverter_SXY\70M_1223\work\Microchip\TCPIP Stack\UART.c
                ReadUSART   0x013426    program     extern C:\firmware\70M_L_upconverter_SXY\70M_1223\work\Microchip\TCPIP Stack\UART.c
               WriteUSART   0x01342a    program     extern C:\firmware\70M_L_upconverter_SXY\70M_1223\work\Microchip\TCPIP Stack\UART.c
                putsUSART   0x013434    program     extern C:\firmware\70M_L_upconverter_SXY\70M_1223\work\Microchip\TCPIP Stack\UART.c
               ReadUSART2   0x013450    program     extern C:\firmware\70M_L_upconverter_SXY\70M_1223\work\Microchip\TCPIP Stack\UART.c
               BusyUSART2   0x013454    program     extern C:\firmware\70M_L_upconverter_SXY\70M_1223\work\Microchip\TCPIP Stack\UART.c
              CloseUSART2   0x013460    program     extern C:\firmware\70M_L_upconverter_SXY\70M_1223\work\Microchip\TCPIP Stack\UART.c
            DataRdyUSART2   0x01346c    program     extern C:\firmware\70M_L_upconverter_SXY\70M_1223\work\Microchip\TCPIP Stack\UART.c
              WriteUSART2   0x01347e    program     extern C:\firmware\70M_L_upconverter_SXY\70M_1223\work\Microchip\TCPIP Stack\UART.c
               putsUSART2   0x013488    program     extern C:\firmware\70M_L_upconverter_SXY\70M_1223\work\Microchip\TCPIP Stack\UART.c
                   __pa_0   0x0134a4    program     static C:\firmware\70M_L_upconverter_SXY\70M_1223\work\Microchip\TCPIP Stack\UART.c
                   __pa_1   0x0134b6    program     static C:\firmware\70M_L_upconverter_SXY\70M_1223\work\Microchip\TCPIP Stack\UART.c
                   __pa_2   0x0134c2    program     static C:\firmware\70M_L_upconverter_SXY\70M_1223\work\Microchip\TCPIP Stack\UART.c
                   __pa_3   0x0134d2    program     static C:\firmware\70M_L_upconverter_SXY\70M_1223\work\Microchip\TCPIP Stack\UART.c
                  sprintf   0x0134e2    program     extern C:\Program Files\mcc18\src\traditional\stdclib\sprintf.c
                _do_cinit   0x01358e    program     extern C:\Program Files\mcc18\src\traditional\startup\c018iz.c
                     test   0x0135a8    program     static                          
                copy_loop   0x013600    program     static                          
            copy_one_byte   0x013606    program     static                          
             done_copying   0x013614    program     static                          
                     done   0x01362a    program     static                          
       ___return_lbl00002   0x01362a    program     static                          
                  SPIInit   0x01362c    program     extern C:\firmware\70M_L_upconverter_SXY\70M_1223\work\Drivers\MCU-Internal\devspi.c
            ReadWriteSPI2   0x013644    program     extern C:\firmware\70M_L_upconverter_SXY\70M_1223\work\Drivers\MCU-Internal\devspi.c
                     putc   0x0136b2    program     extern C:\Program Files\mcc18\src\traditional\stdclib\putc.c
                HTTP_CRLF   0x013736    program     static C:\firmware\70M_L_upconverter_SXY\70M_1223\work\Microchip\TCPIP Stack\HTTP2.c
       httpFileExtensions   0x013739    program     static C:\firmware\70M_L_upconverter_SXY\70M_1223\work\Microchip\TCPIP Stack\HTTP2.c
         httpContentTypes   0x01375d    program     static C:\firmware\70M_L_upconverter_SXY\70M_1223\work\Microchip\TCPIP Stack\HTTP2.c
      HTTPResponseHeaders   0x013781    program     static C:\firmware\70M_L_upconverter_SXY\70M_1223\work\Microchip\TCPIP Stack\HTTP2.c
       HTTPRequestHeaders   0x0137ab    program     static C:\firmware\70M_L_upconverter_SXY\70M_1223\work\Microchip\TCPIP Stack\HTTP2.c
                  FXM3232   0x0137b4    program     extern C:\Program Files\mcc18\src\traditional\math\fxm3232.c
       ___return_lbl00000   0x013822    program     static                          
                  OpenADC   0x013824    program     extern C:\MCC18\src\pmc_common\ADC\adcopen.c
                 FXD3232U   0x013892    program     extern C:\Program Files\mcc18\src\traditional\math\fxd3232u.c
                     loop   0x0138a0    program     static                          
                   _false   0x0138d4    program     static                          
       ___return_lbl00000   0x0138d8    program     static                          
                 FXD1616U   0x0138da    program     extern C:\Program Files\mcc18\src\traditional\math\fxd1616u.c
                     loop   0x0138e4    program     static                          
                  endloop   0x013900    program     static                          
       ___return_lbl00000   0x013904    program     static                          
                  isdigit   0x013906    program     extern C:\Program Files\mcc18\src\traditional\stdclib\isdigit.asm
                   jMatch   0x013926    program     static C:\Program Files\mcc18\src\traditional\stdclib\isdigit.asm
                 jNoMatch   0x013928    program     static C:\Program Files\mcc18\src\traditional\stdclib\isdigit.asm
     TCPSocketInitializer   0x01392a    program     extern C:\firmware\70M_L_upconverter_SXY\70M_1223\work\Port\TCPIPConfig.h
                 _startup   0x01394e    program     extern C:\Program Files\mcc18\src\traditional\startup\c018iz.c
                     loop   0x013962    program     static                          
       ___return_lbl00001   0x01396c    program     static                          
              Delay1KTCYx   0x01396e    program     extern C:\Program Files\mcc18\src\traditional\delays\d1ktcyx.asm
                     D1Kx   0x013978    program     static C:\Program Files\mcc18\src\traditional\delays\d1ktcyx.asm
                    D1K_1   0x01397a    program     static C:\Program Files\mcc18\src\traditional\delays\d1ktcyx.asm
        _D1KTCYXCODE_0010   0x01397e    program     static C:\Program Files\mcc18\src\traditional\delays\d1ktcyx.asm
        _D1KTCYXCODE_0016   0x013984    program     static C:\Program Files\mcc18\src\traditional\delays\d1ktcyx.asm
                 UART2ISR   0x01398e    program     extern C:\firmware\70M_L_upconverter_SXY\70M_1223\work\Microchip\TCPIP Stack\UART2TCPBridge.c
              _usart_putc   0x0139ac    program     extern C:\MCC18\src\pmc_common\USART\_usartpc.asm
                     loop   0x0139bc    program     static C:\MCC18\src\pmc_common\USART\_usartpc.asm
                 FXD0808U   0x0139c8    program     extern C:\Program Files\mcc18\src\traditional\math\fxd0808u.c
                     loop   0x0139d0    program     static                          
                  endloop   0x0139de    program     static                          
       ___return_lbl00000   0x0139e2    program     static                          
              Delay10TCYx   0x0139e4    program     extern C:\Program Files\mcc18\src\traditional\delays\d10tcyx.asm
                     D10x   0x0139ec    program     static C:\Program Files\mcc18\src\traditional\delays\d10tcyx.asm
        _D10TCYXCODE_000A   0x0139ee    program     static C:\Program Files\mcc18\src\traditional\delays\d10tcyx.asm
        _D10TCYXCODE_000C   0x0139f0    program     static C:\Program Files\mcc18\src\traditional\delays\d10tcyx.asm
        _D10TCYXCODE_000E   0x0139f2    program     static C:\Program Files\mcc18\src\traditional\delays\d10tcyx.asm
                    D10_1   0x0139f4    program     static C:\Program Files\mcc18\src\traditional\delays\d10tcyx.asm
         DownCvt_vSendI2C   0x0139fa    program     extern C:\firmware\70M_L_upconverter_SXY\70M_1223\work\Singcom\Devices\DownConverter_c1.c
         VOLCTRL_vSendI2C   0x013a0c    program     extern C:\firmware\70M_L_upconverter_SXY\70M_1223\work\Singcom\Devices\DownConverter_c1.c
                 s_digits   0x013a0e    program     static C:\Program Files\mcc18\src\traditional\stdclib\vfprintf.c
                    CGRAM   0x013a1f    program     extern C:\firmware\70M_L_upconverter_SXY\70M_1223\work\Singcom\Drivers\oled_c1.c
            __zero_memory   0x013a30    program     extern C:\MCC18\src\traditional\proc\p18F97J60.asm
               clear_loop   0x013a36    program     static C:\MCC18\src\traditional\proc\p18F97J60.asm
     SerializedMACAddress   0x013a3e    program     static C:\firmware\70M_L_upconverter_SXY\70M_1223\work\Bootstrap\Initialization.c
                 CloseADC   0x013a44    program     extern C:\MCC18\src\pmc_common\ADC\adcclose.c
               _user_putc   0x013a4a    program     extern C:\Program Files\mcc18\src\traditional\stdclib\_user_putc.c
                   __init   0x013a4c    program     extern C:\Program Files\mcc18\src\traditional\stdclib\__init.c
               __config_0   0x01fff8    program     static C:\firmware\70M_L_upconverter_SXY\70M_1223\work\Main\Main.c
               __config_1   0x01fffa    program     static C:\firmware\70M_L_upconverter_SXY\70M_1223\work\Main\Main.c
               __config_2   0x01fffd    program     static C:\firmware\70M_L_upconverter_SXY\70M_1223\work\Main\Main.c
                  __tmp_0   0x000000       data     static C:\firmware\70M_L_upconverter_SXY\70M_1223\work\Microchip\TCPIP Stack\ETH97J60.c
                  __tmp_0   0x000000       data     static C:\firmware\70M_L_upconverter_SXY\70M_1223\work\Microchip\TCPIP Stack\IP.c
                  __tmp_0   0x000000       data     static C:\firmware\70M_L_upconverter_SXY\70M_1223\work\Microchip\TCPIP Stack\ARP.c
                  __tmp_0   0x000000       data     static C:\firmware\70M_L_upconverter_SXY\70M_1223\work\Microchip\TCPIP Stack\TCP.c
                  __tmp_0   0x000000       data     static C:\firmware\70M_L_upconverter_SXY\70M_1223\work\Microchip\TCPIP Stack\StackTsk.c
                  __tmp_0   0x000000       data     static C:\firmware\70M_L_upconverter_SXY\70M_1223\work\Bootstrap\Initialization.c
                  __tmp_0   0x000000       data     static C:\firmware\70M_L_upconverter_SXY\70M_1223\work\Singcom\Drivers\lcd.c
                  __tmp_0   0x000000       data     static C:\firmware\70M_L_upconverter_SXY\70M_1223\work\Singcom\Drivers\oled_c1.c
                  __tmp_0   0x000000       data     static C:\firmware\70M_L_upconverter_SXY\70M_1223\work\Singcom\Drivers\i2c_c1.c
                  __tmp_0   0x000000       data     static C:\firmware\70M_L_upconverter_SXY\70M_1223\work\Microchip\TCPIP Stack\Helpers.c
                  __tmp_0   0x000000       data     static C:\firmware\70M_L_upconverter_SXY\70M_1223\work\Main\Main.c
                  __tmp_0   0x000000       data     static C:\firmware\70M_L_upconverter_SXY\70M_1223\work\Microchip\TCPIP Stack\HTTP2.c
                  __tmp_0   0x000000       data     static C:\firmware\70M_L_upconverter_SXY\70M_1223\work\App\WebUI\HTTPPrint.c
                  __tmp_0   0x000000       data     static C:\firmware\70M_L_upconverter_SXY\70M_1223\work\App\WebUI\HTTPGetDevInfo.c
                  __tmp_0   0x000000       data     static C:\firmware\70M_L_upconverter_SXY\70M_1223\work\Singcom\Devices\UpConverter_c1.c
                  __tmp_0   0x000000       data     static C:\firmware\70M_L_upconverter_SXY\70M_1223\work\Singcom\Devices\MainControl_c1.c
                  __tmp_0   0x000000       data     static C:\MCC18\src\pmc_common\ADC\adcopen.c
                  __tmp_0   0x000000       data     static C:\Program Files\mcc18\src\traditional\stdclib\sprintf.c
                  __tmp_0   0x000000       data     static C:\Program Files\mcc18\src\traditional\stdclib\vfprintf.c
                  __tmp_0   0x000000       data     static C:\Program Files\mcc18\src\traditional\stdclib\putc.c
                  __tmp_0   0x000000       data     static C:\firmware\70M_L_upconverter_SXY\70M_1223\work\Drivers\MCU-Internal\devspi.c
                  __tmp_0   0x000000       data     static C:\firmware\70M_L_upconverter_SXY\70M_1223\work\Drivers\External-Peripherals\devadc.c
                  __tmp_0   0x000000       data     static C:\firmware\70M_L_upconverter_SXY\70M_1223\work\Drivers\MCU-Internal\internalADC.c
                  __tmp_0   0x000000       data     static C:\firmware\70M_L_upconverter_SXY\70M_1223\work\Microchip\TCPIP Stack\SPIEEPROM.c
                  __tmp_0   0x000000       data     static C:\firmware\70M_L_upconverter_SXY\70M_1223\work\Microchip\TCPIP Stack\ICMP.c
                  __tmp_0   0x000000       data     static C:\firmware\70M_L_upconverter_SXY\70M_1223\work\Microchip\TCPIP Stack\MPFS2.c
                  __tmp_0   0x000000       data     static C:\firmware\70M_L_upconverter_SXY\70M_1223\work\SysLib\util.c
                  __tmp_0   0x000000       data     static C:\firmware\70M_L_upconverter_SXY\70M_1223\work\App\WebUI\HTTPApp.c
                     SIGN   0x000018       data     extern C:\Program Files\mcc18\src\traditional\math\cmath18.asm
            __FPFLAGSbits   0x000019       data     extern C:\Program Files\mcc18\src\traditional\math\cmath18.asm
                __FPFLAGS   0x000019       data     extern C:\Program Files\mcc18\src\traditional\math\cmath18.asm
                 __AARGB7   0x00001a       data     extern C:\Program Files\mcc18\src\traditional\math\aarg.asm
                  __REMB3   0x00001a       data     extern C:\Program Files\mcc18\src\traditional\math\aarg.asm
                  __REMB2   0x00001b       data     extern C:\Program Files\mcc18\src\traditional\math\aarg.asm
                 __AARGB6   0x00001b       data     extern C:\Program Files\mcc18\src\traditional\math\aarg.asm
                 __AARGB5   0x00001c       data     extern C:\Program Files\mcc18\src\traditional\math\aarg.asm
                  __REMB1   0x00001c       data     extern C:\Program Files\mcc18\src\traditional\math\aarg.asm
                  __REMB0   0x00001d       data     extern C:\Program Files\mcc18\src\traditional\math\aarg.asm
                 __AARGB4   0x00001d       data     extern C:\Program Files\mcc18\src\traditional\math\aarg.asm
                 __AARGB3   0x00001e       data     extern C:\Program Files\mcc18\src\traditional\math\aarg.asm
                 __AARGB2   0x00001f       data     extern C:\Program Files\mcc18\src\traditional\math\aarg.asm
                 __AARGB1   0x000020       data     extern C:\Program Files\mcc18\src\traditional\math\aarg.asm
                 __AARGB0   0x000021       data     extern C:\Program Files\mcc18\src\traditional\math\aarg.asm
                   __AEXP   0x000022       data     extern C:\Program Files\mcc18\src\traditional\math\aarg.asm
                 __BARGB3   0x000023       data     extern C:\Program Files\mcc18\src\traditional\math\barg.asm
                 __BARGB2   0x000024       data     extern C:\Program Files\mcc18\src\traditional\math\barg.asm
                 __BARGB1   0x000025       data     extern C:\Program Files\mcc18\src\traditional\math\barg.asm
                 __BARGB0   0x000026       data     extern C:\Program Files\mcc18\src\traditional\math\barg.asm
                   __BEXP   0x000027       data     extern C:\Program Files\mcc18\src\traditional\math\barg.asm
                 __TEMPB3   0x000028       data     extern C:\Program Files\mcc18\src\traditional\math\temparg.asm
                 __TEMPB2   0x000029       data     extern C:\Program Files\mcc18\src\traditional\math\temparg.asm
                 __TEMPB1   0x00002a       data     extern C:\Program Files\mcc18\src\traditional\math\temparg.asm
                 __TEMPB0   0x00002b       data     extern C:\Program Files\mcc18\src\traditional\math\temparg.asm
                   __TEMP   0x00002b       data     extern C:\Program Files\mcc18\src\traditional\math\temparg.asm
            DelayCounter1   0x00002c       data     extern C:\Program Files\mcc18\src\traditional\delays\delayd1.asm
                  curHTTP   0x000060       data     extern C:\firmware\70M_L_upconverter_SXY\70M_1223\work\Microchip\TCPIP Stack\HTTP2.c
                httpStubs   0x0000df       data     extern C:\firmware\70M_L_upconverter_SXY\70M_1223\work\Microchip\TCPIP Stack\HTTP2.c
                curHTTPID   0x0000e3       data     extern C:\firmware\70M_L_upconverter_SXY\70M_1223\work\Microchip\TCPIP Stack\HTTP2.c
         global_char_temp   0x0000e4       data     extern C:\firmware\70M_L_upconverter_SXY\70M_1223\work\App\WebUI\HTTPPrint.c
              webpassinfo   0x0000f3       data     extern C:\firmware\70M_L_upconverter_SXY\70M_1223\work\App\WebUI\HTTPApp.c
                 TCBStubs   0x000100       data     static C:\firmware\70M_L_upconverter_SXY\70M_1223\work\Microchip\TCPIP Stack\TCP.c
              stConverter   0x0001a8       data     extern C:\firmware\70M_L_upconverter_SXY\70M_1223\work\Main\Main.c
           MyStaticIPAddr   0x0001f0       data     extern C:\firmware\70M_L_upconverter_SXY\70M_1223\work\Main\Main.c
                   ostart   0x0001f4       data     extern C:\firmware\70M_L_upconverter_SXY\70M_1223\work\Main\Main.c
                     oend   0x0001f5       data     extern C:\firmware\70M_L_upconverter_SXY\70M_1223\work\Main\Main.c
                    ctemp   0x0001f6       data     extern C:\firmware\70M_L_upconverter_SXY\70M_1223\work\Main\Main.c
                    Read2   0x0001f7       data     extern C:\firmware\70M_L_upconverter_SXY\70M_1223\work\Main\Main.c
              IPHeaderLen   0x0001ff       data     static C:\firmware\70M_L_upconverter_SXY\70M_1223\work\Microchip\TCPIP Stack\IP.c
           LCDPrintBuffer   0x000200       data     extern C:\firmware\70M_L_upconverter_SXY\70M_1223\work\Singcom\Drivers\lcd.c
                 NextPort   0x000250       data     static C:\firmware\70M_L_upconverter_SXY\70M_1223\work\Microchip\TCPIP Stack\TCP.c
                    MyTCB   0x000252       data     static C:\firmware\70M_L_upconverter_SXY\70M_1223\work\Microchip\TCPIP Stack\TCP.c
                MyTCBStub   0x000277       data     static C:\firmware\70M_L_upconverter_SXY\70M_1223\work\Microchip\TCPIP Stack\TCP.c
               RemoteInfo   0x000293       data     static C:\firmware\70M_L_upconverter_SXY\70M_1223\work\Microchip\TCPIP Stack\TCP.c
              systeminfo2   0x00029f       data     extern C:\firmware\70M_L_upconverter_SXY\70M_1223\work\Main\Main.c
                 ADCInfo1   0x0002df       data     extern C:\firmware\70M_L_upconverter_SXY\70M_1223\work\Drivers\MCU-Internal\internalADC.c
               ADC_result   0x0002e7       data     extern C:\firmware\70M_L_upconverter_SXY\70M_1223\work\Drivers\MCU-Internal\internalADC.c
                     prom   0x0002e9       data     static C:\Program Files\mcc18\src\traditional\startup\c018iz.c
                curr_byte   0x0002ec       data     static C:\Program Files\mcc18\src\traditional\startup\c018iz.c
               curr_entry   0x0002ee       data     static C:\Program Files\mcc18\src\traditional\startup\c018iz.c
                 data_ptr   0x0002f0       data     static C:\Program Files\mcc18\src\traditional\startup\c018iz.c
                RXHeadPtr   0x0002f3       data     static C:\firmware\70M_L_upconverter_SXY\70M_1223\work\Microchip\TCPIP Stack\UART2TCPBridge.c
                RXTailPtr   0x0002f5       data     static C:\firmware\70M_L_upconverter_SXY\70M_1223\work\Microchip\TCPIP Stack\UART2TCPBridge.c
                TXHeadPtr   0x0002f7       data     static C:\firmware\70M_L_upconverter_SXY\70M_1223\work\Microchip\TCPIP Stack\UART2TCPBridge.c
                TXTailPtr   0x0002f9       data     static C:\firmware\70M_L_upconverter_SXY\70M_1223\work\Microchip\TCPIP Stack\UART2TCPBridge.c
                    myRef   0x0002fb       data     extern C:\firmware\70M_L_upconverter_SXY\70M_1223\work\App\SNMP\SNMPLLiBUCDevInfo.c
                  TEMP_IP   0x0002fc       data     extern C:\firmware\70M_L_upconverter_SXY\70M_1223\work\App\SNMP\SNMPLLiBUCDevInfo.c
              systeminfo1   0x000300       data     extern C:\firmware\70M_L_upconverter_SXY\70M_1223\work\Main\Main.c
                 SYNQueue   0x000340       data     static C:\firmware\70M_L_upconverter_SXY\70M_1223\work\Microchip\TCPIP Stack\TCP.c
                     oldp   0x00037c       data     extern C:\firmware\70M_L_upconverter_SXY\70M_1223\work\App\WebUI\HTTPGetDevInfo.c
                     newp   0x000386       data     extern C:\firmware\70M_L_upconverter_SXY\70M_1223\work\App\WebUI\HTTPGetDevInfo.c
                      rep   0x000390       data     extern C:\firmware\70M_L_upconverter_SXY\70M_1223\work\App\WebUI\HTTPGetDevInfo.c
              RdI2CBuffer   0x00039a       data     extern C:\firmware\70M_L_upconverter_SXY\70M_1223\work\App\WebUI\HTTPGetDevInfo.c
                AppConfig   0x0003b8       data     extern C:\firmware\70M_L_upconverter_SXY\70M_1223\work\Main\Main.c
                    Cache   0x0003eb       data     static C:\firmware\70M_L_upconverter_SXY\70M_1223\work\Microchip\TCPIP Stack\ARP.c
                   Target   0x0003f5       data     static C:\firmware\70M_L_upconverter_SXY\70M_1223\work\Microchip\TCPIP Stack\ARP.c
            Timer2Counter   0x0003ff       data     extern C:\firmware\70M_L_upconverter_SXY\70M_1223\work\Drivers\MCU-Internal\ISR.c
            EEPROMAddress   0x000400       data     static C:\firmware\70M_L_upconverter_SXY\70M_1223\work\Microchip\TCPIP Stack\SPIEEPROM.c
             EEPROMBuffer   0x000404       data     static C:\firmware\70M_L_upconverter_SXY\70M_1223\work\Microchip\TCPIP Stack\SPIEEPROM.c
           vBytesInBuffer   0x000424       data     static C:\firmware\70M_L_upconverter_SXY\70M_1223\work\Microchip\TCPIP Stack\SPIEEPROM.c
               stI2CUCMsg   0x000425       data     extern C:\firmware\70M_L_upconverter_SXY\70M_1223\work\Singcom\Devices\DownConverter_c1.c
               stI2CDCMsg   0x000431       data     extern C:\firmware\70M_L_upconverter_SXY\70M_1223\work\Singcom\Devices\DownConverter_c1.c
              stI2CREFMsg   0x00043d       data     extern C:\firmware\70M_L_upconverter_SXY\70M_1223\work\Singcom\Devices\DownConverter_c1.c
       NextPacketLocation   0x000447       data     static C:\firmware\70M_L_upconverter_SXY\70M_1223\work\Microchip\TCPIP Stack\ETH97J60.c
    CurrentPacketLocation   0x000449       data     static C:\firmware\70M_L_upconverter_SXY\70M_1223\work\Microchip\TCPIP Stack\ETH97J60.c
             WasDiscarded   0x00044b       data     static C:\firmware\70M_L_upconverter_SXY\70M_1223\work\Microchip\TCPIP Stack\ETH97J60.c
              wTXWatchdog   0x00044c       data     static C:\firmware\70M_L_upconverter_SXY\70M_1223\work\Microchip\TCPIP Stack\ETH97J60.c
             vTickReading   0x00044e       data     static C:\firmware\70M_L_upconverter_SXY\70M_1223\work\Microchip\TCPIP Stack\Tick.c
                 toRotate   0x000454       data     extern C:\firmware\70M_L_upconverter_SXY\70M_1223\work\Microchip\TCPIP Stack\Helpers.c
                 dwLastIP   0x000458       data     extern C:\firmware\70M_L_upconverter_SXY\70M_1223\work\SysLib\util.c
          dwInternalTicks   0x00045c       data     static C:\firmware\70M_L_upconverter_SXY\70M_1223\work\Microchip\TCPIP Stack\Tick.c
                     Seed   0x000460       data     static C:\Program Files\mcc18\src\traditional\stdclib\rand.asm
        LCDBufferPosition   0x000462       data     extern C:\firmware\70M_L_upconverter\70M_Test\work\Main\Global.c
              hCurrentTCP   0x000464       data     static C:\firmware\70M_L_upconverter_SXY\70M_1223\work\Microchip\TCPIP Stack\TCP.c
                 hLastTCB   0x000465       data     static C:\firmware\70M_L_upconverter_SXY\70M_1223\work\Microchip\TCPIP Stack\TCP.c
              _Identifier   0x000466       data     static C:\firmware\70M_L_upconverter_SXY\70M_1223\work\Microchip\TCPIP Stack\IP.c
          I2CSlaveAddress   0x000468       data     extern C:\firmware\70M_L_upconverter_SXY\70M_1223\work\App\WebUI\HTTPGetDevInfo.c
      WebpageWriteI2CFlag   0x000469       data     extern C:\firmware\70M_L_upconverter_SXY\70M_1223\work\App\WebUI\HTTPGetDevInfo.c
              lastSuccess   0x00046a       data     extern C:\firmware\70M_L_upconverter_SXY\70M_1223\work\App\WebUI\HTTPApp.c
              lastFailure   0x00046b       data     extern C:\firmware\70M_L_upconverter_SXY\70M_1223\work\App\WebUI\HTTPApp.c
              CurrentMenu   0x000800       data     static C:\firmware\70M_L_upconverter_SXY\70M_1223\work\Singcom\Drivers\lcd.c
                 LastMenu   0x000801       data     static C:\firmware\70M_L_upconverter_SXY\70M_1223\work\Singcom\Drivers\lcd.c
             LeftMostMenu   0x000802       data     static C:\firmware\70M_L_upconverter_SXY\70M_1223\work\Singcom\Drivers\lcd.c
                 EditMode   0x000803       data     extern C:\firmware\70M_L_upconverter_SXY\70M_1223\work\Singcom\Drivers\lcd.c
             EditPosition   0x000804       data     extern C:\firmware\70M_L_upconverter_SXY\70M_1223\work\Singcom\Drivers\lcd.c
                    zeros   0x000805       data     extern C:\firmware\70M_L_upconverter_SXY\70M_1223\work\Singcom\Drivers\lcd.c
           LCDRefreshFlag   0x000810       data     extern C:\firmware\70M_L_upconverter_SXY\70M_1223\work\Singcom\Drivers\lcd.c
       LCDDigitUpdateFlag   0x000811       data     extern C:\firmware\70M_L_upconverter_SXY\70M_1223\work\Singcom\Drivers\lcd.c
                MenuValue   0x000812       data     extern C:\firmware\70M_L_upconverter_SXY\70M_1223\work\Singcom\Drivers\lcd.c
             BlinkingFlag   0x00092a       data     static C:\firmware\70M_L_upconverter_SXY\70M_1223\work\Singcom\Drivers\lcd.c
            tiDisplay_tmr   0x00092b       data     static C:\firmware\70M_L_upconverter_SXY\70M_1223\work\Singcom\Drivers\lcd.c
          LOStatusString1   0x00092f       data     extern C:\firmware\70M_L_upconverter\70M_Test\work\Main\Global.c
          LOStatusString2   0x000938       data     extern C:\firmware\70M_L_upconverter\70M_Test\work\Main\Global.c
            RFFreqString1   0x000941       data     extern C:\firmware\70M_L_upconverter\70M_Test\work\Main\Global.c
            RFFreqString2   0x00094d       data     extern C:\firmware\70M_L_upconverter\70M_Test\work\Main\Global.c
             AttenString1   0x000959       data     extern C:\firmware\70M_L_upconverter\70M_Test\work\Main\Global.c
             AttenString2   0x000961       data     extern C:\firmware\70M_L_upconverter\70M_Test\work\Main\Global.c
                 IPString   0x000969       data     extern C:\firmware\70M_L_upconverter\70M_Test\work\Main\Global.c
                 MNString   0x000979       data     extern C:\firmware\70M_L_upconverter\70M_Test\work\Main\Global.c
                 SNString   0x00098b       data     extern C:\firmware\70M_L_upconverter\70M_Test\work\Main\Global.c
                   s18VDC   0x000994       data     extern C:\firmware\70M_L_upconverter\70M_Test\work\Main\Global.c
                   s24VDC   0x000998       data     extern C:\firmware\70M_L_upconverter\70M_Test\work\Main\Global.c
                  sLNBREF   0x00099c       data     extern C:\firmware\70M_L_upconverter\70M_Test\work\Main\Global.c
                  sBUCREF   0x0009a0       data     extern C:\firmware\70M_L_upconverter\70M_Test\work\Main\Global.c
                 sUCPower   0x0009a4       data     extern C:\firmware\70M_L_upconverter\70M_Test\work\Main\Global.c
                 sDCPower   0x0009ae       data     extern C:\firmware\70M_L_upconverter\70M_Test\work\Main\Global.c
               sUPC_StPwr   0x0009b8       data     extern C:\firmware\70M_L_upconverter\70M_Test\work\Main\Global.c
               sDNC_StPwr   0x0009c2       data     extern C:\firmware\70M_L_upconverter\70M_Test\work\Main\Global.c
                    sALCa   0x0009cc       data     extern C:\firmware\70M_L_upconverter\70M_Test\work\Main\Global.c
                    sALCb   0x0009d0       data     extern C:\firmware\70M_L_upconverter\70M_Test\work\Main\Global.c
                   sMutea   0x0009d4       data     extern C:\firmware\70M_L_upconverter\70M_Test\work\Main\Global.c
                   sMuteb   0x0009dd       data     extern C:\firmware\70M_L_upconverter\70M_Test\work\Main\Global.c
           KeyPressedFlag   0x0009e6       data     extern C:\firmware\70M_L_upconverter\70M_Test\work\Main\Global.c
               PressedKey   0x0009e7       data     extern C:\firmware\70M_L_upconverter\70M_Test\work\Main\Global.c
          FirmwareVersion   0x0009e8       data     extern C:\firmware\70M_L_upconverter_SXY\70M_1223\work\Main\Main.c
            SecondCounter   0x0009ec       data     extern C:\firmware\70M_L_upconverter_SXY\70M_1223\work\Main\Main.c
            MinuteCounter   0x0009ed       data     extern C:\firmware\70M_L_upconverter_SXY\70M_1223\work\Main\Main.c
              HardwareWDT   0x0009ee       data     extern C:\firmware\70M_L_upconverter_SXY\70M_1223\work\Main\Main.c
              webPass_tmr   0x0009ef       data     static C:\firmware\70M_L_upconverter_SXY\70M_1223\work\Main\Main.c
                lcd_timer   0x0009f3       data     static C:\firmware\70M_L_upconverter_SXY\70M_1223\work\Main\Main.c
               keypad_tmr   0x0009f7       data     static C:\firmware\70M_L_upconverter_SXY\70M_1223\work\Main\Main.c
               Manager_IP   0x0009fb       data     extern C:\firmware\70M_L_upconverter_SXY\70M_1223\work\Bootstrap\Initialization.c
                    smARP   0x0009ff       data     static C:\firmware\70M_L_upconverter_SXY\70M_1223\work\Microchip\TCPIP Stack\ARP.c
                MPFSStubs   0x000e00       data     static C:\firmware\70M_L_upconverter_SXY\70M_1223\work\Microchip\TCPIP Stack\MPFS2.c
             isMPFSLocked   0x000e50       data     static C:\firmware\70M_L_upconverter_SXY\70M_1223\work\Microchip\TCPIP Stack\MPFS2.c
                 fatCache   0x000e51       data     static C:\firmware\70M_L_upconverter_SXY\70M_1223\work\Microchip\TCPIP Stack\MPFS2.c
               fatCacheID   0x000e67       data     static C:\firmware\70M_L_upconverter_SXY\70M_1223\work\Microchip\TCPIP Stack\MPFS2.c
                 numFiles   0x000e69       data     static C:\firmware\70M_L_upconverter_SXY\70M_1223\work\Microchip\TCPIP Stack\MPFS2.c
                 lastRead   0x000e6b       data     extern C:\firmware\70M_L_upconverter_SXY\70M_1223\work\Microchip\TCPIP Stack\MPFS2.c
         I2CReceiveBuffer   0x000e6f       data     extern C:\firmware\70M_L_upconverter_SXY\70M_1223\work\Singcom\Drivers\i2c_c1.c
                   MAADR5   0x000e80       data     extern C:\MCC18\src\traditional\proc\p18F97J60.asm
                   MAADR6   0x000e81       data     extern C:\MCC18\src\traditional\proc\p18F97J60.asm
                   MAADR3   0x000e82       data     extern C:\MCC18\src\traditional\proc\p18F97J60.asm
                   MAADR4   0x000e83       data     extern C:\MCC18\src\traditional\proc\p18F97J60.asm
                   MAADR1   0x000e84       data     extern C:\MCC18\src\traditional\proc\p18F97J60.asm
                   MAADR2   0x000e85       data     extern C:\MCC18\src\traditional\proc\p18F97J60.asm
                   MISTAT   0x000e8a       data     extern C:\MCC18\src\traditional\proc\p18F97J60.asm
               MISTATbits   0x000e8a       data     extern C:\MCC18\src\traditional\proc\p18F97J60.asm
                  EFLOCON   0x000e97       data     extern C:\MCC18\src\traditional\proc\p18F97J60.asm
              EFLOCONbits   0x000e97       data     extern C:\MCC18\src\traditional\proc\p18F97J60.asm
                   EPAUSL   0x000e98       data     extern C:\MCC18\src\traditional\proc\p18F97J60.asm
                    EPAUS   0x000e98       data     extern C:\MCC18\src\traditional\proc\p18F97J60.asm
                   EPAUSH   0x000e99       data     extern C:\MCC18\src\traditional\proc\p18F97J60.asm
                   MACON1   0x000ea0       data     extern C:\MCC18\src\traditional\proc\p18F97J60.asm
               MACON1bits   0x000ea0       data     extern C:\MCC18\src\traditional\proc\p18F97J60.asm
                   MACON3   0x000ea2       data     extern C:\MCC18\src\traditional\proc\p18F97J60.asm
               MACON3bits   0x000ea2       data     extern C:\MCC18\src\traditional\proc\p18F97J60.asm
                   MACON4   0x000ea3       data     extern C:\MCC18\src\traditional\proc\p18F97J60.asm
               MACON4bits   0x000ea3       data     extern C:\MCC18\src\traditional\proc\p18F97J60.asm
                  MABBIPG   0x000ea4       data     extern C:\MCC18\src\traditional\proc\p18F97J60.asm
                    MAIPG   0x000ea6       data     extern C:\MCC18\src\traditional\proc\p18F97J60.asm
                   MAIPGL   0x000ea6       data     extern C:\MCC18\src\traditional\proc\p18F97J60.asm
                   MAIPGH   0x000ea7       data     extern C:\MCC18\src\traditional\proc\p18F97J60.asm
                  MAMXFLL   0x000eaa       data     extern C:\MCC18\src\traditional\proc\p18F97J60.asm
                   MAMXFL   0x000eaa       data     extern C:\MCC18\src\traditional\proc\p18F97J60.asm
                  MAMXFLH   0x000eab       data     extern C:\MCC18\src\traditional\proc\p18F97J60.asm
                    MICMD   0x000eb2       data     extern C:\MCC18\src\traditional\proc\p18F97J60.asm
                MICMDbits   0x000eb2       data     extern C:\MCC18\src\traditional\proc\p18F97J60.asm
                 MIREGADR   0x000eb4       data     extern C:\MCC18\src\traditional\proc\p18F97J60.asm
                    MIWRL   0x000eb6       data     extern C:\MCC18\src\traditional\proc\p18F97J60.asm
                     MIWR   0x000eb6       data     extern C:\MCC18\src\traditional\proc\p18F97J60.asm
                    MIWRH   0x000eb7       data     extern C:\MCC18\src\traditional\proc\p18F97J60.asm
                     MIRD   0x000eb8       data     extern C:\MCC18\src\traditional\proc\p18F97J60.asm
                    MIRDL   0x000eb8       data     extern C:\MCC18\src\traditional\proc\p18F97J60.asm
                    MIRDH   0x000eb9       data     extern C:\MCC18\src\traditional\proc\p18F97J60.asm
                     EHT0   0x000ec0       data     extern C:\MCC18\src\traditional\proc\p18F97J60.asm
                     EHT1   0x000ec1       data     extern C:\MCC18\src\traditional\proc\p18F97J60.asm
                     EHT2   0x000ec2       data     extern C:\MCC18\src\traditional\proc\p18F97J60.asm
                     EHT3   0x000ec3       data     extern C:\MCC18\src\traditional\proc\p18F97J60.asm
                     EHT4   0x000ec4       data     extern C:\MCC18\src\traditional\proc\p18F97J60.asm
                     EHT5   0x000ec5       data     extern C:\MCC18\src\traditional\proc\p18F97J60.asm
                     EHT6   0x000ec6       data     extern C:\MCC18\src\traditional\proc\p18F97J60.asm
                     EHT7   0x000ec7       data     extern C:\MCC18\src\traditional\proc\p18F97J60.asm
                    EPMM0   0x000ec8       data     extern C:\MCC18\src\traditional\proc\p18F97J60.asm
                    EPMM1   0x000ec9       data     extern C:\MCC18\src\traditional\proc\p18F97J60.asm
                    EPMM2   0x000eca       data     extern C:\MCC18\src\traditional\proc\p18F97J60.asm
                    EPMM3   0x000ecb       data     extern C:\MCC18\src\traditional\proc\p18F97J60.asm
                    EPMM4   0x000ecc       data     extern C:\MCC18\src\traditional\proc\p18F97J60.asm
                    EPMM5   0x000ecd       data     extern C:\MCC18\src\traditional\proc\p18F97J60.asm
                    EPMM6   0x000ece       data     extern C:\MCC18\src\traditional\proc\p18F97J60.asm
                    EPMM7   0x000ecf       data     extern C:\MCC18\src\traditional\proc\p18F97J60.asm
                    EPMCS   0x000ed0       data     extern C:\MCC18\src\traditional\proc\p18F97J60.asm
                   EPMCSL   0x000ed0       data     extern C:\MCC18\src\traditional\proc\p18F97J60.asm
                   EPMCSH   0x000ed1       data     extern C:\MCC18\src\traditional\proc\p18F97J60.asm
                     EPMO   0x000ed4       data     extern C:\MCC18\src\traditional\proc\p18F97J60.asm
                    EPMOL   0x000ed4       data     extern C:\MCC18\src\traditional\proc\p18F97J60.asm
                    EPMOH   0x000ed5       data     extern C:\MCC18\src\traditional\proc\p18F97J60.asm
              ERXFCONbits   0x000ed8       data     extern C:\MCC18\src\traditional\proc\p18F97J60.asm
                  ERXFCON   0x000ed8       data     extern C:\MCC18\src\traditional\proc\p18F97J60.asm
                  EPKTCNT   0x000ed9       data     extern C:\MCC18\src\traditional\proc\p18F97J60.asm
                   EWRPTL   0x000ee2       data     extern C:\MCC18\src\traditional\proc\p18F97J60.asm
                    EWRPT   0x000ee2       data     extern C:\MCC18\src\traditional\proc\p18F97J60.asm
                   EWRPTH   0x000ee3       data     extern C:\MCC18\src\traditional\proc\p18F97J60.asm
                    ETXST   0x000ee4       data     extern C:\MCC18\src\traditional\proc\p18F97J60.asm
                   ETXSTL   0x000ee4       data     extern C:\MCC18\src\traditional\proc\p18F97J60.asm
                   ETXSTH   0x000ee5       data     extern C:\MCC18\src\traditional\proc\p18F97J60.asm
                    ETXND   0x000ee6       data     extern C:\MCC18\src\traditional\proc\p18F97J60.asm
                   ETXNDL   0x000ee6       data     extern C:\MCC18\src\traditional\proc\p18F97J60.asm
                   ETXNDH   0x000ee7       data     extern C:\MCC18\src\traditional\proc\p18F97J60.asm
                   ERXSTL   0x000ee8       data     extern C:\MCC18\src\traditional\proc\p18F97J60.asm
                    ERXST   0x000ee8       data     extern C:\MCC18\src\traditional\proc\p18F97J60.asm
                   ERXSTH   0x000ee9       data     extern C:\MCC18\src\traditional\proc\p18F97J60.asm
                   ERXNDL   0x000eea       data     extern C:\MCC18\src\traditional\proc\p18F97J60.asm
                    ERXND   0x000eea       data     extern C:\MCC18\src\traditional\proc\p18F97J60.asm
                   ERXNDH   0x000eeb       data     extern C:\MCC18\src\traditional\proc\p18F97J60.asm
                 ERXRDPTL   0x000eec       data     extern C:\MCC18\src\traditional\proc\p18F97J60.asm
                  ERXRDPT   0x000eec       data     extern C:\MCC18\src\traditional\proc\p18F97J60.asm
                 ERXRDPTH   0x000eed       data     extern C:\MCC18\src\traditional\proc\p18F97J60.asm
                 ERXWRPTL   0x000eee       data     extern C:\MCC18\src\traditional\proc\p18F97J60.asm
                  ERXWRPT   0x000eee       data     extern C:\MCC18\src\traditional\proc\p18F97J60.asm
                 ERXWRPTH   0x000eef       data     extern C:\MCC18\src\traditional\proc\p18F97J60.asm
                  EDMASTL   0x000ef0       data     extern C:\MCC18\src\traditional\proc\p18F97J60.asm
                   EDMAST   0x000ef0       data     extern C:\MCC18\src\traditional\proc\p18F97J60.asm
                  EDMASTH   0x000ef1       data     extern C:\MCC18\src\traditional\proc\p18F97J60.asm
                   EDMAND   0x000ef2       data     extern C:\MCC18\src\traditional\proc\p18F97J60.asm
                  EDMANDL   0x000ef2       data     extern C:\MCC18\src\traditional\proc\p18F97J60.asm
                  EDMANDH   0x000ef3       data     extern C:\MCC18\src\traditional\proc\p18F97J60.asm
                  EDMADST   0x000ef4       data     extern C:\MCC18\src\traditional\proc\p18F97J60.asm
                 EDMADSTL   0x000ef4       data     extern C:\MCC18\src\traditional\proc\p18F97J60.asm
                 EDMADSTH   0x000ef5       data     extern C:\MCC18\src\traditional\proc\p18F97J60.asm
                  EDMACSL   0x000ef6       data     extern C:\MCC18\src\traditional\proc\p18F97J60.asm
                   EDMACS   0x000ef6       data     extern C:\MCC18\src\traditional\proc\p18F97J60.asm
                  EDMACSH   0x000ef7       data     extern C:\MCC18\src\traditional\proc\p18F97J60.asm
                  EIEbits   0x000efb       data     extern C:\MCC18\src\traditional\proc\p18F97J60.asm
                      EIE   0x000efb       data     extern C:\MCC18\src\traditional\proc\p18F97J60.asm
                ESTATbits   0x000efd       data     extern C:\MCC18\src\traditional\proc\p18F97J60.asm
                    ESTAT   0x000efd       data     extern C:\MCC18\src\traditional\proc\p18F97J60.asm
                ECON2bits   0x000efe       data     extern C:\MCC18\src\traditional\proc\p18F97J60.asm
                    ECON2   0x000efe       data     extern C:\MCC18\src\traditional\proc\p18F97J60.asm
              vUARTRXFIFO   0x000f00       data     static C:\firmware\70M_L_upconverter_SXY\70M_1223\work\Microchip\TCPIP Stack\UART2TCPBridge.c
              vUARTTXFIFO   0x000f41       data     static C:\firmware\70M_L_upconverter_SXY\70M_1223\work\Microchip\TCPIP Stack\UART2TCPBridge.c
                  smStack   0x000f52       data     static C:\firmware\70M_L_upconverter_SXY\70M_1223\work\Microchip\TCPIP Stack\StackTsk.c
               remoteNode   0x000f53       data     extern C:\firmware\70M_L_upconverter_SXY\70M_1223\work\Microchip\TCPIP Stack\StackTsk.c
                        L   0x000f5d       data     extern C:\firmware\70M_L_upconverter_SXY\70M_1223\work\SysLib\util.c
                tempvalue   0x000f5e       data     extern C:\firmware\70M_L_upconverter_SXY\70M_1223\work\SysLib\util.c
                   hMPFS1   0x000f5f       data     extern C:\firmware\70M_L_upconverter_SXY\70M_1223\work\SysLib\util.c
                      EIR   0x000f60       data     extern C:\MCC18\src\traditional\proc\p18F97J60.asm
                  EIRbits   0x000f60       data     extern C:\MCC18\src\traditional\proc\p18F97J60.asm
                EDATAbits   0x000f61       data     extern C:\MCC18\src\traditional\proc\p18F97J60.asm
                    EDATA   0x000f61       data     extern C:\MCC18\src\traditional\proc\p18F97J60.asm
                 SSP2CON2   0x000f62       data     extern C:\MCC18\src\traditional\proc\p18F97J60.asm
             SSP2CON2bits   0x000f62       data     extern C:\MCC18\src\traditional\proc\p18F97J60.asm
                 SSP2CON1   0x000f63       data     extern C:\MCC18\src\traditional\proc\p18F97J60.asm
             SSP2CON1bits   0x000f63       data     extern C:\MCC18\src\traditional\proc\p18F97J60.asm
                 SSP2STAT   0x000f64       data     extern C:\MCC18\src\traditional\proc\p18F97J60.asm
             SSP2STATbits   0x000f64       data     extern C:\MCC18\src\traditional\proc\p18F97J60.asm
                  SSP2ADD   0x000f65       data     extern C:\MCC18\src\traditional\proc\p18F97J60.asm
                  SSP2BUF   0x000f66       data     extern C:\MCC18\src\traditional\proc\p18F97J60.asm
                 ECCP2DEL   0x000f67       data     extern C:\MCC18\src\traditional\proc\p18F97J60.asm
             ECCP2DELbits   0x000f67       data     extern C:\MCC18\src\traditional\proc\p18F97J60.asm
              ECCP2ASbits   0x000f68       data     extern C:\MCC18\src\traditional\proc\p18F97J60.asm
                  ECCP2AS   0x000f68       data     extern C:\MCC18\src\traditional\proc\p18F97J60.asm
                 ECCP3DEL   0x000f69       data     extern C:\MCC18\src\traditional\proc\p18F97J60.asm
             ECCP3DELbits   0x000f69       data     extern C:\MCC18\src\traditional\proc\p18F97J60.asm
              ECCP3ASbits   0x000f6a       data     extern C:\MCC18\src\traditional\proc\p18F97J60.asm
                  ECCP3AS   0x000f6a       data     extern C:\MCC18\src\traditional\proc\p18F97J60.asm
               RCSTA2bits   0x000f6b       data     extern C:\MCC18\src\traditional\proc\p18F97J60.asm
                   RCSTA2   0x000f6b       data     extern C:\MCC18\src\traditional\proc\p18F97J60.asm
               TXSTA2bits   0x000f6c       data     extern C:\MCC18\src\traditional\proc\p18F97J60.asm
                   TXSTA2   0x000f6c       data     extern C:\MCC18\src\traditional\proc\p18F97J60.asm
                   TXREG2   0x000f6d       data     extern C:\MCC18\src\traditional\proc\p18F97J60.asm
                   RCREG2   0x000f6e       data     extern C:\MCC18\src\traditional\proc\p18F97J60.asm
                   SPBRG2   0x000f6f       data     extern C:\MCC18\src\traditional\proc\p18F97J60.asm
              CCP5CONbits   0x000f70       data     extern C:\MCC18\src\traditional\proc\p18F97J60.asm
                  CCP5CON   0x000f70       data     extern C:\MCC18\src\traditional\proc\p18F97J60.asm
                   CCPR5L   0x000f71       data     extern C:\MCC18\src\traditional\proc\p18F97J60.asm
                    CCPR5   0x000f71       data     extern C:\MCC18\src\traditional\proc\p18F97J60.asm
                   CCPR5H   0x000f72       data     extern C:\MCC18\src\traditional\proc\p18F97J60.asm
              CCP4CONbits   0x000f73       data     extern C:\MCC18\src\traditional\proc\p18F97J60.asm
                  CCP4CON   0x000f73       data     extern C:\MCC18\src\traditional\proc\p18F97J60.asm
                   CCPR4L   0x000f74       data     extern C:\MCC18\src\traditional\proc\p18F97J60.asm
                    CCPR4   0x000f74       data     extern C:\MCC18\src\traditional\proc\p18F97J60.asm
                   CCPR4H   0x000f75       data     extern C:\MCC18\src\traditional\proc\p18F97J60.asm
                T4CONbits   0x000f76       data     extern C:\MCC18\src\traditional\proc\p18F97J60.asm
                    T4CON   0x000f76       data     extern C:\MCC18\src\traditional\proc\p18F97J60.asm
                      PR4   0x000f77       data     extern C:\MCC18\src\traditional\proc\p18F97J60.asm
                     TMR4   0x000f78       data     extern C:\MCC18\src\traditional\proc\p18F97J60.asm
             ECCP1DELbits   0x000f79       data     extern C:\MCC18\src\traditional\proc\p18F97J60.asm
                 ECCP1DEL   0x000f79       data     extern C:\MCC18\src\traditional\proc\p18F97J60.asm
                   ERDPTL   0x000f7a       data     extern C:\MCC18\src\traditional\proc\p18F97J60.asm
                    ERDPT   0x000f7a       data     extern C:\MCC18\src\traditional\proc\p18F97J60.asm
                   ERDPTH   0x000f7b       data     extern C:\MCC18\src\traditional\proc\p18F97J60.asm
                 BAUDCTL2   0x000f7c       data     extern C:\MCC18\src\traditional\proc\p18F97J60.asm
             BAUDCTL2bits   0x000f7c       data     extern C:\MCC18\src\traditional\proc\p18F97J60.asm
                 BAUDCON2   0x000f7c       data     extern C:\MCC18\src\traditional\proc\p18F97J60.asm
             BAUDCON2bits   0x000f7c       data     extern C:\MCC18\src\traditional\proc\p18F97J60.asm
                  SPBRGH2   0x000f7d       data     extern C:\MCC18\src\traditional\proc\p18F97J60.asm
             BAUDCTL1bits   0x000f7e       data     extern C:\MCC18\src\traditional\proc\p18F97J60.asm
                 BAUDCTL1   0x000f7e       data     extern C:\MCC18\src\traditional\proc\p18F97J60.asm
                  BAUDCTL   0x000f7e       data     extern C:\MCC18\src\traditional\proc\p18F97J60.asm
              BAUDCONbits   0x000f7e       data     extern C:\MCC18\src\traditional\proc\p18F97J60.asm
             BAUDCON1bits   0x000f7e       data     extern C:\MCC18\src\traditional\proc\p18F97J60.asm
                 BAUDCON1   0x000f7e       data     extern C:\MCC18\src\traditional\proc\p18F97J60.asm
              BAUDCTLbits   0x000f7e       data     extern C:\MCC18\src\traditional\proc\p18F97J60.asm
                  BAUDCON   0x000f7e       data     extern C:\MCC18\src\traditional\proc\p18F97J60.asm
                  SPBRGH1   0x000f7f       data     extern C:\MCC18\src\traditional\proc\p18F97J60.asm
                   SPBRGH   0x000f7f       data     extern C:\MCC18\src\traditional\proc\p18F97J60.asm
                PORTAbits   0x000f80       data     extern C:\MCC18\src\traditional\proc\p18F97J60.asm
                    PORTA   0x000f80       data     extern C:\MCC18\src\traditional\proc\p18F97J60.asm
                PORTBbits   0x000f81       data     extern C:\MCC18\src\traditional\proc\p18F97J60.asm
                    PORTB   0x000f81       data     extern C:\MCC18\src\traditional\proc\p18F97J60.asm
                PORTCbits   0x000f82       data     extern C:\MCC18\src\traditional\proc\p18F97J60.asm
                    PORTC   0x000f82       data     extern C:\MCC18\src\traditional\proc\p18F97J60.asm
                    PORTD   0x000f83       data     extern C:\MCC18\src\traditional\proc\p18F97J60.asm
                PORTDbits   0x000f83       data     extern C:\MCC18\src\traditional\proc\p18F97J60.asm
                    PORTE   0x000f84       data     extern C:\MCC18\src\traditional\proc\p18F97J60.asm
                PORTEbits   0x000f84       data     extern C:\MCC18\src\traditional\proc\p18F97J60.asm
                    PORTF   0x000f85       data     extern C:\MCC18\src\traditional\proc\p18F97J60.asm
                PORTFbits   0x000f85       data     extern C:\MCC18\src\traditional\proc\p18F97J60.asm
                PORTGbits   0x000f86       data     extern C:\MCC18\src\traditional\proc\p18F97J60.asm
                    PORTG   0x000f86       data     extern C:\MCC18\src\traditional\proc\p18F97J60.asm
                PORTHbits   0x000f87       data     extern C:\MCC18\src\traditional\proc\p18F97J60.asm
                    PORTH   0x000f87       data     extern C:\MCC18\src\traditional\proc\p18F97J60.asm
                PORTJbits   0x000f88       data     extern C:\MCC18\src\traditional\proc\p18F97J60.asm
                    PORTJ   0x000f88       data     extern C:\MCC18\src\traditional\proc\p18F97J60.asm
                     LATA   0x000f89       data     extern C:\MCC18\src\traditional\proc\p18F97J60.asm
                 LATAbits   0x000f89       data     extern C:\MCC18\src\traditional\proc\p18F97J60.asm
                 LATBbits   0x000f8a       data     extern C:\MCC18\src\traditional\proc\p18F97J60.asm
                     LATB   0x000f8a       data     extern C:\MCC18\src\traditional\proc\p18F97J60.asm
                 LATCbits   0x000f8b       data     extern C:\MCC18\src\traditional\proc\p18F97J60.asm
                     LATC   0x000f8b       data     extern C:\MCC18\src\traditional\proc\p18F97J60.asm
                     LATD   0x000f8c       data     extern C:\MCC18\src\traditional\proc\p18F97J60.asm
                 LATDbits   0x000f8c       data     extern C:\MCC18\src\traditional\proc\p18F97J60.asm
                 LATEbits   0x000f8d       data     extern C:\MCC18\src\traditional\proc\p18F97J60.asm
                     LATE   0x000f8d       data     extern C:\MCC18\src\traditional\proc\p18F97J60.asm
                     LATF   0x000f8e       data     extern C:\MCC18\src\traditional\proc\p18F97J60.asm
                 LATFbits   0x000f8e       data     extern C:\MCC18\src\traditional\proc\p18F97J60.asm
                     LATG   0x000f8f       data     extern C:\MCC18\src\traditional\proc\p18F97J60.asm
                 LATGbits   0x000f8f       data     extern C:\MCC18\src\traditional\proc\p18F97J60.asm
                     LATH   0x000f90       data     extern C:\MCC18\src\traditional\proc\p18F97J60.asm
                 LATHbits   0x000f90       data     extern C:\MCC18\src\traditional\proc\p18F97J60.asm
                     LATJ   0x000f91       data     extern C:\MCC18\src\traditional\proc\p18F97J60.asm
                 LATJbits   0x000f91       data     extern C:\MCC18\src\traditional\proc\p18F97J60.asm
                TRISAbits   0x000f92       data     extern C:\MCC18\src\traditional\proc\p18F97J60.asm
                    TRISA   0x000f92       data     extern C:\MCC18\src\traditional\proc\p18F97J60.asm
                     DDRA   0x000f92       data     extern C:\MCC18\src\traditional\proc\p18F97J60.asm
                 DDRAbits   0x000f92       data     extern C:\MCC18\src\traditional\proc\p18F97J60.asm
                TRISBbits   0x000f93       data     extern C:\MCC18\src\traditional\proc\p18F97J60.asm
                    TRISB   0x000f93       data     extern C:\MCC18\src\traditional\proc\p18F97J60.asm
                     DDRB   0x000f93       data     extern C:\MCC18\src\traditional\proc\p18F97J60.asm
                 DDRBbits   0x000f93       data     extern C:\MCC18\src\traditional\proc\p18F97J60.asm
                 DDRCbits   0x000f94       data     extern C:\MCC18\src\traditional\proc\p18F97J60.asm
                     DDRC   0x000f94       data     extern C:\MCC18\src\traditional\proc\p18F97J60.asm
                TRISCbits   0x000f94       data     extern C:\MCC18\src\traditional\proc\p18F97J60.asm
                    TRISC   0x000f94       data     extern C:\MCC18\src\traditional\proc\p18F97J60.asm
                TRISDbits   0x000f95       data     extern C:\MCC18\src\traditional\proc\p18F97J60.asm
                    TRISD   0x000f95       data     extern C:\MCC18\src\traditional\proc\p18F97J60.asm
                 DDRDbits   0x000f95       data     extern C:\MCC18\src\traditional\proc\p18F97J60.asm
                     DDRD   0x000f95       data     extern C:\MCC18\src\traditional\proc\p18F97J60.asm
                    TRISE   0x000f96       data     extern C:\MCC18\src\traditional\proc\p18F97J60.asm
                TRISEbits   0x000f96       data     extern C:\MCC18\src\traditional\proc\p18F97J60.asm
                 DDREbits   0x000f96       data     extern C:\MCC18\src\traditional\proc\p18F97J60.asm
                     DDRE   0x000f96       data     extern C:\MCC18\src\traditional\proc\p18F97J60.asm
                TRISFbits   0x000f97       data     extern C:\MCC18\src\traditional\proc\p18F97J60.asm
                    TRISF   0x000f97       data     extern C:\MCC18\src\traditional\proc\p18F97J60.asm
                     DDRF   0x000f97       data     extern C:\MCC18\src\traditional\proc\p18F97J60.asm
                 DDRFbits   0x000f97       data     extern C:\MCC18\src\traditional\proc\p18F97J60.asm
                     DDRG   0x000f98       data     extern C:\MCC18\src\traditional\proc\p18F97J60.asm
                 DDRGbits   0x000f98       data     extern C:\MCC18\src\traditional\proc\p18F97J60.asm
                    TRISG   0x000f98       data     extern C:\MCC18\src\traditional\proc\p18F97J60.asm
                TRISGbits   0x000f98       data     extern C:\MCC18\src\traditional\proc\p18F97J60.asm
                     DDRH   0x000f99       data     extern C:\MCC18\src\traditional\proc\p18F97J60.asm
                 DDRHbits   0x000f99       data     extern C:\MCC18\src\traditional\proc\p18F97J60.asm
                    TRISH   0x000f99       data     extern C:\MCC18\src\traditional\proc\p18F97J60.asm
                TRISHbits   0x000f99       data     extern C:\MCC18\src\traditional\proc\p18F97J60.asm
                TRISJbits   0x000f9a       data     extern C:\MCC18\src\traditional\proc\p18F97J60.asm
                    TRISJ   0x000f9a       data     extern C:\MCC18\src\traditional\proc\p18F97J60.asm
                     DDRJ   0x000f9a       data     extern C:\MCC18\src\traditional\proc\p18F97J60.asm
                 DDRJbits   0x000f9a       data     extern C:\MCC18\src\traditional\proc\p18F97J60.asm
              OSCTUNEbits   0x000f9b       data     extern C:\MCC18\src\traditional\proc\p18F97J60.asm
                  OSCTUNE   0x000f9b       data     extern C:\MCC18\src\traditional\proc\p18F97J60.asm
               MEMCONbits   0x000f9c       data     extern C:\MCC18\src\traditional\proc\p18F97J60.asm
                   MEMCON   0x000f9c       data     extern C:\MCC18\src\traditional\proc\p18F97J60.asm
                     PIE1   0x000f9d       data     extern C:\MCC18\src\traditional\proc\p18F97J60.asm
                 PIE1bits   0x000f9d       data     extern C:\MCC18\src\traditional\proc\p18F97J60.asm
                     PIR1   0x000f9e       data     extern C:\MCC18\src\traditional\proc\p18F97J60.asm
                 PIR1bits   0x000f9e       data     extern C:\MCC18\src\traditional\proc\p18F97J60.asm
                     IPR1   0x000f9f       data     extern C:\MCC18\src\traditional\proc\p18F97J60.asm
                 IPR1bits   0x000f9f       data     extern C:\MCC18\src\traditional\proc\p18F97J60.asm
                     PIE2   0x000fa0       data     extern C:\MCC18\src\traditional\proc\p18F97J60.asm
                 PIE2bits   0x000fa0       data     extern C:\MCC18\src\traditional\proc\p18F97J60.asm
                     PIR2   0x000fa1       data     extern C:\MCC18\src\traditional\proc\p18F97J60.asm
                 PIR2bits   0x000fa1       data     extern C:\MCC18\src\traditional\proc\p18F97J60.asm
                     IPR2   0x000fa2       data     extern C:\MCC18\src\traditional\proc\p18F97J60.asm
                 IPR2bits   0x000fa2       data     extern C:\MCC18\src\traditional\proc\p18F97J60.asm
                     PIE3   0x000fa3       data     extern C:\MCC18\src\traditional\proc\p18F97J60.asm
                 PIE3bits   0x000fa3       data     extern C:\MCC18\src\traditional\proc\p18F97J60.asm
                     PIR3   0x000fa4       data     extern C:\MCC18\src\traditional\proc\p18F97J60.asm
                 PIR3bits   0x000fa4       data     extern C:\MCC18\src\traditional\proc\p18F97J60.asm
                     IPR3   0x000fa5       data     extern C:\MCC18\src\traditional\proc\p18F97J60.asm
                 IPR3bits   0x000fa5       data     extern C:\MCC18\src\traditional\proc\p18F97J60.asm
               EECON1bits   0x000fa6       data     extern C:\MCC18\src\traditional\proc\p18F97J60.asm
                   EECON1   0x000fa6       data     extern C:\MCC18\src\traditional\proc\p18F97J60.asm
                   EECON2   0x000fa7       data     extern C:\MCC18\src\traditional\proc\p18F97J60.asm
                    RCSTA   0x000fab       data     extern C:\MCC18\src\traditional\proc\p18F97J60.asm
                   RCSTA1   0x000fab       data     extern C:\MCC18\src\traditional\proc\p18F97J60.asm
               RCSTA1bits   0x000fab       data     extern C:\MCC18\src\traditional\proc\p18F97J60.asm
                RCSTAbits   0x000fab       data     extern C:\MCC18\src\traditional\proc\p18F97J60.asm
                TXSTAbits   0x000fac       data     extern C:\MCC18\src\traditional\proc\p18F97J60.asm
               TXSTA1bits   0x000fac       data     extern C:\MCC18\src\traditional\proc\p18F97J60.asm
                   TXSTA1   0x000fac       data     extern C:\MCC18\src\traditional\proc\p18F97J60.asm
                    TXSTA   0x000fac       data     extern C:\MCC18\src\traditional\proc\p18F97J60.asm
                    TXREG   0x000fad       data     extern C:\MCC18\src\traditional\proc\p18F97J60.asm
                   TXREG1   0x000fad       data     extern C:\MCC18\src\traditional\proc\p18F97J60.asm
                    RCREG   0x000fae       data     extern C:\MCC18\src\traditional\proc\p18F97J60.asm
                   RCREG1   0x000fae       data     extern C:\MCC18\src\traditional\proc\p18F97J60.asm
                    SPBRG   0x000faf       data     extern C:\MCC18\src\traditional\proc\p18F97J60.asm
                   SPBRG1   0x000faf       data     extern C:\MCC18\src\traditional\proc\p18F97J60.asm
                   PSPCON   0x000fb0       data     extern C:\MCC18\src\traditional\proc\p18F97J60.asm
               PSPCONbits   0x000fb0       data     extern C:\MCC18\src\traditional\proc\p18F97J60.asm
                T3CONbits   0x000fb1       data     extern C:\MCC18\src\traditional\proc\p18F97J60.asm
                    T3CON   0x000fb1       data     extern C:\MCC18\src\traditional\proc\p18F97J60.asm
                    TMR3L   0x000fb2       data     extern C:\MCC18\src\traditional\proc\p18F97J60.asm
                    TMR3H   0x000fb3       data     extern C:\MCC18\src\traditional\proc\p18F97J60.asm
                    CMCON   0x000fb4       data     extern C:\MCC18\src\traditional\proc\p18F97J60.asm
                CMCONbits   0x000fb4       data     extern C:\MCC18\src\traditional\proc\p18F97J60.asm
                   CVRCON   0x000fb5       data     extern C:\MCC18\src\traditional\proc\p18F97J60.asm
               CVRCONbits   0x000fb5       data     extern C:\MCC18\src\traditional\proc\p18F97J60.asm
              ECCP1ASbits   0x000fb6       data     extern C:\MCC18\src\traditional\proc\p18F97J60.asm
                  ECCP1AS   0x000fb6       data     extern C:\MCC18\src\traditional\proc\p18F97J60.asm
                 ECCP3CON   0x000fb7       data     extern C:\MCC18\src\traditional\proc\p18F97J60.asm
             ECCP3CONbits   0x000fb7       data     extern C:\MCC18\src\traditional\proc\p18F97J60.asm
              CCP3CONbits   0x000fb7       data     extern C:\MCC18\src\traditional\proc\p18F97J60.asm
                  CCP3CON   0x000fb7       data     extern C:\MCC18\src\traditional\proc\p18F97J60.asm
                    CCPR3   0x000fb8       data     extern C:\MCC18\src\traditional\proc\p18F97J60.asm
                   CCPR3L   0x000fb8       data     extern C:\MCC18\src\traditional\proc\p18F97J60.asm
                   CCPR3H   0x000fb9       data     extern C:\MCC18\src\traditional\proc\p18F97J60.asm
             ECCP2CONbits   0x000fba       data     extern C:\MCC18\src\traditional\proc\p18F97J60.asm
                 ECCP2CON   0x000fba       data     extern C:\MCC18\src\traditional\proc\p18F97J60.asm
              CCP2CONbits   0x000fba       data     extern C:\MCC18\src\traditional\proc\p18F97J60.asm
                  CCP2CON   0x000fba       data     extern C:\MCC18\src\traditional\proc\p18F97J60.asm
                   CCPR2L   0x000fbb       data     extern C:\MCC18\src\traditional\proc\p18F97J60.asm
                    CCPR2   0x000fbb       data     extern C:\MCC18\src\traditional\proc\p18F97J60.asm
                   CCPR2H   0x000fbc       data     extern C:\MCC18\src\traditional\proc\p18F97J60.asm
              CCP1CONbits   0x000fbd       data     extern C:\MCC18\src\traditional\proc\p18F97J60.asm
                  CCP1CON   0x000fbd       data     extern C:\MCC18\src\traditional\proc\p18F97J60.asm
                 ECCP1CON   0x000fbd       data     extern C:\MCC18\src\traditional\proc\p18F97J60.asm
             ECCP1CONbits   0x000fbd       data     extern C:\MCC18\src\traditional\proc\p18F97J60.asm
                   CCPR1L   0x000fbe       data     extern C:\MCC18\src\traditional\proc\p18F97J60.asm
                    CCPR1   0x000fbe       data     extern C:\MCC18\src\traditional\proc\p18F97J60.asm
                   CCPR1H   0x000fbf       data     extern C:\MCC18\src\traditional\proc\p18F97J60.asm
                   ADCON2   0x000fc0       data     extern C:\MCC18\src\traditional\proc\p18F97J60.asm
               ADCON2bits   0x000fc0       data     extern C:\MCC18\src\traditional\proc\p18F97J60.asm
                   ADCON1   0x000fc1       data     extern C:\MCC18\src\traditional\proc\p18F97J60.asm
               ADCON1bits   0x000fc1       data     extern C:\MCC18\src\traditional\proc\p18F97J60.asm
               ADCON0bits   0x000fc2       data     extern C:\MCC18\src\traditional\proc\p18F97J60.asm
                   ADCON0   0x000fc2       data     extern C:\MCC18\src\traditional\proc\p18F97J60.asm
                   ADRESL   0x000fc3       data     extern C:\MCC18\src\traditional\proc\p18F97J60.asm
                    ADRES   0x000fc3       data     extern C:\MCC18\src\traditional\proc\p18F97J60.asm
                   ADRESH   0x000fc4       data     extern C:\MCC18\src\traditional\proc\p18F97J60.asm
                  SSPCON2   0x000fc5       data     extern C:\MCC18\src\traditional\proc\p18F97J60.asm
              SSPCON2bits   0x000fc5       data     extern C:\MCC18\src\traditional\proc\p18F97J60.asm
             SSP1CON2bits   0x000fc5       data     extern C:\MCC18\src\traditional\proc\p18F97J60.asm
                 SSP1CON2   0x000fc5       data     extern C:\MCC18\src\traditional\proc\p18F97J60.asm
                  SSPCON1   0x000fc6       data     extern C:\MCC18\src\traditional\proc\p18F97J60.asm
              SSPCON1bits   0x000fc6       data     extern C:\MCC18\src\traditional\proc\p18F97J60.asm
             SSP1CON1bits   0x000fc6       data     extern C:\MCC18\src\traditional\proc\p18F97J60.asm
                 SSP1CON1   0x000fc6       data     extern C:\MCC18\src\traditional\proc\p18F97J60.asm
                  SSPSTAT   0x000fc7       data     extern C:\MCC18\src\traditional\proc\p18F97J60.asm
              SSPSTATbits   0x000fc7       data     extern C:\MCC18\src\traditional\proc\p18F97J60.asm
                 SSP1STAT   0x000fc7       data     extern C:\MCC18\src\traditional\proc\p18F97J60.asm
             SSP1STATbits   0x000fc7       data     extern C:\MCC18\src\traditional\proc\p18F97J60.asm
                  SSP1ADD   0x000fc8       data     extern C:\MCC18\src\traditional\proc\p18F97J60.asm
                   SSPADD   0x000fc8       data     extern C:\MCC18\src\traditional\proc\p18F97J60.asm
                  SSP1BUF   0x000fc9       data     extern C:\MCC18\src\traditional\proc\p18F97J60.asm
                   SSPBUF   0x000fc9       data     extern C:\MCC18\src\traditional\proc\p18F97J60.asm
                T2CONbits   0x000fca       data     extern C:\MCC18\src\traditional\proc\p18F97J60.asm
                    T2CON   0x000fca       data     extern C:\MCC18\src\traditional\proc\p18F97J60.asm
                      PR2   0x000fcb       data     extern C:\MCC18\src\traditional\proc\p18F97J60.asm
                     TMR2   0x000fcc       data     extern C:\MCC18\src\traditional\proc\p18F97J60.asm
                T1CONbits   0x000fcd       data     extern C:\MCC18\src\traditional\proc\p18F97J60.asm
                    T1CON   0x000fcd       data     extern C:\MCC18\src\traditional\proc\p18F97J60.asm
                    TMR1L   0x000fce       data     extern C:\MCC18\src\traditional\proc\p18F97J60.asm
                    TMR1H   0x000fcf       data     extern C:\MCC18\src\traditional\proc\p18F97J60.asm
                     RCON   0x000fd0       data     extern C:\MCC18\src\traditional\proc\p18F97J60.asm
                 RCONbits   0x000fd0       data     extern C:\MCC18\src\traditional\proc\p18F97J60.asm
                   WDTCON   0x000fd1       data     extern C:\MCC18\src\traditional\proc\p18F97J60.asm
               WDTCONbits   0x000fd1       data     extern C:\MCC18\src\traditional\proc\p18F97J60.asm
                ECON1bits   0x000fd2       data     extern C:\MCC18\src\traditional\proc\p18F97J60.asm
                    ECON1   0x000fd2       data     extern C:\MCC18\src\traditional\proc\p18F97J60.asm
                   OSCCON   0x000fd3       data     extern C:\MCC18\src\traditional\proc\p18F97J60.asm
               OSCCONbits   0x000fd3       data     extern C:\MCC18\src\traditional\proc\p18F97J60.asm
                    T0CON   0x000fd5       data     extern C:\MCC18\src\traditional\proc\p18F97J60.asm
                T0CONbits   0x000fd5       data     extern C:\MCC18\src\traditional\proc\p18F97J60.asm
                    TMR0L   0x000fd6       data     extern C:\MCC18\src\traditional\proc\p18F97J60.asm
                    TMR0H   0x000fd7       data     extern C:\MCC18\src\traditional\proc\p18F97J60.asm
                   STATUS   0x000fd8       data     extern C:\MCC18\src\traditional\proc\p18F97J60.asm
               STATUSbits   0x000fd8       data     extern C:\MCC18\src\traditional\proc\p18F97J60.asm
                     FSR2   0x000fd9       data     extern C:\MCC18\src\traditional\proc\p18F97J60.asm
                    FSR2L   0x000fd9       data     extern C:\MCC18\src\traditional\proc\p18F97J60.asm
                    FSR2H   0x000fda       data     extern C:\MCC18\src\traditional\proc\p18F97J60.asm
                   PLUSW2   0x000fdb       data     extern C:\MCC18\src\traditional\proc\p18F97J60.asm
                  PREINC2   0x000fdc       data     extern C:\MCC18\src\traditional\proc\p18F97J60.asm
                 POSTDEC2   0x000fdd       data     extern C:\MCC18\src\traditional\proc\p18F97J60.asm
                 POSTINC2   0x000fde       data     extern C:\MCC18\src\traditional\proc\p18F97J60.asm
                    INDF2   0x000fdf       data     extern C:\MCC18\src\traditional\proc\p18F97J60.asm
                      BSR   0x000fe0       data     extern C:\MCC18\src\traditional\proc\p18F97J60.asm
                     FSR1   0x000fe1       data     extern C:\MCC18\src\traditional\proc\p18F97J60.asm
                    FSR1L   0x000fe1       data     extern C:\MCC18\src\traditional\proc\p18F97J60.asm
                    FSR1H   0x000fe2       data     extern C:\MCC18\src\traditional\proc\p18F97J60.asm
                   PLUSW1   0x000fe3       data     extern C:\MCC18\src\traditional\proc\p18F97J60.asm
                  PREINC1   0x000fe4       data     extern C:\MCC18\src\traditional\proc\p18F97J60.asm
                 POSTDEC1   0x000fe5       data     extern C:\MCC18\src\traditional\proc\p18F97J60.asm
                 POSTINC1   0x000fe6       data     extern C:\MCC18\src\traditional\proc\p18F97J60.asm
                    INDF1   0x000fe7       data     extern C:\MCC18\src\traditional\proc\p18F97J60.asm
                     WREG   0x000fe8       data     extern C:\MCC18\src\traditional\proc\p18F97J60.asm
                     FSR0   0x000fe9       data     extern C:\MCC18\src\traditional\proc\p18F97J60.asm
                    FSR0L   0x000fe9       data     extern C:\MCC18\src\traditional\proc\p18F97J60.asm
                    FSR0H   0x000fea       data     extern C:\MCC18\src\traditional\proc\p18F97J60.asm
                   PLUSW0   0x000feb       data     extern C:\MCC18\src\traditional\proc\p18F97J60.asm
                  PREINC0   0x000fec       data     extern C:\MCC18\src\traditional\proc\p18F97J60.asm
                 POSTDEC0   0x000fed       data     extern C:\MCC18\src\traditional\proc\p18F97J60.asm
                 POSTINC0   0x000fee       data     extern C:\MCC18\src\traditional\proc\p18F97J60.asm
                    INDF0   0x000fef       data     extern C:\MCC18\src\traditional\proc\p18F97J60.asm
              INTCON3bits   0x000ff0       data     extern C:\MCC18\src\traditional\proc\p18F97J60.asm
                  INTCON3   0x000ff0       data     extern C:\MCC18\src\traditional\proc\p18F97J60.asm
              INTCON2bits   0x000ff1       data     extern C:\MCC18\src\traditional\proc\p18F97J60.asm
                  INTCON2   0x000ff1       data     extern C:\MCC18\src\traditional\proc\p18F97J60.asm
               INTCONbits   0x000ff2       data     extern C:\MCC18\src\traditional\proc\p18F97J60.asm
                   INTCON   0x000ff2       data     extern C:\MCC18\src\traditional\proc\p18F97J60.asm
                     PROD   0x000ff3       data     extern C:\MCC18\src\traditional\proc\p18F97J60.asm
                    PRODL   0x000ff3       data     extern C:\MCC18\src\traditional\proc\p18F97J60.asm
                    PRODH   0x000ff4       data     extern C:\MCC18\src\traditional\proc\p18F97J60.asm
                   TABLAT   0x000ff5       data     extern C:\MCC18\src\traditional\proc\p18F97J60.asm
                   TBLPTR   0x000ff6       data     extern C:\MCC18\src\traditional\proc\p18F97J60.asm
                  TBLPTRL   0x000ff6       data     extern C:\MCC18\src\traditional\proc\p18F97J60.asm
                  TBLPTRH   0x000ff7       data     extern C:\MCC18\src\traditional\proc\p18F97J60.asm
                  TBLPTRU   0x000ff8       data     extern C:\MCC18\src\traditional\proc\p18F97J60.asm
                      PCL   0x000ff9       data     extern C:\MCC18\src\traditional\proc\p18F97J60.asm
                       PC   0x000ff9       data     extern C:\MCC18\src\traditional\proc\p18F97J60.asm
                   PCLATH   0x000ffa       data     extern C:\MCC18\src\traditional\proc\p18F97J60.asm
                   PCLATU   0x000ffb       data     extern C:\MCC18\src\traditional\proc\p18F97J60.asm
                   STKPTR   0x000ffc       data     extern C:\MCC18\src\traditional\proc\p18F97J60.asm
               STKPTRbits   0x000ffc       data     extern C:\MCC18\src\traditional\proc\p18F97J60.asm
                     TOSL   0x000ffd       data     extern C:\MCC18\src\traditional\proc\p18F97J60.asm
                      TOS   0x000ffd       data     extern C:\MCC18\src\traditional\proc\p18F97J60.asm
                     TOSH   0x000ffe       data     extern C:\MCC18\src\traditional\proc\p18F97J60.asm
                     TOSU   0x000fff       data     extern C:\MCC18\src\traditional\proc\p18F97J60.asm


