MPLINK 4.22, Linker
Linker Map File - Created Thu Jan 11 07:51:56 2018

                                 Section Info
                  Section       Type    Address   Location Size(Bytes)
                ---------  ---------  ---------  ---------  ---------
               _entry_scn       code   0x000000    program   0x000006
               highVector       code   0x000008    program   0x000006
                lowVector       code   0x000018    program   0x000006
                   .cinit    romdata   0x00002a    program   0x00009e
              .code_TCP.o       code   0x0000c8    program   0x003d4e
              .code_lcd.o       code   0x003e16    program   0x002a24
            .code_HTTP2.o       code   0x00683a    program   0x00243a
   .code_HTTPGetDevInfo.o       code   0x008c74    program   0x001a16
             .code_util.o       code   0x00a68a    program   0x001006
            .code_MPFS2.o       code   0x00b690    program   0x000f12
        .code_HTTPPrint.o       code   0x00c5a2    program   0x000ede
          .code_Helpers.o       code   0x00d480    program   0x000d78
         .code_vfprintf.o       code   0x00e1f8    program   0x000c22
             .stringtable    romdata   0x00ee1a    program   0x000bd9
       .romdata_SNMPApp.o    romdata   0x00f9f3    program   0x000000
       .romdata_HTTPApp.o    romdata   0x00f9f3    program   0x000000
          .romdata_util.o    romdata   0x00f9f3    program   0x000000
          .idata_SNMP.o_i    romdata   0x00f9f3    program   0x000000
.romdata_UART2TCPBridge.o    romdata   0x00f9f3    program   0x000000
   .idata_internalADC.o_i    romdata   0x00f9f3    program   0x000000
         .idata_HTTP2.o_i    romdata   0x00f9f3    program   0x000000
           .romdata_ISR.o    romdata   0x00f9f3    program   0x000000
        .romdata_devadc.o    romdata   0x00f9f3    program   0x000000
        .idata_devspi.o_i    romdata   0x00f9f3    program   0x000000
      .romdata_SPIFlash.o    romdata   0x00f9f3    program   0x000000
     .idata_SPIEEPROM.o_i    romdata   0x00f9f3    program   0x000000
          .romdata_ICMP.o    romdata   0x00f9f3    program   0x000000
          .idata_ICMP.o_i    romdata   0x00f9f3    program   0x000000
    .romdata__user_putc.o    romdata   0x00f9f3    program   0x000000
          .romdata_putc.o    romdata   0x00f9f3    program   0x000000
          .idata_putc.o_i    romdata   0x00f9f3    program   0x000000
      .idata_vfprintf.o_i    romdata   0x00f9f3    program   0x000000
        .idata___init.o_i    romdata   0x00f9f3    program   0x000000
       .romdata_adcopen.o    romdata   0x00f9f3    program   0x000000
       .idata_fxm3232.o_i    romdata   0x00f9f3    program   0x000000
      .romdata_fxd3232u.o    romdata   0x00f9f3    program   0x000000
      .idata_fxd1616u.o_i    romdata   0x00f9f3    program   0x000000
      .romdata_fxd0808u.o    romdata   0x00f9f3    program   0x000000
      .idata_adcclose.o_i    romdata   0x00f9f3    program   0x000000
        .romdata_i2c_c1.o    romdata   0x00f9f3    program   0x000000
     .romdata_HTTPPrint.o    romdata   0x00f9f3    program   0x000000
     .idata_HTTPPrint.o_i    romdata   0x00f9f3    program   0x000000
.romdata_UpConverter_c1.o    romdata   0x00f9f3    program   0x000000
.romdata_MainControl_c1.o    romdata   0x00f9f3    program   0x000000
.idata_DownConverter_c1.o_i    romdata   0x00f9f3    program   0x000000
   .romdata_SNMPSysInfo.o    romdata   0x00f9f3    program   0x000000
.idata_SNMPLLiBUCStatus.o_i    romdata   0x00f9f3    program   0x000000
  .romdata_SNMPLLiBUCOp.o    romdata   0x00f9f3    program   0x000000
.idata_SNMPLLiBUCDevInfo.o_i    romdata   0x00f9f3    program   0x000000
           .idata_UDP.o_i    romdata   0x00f9f3    program   0x000000
           .idata_ARP.o_i    romdata   0x00f9f3    program   0x000001
      .idata_ETH97J60.o_i    romdata   0x00f9f3    program   0x000000
      .romdata_ETH97J60.o    romdata   0x00f9f3    program   0x000000
      .idata_StackTsk.o_i    romdata   0x00f9f3    program   0x000000
      .romdata_MPFSImg2.o    romdata   0x00f9f3    program   0x000000
      .idata_MPFSImg2.o_i    romdata   0x00f9f3    program   0x000000
         .idata_Delay.o_i    romdata   0x00f9f3    program   0x000000
         .romdata_Delay.o    romdata   0x00f9f3    program   0x000000
       .idata_Helpers.o_i    romdata   0x00f9f3    program   0x000000
.idata_Initialization.o_i    romdata   0x00f9f3    program   0x000000
          .romdata_Tick.o    romdata   0x00f9f3    program   0x000000
          .idata_DHCP.o_i    romdata   0x00f9f3    program   0x000000
          .romdata_DHCP.o    romdata   0x00f9f3    program   0x000000
        .idata_c018iz.o_i    romdata   0x00f9f3    program   0x000000
         .idata_DHCPs.o_i    romdata   0x00f9f3    program   0x000000
         .code_ETH97J60.o       code   0x00f9f4    program   0x000bb2
          .code_HTTPApp.o       code   0x0105a6    program   0x0006e2
                     PROG       code   0x010c88    program   0x0005d8
           .romdata_lcd.o    romdata   0x011260    program   0x000578
              .code_ARP.o       code   0x0117d8    program   0x000494
                   STRING       code   0x011c6c    program   0x00046c
   .code_MainControl_c1.o       code   0x0120d8    program   0x0003f6
   .code_Initialization.o       code   0x0124ce    program   0x000382
               .code_IP.o       code   0x012850    program   0x00032e
        .code_SPIEEPROM.o       code   0x012b7e    program   0x0002fa
           .code_i2c_c1.o       code   0x012e78    program   0x0002f6
          .code_oled_c1.o       code   0x01316e    program   0x0002e4
             .code_Main.o       code   0x013452    program   0x000288
      .code_internalADC.o       code   0x0136da    program   0x000252
         .code_StackTsk.o       code   0x01392c    program   0x0001e4
           .code_devadc.o       code   0x013b10    program   0x0001de
              .code_ISR.o       code   0x013cee    program   0x0001b8
                   STDLIB       code   0x013ea6    program   0x000192
   .code_UpConverter_c1.o       code   0x014038    program   0x00014e
             .code_ICMP.o       code   0x014186    program   0x00014a
             .code_Tick.o       code   0x0142d0    program   0x000122
             .code_UART.o       code   0x0143f2    program   0x0000e6
          .code_sprintf.o       code   0x0144d8    program   0x0000ac
               _cinit_scn       code   0x014584    program   0x00009e
           .code_devspi.o       code   0x014622    program   0x000086
             .code_putc.o       code   0x0146a8    program   0x000084
         .romdata_HTTP2.o    romdata   0x01472c    program   0x00007e
          .code_fxm3232.o       code   0x0147aa    program   0x000070
          .code_adcopen.o       code   0x01481a    program   0x00006e
         .code_fxd3232u.o       code   0x014888    program   0x000048
         .code_fxd1616u.o       code   0x0148d0    program   0x00002c
                    CTYPE       code   0x0148fc    program   0x000024
           .romdata_TCP.o    romdata   0x014920    program   0x000024
             _startup_scn       code   0x014944    program   0x000020
              D1KTCYXCODE       code   0x014964    program   0x000020
   .code_UART2TCPBridge.o       code   0x014984    program   0x00001e
                    STDIO       code   0x0149a2    program   0x00001c
         .code_fxd0808u.o       code   0x0149be    program   0x00001c
              D10TCYXCODE       code   0x0149da    program   0x000016
 .code_DownConverter_c1.o       code   0x0149f0    program   0x000014
      .romdata_vfprintf.o    romdata   0x014a04    program   0x000011
       .romdata_oled_c1.o    romdata   0x014a15    program   0x000010
      .romdata_fxd1616u.o    romdata   0x014a25    program   0x000000
       .idata_oled_c1.o_i    romdata   0x014a25    program   0x000000
        .idata_i2c_c1.o_i    romdata   0x014a25    program   0x000000
        .romdata___init.o    romdata   0x014a25    program   0x000000
       .idata_adcopen.o_i    romdata   0x014a25    program   0x000000
       .romdata_fxm3232.o    romdata   0x014a25    program   0x000000
       .idata_sprintf.o_i    romdata   0x014a25    program   0x000000
        .romdata_Global.o    romdata   0x014a25    program   0x000000
      .romdata_StackTsk.o    romdata   0x014a25    program   0x000000
      .romdata_adcclose.o    romdata   0x014a25    program   0x000000
        .romdata_c018iz.o    romdata   0x014a25    program   0x000000
      .idata_fxd3232u.o_i    romdata   0x014a25    program   0x000000
    .idata__user_putc.o_i    romdata   0x014a25    program   0x000000
      .idata_fxd0808u.o_i    romdata   0x014a25    program   0x000000
       .romdata_sprintf.o    romdata   0x014a25    program   0x000000
.romdata_DownConverter_c1.o    romdata   0x014a25    program   0x000000
   .idata_SNMPSysInfo.o_i    romdata   0x014a25    program   0x000000
.romdata_SNMPLLiBUCStatus.o    romdata   0x014a25    program   0x000000
     .romdata_SPIEEPROM.o    romdata   0x014a25    program   0x000000
  .idata_SNMPLLiBUCOp.o_i    romdata   0x014a25    program   0x000000
      .idata_SPIFlash.o_i    romdata   0x014a25    program   0x000000
.romdata_SNMPLLiBUCDevInfo.o    romdata   0x014a25    program   0x000000
        .romdata_devspi.o    romdata   0x014a25    program   0x000000
            .romdata_IP.o    romdata   0x014a25    program   0x000000
       .idata_SNMPApp.o_i    romdata   0x014a25    program   0x000000
        .idata_devadc.o_i    romdata   0x014a25    program   0x000000
          .romdata_SNMP.o    romdata   0x014a25    program   0x000000
   .romdata_internalADC.o    romdata   0x014a25    program   0x000000
       .romdata_Helpers.o    romdata   0x014a25    program   0x000000
          .idata_UART.o_i    romdata   0x014a25    program   0x000000
          .romdata_UART.o    romdata   0x014a25    program   0x000000
           .idata_ISR.o_i    romdata   0x014a25    program   0x000001
          .romdata_Main.o    romdata   0x014a25    program   0x000000
         .romdata_DHCPs.o    romdata   0x014a25    program   0x000000
           .romdata_UDP.o    romdata   0x014a25    program   0x000000
         .idata_MPFS2.o_i    romdata   0x014a25    program   0x000000
.romdata_HTTPGetDevInfo.o    romdata   0x014a25    program   0x000000
.idata_UpConverter_c1.o_i    romdata   0x014a25    program   0x000000
           .romdata_ARP.o    romdata   0x014a25    program   0x000000
.idata_MainControl_c1.o_i    romdata   0x014a25    program   0x000000
         .romdata_MPFS2.o    romdata   0x014a25    program   0x000000
                    .code       code   0x014a26    program   0x00000e
.romdata_Initialization.o    romdata   0x014a34    program   0x000006
         .code_adcclose.o       code   0x014a3a    program   0x000006
       .code__user_putc.o       code   0x014a40    program   0x000002
           .code___init.o       code   0x014a42    program   0x000002
              SEED_DATA_i    romdata   0x014a44    program   0x000002
          .idata_util.o_i    romdata   0x014a46    program   0x000004
           .idata_lcd.o_i    romdata   0x014a4a    program   0x000135
.idata_UART2TCPBridge.o_i    romdata   0x014b7f    program   0x000008
          .idata_Tick.o_i    romdata   0x014b87    program   0x000004
           .idata_TCP.o_i    romdata   0x014b8b    program   0x000002
          .idata_Main.o_i    romdata   0x014b8d    program   0x000013
            .idata_IP.o_i    romdata   0x014ba0    program   0x000002
.idata_HTTPGetDevInfo.o_i    romdata   0x014ba2    program   0x000002
       .idata_HTTPApp.o_i    romdata   0x014ba4    program   0x000002
        .idata_Global.o_i    romdata   0x014ba6    program   0x0000b9
           .code_c018iz.o       code   0x014c60    program   0x000000
             .code_DHCP.o       code   0x014c60    program   0x000000
         .code_SPIFlash.o       code   0x014c60    program   0x000000
            .code_DHCPs.o       code   0x014c60    program   0x000000
            .code_Delay.o       code   0x014c60    program   0x000000
             .code_SNMP.o       code   0x014c60    program   0x000000
          .code_SNMPApp.o       code   0x014c60    program   0x000000
         .code_MPFSImg2.o       code   0x014c60    program   0x000000
.code_SNMPLLiBUCDevInfo.o       code   0x014c60    program   0x000000
     .code_SNMPLLiBUCOp.o       code   0x014c60    program   0x000000
 .code_SNMPLLiBUCStatus.o       code   0x014c60    program   0x000000
      .code_SNMPSysInfo.o       code   0x014c60    program   0x000000
           .code_Global.o       code   0x014c60    program   0x000000
              .code_UDP.o       code   0x014c60    program   0x000000
     .config_1fff8_Main.o    romdata   0x01fff8    program   0x000001
     .config_1fffa_Main.o    romdata   0x01fffa    program   0x000001
     .config_1fffd_Main.o    romdata   0x01fffd    program   0x000001
                 .tmpdata      udata   0x000000       data   0x000018
                MATH_DATA      udata   0x000018       data   0x000014
                DELAYDAT1      udata   0x00002c       data   0x000001
   HTTP_CONNECTION_STATES      udata   0x000060       data   0x000084
            .idata_Main.o      idata   0x0000e4       data   0x000013
  .idata_UART2TCPBridge.o      idata   0x0000f7       data   0x000008
              .udata_IP.o      udata   0x0000ff       data   0x000001
                 TCB_uRAM      udata   0x000100       data   0x0000a8
            .udata_Main.o      udata   0x0001a8       data   0x000057
             .idata_ISR.o      idata   0x0001ff       data   0x000001
             .udata_lcd.o      udata   0x000200       data   0x000050
             .udata_TCP.o      udata   0x000250       data   0x00004f
                    grp10      udata   0x00029f       data   0x000040
        .udata_StackTsk.o      udata   0x0002df       data   0x00000b
                    grp17      udata   0x0002ea       data   0x00000a
          .udata_c018iz.o      udata   0x0002f4       data   0x00000a
                SEED_DATA      idata   0x0002fe       data   0x000002
                     gpr8      udata   0x000300       data   0x000040
       SYN_QUEUE_RAM_SECT      udata   0x000340       data   0x00003c
  .udata_HTTPGetDevInfo.o      udata   0x00037c       data   0x00003c
                     grp5      udata   0x0003b8       data   0x000033
             .udata_ARP.o      udata   0x0003eb       data   0x000014
             .idata_ARP.o      idata   0x0003ff       data   0x000001
       .udata_SPIEEPROM.o      udata   0x000400       data   0x000025
.udata_DownConverter_c1.o      udata   0x000425       data   0x000022
        .udata_ETH97J60.o      udata   0x000447       data   0x000007
            .udata_Tick.o      udata   0x00044e       data   0x000006
.udata_SNMPLLiBUCDevInfo.o      udata   0x000454       data   0x000005
  .udata_Initialization.o      udata   0x000459       data   0x000004
         .udata_Helpers.o      udata   0x00045d       data   0x000004
            .idata_util.o      idata   0x000461       data   0x000004
            .idata_Tick.o      idata   0x000465       data   0x000004
          .udata_Global.o      udata   0x000469       data   0x000002
             .idata_TCP.o      idata   0x00046b       data   0x000002
              .idata_IP.o      idata   0x00046d       data   0x000002
  .idata_HTTPGetDevInfo.o      idata   0x00046f       data   0x000002
         .idata_HTTPApp.o      idata   0x000471       data   0x000002
             .idata_lcd.o      idata   0x000800       data   0x000135
          .idata_Global.o      idata   0x000935       data   0x0000b9
       .udata_HTTPPrint.o      udata   0x0009ee       data   0x00000f
            .udata_util.o      udata   0x0009fd       data   0x000003
                   .stack      udata   0x000c00       data   0x000200
           .udata_MPFS2.o      udata   0x000e00       data   0x00006f
          .udata_i2c_c1.o      udata   0x000e6f       data   0x000010
        .udata_fxd1616u.o      udata   0x000e7f       data   0x000000
        .idata_fxd0808u.o      idata   0x000e7f       data   0x000000
        .udata_fxd0808u.o      udata   0x000e7f       data   0x000000
        .udata_MPFSImg2.o      udata   0x000e7f       data   0x000000
        .idata_adcclose.o      idata   0x000e7f       data   0x000000
        .udata_adcclose.o      udata   0x000e7f       data   0x000000
        .idata_MPFSImg2.o      idata   0x000e7f       data   0x000000
        .idata_StackTsk.o      idata   0x000e7f       data   0x000000
          .idata_i2c_c1.o      idata   0x000e7f       data   0x000000
         .idata_oled_c1.o      idata   0x000e7f       data   0x000000
         .udata_oled_c1.o      udata   0x000e7f       data   0x000000
             .udata_UDP.o      udata   0x000e7f       data   0x000000
             .idata_UDP.o      idata   0x000e7f       data   0x000000
        .idata_ETH97J60.o      idata   0x000e7f       data   0x000000
           .udata_Delay.o      udata   0x000e7f       data   0x000000
           .idata_Delay.o      idata   0x000e7f       data   0x000000
         .idata_Helpers.o      idata   0x000e7f       data   0x000000
            .udata_UART.o      udata   0x000e7f       data   0x000000
          .idata_c018iz.o      idata   0x000e7f       data   0x000000
      .idata__user_putc.o      idata   0x000e7f       data   0x000000
      .udata__user_putc.o      udata   0x000e7f       data   0x000000
            .idata_putc.o      idata   0x000e7f       data   0x000000
            .udata_putc.o      udata   0x000e7f       data   0x000000
        .idata_vfprintf.o      idata   0x000e7f       data   0x000000
        .udata_vfprintf.o      udata   0x000e7f       data   0x000000
         .idata_sprintf.o      idata   0x000e7f       data   0x000000
         .udata_sprintf.o      udata   0x000e7f       data   0x000000
  .idata_Initialization.o      idata   0x000e7f       data   0x000000
          .idata___init.o      idata   0x000e7f       data   0x000000
          .udata___init.o      udata   0x000e7f       data   0x000000
         .idata_adcopen.o      idata   0x000e7f       data   0x000000
         .udata_adcopen.o      udata   0x000e7f       data   0x000000
         .idata_fxm3232.o      idata   0x000e7f       data   0x000000
         .udata_fxm3232.o      udata   0x000e7f       data   0x000000
        .idata_fxd3232u.o      idata   0x000e7f       data   0x000000
        .udata_fxd3232u.o      udata   0x000e7f       data   0x000000
        .idata_fxd1616u.o      idata   0x000e7f       data   0x000000
    .idata_SNMPLLiBUCOp.o      idata   0x000e7f       data   0x000000
    .udata_SNMPLLiBUCOp.o      udata   0x000e7f       data   0x000000
.idata_SNMPLLiBUCDevInfo.o      idata   0x000e7f       data   0x000000
           .idata_DHCPs.o      idata   0x000e7f       data   0x000000
         .idata_SNMPApp.o      idata   0x000e7f       data   0x000000
         .udata_SNMPApp.o      udata   0x000e7f       data   0x000000
           .udata_HTTP2.o      udata   0x000e7f       data   0x000000
           .idata_HTTP2.o      idata   0x000e7f       data   0x000000
            .idata_SNMP.o      idata   0x000e7f       data   0x000000
            .udata_SNMP.o      udata   0x000e7f       data   0x000000
           .idata_MPFS2.o      idata   0x000e7f       data   0x000000
            .udata_ICMP.o      udata   0x000e7f       data   0x000000
     .idata_internalADC.o      idata   0x000e7f       data   0x000000
     .udata_internalADC.o      udata   0x000e7f       data   0x000000
            .idata_ICMP.o      idata   0x000e7f       data   0x000000
             .udata_ISR.o      udata   0x000e7f       data   0x000000
          .idata_devadc.o      idata   0x000e7f       data   0x000000
          .udata_devadc.o      udata   0x000e7f       data   0x000000
          .idata_devspi.o      idata   0x000e7f       data   0x000000
          .udata_devspi.o      udata   0x000e7f       data   0x000000
        .idata_SPIFlash.o      idata   0x000e7f       data   0x000000
        .udata_SPIFlash.o      udata   0x000e7f       data   0x000000
       .idata_SPIEEPROM.o      idata   0x000e7f       data   0x000000
       .idata_HTTPPrint.o      idata   0x000e7f       data   0x000000
            .idata_UART.o      idata   0x000e7f       data   0x000000
            .udata_DHCP.o      udata   0x000e7f       data   0x000000
            .idata_DHCP.o      idata   0x000e7f       data   0x000000
  .idata_UpConverter_c1.o      idata   0x000e7f       data   0x000000
  .udata_UpConverter_c1.o      udata   0x000e7f       data   0x000000
  .idata_MainControl_c1.o      idata   0x000e7f       data   0x000000
  .udata_MainControl_c1.o      udata   0x000e7f       data   0x000000
.idata_DownConverter_c1.o      idata   0x000e7f       data   0x000000
           .udata_DHCPs.o      udata   0x000e7f       data   0x000000
     .idata_SNMPSysInfo.o      idata   0x000e7f       data   0x000000
     .udata_SNMPSysInfo.o      udata   0x000e7f       data   0x000000
.idata_SNMPLLiBUCStatus.o      idata   0x000e7f       data   0x000000
.udata_SNMPLLiBUCStatus.o      udata   0x000e7f       data   0x000000
              SFR_BANKED0      udata   0x000e80       data   0x000006
              SFR_BANKED1      udata   0x000e8a       data   0x000001
              SFR_BANKED2      udata   0x000e97       data   0x000003
              SFR_BANKED3      udata   0x000ea0       data   0x000001
              SFR_BANKED4      udata   0x000ea2       data   0x000003
              SFR_BANKED5      udata   0x000ea6       data   0x000002
              SFR_BANKED6      udata   0x000eaa       data   0x000002
              SFR_BANKED7      udata   0x000eb2       data   0x000001
              SFR_BANKED8      udata   0x000eb4       data   0x000001
              SFR_BANKED9      udata   0x000eb6       data   0x000004
             SFR_BANKED10      udata   0x000ec0       data   0x000012
             SFR_BANKED11      udata   0x000ed4       data   0x000002
             SFR_BANKED12      udata   0x000ed8       data   0x000002
             SFR_BANKED13      udata   0x000ee2       data   0x000016
             SFR_BANKED14      udata   0x000efb       data   0x000001
             SFR_BANKED15      udata   0x000efd       data   0x000002
  .udata_UART2TCPBridge.o      udata   0x000f00       data   0x000052
         .udata_HTTPApp.o      udata   0x000f52       data   0x00000d
            SFR_UNBANKED0      udata   0x000f60       data   0x0000a0



                              Program Memory Usage 
                               Start         End      
                           ---------   ---------      
                            0x000000    0x000005      
                            0x000008    0x00000d      
                            0x000018    0x00001d      
                            0x00002a    0x014c5e      
                            0x01fff8    0x01fff8      
                            0x01fffa    0x01fffa      
                            0x01fffd    0x01fffd      
            85066 out of 131072 program addresses used, program memory utilization is 64%



                              Symbols - Sorted by Name
                     Name    Address   Location    Storage File                     
                ---------  ---------  ---------  --------- ---------                
                ADC_Value   0x0137f2    program     extern D:\git\testing79m\Drivers\MCU-Internal\internalADC.c
                  AD_init   0x0136da    program     extern D:\git\testing79m\Drivers\MCU-Internal\internalADC.c
                  ARPInit   0x0118a0    program     extern D:\git\testing79m\Microchip\TCPIP Stack\ARP.c
            ARPIsResolved   0x011af8    program     extern D:\git\testing79m\Microchip\TCPIP Stack\ARP.c
               ARPProcess   0x0118b8    program     extern D:\git\testing79m\Microchip\TCPIP Stack\ARP.c
                   ARPPut   0x0117d8    program     static D:\git\testing79m\Microchip\TCPIP Stack\ARP.c
               ARPResolve   0x011a4e    program     extern D:\git\testing79m\Microchip\TCPIP Stack\ARP.c
                ASC2toHEX   0x00add0    program     extern D:\git\testing79m\SysLib\util.c
             Base64Decode   0x00d954    program     extern D:\git\testing79m\Microchip\TCPIP Stack\Helpers.c
                BusyUSART   0x0143f2    program     extern D:\git\testing79m\Microchip\TCPIP Stack\UART.c
               BusyUSART2   0x01444a    program     extern D:\git\testing79m\Microchip\TCPIP Stack\UART.c
                    CGRAM   0x014a15    program     extern D:\git\testing79m\Singcom\Drivers\oled_c1.c
     CalcIPBufferChecksum   0x00ff34    program     extern D:\git\testing79m\Microchip\TCPIP Stack\ETH97J60.c
           CalcIPChecksum   0x00dd8c    program     extern D:\git\testing79m\Microchip\TCPIP Stack\Helpers.c
                CheckBusy   0x013180    program     extern D:\git\testing79m\Singcom\Drivers\oled_c1.c
                 CloseADC   0x014a3a    program     extern C:\MCC18\src\pmc_common\ADC\adcclose.c
              CloseSocket   0x001f24    program     static D:\git\testing79m\Microchip\TCPIP Stack\TCP.c
               CloseUSART   0x0143fe    program     extern D:\git\testing79m\Microchip\TCPIP Stack\UART.c
              CloseUSART2   0x014456    program     extern D:\git\testing79m\Microchip\TCPIP Stack\UART.c
                    D10_1   0x0149ea    program     static C:\Program Files\mcc18\src\traditional\delays\d10tcyx.asm
                     D10x   0x0149e2    program     static C:\Program Files\mcc18\src\traditional\delays\d10tcyx.asm
                   D1616S   0x010fa4    program     static C:\Program Files\mcc18\src\traditional\math\fxd1616s.asm
                D1616SNEG   0x010fb2    program     static C:\Program Files\mcc18\src\traditional\math\fxd1616s.asm
                 D1616SOK   0x010fae    program     static C:\Program Files\mcc18\src\traditional\math\fxd1616s.asm
                  D1616SX   0x010fc4    program     static C:\Program Files\mcc18\src\traditional\math\fxd1616s.asm
                    D1K_1   0x014970    program     static C:\Program Files\mcc18\src\traditional\delays\d1ktcyx.asm
                     D1Kx   0x01496e    program     static C:\Program Files\mcc18\src\traditional\delays\d1ktcyx.asm
                  DA1616S   0x010f94    program     static C:\Program Files\mcc18\src\traditional\math\fxd1616s.asm
          DRI__vConfigSPI   0x013460    program     static D:\git\testing79m\Main\Main.c
    DRI__vEnableGlobalInt   0x013456    program     static D:\git\testing79m\Main\Main.c
        DRI__vHitWatchDog   0x013452    program     static D:\git\testing79m\Main\Main.c
            DRI_vLCDClear   0x013334    program     extern D:\git\testing79m\Singcom\Drivers\oled_c1.c
          DRI_vLCDDisplay   0x013346    program     extern D:\git\testing79m\Singcom\Drivers\oled_c1.c
        DRI_vLCDEntryMode   0x013340    program     extern D:\git\testing79m\Singcom\Drivers\oled_c1.c
       DRI_vLCDReturnhome   0x01333a    program     extern D:\git\testing79m\Singcom\Drivers\oled_c1.c
          DRI_vPrintCGRAM   0x0132be    program     extern D:\git\testing79m\Singcom\Drivers\oled_c1.c
             DataRdyUSART   0x01440a    program     extern D:\git\testing79m\Microchip\TCPIP Stack\UART.c
            DataRdyUSART2   0x014462    program     extern D:\git\testing79m\Microchip\TCPIP Stack\UART.c
              Delay10TCYx   0x0149da    program     extern C:\Program Files\mcc18\src\traditional\delays\d10tcyx.asm
              Delay1KTCYx   0x014964    program     extern C:\Program Files\mcc18\src\traditional\delays\d1ktcyx.asm
                  DelayMS   0x00ae8a    program     extern D:\git\testing79m\SysLib\util.c
       DisplayCompanyMenu   0x005bee    program     extern D:\git\testing79m\Singcom\Drivers\lcd.c
           DisplayIPValue   0x00b0f0    program     extern D:\git\testing79m\SysLib\util.c
                  DoWrite   0x012d0a    program     static D:\git\testing79m\Microchip\TCPIP Stack\SPIEEPROM.c
         DownCvt_vSendI2C   0x0149f0    program     extern D:\git\testing79m\Singcom\Devices\DownConverter_c1.c
                 FLO0832S   0x010c8c    program     extern C:\Program Files\mcc18\src\traditional\math\cast08FP.asm
                 FLO0832U   0x010c88    program     extern C:\Program Files\mcc18\src\traditional\math\cast08FP.asm
                 FLO1632S   0x010cae    program     extern C:\Program Files\mcc18\src\traditional\math\cast16FP.asm
                 FLO1632U   0x010caa    program     extern C:\Program Files\mcc18\src\traditional\math\cast16FP.asm
                    FPA32   0x010cd6    program     extern C:\Program Files\mcc18\src\traditional\math\addFP.asm
                    FPD32   0x010e02    program     extern C:\Program Files\mcc18\src\traditional\math\divFP.asm
                    FPM32   0x010ea8    program     extern C:\Program Files\mcc18\src\traditional\math\mulFP.asm
                    FPS32   0x010cd4    program     extern C:\Program Files\mcc18\src\traditional\math\addFP.asm
                 FXD0808U   0x0149be    program     extern C:\Program Files\mcc18\src\traditional\math\fxd0808u.c
                 FXD1616S   0x010f82    program     extern C:\Program Files\mcc18\src\traditional\math\fxd1616s.asm
                 FXD1616U   0x0148d0    program     extern C:\Program Files\mcc18\src\traditional\math\fxd1616u.c
                 FXD3232U   0x014888    program     extern C:\Program Files\mcc18\src\traditional\math\fxd3232u.c
                 FXM1616S   0x010fce    program     extern C:\Program Files\mcc18\src\traditional\math\fxm1616s.asm
                 FXM1616U   0x011028    program     extern C:\Program Files\mcc18\src\traditional\math\fxm1616u.asm
                 FXM2424U   0x011064    program     extern C:\Program Files\mcc18\src\traditional\math\fxm2424u.asm
                  FXM3232   0x0147aa    program     extern C:\Program Files\mcc18\src\traditional\math\fxm3232.c
       FindMatchingSocket   0x001c0a    program     static D:\git\testing79m\Microchip\TCPIP Stack\TCP.c
        FormatNetBIOSName   0x00df38    program     extern D:\git\testing79m\Microchip\TCPIP Stack\Helpers.c
      GenerateRandomDWORD   0x00d480    program     extern D:\git\testing79m\Microchip\TCPIP Stack\Helpers.c
   GetCurrentFromHexValue   0x013bb6    program     extern D:\git\testing79m\Drivers\External-Peripherals\devadc.c
           GetDWORDString   0x00c7aa    program     extern D:\git\testing79m\App\WebUI\HTTPPrint.c
                GetOneADC   0x0138d6    program     extern D:\git\testing79m\Drivers\MCU-Internal\internalADC.c
             GetOneCHADC0   0x013b10    program     extern D:\git\testing79m\Drivers\External-Peripherals\devadc.c
       GetOneCHADC012Bits   0x013b46    program     extern D:\git\testing79m\Drivers\External-Peripherals\devadc.c
             GetOneCHADC1   0x013b64    program     extern D:\git\testing79m\Drivers\External-Peripherals\devadc.c
       GetOneCHADC112Bits   0x013b9a    program     extern D:\git\testing79m\Drivers\External-Peripherals\devadc.c
                 GetPower   0x00c6c2    program     extern D:\git\testing79m\App\WebUI\HTTPPrint.c
              GetTickCopy   0x0142e0    program     static D:\git\testing79m\Microchip\TCPIP Stack\Tick.c
            GetWORDString   0x00c71c    program     extern D:\git\testing79m\App\WebUI\HTTPPrint.c
                HEXto2ASC   0x00ae42    program     extern D:\git\testing79m\SysLib\util.c
            HTTPCheckAuth   0x0105e8    program     extern D:\git\testing79m\App\WebUI\HTTPApp.c
   HTTPExe_get_deviceinfo   0x009a0a    program     extern D:\git\testing79m\App\WebUI\HTTPGetDevInfo.c
           HTTPExecuteGet   0x010630    program     extern D:\git\testing79m\App\WebUI\HTTPApp.c
          HTTPExecutePost   0x010634    program     extern D:\git\testing79m\App\WebUI\HTTPApp.c
               HTTPGetArg   0x007eee    program     extern D:\git\testing79m\Microchip\TCPIP Stack\HTTP2.c
            HTTPGetROMArg   0x007f34    program     extern D:\git\testing79m\Microchip\TCPIP Stack\HTTP2.c
  HTTPGet__boDeviceConfig   0x0099e0    program     static D:\git\testing79m\App\WebUI\HTTPGetDevInfo.c
    HTTPGet__boInfoConfig   0x008c74    program     static D:\git\testing79m\App\WebUI\HTTPGetDevInfo.c
 HTTPGet__boNetworkConfig   0x008cba    program     static D:\git\testing79m\App\WebUI\HTTPGetDevInfo.c
      HTTPGet__boSetOnOff   0x008d48    program     static D:\git\testing79m\App\WebUI\HTTPGetDevInfo.c
   HTTPGet__u8ClearBUCIAm   0x00997c    program     static D:\git\testing79m\App\WebUI\HTTPGetDevInfo.c
   HTTPGet__u8ClearLNBIAm   0x0099ae    program     static D:\git\testing79m\App\WebUI\HTTPGetDevInfo.c
     HTTPGet__u8SetBUCREF   0x0098b4    program     static D:\git\testing79m\App\WebUI\HTTPGetDevInfo.c
 HTTPGet__u8SetDownCvtALC   0x0095e8    program     static D:\git\testing79m\App\WebUI\HTTPGetDevInfo.c
HTTPGet__u8SetDownCvtAttn   0x0090aa    program     static D:\git\testing79m\App\WebUI\HTTPGetDevInfo.c
HTTPGet__u8SetDownCvtMute   0x00973c    program     static D:\git\testing79m\App\WebUI\HTTPGetDevInfo.c
HTTPGet__u8SetDownCvtPower   0x009372    program     static D:\git\testing79m\App\WebUI\HTTPGetDevInfo.c
HTTPGet__u8SetDownCvtRFFreq   0x008ea2    program     static D:\git\testing79m\App\WebUI\HTTPGetDevInfo.c
HTTPGet__u8SetDownCvtSetPower   0x009444    program     static D:\git\testing79m\App\WebUI\HTTPGetDevInfo.c
     HTTPGet__u8SetLNBREF   0x00991a    program     static D:\git\testing79m\App\WebUI\HTTPGetDevInfo.c
   HTTPGet__u8SetUpCvtALC   0x00954c    program     static D:\git\testing79m\App\WebUI\HTTPGetDevInfo.c
  HTTPGet__u8SetUpCvtAttn   0x008fb8    program     static D:\git\testing79m\App\WebUI\HTTPGetDevInfo.c
  HTTPGet__u8SetUpCvtMute   0x00968a    program     static D:\git\testing79m\App\WebUI\HTTPGetDevInfo.c
 HTTPGet__u8SetUpCvtPower   0x0091a0    program     static D:\git\testing79m\App\WebUI\HTTPGetDevInfo.c
HTTPGet__u8SetUpCvtRFFreq   0x008d90    program     static D:\git\testing79m\App\WebUI\HTTPGetDevInfo.c
HTTPGet__u8SetUpCvtSetPower   0x00926e    program     static D:\git\testing79m\App\WebUI\HTTPGetDevInfo.c
   HTTPGet__u8SetVOL18VDC   0x0097e6    program     static D:\git\testing79m\App\WebUI\HTTPGetDevInfo.c
   HTTPGet__u8SetVOL24VDC   0x00984e    program     static D:\git\testing79m\App\WebUI\HTTPGetDevInfo.c
HTTPHeaderParseAuthorization   0x007c00    program     static D:\git\testing79m\Microchip\TCPIP Stack\HTTP2.c
HTTPHeaderParseContentLength   0x007d2c    program     static D:\git\testing79m\Microchip\TCPIP Stack\HTTP2.c
    HTTPHeaderParseLookup   0x007be4    program     static D:\git\testing79m\Microchip\TCPIP Stack\HTTP2.c
              HTTPIncFile   0x0083f2    program     extern D:\git\testing79m\Microchip\TCPIP Stack\HTTP2.c
                 HTTPInit   0x006fce    program     extern D:\git\testing79m\Microchip\TCPIP Stack\HTTP2.c
             HTTPLoadConn   0x0070b2    program     static D:\git\testing79m\Microchip\TCPIP Stack\HTTP2.c
           HTTPMPFSUpload   0x0081c2    program     static D:\git\testing79m\Microchip\TCPIP Stack\HTTP2.c
            HTTPNeedsAuth   0x0105a6    program     extern D:\git\testing79m\App\WebUI\HTTPApp.c
           HTTPPostConfig   0x01074a    program     static D:\git\testing79m\App\WebUI\HTTPApp.c
              HTTPPostlut   0x0106b2    program     static D:\git\testing79m\App\WebUI\HTTPApp.c
                HTTPPrint   0x00683a    program     extern D:\git\testing79m\Microchip\Include\TCPIP Stack\HTTPPrint.h
              HTTPPrintIP   0x00c5e2    program     extern D:\git\testing79m\App\WebUI\HTTPPrint.c
               HTTPPrint_   0x006fbc    program     extern D:\git\testing79m\Microchip\Include\TCPIP Stack\HTTPPrint.h
        HTTPPrint_18Vctrl   0x00cba8    program     extern D:\git\testing79m\App\WebUI\HTTPPrint.c
        HTTPPrint_24Vctrl   0x00cb9a    program     extern D:\git\testing79m\App\WebUI\HTTPPrint.c
           HTTPPrint_ALCa   0x00cae8    program     extern D:\git\testing79m\App\WebUI\HTTPPrint.c
   HTTPPrint_ALCaSelected   0x00cbdc    program     extern D:\git\testing79m\App\WebUI\HTTPPrint.c
           HTTPPrint_ALCb   0x00cb6e    program     extern D:\git\testing79m\App\WebUI\HTTPPrint.c
   HTTPPrint_ALCbSelected   0x00cc0c    program     extern D:\git\testing79m\App\WebUI\HTTPPrint.c
     HTTPPrint_BUCCurrent   0x00ccd6    program     extern D:\git\testing79m\App\WebUI\HTTPPrint.c
        HTTPPrint_BUCIAlm   0x00ce92    program     extern D:\git\testing79m\App\WebUI\HTTPPrint.c
         HTTPPrint_BUCREF   0x00cc9c    program     extern D:\git\testing79m\App\WebUI\HTTPPrint.c
 HTTPPrint_BUCREFSelected   0x00cc84    program     extern D:\git\testing79m\App\WebUI\HTTPPrint.c
   HTTPPrint_ClearBUCIAlm   0x00cece    program     extern D:\git\testing79m\App\WebUI\HTTPPrint.c
   HTTPPrint_ClearLNBIAlm   0x00ced4    program     extern D:\git\testing79m\App\WebUI\HTTPPrint.c
  HTTPPrint_DC18VSelected   0x00cc3c    program     extern D:\git\testing79m\App\WebUI\HTTPPrint.c
  HTTPPrint_DC24VSelected   0x00cc54    program     extern D:\git\testing79m\App\WebUI\HTTPPrint.c
    HTTPPrint_DeviceModel   0x00c5a2    program     extern D:\git\testing79m\App\WebUI\HTTPPrint.c
   HTTPPrint_DeviceSerial   0x00c5ae    program     extern D:\git\testing79m\App\WebUI\HTTPPrint.c
    HTTPPrint_Devicefwver   0x00c6a2    program     extern D:\git\testing79m\App\WebUI\HTTPPrint.c
         HTTPPrint_EXTREF   0x00ccb8    program     extern D:\git\testing79m\App\WebUI\HTTPPrint.c
     HTTPPrint_LNBCurrent   0x00cd00    program     extern D:\git\testing79m\App\WebUI\HTTPPrint.c
        HTTPPrint_LNBIAlm   0x00ceb0    program     extern D:\git\testing79m\App\WebUI\HTTPPrint.c
         HTTPPrint_LNBREF   0x00ccaa    program     extern D:\git\testing79m\App\WebUI\HTTPPrint.c
 HTTPPrint_LNBREFSelected   0x00cc6c    program     extern D:\git\testing79m\App\WebUI\HTTPPrint.c
            HTTPPrint_MIP   0x00c63e    program     extern D:\git\testing79m\App\WebUI\HTTPPrint.c
          HTTPPrint_Mutea   0x00caf6    program     extern D:\git\testing79m\App\WebUI\HTTPPrint.c
  HTTPPrint_MuteaSelected   0x00cbf4    program     extern D:\git\testing79m\App\WebUI\HTTPPrint.c
          HTTPPrint_Muteb   0x00cb7c    program     extern D:\git\testing79m\App\WebUI\HTTPPrint.c
  HTTPPrint_MutebSelected   0x00cc24    program     extern D:\git\testing79m\App\WebUI\HTTPPrint.c
HTTPPrint_config_dhcpchecked   0x00cbb6    program     extern D:\git\testing79m\App\WebUI\HTTPPrint.c
      HTTPPrint_config_gw   0x00c68e    program     extern D:\git\testing79m\App\WebUI\HTTPPrint.c
      HTTPPrint_config_ip   0x00c672    program     extern D:\git\testing79m\App\WebUI\HTTPPrint.c
     HTTPPrint_config_mac   0x00cfd6    program     extern D:\git\testing79m\App\WebUI\HTTPPrint.c
  HTTPPrint_config_subnet   0x00c67a    program     extern D:\git\testing79m\App\WebUI\HTTPPrint.c
HTTPPrint_converteraalarm   0x00ce66    program     extern D:\git\testing79m\App\WebUI\HTTPPrint.c
HTTPPrint_converteraatten   0x00ca16    program     extern D:\git\testing79m\App\WebUI\HTTPPrint.c
   HTTPPrint_converteralo   0x00ca88    program     extern D:\git\testing79m\App\WebUI\HTTPPrint.c
HTTPPrint_converterarffreq   0x00c9a6    program     extern D:\git\testing79m\App\WebUI\HTTPPrint.c
HTTPPrint_converterbalarm   0x00ce7c    program     extern D:\git\testing79m\App\WebUI\HTTPPrint.c
HTTPPrint_converterbatten   0x00ca4e    program     extern D:\git\testing79m\App\WebUI\HTTPPrint.c
   HTTPPrint_converterblo   0x00cb14    program     extern D:\git\testing79m\App\WebUI\HTTPPrint.c
HTTPPrint_converterbrffreq   0x00c9de    program     extern D:\git\testing79m\App\WebUI\HTTPPrint.c
    HTTPPrint_dhcp_status   0x00c5ba    program     extern D:\git\testing79m\App\WebUI\HTTPPrint.c
            HTTPPrint_led   0x00ceda    program     extern D:\git\testing79m\App\WebUI\HTTPPrint.c
            HTTPPrint_maf   0x00cfa2    program     extern D:\git\testing79m\App\WebUI\HTTPPrint.c
            HTTPPrint_mas   0x00cfbc    program     extern D:\git\testing79m\App\WebUI\HTTPPrint.c
            HTTPPrint_ned   0x00cf3e    program     extern D:\git\testing79m\App\WebUI\HTTPPrint.c
   HTTPPrint_outputpowera   0x00caa8    program     extern D:\git\testing79m\App\WebUI\HTTPPrint.c
   HTTPPrint_outputpowerb   0x00cb32    program     extern D:\git\testing79m\App\WebUI\HTTPPrint.c
      HTTPPrint_rdi2cdata   0x00cd2a    program     extern D:\git\testing79m\App\WebUI\HTTPPrint.c
      HTTPPrint_read_comm   0x00d032    program     extern D:\git\testing79m\App\WebUI\HTTPPrint.c
        HTTPPrint_setpass   0x00cdca    program     extern D:\git\testing79m\App\WebUI\HTTPPrint.c
   HTTPPrint_setpasscolor   0x00cd8a    program     extern D:\git\testing79m\App\WebUI\HTTPPrint.c
      HTTPPrint_setpowera   0x00cac8    program     extern D:\git\testing79m\App\WebUI\HTTPPrint.c
      HTTPPrint_setpowerb   0x00cb50    program     extern D:\git\testing79m\App\WebUI\HTTPPrint.c
      HTTPPrint_static_ip   0x00c652    program     extern D:\git\testing79m\App\WebUI\HTTPPrint.c
         HTTPPrint_swmode   0x00ca86    program     extern D:\git\testing79m\App\WebUI\HTTPPrint.c
      HTTPPrint_wri2cdata   0x00cd5a    program     extern D:\git\testing79m\App\WebUI\HTTPPrint.c
     HTTPPrint_write_comm   0x00d036    program     extern D:\git\testing79m\App\WebUI\HTTPPrint.c
              HTTPProcess   0x0070fa    program     static D:\git\testing79m\Microchip\TCPIP Stack\HTTP2.c
         HTTPReadPostName   0x007f96    program     extern D:\git\testing79m\Microchip\TCPIP Stack\HTTP2.c
        HTTPReadPostValue   0x007fc6    program     extern D:\git\testing79m\Microchip\TCPIP Stack\HTTP2.c
               HTTPReadTo   0x008036    program     static D:\git\testing79m\Microchip\TCPIP Stack\HTTP2.c
       HTTPRequestHeaders   0x0147a1    program     static D:\git\testing79m\Microchip\TCPIP Stack\HTTP2.c
      HTTPResponseHeaders   0x014777    program     static D:\git\testing79m\Microchip\TCPIP Stack\HTTP2.c
             HTTPSendFile   0x007a6c    program     static D:\git\testing79m\Microchip\TCPIP Stack\HTTP2.c
               HTTPServer   0x007030    program     extern D:\git\testing79m\Microchip\TCPIP Stack\HTTP2.c
            HTTPURLDecode   0x007db4    program     extern D:\git\testing79m\Microchip\TCPIP Stack\HTTP2.c
                HTTP_CRLF   0x01472c    program     static D:\git\testing79m\Microchip\TCPIP Stack\HTTP2.c
   HTTP_vClearWebPassword   0x0134e6    program     static D:\git\testing79m\Main\Main.c
             HandleTCPSeg   0x001fa2    program     static D:\git\testing79m\Microchip\TCPIP Stack\TCP.c
                  Hex2Int   0x00aeba    program     extern D:\git\testing79m\SysLib\util.c
                  HighISR   0x013dd8    program     extern D:\git\testing79m\Drivers\MCU-Internal\ISR.c
               HighVector   0x000008    program     extern D:\git\testing79m\Drivers\MCU-Internal\ISR.c
                 I2C_Read   0x012ea4    program     extern D:\git\testing79m\Singcom\Drivers\i2c_c1.c
                 I2C_Send   0x012e78    program     extern D:\git\testing79m\Singcom\Drivers\i2c_c1.c
              ICMPProcess   0x014186    program     extern D:\git\testing79m\Microchip\TCPIP Stack\ICMP.c
                  INT3216   0x0110f6    program     extern C:\Program Files\mcc18\src\traditional\math\castFP16.asm
              IPGetHeader   0x012850    program     extern D:\git\testing79m\Microchip\TCPIP Stack\IP.c
              IPPutHeader   0x01298c    program     extern D:\git\testing79m\Microchip\TCPIP Stack\IP.c
            IPSetRxBuffer   0x012a92    program     extern D:\git\testing79m\Microchip\TCPIP Stack\IP.c
            InitAppConfig   0x01260e    program     extern D:\git\testing79m\Bootstrap\Initialization.c
                 InitData   0x0124ce    program     extern D:\git\testing79m\Bootstrap\Initialization.c
              Initial_LCD   0x005bd4    program     extern D:\git\testing79m\Singcom\Drivers\lcd.c
          InitializeBoard   0x0125c6    program     extern D:\git\testing79m\Bootstrap\Initialization.c
                  Int2Hex   0x00aef4    program     extern D:\git\testing79m\SysLib\util.c
            KeyProcessing   0x004952    program     extern D:\git\testing79m\Singcom\Drivers\lcd.c
       LCDDisplayLoadData   0x00572c    program     extern D:\git\testing79m\Singcom\Drivers\lcd.c
          LCDMenuInScreen   0x004f02    program     extern D:\git\testing79m\Singcom\Drivers\lcd.c
        LCDMenuValue2Char   0x005b42    program     extern D:\git\testing79m\Singcom\Drivers\lcd.c
           LCDWriteString   0x013286    program     extern D:\git\testing79m\Singcom\Drivers\oled_c1.c
     LCD_vEnableInterrupt   0x005c52    program     extern D:\git\testing79m\Singcom\Drivers\lcd.c
               LCD_vSetIO   0x005bbc    program     extern D:\git\testing79m\Singcom\Drivers\lcd.c
            LCD_vSetKepad   0x005baa    program     extern D:\git\testing79m\Singcom\Drivers\lcd.c
                   LowISR   0x013cee    program     extern D:\git\testing79m\Drivers\MCU-Internal\ISR.c
                LowVector   0x000018    program     extern D:\git\testing79m\Drivers\MCU-Internal\ISR.c
        MACCalcRxChecksum   0x00fee8    program     extern D:\git\testing79m\Microchip\TCPIP Stack\ETH97J60.c
             MACDiscardRx   0x00fb46    program     extern D:\git\testing79m\Microchip\TCPIP Stack\ETH97J60.c
                 MACFlush   0x00fe7c    program     extern D:\git\testing79m\Microchip\TCPIP Stack\ETH97J60.c
                   MACGet   0x0101fe    program     extern D:\git\testing79m\Microchip\TCPIP Stack\ETH97J60.c
              MACGetArray   0x010202    program     extern D:\git\testing79m\Microchip\TCPIP Stack\ETH97J60.c
         MACGetFreeRxSize   0x00fba6    program     extern D:\git\testing79m\Microchip\TCPIP Stack\ETH97J60.c
             MACGetHeader   0x00fc6e    program     extern D:\git\testing79m\Microchip\TCPIP Stack\ETH97J60.c
                  MACInit   0x00f9f4    program     extern D:\git\testing79m\Microchip\TCPIP Stack\ETH97J60.c
              MACIsLinked   0x00fb0a    program     extern D:\git\testing79m\Microchip\TCPIP Stack\ETH97J60.c
         MACIsMemCopyDone   0x0101f2    program     extern D:\git\testing79m\Microchip\TCPIP Stack\ETH97J60.c
             MACIsTxReady   0x00fb1e    program     extern D:\git\testing79m\Microchip\TCPIP Stack\ETH97J60.c
          MACMemCopyAsync   0x0100a4    program     extern D:\git\testing79m\Microchip\TCPIP Stack\ETH97J60.c
             MACPowerDown   0x0103e2    program     extern D:\git\testing79m\Microchip\TCPIP Stack\ETH97J60.c
               MACPowerUp   0x0103f4    program     extern D:\git\testing79m\Microchip\TCPIP Stack\ETH97J60.c
                   MACPut   0x01025c    program     extern D:\git\testing79m\Microchip\TCPIP Stack\ETH97J60.c
              MACPutArray   0x010282    program     extern D:\git\testing79m\Microchip\TCPIP Stack\ETH97J60.c
             MACPutHeader   0x00fe18    program     extern D:\git\testing79m\Microchip\TCPIP Stack\ETH97J60.c
           MACPutROMArray   0x0102d2    program     extern D:\git\testing79m\Microchip\TCPIP Stack\ETH97J60.c
            MACSetReadPtr   0x00fed0    program     extern D:\git\testing79m\Microchip\TCPIP Stack\ETH97J60.c
        MACSetReadPtrInRx   0x00fea4    program     extern D:\git\testing79m\Microchip\TCPIP Stack\ETH97J60.c
           MACSetWritePtr   0x00febc    program     extern D:\git\testing79m\Microchip\TCPIP Stack\ETH97J60.c
                MPFSClose   0x00b9d6    program     extern D:\git\testing79m\Microchip\TCPIP Stack\MPFS2.c
               MPFSFormat   0x00bc82    program     extern D:\git\testing79m\Microchip\TCPIP Stack\MPFS2.c
                  MPFSGet   0x00b9ee    program     extern D:\git\testing79m\Microchip\TCPIP Stack\MPFS2.c
             MPFSGetArray   0x00ba94    program     extern D:\git\testing79m\Microchip\TCPIP Stack\MPFS2.c
          MPFSGetBytesRem   0x00bef4    program     extern D:\git\testing79m\Microchip\TCPIP Stack\MPFS2.c
           MPFSGetEndAddr   0x00bf5a    program     extern D:\git\testing79m\Microchip\TCPIP Stack\MPFS2.c
          MPFSGetFilename   0x00bfa8    program     extern D:\git\testing79m\Microchip\TCPIP Stack\MPFS2.c
             MPFSGetFlags   0x00be96    program     extern D:\git\testing79m\Microchip\TCPIP Stack\MPFS2.c
                MPFSGetID   0x00c060    program     extern D:\git\testing79m\Microchip\TCPIP Stack\MPFS2.c
              MPFSGetLong   0x00bb24    program     extern D:\git\testing79m\Microchip\TCPIP Stack\MPFS2.c
         MPFSGetMicrotime   0x00be64    program     extern D:\git\testing79m\Microchip\TCPIP Stack\MPFS2.c
          MPFSGetPosition   0x00c02e    program     extern D:\git\testing79m\Microchip\TCPIP Stack\MPFS2.c
              MPFSGetSize   0x00bec2    program     extern D:\git\testing79m\Microchip\TCPIP Stack\MPFS2.c
         MPFSGetStartAddr   0x00bf1e    program     extern D:\git\testing79m\Microchip\TCPIP Stack\MPFS2.c
         MPFSGetTimestamp   0x00be32    program     extern D:\git\testing79m\Microchip\TCPIP Stack\MPFS2.c
                 MPFSInit   0x00b690    program     extern D:\git\testing79m\Microchip\TCPIP Stack\MPFS2.c
                 MPFSOpen   0x00b6c6    program     extern D:\git\testing79m\Microchip\TCPIP Stack\MPFS2.c
               MPFSOpenID   0x00b958    program     extern D:\git\testing79m\Microchip\TCPIP Stack\MPFS2.c
              MPFSOpenROM   0x00b814    program     extern D:\git\testing79m\Microchip\TCPIP Stack\MPFS2.c
             MPFSPutArray   0x00bd04    program     extern D:\git\testing79m\Microchip\TCPIP Stack\MPFS2.c
               MPFSPutEnd   0x00bd8a    program     extern D:\git\testing79m\Microchip\TCPIP Stack\MPFS2.c
                 MPFSSeek   0x00bb64    program     extern D:\git\testing79m\Microchip\TCPIP Stack\MPFS2.c
            Main_vLEDInit   0x0123be    program     extern D:\git\testing79m\Singcom\Devices\MainControl_c1.c
              Main_vLEDLO   0x012382    program     extern D:\git\testing79m\Singcom\Devices\MainControl_c1.c
              Main_vLEDRX   0x0123aa    program     extern D:\git\testing79m\Singcom\Devices\MainControl_c1.c
              Main_vLEDTX   0x012396    program     extern D:\git\testing79m\Singcom\Devices\MainControl_c1.c
    Main_vPrintDeviceInfo   0x0121e8    program     extern D:\git\testing79m\Singcom\Devices\MainControl_c1.c
 Main_vPrintDownConverter   0x01213e    program     extern D:\git\testing79m\Singcom\Devices\MainControl_c1.c
            Main_vPrintIP   0x0122d8    program     extern D:\git\testing79m\Singcom\Devices\MainControl_c1.c
       Main_vPrintModelNo   0x0122f2    program     extern D:\git\testing79m\Singcom\Devices\MainControl_c1.c
      Main_vPrintSerialNo   0x012302    program     extern D:\git\testing79m\Singcom\Devices\MainControl_c1.c
   Main_vPrintUpConverter   0x0120d8    program     extern D:\git\testing79m\Singcom\Devices\MainControl_c1.c
       Main_vPrintVolCtrl   0x0121a4    program     extern D:\git\testing79m\Singcom\Devices\MainControl_c1.c
              Main_vSetIP   0x01231c    program     extern D:\git\testing79m\Singcom\Devices\MainControl_c1.c
              MenuDisplay   0x011260    program     extern D:\git\testing79m\Singcom\Drivers\lcd.c
           OLED_vSetKepad   0x01316e    program     extern D:\git\testing79m\Singcom\Drivers\oled_c1.c
                  OpenADC   0x01481a    program     extern C:\MCC18\src\pmc_common\ADC\adcopen.c
          PrintCompanyLCD   0x013370    program     extern D:\git\testing79m\Singcom\Drivers\oled_c1.c
                 PrintLCD   0x005052    program     extern D:\git\testing79m\Singcom\Drivers\lcd.c
     PrintLCDEditPosition   0x004fcc    program     extern D:\git\testing79m\Singcom\Drivers\lcd.c
       PrintLCDFromBuffer   0x00566c    program     extern D:\git\testing79m\Singcom\Drivers\lcd.c
        PrintLCDWholePage   0x0054fa    program     extern D:\git\testing79m\Singcom\Drivers\lcd.c
     ROMStringToIPAddress   0x00d872    program     extern D:\git\testing79m\Microchip\TCPIP Stack\Helpers.c
                 ReadData   0x01321e    program     extern D:\git\testing79m\Singcom\Drivers\oled_c1.c
               ReadPHYReg   0x010334    program     extern D:\git\testing79m\Microchip\TCPIP Stack\ETH97J60.c
                ReadUSART   0x01441c    program     extern D:\git\testing79m\Microchip\TCPIP Stack\UART.c
               ReadUSART2   0x014446    program     extern D:\git\testing79m\Microchip\TCPIP Stack\UART.c
            ReadWriteSPI2   0x01463a    program     extern D:\git\testing79m\Drivers\MCU-Internal\devspi.c
                 Read_ADC   0x01370c    program     extern D:\git\testing79m\Drivers\MCU-Internal\internalADC.c
                  SPIInit   0x014622    program     extern D:\git\testing79m\Drivers\MCU-Internal\devspi.c
          SYS__u8InitData   0x01353c    program     static D:\git\testing79m\Main\Main.c
SYS__u8UpdateDownConverter   0x004194    program     static D:\git\testing79m\Singcom\Drivers\lcd.c
 SYS__u8UpdateUpConverter   0x003e16    program     static D:\git\testing79m\Singcom\Drivers\lcd.c
         SYS__u8UpdateVOL   0x004522    program     static D:\git\testing79m\Singcom\Drivers\lcd.c
      SYS__vLcdKeyPadTask   0x0134ba    program     static D:\git\testing79m\Main\Main.c
         SYS__vStatusTask   0x013470    program     static D:\git\testing79m\Main\Main.c
            SaveAppConfig   0x00b07e    program     extern D:\git\testing79m\SysLib\util.c
              SaveSetting   0x00b0a2    program     extern D:\git\testing79m\SysLib\util.c
                  SendTCP   0x0016a4    program     static D:\git\testing79m\Microchip\TCPIP Stack\TCP.c
     SerializedMACAddress   0x014a34    program     static D:\git\testing79m\Bootstrap\Initialization.c
          SetDefaultValue   0x0126c6    program     extern D:\git\testing79m\Bootstrap\Initialization.c
                   SetI2C   0x013006    program     extern D:\git\testing79m\Singcom\Drivers\i2c_c1.c
        StackApplications   0x013ae8    program     extern D:\git\testing79m\Microchip\TCPIP Stack\StackTsk.c
                StackInit   0x01392c    program     extern D:\git\testing79m\Microchip\TCPIP Stack\StackTsk.c
                StackTask   0x01395c    program     extern D:\git\testing79m\Microchip\TCPIP Stack\StackTsk.c
        StringToIPAddress   0x00d7a2    program     extern D:\git\testing79m\Microchip\TCPIP Stack\Helpers.c
            SwapARPPacket   0x011b9a    program     extern D:\git\testing79m\Microchip\TCPIP Stack\ARP.c
             SwapIPHeader   0x012ac0    program     static D:\git\testing79m\Microchip\TCPIP Stack\IP.c
            SwapTCPHeader   0x001ea8    program     static D:\git\testing79m\Microchip\TCPIP Stack\TCP.c
                  SyncTCB   0x000132    program     static D:\git\testing79m\Microchip\TCPIP Stack\TCP.c
              SyncTCBStub   0x0000c8    program     static D:\git\testing79m\Microchip\TCPIP Stack\TCP.c
        TCPAdjustFIFOSize   0x002a38    program     extern D:\git\testing79m\Microchip\TCPIP Stack\TCP.c
                 TCPClose   0x00053c    program     extern D:\git\testing79m\Microchip\TCPIP Stack\TCP.c
               TCPDiscard   0x0008e2    program     extern D:\git\testing79m\Microchip\TCPIP Stack\TCP.c
            TCPDisconnect   0x0004c0    program     extern D:\git\testing79m\Microchip\TCPIP Stack\TCP.c
           TCPFindArrayEx   0x000c72    program     extern D:\git\testing79m\Microchip\TCPIP Stack\TCP.c
                TCPFindEx   0x001140    program     extern D:\git\testing79m\Microchip\TCPIP Stack\TCP.c
        TCPFindROMArrayEx   0x000ef0    program     extern D:\git\testing79m\Microchip\TCPIP Stack\TCP.c
                 TCPFlush   0x00058a    program     extern D:\git\testing79m\Microchip\TCPIP Stack\TCP.c
                   TCPGet   0x00094a    program     extern D:\git\testing79m\Microchip\TCPIP Stack\TCP.c
              TCPGetArray   0x0009b6    program     extern D:\git\testing79m\Microchip\TCPIP Stack\TCP.c
         TCPGetRemoteInfo   0x000550    program     extern D:\git\testing79m\Microchip\TCPIP Stack\TCP.c
         TCPGetRxFIFOFree   0x000aee    program     extern D:\git\testing79m\Microchip\TCPIP Stack\TCP.c
         TCPGetTxFIFOFull   0x0008ba    program     extern D:\git\testing79m\Microchip\TCPIP Stack\TCP.c
                  TCPInit   0x0001b0    program     extern D:\git\testing79m\Microchip\TCPIP Stack\TCP.c
           TCPIsConnected   0x0004aa    program     extern D:\git\testing79m\Microchip\TCPIP Stack\TCP.c
            TCPIsGetReady   0x000904    program     extern D:\git\testing79m\Microchip\TCPIP Stack\TCP.c
            TCPIsPutReady   0x0005a6    program     extern D:\git\testing79m\Microchip\TCPIP Stack\TCP.c
                  TCPOpen   0x000360    program     extern D:\git\testing79m\Microchip\TCPIP Stack\TCP.c
                  TCPPeek   0x000c46    program     extern D:\git\testing79m\Microchip\TCPIP Stack\TCP.c
             TCPPeekArray   0x000b16    program     extern D:\git\testing79m\Microchip\TCPIP Stack\TCP.c
               TCPProcess   0x00154a    program     extern D:\git\testing79m\Microchip\TCPIP Stack\TCP.c
                   TCPPut   0x00060c    program     extern D:\git\testing79m\Microchip\TCPIP Stack\TCP.c
              TCPPutArray   0x00069a    program     extern D:\git\testing79m\Microchip\TCPIP Stack\TCP.c
           TCPPutROMArray   0x00073e    program     extern D:\git\testing79m\Microchip\TCPIP Stack\TCP.c
          TCPPutROMString   0x000850    program     extern D:\git\testing79m\Microchip\TCPIP Stack\TCP.c
             TCPPutString   0x0007f0    program     extern D:\git\testing79m\Microchip\TCPIP Stack\TCP.c
               TCPRAMCopy   0x002bf2    program     static D:\git\testing79m\Microchip\TCPIP Stack\TCP.c
            TCPRAMCopyROM   0x002c80    program     static D:\git\testing79m\Microchip\TCPIP Stack\TCP.c
     TCPSocketInitializer   0x014920    program     extern D:\git\testing79m\Port\TCPIPConfig.h
                  TCPTick   0x001176    program     extern D:\git\testing79m\Microchip\TCPIP Stack\TCP.c
              TCPWasReset   0x000494    program     extern D:\git\testing79m\Microchip\TCPIP Stack\TCP.c
               TSIGN1616A   0x01101a    program     static C:\Program Files\mcc18\src\traditional\math\fxm1616s.asm
TickConvertToMilliseconds   0x014362    program     extern D:\git\testing79m\Microchip\TCPIP Stack\Tick.c
                  TickGet   0x014306    program     extern D:\git\testing79m\Microchip\TCPIP Stack\Tick.c
            TickGetDiv256   0x01431a    program     extern D:\git\testing79m\Microchip\TCPIP Stack\Tick.c
            TickGetDiv64K   0x01433e    program     extern D:\git\testing79m\Microchip\TCPIP Stack\Tick.c
                 TickInit   0x0142d0    program     extern D:\git\testing79m\Microchip\TCPIP Stack\Tick.c
               TickUpdate   0x014398    program     extern D:\git\testing79m\Microchip\TCPIP Stack\Tick.c
                 UART2ISR   0x014984    program     extern D:\git\testing79m\Microchip\TCPIP Stack\UART2TCPBridge.c
          UpCvt_vPrintALC   0x0140d2    program     extern D:\git\testing79m\Singcom\Devices\UpConverter_c1.c
         UpCvt_vPrintAttn   0x0140b8    program     extern D:\git\testing79m\Singcom\Devices\UpConverter_c1.c
         UpCvt_vPrintFreq   0x014038    program     extern D:\git\testing79m\Singcom\Devices\UpConverter_c1.c
           UpCvt_vPrintLo   0x014086    program     extern D:\git\testing79m\Singcom\Devices\UpConverter_c1.c
         UpCvt_vPrintMute   0x0140ec    program     extern D:\git\testing79m\Singcom\Devices\UpConverter_c1.c
        UpCvt_vPrintPower   0x014052    program     extern D:\git\testing79m\Singcom\Devices\UpConverter_c1.c
        UpCvt_vPrintStPwr   0x01406c    program     extern D:\git\testing79m\Singcom\Devices\UpConverter_c1.c
           UpCvt_vSendI2C   0x01413e    program     extern D:\git\testing79m\Singcom\Devices\UpConverter_c1.c
            UpCvt_vSetALC   0x014156    program     extern D:\git\testing79m\Singcom\Devices\UpConverter_c1.c
           UpCvt_vSetAttn   0x014150    program     extern D:\git\testing79m\Singcom\Devices\UpConverter_c1.c
           UpCvt_vSetFreq   0x01414e    program     extern D:\git\testing79m\Singcom\Devices\UpConverter_c1.c
           UpCvt_vSetMute   0x014158    program     extern D:\git\testing79m\Singcom\Devices\UpConverter_c1.c
          UpCvt_vSetPower   0x014152    program     extern D:\git\testing79m\Singcom\Devices\UpConverter_c1.c
          UpCvt_vSetStPwr   0x014154    program     extern D:\git\testing79m\Singcom\Devices\UpConverter_c1.c
               UpdateData   0x0136c8    program     extern D:\git\testing79m\Main\Main.c
         UpdateDataLEDSys   0x0136d8    program     extern D:\git\testing79m\Main\Main.c
        UpdateDataMenuSys   0x00481e    program     extern D:\git\testing79m\Singcom\Drivers\lcd.c
      UpdateDataModuleSys   0x0047f4    program     extern D:\git\testing79m\Singcom\Drivers\lcd.c
        UpdateDataUartSys   0x0136d6    program     extern D:\git\testing79m\Main\Main.c
             UpdateStatus   0x0047ca    program     extern D:\git\testing79m\Singcom\Drivers\lcd.c
         Util_u16ByteSwap   0x00a68a    program     extern D:\git\testing79m\SysLib\util.c
        Util_u16DWORDSwap   0x00a716    program     extern D:\git\testing79m\SysLib\util.c
      Util_u8Float2String   0x00ab52    program     extern D:\git\testing79m\SysLib\util.c
      Util_u8String2DWORD   0x00ab18    program     extern D:\git\testing79m\SysLib\util.c
      Util_u8String2Float   0x00ac10    program     extern D:\git\testing79m\SysLib\util.c
     Util_u8String2NFloat   0x00ace4    program     extern D:\git\testing79m\SysLib\util.c
      Util_u8String2int16   0x00a900    program     extern D:\git\testing79m\SysLib\util.c
Util_u8String2int32_noDotH   0x00a9cc    program     extern D:\git\testing79m\SysLib\util.c
Util_u8String2int32_noDotL   0x00aa72    program     extern D:\git\testing79m\SysLib\util.c
         VOLCTRL_vSendI2C   0x014a02    program     extern D:\git\testing79m\Singcom\Devices\DownConverter_c1.c
      Value2DisplayBuffer   0x005c68    program     extern D:\git\testing79m\Singcom\Drivers\lcd.c
                WriteData   0x0131ec    program     extern D:\git\testing79m\Singcom\Drivers\oled_c1.c
                 WriteIns   0x0131be    program     extern D:\git\testing79m\Singcom\Drivers\oled_c1.c
              WritePHYReg   0x010392    program     extern D:\git\testing79m\Microchip\TCPIP Stack\ETH97J60.c
              WriteString   0x013256    program     extern D:\git\testing79m\Singcom\Drivers\oled_c1.c
               WriteUSART   0x014420    program     extern D:\git\testing79m\Microchip\TCPIP Stack\UART.c
              WriteUSART2   0x014474    program     extern D:\git\testing79m\Microchip\TCPIP Stack\UART.c
             XEEBeginRead   0x012b94    program     extern D:\git\testing79m\Microchip\TCPIP Stack\SPIEEPROM.c
            XEEBeginWrite   0x012c8c    program     extern D:\git\testing79m\Microchip\TCPIP Stack\SPIEEPROM.c
               XEEEndRead   0x012bf6    program     extern D:\git\testing79m\Microchip\TCPIP Stack\SPIEEPROM.c
              XEEEndWrite   0x012d00    program     extern D:\git\testing79m\Microchip\TCPIP Stack\SPIEEPROM.c
                  XEEInit   0x012b7e    program     extern D:\git\testing79m\Microchip\TCPIP Stack\SPIEEPROM.c
                XEEIsBusy   0x012db2    program     extern D:\git\testing79m\Microchip\TCPIP Stack\SPIEEPROM.c
                  XEERead   0x012ba0    program     extern D:\git\testing79m\Microchip\TCPIP Stack\SPIEEPROM.c
             XEEReadArray   0x012bf8    program     extern D:\git\testing79m\Microchip\TCPIP Stack\SPIEEPROM.c
                 XEEWrite   0x012c98    program     extern D:\git\testing79m\Microchip\TCPIP Stack\SPIEEPROM.c
            XEEWriteArray   0x012cc6    program     extern D:\git\testing79m\Microchip\TCPIP Stack\SPIEEPROM.c
                  _14jEnd   0x013fc4    program     static C:\Program Files\mcc18\src\traditional\stdclib\atol.asm
              _2jContinue   0x011da2    program     static C:\Program Files\mcc18\src\traditional\stdclib\memset.asm
              _2jContinue   0x011c84    program     static C:\Program Files\mcc18\src\traditional\stdclib\memchr.asm
                   _2jEnd   0x011f8e    program     static C:\Program Files\mcc18\src\traditional\stdclib\slenpgm.asm
              _3jContinue   0x012094    program     static C:\Program Files\mcc18\src\traditional\stdclib\sncpyp2r.asm
              _3jContinue   0x011d6e    program     static C:\Program Files\mcc18\src\traditional\stdclib\mcpyp2r.asm
              _3jContinue   0x011cd2    program     static C:\Program Files\mcc18\src\traditional\stdclib\mcmpp2r.asm
                   _3jEnd   0x011c8e    program     static C:\Program Files\mcc18\src\traditional\stdclib\memchr.asm
                   _3jEnd   0x011dac    program     static C:\Program Files\mcc18\src\traditional\stdclib\memset.asm
              _4jContinue   0x01203a    program     static C:\Program Files\mcc18\src\traditional\stdclib\strncpy.asm
              _4jContinue   0x011fde    program     static C:\Program Files\mcc18\src\traditional\stdclib\strncat.asm
              _4jContinue   0x011d1a    program     static C:\Program Files\mcc18\src\traditional\stdclib\memcpy.asm
                   _4jEnd   0x01209e    program     static C:\Program Files\mcc18\src\traditional\stdclib\sncpyp2r.asm
                   _4jEnd   0x011d78    program     static C:\Program Files\mcc18\src\traditional\stdclib\mcpyp2r.asm
                   _4jEnd   0x011cdc    program     static C:\Program Files\mcc18\src\traditional\stdclib\mcmpp2r.asm
                   _5jEnd   0x012044    program     static C:\Program Files\mcc18\src\traditional\stdclib\strncpy.asm
                   _5jEnd   0x011fe8    program     static C:\Program Files\mcc18\src\traditional\stdclib\strncat.asm
                   _5jEnd   0x011d24    program     static C:\Program Files\mcc18\src\traditional\stdclib\memcpy.asm
        _D10TCYXCODE_000A   0x0149e4    program     static C:\Program Files\mcc18\src\traditional\delays\d10tcyx.asm
        _D10TCYXCODE_000C   0x0149e6    program     static C:\Program Files\mcc18\src\traditional\delays\d10tcyx.asm
        _D10TCYXCODE_000E   0x0149e8    program     static C:\Program Files\mcc18\src\traditional\delays\d10tcyx.asm
        _D1KTCYXCODE_0010   0x014974    program     static C:\Program Files\mcc18\src\traditional\delays\d1ktcyx.asm
        _D1KTCYXCODE_0016   0x01497a    program     static C:\Program Files\mcc18\src\traditional\delays\d1ktcyx.asm
           _LoadFATRecord   0x00bda6    program     static D:\git\testing79m\Microchip\TCPIP Stack\MPFS2.c
                _Validate   0x00c072    program     static D:\git\testing79m\Microchip\TCPIP Stack\MPFS2.c
                 __FpExit   0x011160    program     extern C:\Program Files\mcc18\src\traditional\math\packFP.asm
                 __FpPack   0x01118c    program     extern C:\Program Files\mcc18\src\traditional\math\packFP.asm
            __FpReturnNaN   0x011154    program     extern C:\Program Files\mcc18\src\traditional\math\packFP.asm
         __FpReturnNegInf   0x011166    program     extern C:\Program Files\mcc18\src\traditional\math\packFP.asm
        __FpReturnNegZero   0x01117e    program     extern C:\Program Files\mcc18\src\traditional\math\packFP.asm
         __FpReturnPosInf   0x01116c    program     extern C:\Program Files\mcc18\src\traditional\math\packFP.asm
        __FpReturnPosZero   0x011186    program     extern C:\Program Files\mcc18\src\traditional\math\packFP.asm
        __FpReturnSignInf   0x011162    program     extern C:\Program Files\mcc18\src\traditional\math\packFP.asm
       __FpReturnSignZero   0x01117a    program     extern C:\Program Files\mcc18\src\traditional\math\packFP.asm
              __FpReturnW   0x0111e4    program     extern C:\Program Files\mcc18\src\traditional\math\packFP.asm
              __FpUnPackA   0x011204    program     extern C:\Program Files\mcc18\src\traditional\math\UnpackFP.asm
              __FpUnPackB   0x011234    program     extern C:\Program Files\mcc18\src\traditional\math\UnpackFP.asm
           ___do_lbl00002   0x0131aa    program     static                          
           ___do_lbl00002   0x0142fe    program     static                          
           ___do_lbl00003   0x014302    program     static                          
           ___do_lbl00003   0x0131ae    program     static                          
           ___do_lbl00004   0x01319a    program     static                          
           ___do_lbl00004   0x0142e0    program     static                          
         ___else_lbl00313   0x005432    program     static                          
         ___else_lbl00315   0x0054aa    program     static                          
         ___else_lbl00325   0x005596    program     static                          
         ___else_lbl00332   0x0055f6    program     static                          
         ___else_lbl00335   0x005634    program     static                          
          ___for_lbl00122   0x00def8    program     static                          
          ___for_lbl00123   0x00defe    program     static                          
          ___for_lbl00124   0x00deda    program     static                          
          ___for_lbl00125   0x00df12    program     static                          
          ___for_lbl00126   0x00df16    program     static                          
          ___for_lbl00127   0x00defe    program     static                          
          ___for_lbl00306   0x00542c    program     static                          
          ___for_lbl00307   0x005430    program     static                          
          ___for_lbl00308   0x005408    program     static                          
          ___for_lbl00309   0x00547c    program     static                          
          ___for_lbl00310   0x005480    program     static                          
          ___for_lbl00311   0x00544c    program     static                          
          ___for_lbl00320   0x0055a6    program     static                          
          ___for_lbl00321   0x0055aa    program     static                          
          ___for_lbl00326   0x005558    program     static                          
          ___for_lbl00327   0x005606    program     static                          
          ___for_lbl00328   0x00560a    program     static                          
          ___for_lbl00333   0x0055b8    program     static                          
          ___for_lbl00337   0x0056ca    program     static                          
          ___for_lbl00338   0x0056ce    program     static                          
          ___for_lbl00341   0x00568e    program     static                          
          ___for_lbl00342   0x005718    program     static                          
          ___for_lbl00343   0x00571c    program     static                          
          ___for_lbl00346   0x0056dc    program     static                          
           ___if_lbl00005   0x00d682    program     static                          
           ___if_lbl00006   0x00d6a0    program     static                          
           ___if_lbl00007   0x00d73a    program     static                          
           ___if_lbl00008   0x00d740    program     static                          
           ___if_lbl00020   0x00fc94    program     static                          
           ___if_lbl00021   0x00fca0    program     static                          
           ___if_lbl00027   0x00fd74    program     static                          
           ___if_lbl00030   0x00fdf4    program     static                          
           ___if_lbl00305   0x0053e6    program     static                          
           ___if_lbl00312   0x005480    program     static                          
           ___if_lbl00314   0x0054ca    program     static                          
           ___if_lbl00316   0x0054ca    program     static                          
           ___if_lbl00317   0x0054d6    program     static                          
           ___if_lbl00318   0x0054e2    program     static                          
           ___if_lbl00323   0x0055a6    program     static                          
           ___if_lbl00324   0x0055a6    program     static                          
           ___if_lbl00330   0x005606    program     static                          
           ___if_lbl00331   0x005606    program     static                          
           ___if_lbl00334   0x005654    program     static                          
           ___if_lbl00340   0x0056ca    program     static                          
           ___if_lbl00345   0x005718    program     static                          
       ___return_lbl00000   0x00d78a    program     static                          
       ___return_lbl00000   0x000004    program     static                          
       ___return_lbl00000   0x014818    program     static                          
       ___return_lbl00000   0x0148ce    program     static                          
       ___return_lbl00000   0x0148fa    program     static                          
       ___return_lbl00000   0x0149d8    program     static                          
       ___return_lbl00000   0x013454    program     static                          
       ___return_lbl00000   0x00fafc    program     static                          
       ___return_lbl00001   0x014962    program     static                          
       ___return_lbl00001   0x0137e6    program     static                          
       ___return_lbl00001   0x0131b0    program     static                          
       ___return_lbl00001   0x014304    program     static                          
       ___return_lbl00002   0x014620    program     static                          
       ___return_lbl00004   0x0138be    program     static                          
       ___return_lbl00005   0x0131e0    program     static                          
       ___return_lbl00006   0x013212    program     static                          
       ___return_lbl00007   0x013248    program     static                          
       ___return_lbl00019   0x00001c    program     static                          
       ___return_lbl00019   0x00fdfc    program     static                          
       ___return_lbl00020   0x00000c    program     static                          
       ___return_lbl00079   0x010276    program     static                          
       ___return_lbl00080   0x0102c6    program     static                          
       ___return_lbl00083   0x010328    program     static                          
       ___return_lbl00086   0x010382    program     static                          
       ___return_lbl00089   0x0103d4    program     static                          
       ___return_lbl00121   0x00df28    program     static                          
       ___return_lbl00302   0x0054e2    program     static                          
       ___return_lbl00319   0x005654    program     static                          
       ___return_lbl00336   0x00571c    program     static                          
        ___while_lbl00001   0x00d510    program     static                          
        ___while_lbl00001   0x00fa0e    program     static                          
        ___while_lbl00002   0x00d742    program     static                          
        ___while_lbl00002   0x0137ca    program     static                          
        ___while_lbl00002   0x00fa14    program     static                          
        ___while_lbl00003   0x00d518    program     static                          
        ___while_lbl00003   0x0137d2    program     static                          
        ___while_lbl00004   0x00d51c    program     static                          
        ___while_lbl00081   0x010292    program     static                          
        ___while_lbl00082   0x0102c6    program     static                          
        ___while_lbl00084   0x0102e2    program     static                          
        ___while_lbl00085   0x010328    program     static                          
        ___while_lbl00087   0x010358    program     static                          
        ___while_lbl00088   0x01035e    program     static                          
        ___while_lbl00090   0x0103ce    program     static                          
        ___while_lbl00091   0x0103d4    program     static                          
        ___while_lbl00303   0x00516a    program     static                          
        ___while_lbl00304   0x00529c    program     static                          
               __config_0   0x01fff8    program     static D:\git\testing79m\Main\Main.c
               __config_1   0x01fffa    program     static D:\git\testing79m\Main\Main.c
               __config_2   0x01fffd    program     static D:\git\testing79m\Main\Main.c
                   __init   0x014a42    program     extern C:\Program Files\mcc18\src\traditional\stdclib\__init.c
                   __pa_0   0x01415a    program     static D:\git\testing79m\Singcom\Devices\UpConverter_c1.c
                   __pa_0   0x00eb38    program     static C:\Program Files\mcc18\src\traditional\stdclib\vfprintf.c
                   __pa_0   0x008504    program     static D:\git\testing79m\Microchip\TCPIP Stack\HTTP2.c
                   __pa_0   0x012df0    program     static D:\git\testing79m\Microchip\TCPIP Stack\SPIEEPROM.c
                   __pa_0   0x013c28    program     static D:\git\testing79m\Drivers\External-Peripherals\devadc.c
                   __pa_0   0x0142a8    program     static D:\git\testing79m\Microchip\TCPIP Stack\ICMP.c
                   __pa_0   0x005d86    program     static D:\git\testing79m\Singcom\Drivers\lcd.c
                   __pa_0   0x0130a4    program     static D:\git\testing79m\Singcom\Drivers\i2c_c1.c
                   __pa_0   0x013e28    program     static D:\git\testing79m\Drivers\MCU-Internal\ISR.c
                   __pa_0   0x009f0e    program     static D:\git\testing79m\App\WebUI\HTTPGetDevInfo.c
                   __pa_0   0x0133d2    program     static D:\git\testing79m\Singcom\Drivers\oled_c1.c
                   __pa_0   0x011bc2    program     static D:\git\testing79m\Microchip\TCPIP Stack\ARP.c
                   __pa_0   0x010402    program     static D:\git\testing79m\Microchip\TCPIP Stack\ETH97J60.c
                   __pa_0   0x00b174    program     static D:\git\testing79m\SysLib\util.c
                   __pa_0   0x0143ac    program     static D:\git\testing79m\Microchip\TCPIP Stack\Tick.c
                   __pa_0   0x01449a    program     static D:\git\testing79m\Microchip\TCPIP Stack\UART.c
                   __pa_0   0x002d60    program     static D:\git\testing79m\Microchip\TCPIP Stack\TCP.c
                   __pa_0   0x013aec    program     static D:\git\testing79m\Microchip\TCPIP Stack\StackTsk.c
                   __pa_0   0x00dfc0    program     static D:\git\testing79m\Microchip\TCPIP Stack\Helpers.c
                   __pa_0   0x012748    program     static D:\git\testing79m\Bootstrap\Initialization.c
                   __pa_0   0x0123c6    program     static D:\git\testing79m\Singcom\Devices\MainControl_c1.c
                   __pa_0   0x010b62    program     static D:\git\testing79m\App\WebUI\HTTPApp.c
                   __pa_0   0x00c0ea    program     static D:\git\testing79m\Microchip\TCPIP Stack\MPFS2.c
                   __pa_0   0x012ade    program     static D:\git\testing79m\Microchip\TCPIP Stack\IP.c
                   __pa_0   0x00d03a    program     static D:\git\testing79m\App\WebUI\HTTPPrint.c
                   __pa_1   0x002d88    program     static D:\git\testing79m\Microchip\TCPIP Stack\TCP.c
                   __pa_1   0x013afa    program     static D:\git\testing79m\Microchip\TCPIP Stack\StackTsk.c
                   __pa_1   0x0144ac    program     static D:\git\testing79m\Microchip\TCPIP Stack\UART.c
                   __pa_1   0x012b00    program     static D:\git\testing79m\Microchip\TCPIP Stack\IP.c
                   __pa_1   0x013e52    program     static D:\git\testing79m\Drivers\MCU-Internal\ISR.c
                   __pa_1   0x009f24    program     static D:\git\testing79m\App\WebUI\HTTPGetDevInfo.c
                   __pa_1   0x012768    program     static D:\git\testing79m\Bootstrap\Initialization.c
                   __pa_1   0x0133e6    program     static D:\git\testing79m\Singcom\Drivers\oled_c1.c
                   __pa_1   0x0143ba    program     static D:\git\testing79m\Microchip\TCPIP Stack\Tick.c
                   __pa_1   0x00b17e    program     static D:\git\testing79m\SysLib\util.c
                   __pa_1   0x011bd0    program     static D:\git\testing79m\Microchip\TCPIP Stack\ARP.c
                   __pa_1   0x010b72    program     static D:\git\testing79m\App\WebUI\HTTPApp.c
                   __pa_1   0x010414    program     static D:\git\testing79m\Microchip\TCPIP Stack\ETH97J60.c
                   __pa_1   0x00d058    program     static D:\git\testing79m\App\WebUI\HTTPPrint.c
                   __pa_1   0x00c0f0    program     static D:\git\testing79m\Microchip\TCPIP Stack\MPFS2.c
                   __pa_1   0x0130ac    program     static D:\git\testing79m\Singcom\Drivers\i2c_c1.c
                   __pa_1   0x00eb40    program     static C:\Program Files\mcc18\src\traditional\stdclib\vfprintf.c
                   __pa_1   0x013c6e    program     static D:\git\testing79m\Drivers\External-Peripherals\devadc.c
                   __pa_1   0x005d9a    program     static D:\git\testing79m\Singcom\Drivers\lcd.c
                   __pa_1   0x0123d2    program     static D:\git\testing79m\Singcom\Devices\MainControl_c1.c
                   __pa_1   0x00dfd2    program     static D:\git\testing79m\Microchip\TCPIP Stack\Helpers.c
                   __pa_1   0x00850e    program     static D:\git\testing79m\Microchip\TCPIP Stack\HTTP2.c
                   __pa_1   0x0142b8    program     static D:\git\testing79m\Microchip\TCPIP Stack\ICMP.c
                   __pa_1   0x012e02    program     static D:\git\testing79m\Microchip\TCPIP Stack\SPIEEPROM.c
                   __pa_1   0x014170    program     static D:\git\testing79m\Singcom\Devices\UpConverter_c1.c
                  __pa_10   0x010bea    program     static D:\git\testing79m\App\WebUI\HTTPApp.c
                  __pa_10   0x00d0d8    program     static D:\git\testing79m\App\WebUI\HTTPPrint.c
                  __pa_10   0x01243c    program     static D:\git\testing79m\Singcom\Devices\MainControl_c1.c
                  __pa_10   0x010494    program     static D:\git\testing79m\Microchip\TCPIP Stack\ETH97J60.c
                  __pa_10   0x00e0a8    program     static D:\git\testing79m\Microchip\TCPIP Stack\Helpers.c
                  __pa_10   0x00c196    program     static D:\git\testing79m\Microchip\TCPIP Stack\MPFS2.c
                  __pa_10   0x011c5a    program     static D:\git\testing79m\Microchip\TCPIP Stack\ARP.c
                  __pa_10   0x00b266    program     static D:\git\testing79m\SysLib\util.c
                  __pa_10   0x00ebf4    program     static C:\Program Files\mcc18\src\traditional\stdclib\vfprintf.c
                  __pa_10   0x0085f4    program     static D:\git\testing79m\Microchip\TCPIP Stack\HTTP2.c
                  __pa_10   0x005e12    program     static D:\git\testing79m\Singcom\Drivers\lcd.c
                  __pa_10   0x012b74    program     static D:\git\testing79m\Microchip\TCPIP Stack\IP.c
                  __pa_10   0x00a014    program     static D:\git\testing79m\App\WebUI\HTTPGetDevInfo.c
                  __pa_10   0x012844    program     static D:\git\testing79m\Bootstrap\Initialization.c
                  __pa_10   0x013140    program     static D:\git\testing79m\Singcom\Drivers\i2c_c1.c
                  __pa_10   0x002eaa    program     static D:\git\testing79m\Microchip\TCPIP Stack\TCP.c
                 __pa_100   0x008a5e    program     static D:\git\testing79m\Microchip\TCPIP Stack\HTTP2.c
                 __pa_100   0x00a598    program     static D:\git\testing79m\App\WebUI\HTTPGetDevInfo.c
                 __pa_100   0x006420    program     static D:\git\testing79m\Singcom\Drivers\lcd.c
                 __pa_100   0x0034a0    program     static D:\git\testing79m\Microchip\TCPIP Stack\TCP.c
                 __pa_101   0x008a68    program     static D:\git\testing79m\Microchip\TCPIP Stack\HTTP2.c
                 __pa_101   0x0034b8    program     static D:\git\testing79m\Microchip\TCPIP Stack\TCP.c
                 __pa_101   0x006432    program     static D:\git\testing79m\Singcom\Drivers\lcd.c
                 __pa_101   0x00a5a6    program     static D:\git\testing79m\App\WebUI\HTTPGetDevInfo.c
                 __pa_102   0x0034c4    program     static D:\git\testing79m\Microchip\TCPIP Stack\TCP.c
                 __pa_102   0x006462    program     static D:\git\testing79m\Singcom\Drivers\lcd.c
                 __pa_102   0x00a5b4    program     static D:\git\testing79m\App\WebUI\HTTPGetDevInfo.c
                 __pa_102   0x008a70    program     static D:\git\testing79m\Microchip\TCPIP Stack\HTTP2.c
                 __pa_103   0x008a7e    program     static D:\git\testing79m\Microchip\TCPIP Stack\HTTP2.c
                 __pa_103   0x006468    program     static D:\git\testing79m\Singcom\Drivers\lcd.c
                 __pa_103   0x0034d0    program     static D:\git\testing79m\Microchip\TCPIP Stack\TCP.c
                 __pa_103   0x00a5c2    program     static D:\git\testing79m\App\WebUI\HTTPGetDevInfo.c
                 __pa_104   0x00a5ca    program     static D:\git\testing79m\App\WebUI\HTTPGetDevInfo.c
                 __pa_104   0x0034dc    program     static D:\git\testing79m\Microchip\TCPIP Stack\TCP.c
                 __pa_104   0x008a8c    program     static D:\git\testing79m\Microchip\TCPIP Stack\HTTP2.c
                 __pa_104   0x00648e    program     static D:\git\testing79m\Singcom\Drivers\lcd.c
                 __pa_105   0x00a5d0    program     static D:\git\testing79m\App\WebUI\HTTPGetDevInfo.c
                 __pa_105   0x0034f2    program     static D:\git\testing79m\Microchip\TCPIP Stack\TCP.c
                 __pa_105   0x008a94    program     static D:\git\testing79m\Microchip\TCPIP Stack\HTTP2.c
                 __pa_105   0x00649a    program     static D:\git\testing79m\Singcom\Drivers\lcd.c
                 __pa_106   0x00a5d6    program     static D:\git\testing79m\App\WebUI\HTTPGetDevInfo.c
                 __pa_106   0x008aa2    program     static D:\git\testing79m\Microchip\TCPIP Stack\HTTP2.c
                 __pa_106   0x003502    program     static D:\git\testing79m\Microchip\TCPIP Stack\TCP.c
                 __pa_106   0x00649e    program     static D:\git\testing79m\Singcom\Drivers\lcd.c
                 __pa_107   0x008aac    program     static D:\git\testing79m\Microchip\TCPIP Stack\HTTP2.c
                 __pa_107   0x0064ac    program     static D:\git\testing79m\Singcom\Drivers\lcd.c
                 __pa_107   0x003518    program     static D:\git\testing79m\Microchip\TCPIP Stack\TCP.c
                 __pa_107   0x00a5dc    program     static D:\git\testing79m\App\WebUI\HTTPGetDevInfo.c
                 __pa_108   0x00a5e8    program     static D:\git\testing79m\App\WebUI\HTTPGetDevInfo.c
                 __pa_108   0x0064b6    program     static D:\git\testing79m\Singcom\Drivers\lcd.c
                 __pa_108   0x008ab8    program     static D:\git\testing79m\Microchip\TCPIP Stack\HTTP2.c
                 __pa_108   0x00352e    program     static D:\git\testing79m\Microchip\TCPIP Stack\TCP.c
                 __pa_109   0x0064c2    program     static D:\git\testing79m\Singcom\Drivers\lcd.c
                 __pa_109   0x00a5ee    program     static D:\git\testing79m\App\WebUI\HTTPGetDevInfo.c
                 __pa_109   0x00353c    program     static D:\git\testing79m\Microchip\TCPIP Stack\TCP.c
                 __pa_109   0x008ac8    program     static D:\git\testing79m\Microchip\TCPIP Stack\HTTP2.c
                  __pa_11   0x00b26e    program     static D:\git\testing79m\SysLib\util.c
                  __pa_11   0x00e0c2    program     static D:\git\testing79m\Microchip\TCPIP Stack\Helpers.c
                  __pa_11   0x011c62    program     static D:\git\testing79m\Microchip\TCPIP Stack\ARP.c
                  __pa_11   0x013150    program     static D:\git\testing79m\Singcom\Drivers\i2c_c1.c
                  __pa_11   0x00c1ac    program     static D:\git\testing79m\Microchip\TCPIP Stack\MPFS2.c
                  __pa_11   0x0085fa    program     static D:\git\testing79m\Microchip\TCPIP Stack\HTTP2.c
                  __pa_11   0x012442    program     static D:\git\testing79m\Singcom\Devices\MainControl_c1.c
                  __pa_11   0x010bf8    program     static D:\git\testing79m\App\WebUI\HTTPApp.c
                  __pa_11   0x00d0e4    program     static D:\git\testing79m\App\WebUI\HTTPPrint.c
                  __pa_11   0x00ec02    program     static C:\Program Files\mcc18\src\traditional\stdclib\vfprintf.c
                  __pa_11   0x005e1c    program     static D:\git\testing79m\Singcom\Drivers\lcd.c
                  __pa_11   0x002ed6    program     static D:\git\testing79m\Microchip\TCPIP Stack\TCP.c
                  __pa_11   0x0104a4    program     static D:\git\testing79m\Microchip\TCPIP Stack\ETH97J60.c
                  __pa_11   0x00a01c    program     static D:\git\testing79m\App\WebUI\HTTPGetDevInfo.c
                 __pa_110   0x00354a    program     static D:\git\testing79m\Microchip\TCPIP Stack\TCP.c
                 __pa_110   0x0064cc    program     static D:\git\testing79m\Singcom\Drivers\lcd.c
                 __pa_110   0x008ad0    program     static D:\git\testing79m\Microchip\TCPIP Stack\HTTP2.c
                 __pa_110   0x00a5f4    program     static D:\git\testing79m\App\WebUI\HTTPGetDevInfo.c
                 __pa_111   0x003552    program     static D:\git\testing79m\Microchip\TCPIP Stack\TCP.c
                 __pa_111   0x0064da    program     static D:\git\testing79m\Singcom\Drivers\lcd.c
                 __pa_111   0x008ada    program     static D:\git\testing79m\Microchip\TCPIP Stack\HTTP2.c
                 __pa_111   0x00a5fc    program     static D:\git\testing79m\App\WebUI\HTTPGetDevInfo.c
                 __pa_112   0x0064e8    program     static D:\git\testing79m\Singcom\Drivers\lcd.c
                 __pa_112   0x00a604    program     static D:\git\testing79m\App\WebUI\HTTPGetDevInfo.c
                 __pa_112   0x008ae2    program     static D:\git\testing79m\Microchip\TCPIP Stack\HTTP2.c
                 __pa_112   0x003560    program     static D:\git\testing79m\Microchip\TCPIP Stack\TCP.c
                 __pa_113   0x00a612    program     static D:\git\testing79m\App\WebUI\HTTPGetDevInfo.c
                 __pa_113   0x008af0    program     static D:\git\testing79m\Microchip\TCPIP Stack\HTTP2.c
                 __pa_113   0x003568    program     static D:\git\testing79m\Microchip\TCPIP Stack\TCP.c
                 __pa_113   0x0064fe    program     static D:\git\testing79m\Singcom\Drivers\lcd.c
                 __pa_114   0x00a620    program     static D:\git\testing79m\App\WebUI\HTTPGetDevInfo.c
                 __pa_114   0x003576    program     static D:\git\testing79m\Microchip\TCPIP Stack\TCP.c
                 __pa_114   0x008af6    program     static D:\git\testing79m\Microchip\TCPIP Stack\HTTP2.c
                 __pa_114   0x006506    program     static D:\git\testing79m\Singcom\Drivers\lcd.c
                 __pa_115   0x00a62e    program     static D:\git\testing79m\App\WebUI\HTTPGetDevInfo.c
                 __pa_115   0x003584    program     static D:\git\testing79m\Microchip\TCPIP Stack\TCP.c
                 __pa_115   0x008afc    program     static D:\git\testing79m\Microchip\TCPIP Stack\HTTP2.c
                 __pa_115   0x00650c    program     static D:\git\testing79m\Singcom\Drivers\lcd.c
                 __pa_116   0x006518    program     static D:\git\testing79m\Singcom\Drivers\lcd.c
                 __pa_116   0x008b08    program     static D:\git\testing79m\Microchip\TCPIP Stack\HTTP2.c
                 __pa_116   0x003592    program     static D:\git\testing79m\Microchip\TCPIP Stack\TCP.c
                 __pa_116   0x00a63c    program     static D:\git\testing79m\App\WebUI\HTTPGetDevInfo.c
                 __pa_117   0x00652c    program     static D:\git\testing79m\Singcom\Drivers\lcd.c
                 __pa_117   0x00359c    program     static D:\git\testing79m\Microchip\TCPIP Stack\TCP.c
                 __pa_117   0x008b14    program     static D:\git\testing79m\Microchip\TCPIP Stack\HTTP2.c
                 __pa_117   0x00a646    program     static D:\git\testing79m\App\WebUI\HTTPGetDevInfo.c
                 __pa_118   0x0035a6    program     static D:\git\testing79m\Microchip\TCPIP Stack\TCP.c
                 __pa_118   0x008b22    program     static D:\git\testing79m\Microchip\TCPIP Stack\HTTP2.c
                 __pa_118   0x00a64e    program     static D:\git\testing79m\App\WebUI\HTTPGetDevInfo.c
                 __pa_118   0x006540    program     static D:\git\testing79m\Singcom\Drivers\lcd.c
                 __pa_119   0x00a656    program     static D:\git\testing79m\App\WebUI\HTTPGetDevInfo.c
                 __pa_119   0x008b30    program     static D:\git\testing79m\Microchip\TCPIP Stack\HTTP2.c
                 __pa_119   0x0035b0    program     static D:\git\testing79m\Microchip\TCPIP Stack\TCP.c
                 __pa_119   0x00654c    program     static D:\git\testing79m\Singcom\Drivers\lcd.c
                  __pa_12   0x00c1b6    program     static D:\git\testing79m\Microchip\TCPIP Stack\MPFS2.c
                  __pa_12   0x008604    program     static D:\git\testing79m\Microchip\TCPIP Stack\HTTP2.c
                  __pa_12   0x012448    program     static D:\git\testing79m\Singcom\Devices\MainControl_c1.c
                  __pa_12   0x00d0f6    program     static D:\git\testing79m\App\WebUI\HTTPPrint.c
                  __pa_12   0x00ec18    program     static C:\Program Files\mcc18\src\traditional\stdclib\vfprintf.c
                  __pa_12   0x002ede    program     static D:\git\testing79m\Microchip\TCPIP Stack\TCP.c
                  __pa_12   0x005e60    program     static D:\git\testing79m\Singcom\Drivers\lcd.c
                  __pa_12   0x00e0d2    program     static D:\git\testing79m\Microchip\TCPIP Stack\Helpers.c
                  __pa_12   0x0104b0    program     static D:\git\testing79m\Microchip\TCPIP Stack\ETH97J60.c
                  __pa_12   0x010bfe    program     static D:\git\testing79m\App\WebUI\HTTPApp.c
                  __pa_12   0x00b276    program     static D:\git\testing79m\SysLib\util.c
                  __pa_12   0x01315e    program     static D:\git\testing79m\Singcom\Drivers\i2c_c1.c
                  __pa_12   0x00a038    program     static D:\git\testing79m\App\WebUI\HTTPGetDevInfo.c
                 __pa_120   0x00a66a    program     static D:\git\testing79m\App\WebUI\HTTPGetDevInfo.c
                 __pa_120   0x006556    program     static D:\git\testing79m\Singcom\Drivers\lcd.c
                 __pa_120   0x008b38    program     static D:\git\testing79m\Microchip\TCPIP Stack\HTTP2.c
                 __pa_120   0x0035ba    program     static D:\git\testing79m\Microchip\TCPIP Stack\TCP.c
                 __pa_121   0x00a674    program     static D:\git\testing79m\App\WebUI\HTTPGetDevInfo.c
                 __pa_121   0x006568    program     static D:\git\testing79m\Singcom\Drivers\lcd.c
                 __pa_121   0x0035c4    program     static D:\git\testing79m\Microchip\TCPIP Stack\TCP.c
                 __pa_121   0x008b3e    program     static D:\git\testing79m\Microchip\TCPIP Stack\HTTP2.c
                 __pa_122   0x00a682    program     static D:\git\testing79m\App\WebUI\HTTPGetDevInfo.c
                 __pa_122   0x006572    program     static D:\git\testing79m\Singcom\Drivers\lcd.c
                 __pa_122   0x0035cc    program     static D:\git\testing79m\Microchip\TCPIP Stack\TCP.c
                 __pa_122   0x008b48    program     static D:\git\testing79m\Microchip\TCPIP Stack\HTTP2.c
                 __pa_123   0x008b52    program     static D:\git\testing79m\Microchip\TCPIP Stack\HTTP2.c
                 __pa_123   0x0035e0    program     static D:\git\testing79m\Microchip\TCPIP Stack\TCP.c
                 __pa_123   0x006582    program     static D:\git\testing79m\Singcom\Drivers\lcd.c
                 __pa_124   0x008b5c    program     static D:\git\testing79m\Microchip\TCPIP Stack\HTTP2.c
                 __pa_124   0x0035f4    program     static D:\git\testing79m\Microchip\TCPIP Stack\TCP.c
                 __pa_124   0x00658e    program     static D:\git\testing79m\Singcom\Drivers\lcd.c
                 __pa_125   0x008b64    program     static D:\git\testing79m\Microchip\TCPIP Stack\HTTP2.c
                 __pa_125   0x006598    program     static D:\git\testing79m\Singcom\Drivers\lcd.c
                 __pa_125   0x003608    program     static D:\git\testing79m\Microchip\TCPIP Stack\TCP.c
                 __pa_126   0x003610    program     static D:\git\testing79m\Microchip\TCPIP Stack\TCP.c
                 __pa_126   0x00659e    program     static D:\git\testing79m\Singcom\Drivers\lcd.c
                 __pa_126   0x008b6c    program     static D:\git\testing79m\Microchip\TCPIP Stack\HTTP2.c
                 __pa_127   0x00361a    program     static D:\git\testing79m\Microchip\TCPIP Stack\TCP.c
                 __pa_127   0x0065a4    program     static D:\git\testing79m\Singcom\Drivers\lcd.c
                 __pa_127   0x008b74    program     static D:\git\testing79m\Microchip\TCPIP Stack\HTTP2.c
                 __pa_128   0x00362c    program     static D:\git\testing79m\Microchip\TCPIP Stack\TCP.c
                 __pa_128   0x0065ac    program     static D:\git\testing79m\Singcom\Drivers\lcd.c
                 __pa_128   0x008b7a    program     static D:\git\testing79m\Microchip\TCPIP Stack\HTTP2.c
                 __pa_129   0x0065ba    program     static D:\git\testing79m\Singcom\Drivers\lcd.c
                 __pa_129   0x00363e    program     static D:\git\testing79m\Microchip\TCPIP Stack\TCP.c
                 __pa_129   0x008b94    program     static D:\git\testing79m\Microchip\TCPIP Stack\HTTP2.c
                  __pa_13   0x002ee6    program     static D:\git\testing79m\Microchip\TCPIP Stack\TCP.c
                  __pa_13   0x00b2aa    program     static D:\git\testing79m\SysLib\util.c
                  __pa_13   0x00d108    program     static D:\git\testing79m\App\WebUI\HTTPPrint.c
                  __pa_13   0x00ec32    program     static C:\Program Files\mcc18\src\traditional\stdclib\vfprintf.c
                  __pa_13   0x013168    program     static D:\git\testing79m\Singcom\Drivers\i2c_c1.c
                  __pa_13   0x0104be    program     static D:\git\testing79m\Microchip\TCPIP Stack\ETH97J60.c
                  __pa_13   0x005e6c    program     static D:\git\testing79m\Singcom\Drivers\lcd.c
                  __pa_13   0x00862a    program     static D:\git\testing79m\Microchip\TCPIP Stack\HTTP2.c
                  __pa_13   0x00a058    program     static D:\git\testing79m\App\WebUI\HTTPGetDevInfo.c
                  __pa_13   0x010c0c    program     static D:\git\testing79m\App\WebUI\HTTPApp.c
                  __pa_13   0x00e0e2    program     static D:\git\testing79m\Microchip\TCPIP Stack\Helpers.c
                  __pa_13   0x012452    program     static D:\git\testing79m\Singcom\Devices\MainControl_c1.c
                  __pa_13   0x00c1c0    program     static D:\git\testing79m\Microchip\TCPIP Stack\MPFS2.c
                 __pa_130   0x008b9c    program     static D:\git\testing79m\Microchip\TCPIP Stack\HTTP2.c
                 __pa_130   0x0065c4    program     static D:\git\testing79m\Singcom\Drivers\lcd.c
                 __pa_130   0x003650    program     static D:\git\testing79m\Microchip\TCPIP Stack\TCP.c
                 __pa_131   0x0065cc    program     static D:\git\testing79m\Singcom\Drivers\lcd.c
                 __pa_131   0x003662    program     static D:\git\testing79m\Microchip\TCPIP Stack\TCP.c
                 __pa_131   0x008ba2    program     static D:\git\testing79m\Microchip\TCPIP Stack\HTTP2.c
                 __pa_132   0x003674    program     static D:\git\testing79m\Microchip\TCPIP Stack\TCP.c
                 __pa_132   0x0065d6    program     static D:\git\testing79m\Singcom\Drivers\lcd.c
                 __pa_132   0x008ba8    program     static D:\git\testing79m\Microchip\TCPIP Stack\HTTP2.c
                 __pa_133   0x0065de    program     static D:\git\testing79m\Singcom\Drivers\lcd.c
                 __pa_133   0x008bb8    program     static D:\git\testing79m\Microchip\TCPIP Stack\HTTP2.c
                 __pa_133   0x003686    program     static D:\git\testing79m\Microchip\TCPIP Stack\TCP.c
                 __pa_134   0x0065e4    program     static D:\git\testing79m\Singcom\Drivers\lcd.c
                 __pa_134   0x003698    program     static D:\git\testing79m\Microchip\TCPIP Stack\TCP.c
                 __pa_134   0x008bc2    program     static D:\git\testing79m\Microchip\TCPIP Stack\HTTP2.c
                 __pa_135   0x0065f0    program     static D:\git\testing79m\Singcom\Drivers\lcd.c
                 __pa_135   0x008bd2    program     static D:\git\testing79m\Microchip\TCPIP Stack\HTTP2.c
                 __pa_135   0x0036aa    program     static D:\git\testing79m\Microchip\TCPIP Stack\TCP.c
                 __pa_136   0x006600    program     static D:\git\testing79m\Singcom\Drivers\lcd.c
                 __pa_136   0x008bde    program     static D:\git\testing79m\Microchip\TCPIP Stack\HTTP2.c
                 __pa_136   0x0036bc    program     static D:\git\testing79m\Microchip\TCPIP Stack\TCP.c
                 __pa_137   0x00660a    program     static D:\git\testing79m\Singcom\Drivers\lcd.c
                 __pa_137   0x0036c4    program     static D:\git\testing79m\Microchip\TCPIP Stack\TCP.c
                 __pa_137   0x008be8    program     static D:\git\testing79m\Microchip\TCPIP Stack\HTTP2.c
                 __pa_138   0x006616    program     static D:\git\testing79m\Singcom\Drivers\lcd.c
                 __pa_138   0x0036d2    program     static D:\git\testing79m\Microchip\TCPIP Stack\TCP.c
                 __pa_138   0x008bf8    program     static D:\git\testing79m\Microchip\TCPIP Stack\HTTP2.c
                 __pa_139   0x006624    program     static D:\git\testing79m\Singcom\Drivers\lcd.c
                 __pa_139   0x0036de    program     static D:\git\testing79m\Microchip\TCPIP Stack\TCP.c
                 __pa_139   0x008c02    program     static D:\git\testing79m\Microchip\TCPIP Stack\HTTP2.c
                  __pa_14   0x010c14    program     static D:\git\testing79m\App\WebUI\HTTPApp.c
                  __pa_14   0x00d112    program     static D:\git\testing79m\App\WebUI\HTTPPrint.c
                  __pa_14   0x002ef2    program     static D:\git\testing79m\Microchip\TCPIP Stack\TCP.c
                  __pa_14   0x00c1d4    program     static D:\git\testing79m\Microchip\TCPIP Stack\MPFS2.c
                  __pa_14   0x0104cc    program     static D:\git\testing79m\Microchip\TCPIP Stack\ETH97J60.c
                  __pa_14   0x00e0fa    program     static D:\git\testing79m\Microchip\TCPIP Stack\Helpers.c
                  __pa_14   0x012460    program     static D:\git\testing79m\Singcom\Devices\MainControl_c1.c
                  __pa_14   0x008632    program     static D:\git\testing79m\Microchip\TCPIP Stack\HTTP2.c
                  __pa_14   0x005e84    program     static D:\git\testing79m\Singcom\Drivers\lcd.c
                  __pa_14   0x00ec4a    program     static C:\Program Files\mcc18\src\traditional\stdclib\vfprintf.c
                  __pa_14   0x00a074    program     static D:\git\testing79m\App\WebUI\HTTPGetDevInfo.c
                  __pa_14   0x00b2bc    program     static D:\git\testing79m\SysLib\util.c
                 __pa_140   0x008c0e    program     static D:\git\testing79m\Microchip\TCPIP Stack\HTTP2.c
                 __pa_140   0x0036ea    program     static D:\git\testing79m\Microchip\TCPIP Stack\TCP.c
                 __pa_140   0x00662e    program     static D:\git\testing79m\Singcom\Drivers\lcd.c
                 __pa_141   0x008c18    program     static D:\git\testing79m\Microchip\TCPIP Stack\HTTP2.c
                 __pa_141   0x0036f4    program     static D:\git\testing79m\Microchip\TCPIP Stack\TCP.c
                 __pa_141   0x00663c    program     static D:\git\testing79m\Singcom\Drivers\lcd.c
                 __pa_142   0x00664a    program     static D:\git\testing79m\Singcom\Drivers\lcd.c
                 __pa_142   0x008c26    program     static D:\git\testing79m\Microchip\TCPIP Stack\HTTP2.c
                 __pa_142   0x0036fe    program     static D:\git\testing79m\Microchip\TCPIP Stack\TCP.c
                 __pa_143   0x008c34    program     static D:\git\testing79m\Microchip\TCPIP Stack\HTTP2.c
                 __pa_143   0x006658    program     static D:\git\testing79m\Singcom\Drivers\lcd.c
                 __pa_143   0x003708    program     static D:\git\testing79m\Microchip\TCPIP Stack\TCP.c
                 __pa_144   0x00665e    program     static D:\git\testing79m\Singcom\Drivers\lcd.c
                 __pa_144   0x003718    program     static D:\git\testing79m\Microchip\TCPIP Stack\TCP.c
                 __pa_144   0x008c40    program     static D:\git\testing79m\Microchip\TCPIP Stack\HTTP2.c
                 __pa_145   0x003728    program     static D:\git\testing79m\Microchip\TCPIP Stack\TCP.c
                 __pa_145   0x008c48    program     static D:\git\testing79m\Microchip\TCPIP Stack\HTTP2.c
                 __pa_145   0x006666    program     static D:\git\testing79m\Singcom\Drivers\lcd.c
                 __pa_146   0x003738    program     static D:\git\testing79m\Microchip\TCPIP Stack\TCP.c
                 __pa_146   0x008c4e    program     static D:\git\testing79m\Microchip\TCPIP Stack\HTTP2.c
                 __pa_146   0x006670    program     static D:\git\testing79m\Singcom\Drivers\lcd.c
                 __pa_147   0x008c54    program     static D:\git\testing79m\Microchip\TCPIP Stack\HTTP2.c
                 __pa_147   0x003748    program     static D:\git\testing79m\Microchip\TCPIP Stack\TCP.c
                 __pa_147   0x006678    program     static D:\git\testing79m\Singcom\Drivers\lcd.c
                 __pa_148   0x008c5c    program     static D:\git\testing79m\Microchip\TCPIP Stack\HTTP2.c
                 __pa_148   0x006682    program     static D:\git\testing79m\Singcom\Drivers\lcd.c
                 __pa_148   0x003758    program     static D:\git\testing79m\Microchip\TCPIP Stack\TCP.c
                 __pa_149   0x008c64    program     static D:\git\testing79m\Microchip\TCPIP Stack\HTTP2.c
                 __pa_149   0x00668c    program     static D:\git\testing79m\Singcom\Drivers\lcd.c
                 __pa_149   0x00375e    program     static D:\git\testing79m\Microchip\TCPIP Stack\TCP.c
                  __pa_15   0x00ec5a    program     static C:\Program Files\mcc18\src\traditional\stdclib\vfprintf.c
                  __pa_15   0x00a07c    program     static D:\git\testing79m\App\WebUI\HTTPGetDevInfo.c
                  __pa_15   0x002efc    program     static D:\git\testing79m\Microchip\TCPIP Stack\TCP.c
                  __pa_15   0x012466    program     static D:\git\testing79m\Singcom\Devices\MainControl_c1.c
                  __pa_15   0x00e110    program     static D:\git\testing79m\Microchip\TCPIP Stack\Helpers.c
                  __pa_15   0x00863a    program     static D:\git\testing79m\Microchip\TCPIP Stack\HTTP2.c
                  __pa_15   0x005e92    program     static D:\git\testing79m\Singcom\Drivers\lcd.c
                  __pa_15   0x00b2c4    program     static D:\git\testing79m\SysLib\util.c
                  __pa_15   0x00c1e6    program     static D:\git\testing79m\Microchip\TCPIP Stack\MPFS2.c
                  __pa_15   0x0104da    program     static D:\git\testing79m\Microchip\TCPIP Stack\ETH97J60.c
                  __pa_15   0x00d11a    program     static D:\git\testing79m\App\WebUI\HTTPPrint.c
                  __pa_15   0x010c1c    program     static D:\git\testing79m\App\WebUI\HTTPApp.c
                 __pa_150   0x006694    program     static D:\git\testing79m\Singcom\Drivers\lcd.c
                 __pa_150   0x00376c    program     static D:\git\testing79m\Microchip\TCPIP Stack\TCP.c
                 __pa_150   0x008c6e    program     static D:\git\testing79m\Microchip\TCPIP Stack\HTTP2.c
                 __pa_151   0x00669e    program     static D:\git\testing79m\Singcom\Drivers\lcd.c
                 __pa_151   0x00377a    program     static D:\git\testing79m\Microchip\TCPIP Stack\TCP.c
                 __pa_152   0x0066b6    program     static D:\git\testing79m\Singcom\Drivers\lcd.c
                 __pa_152   0x003788    program     static D:\git\testing79m\Microchip\TCPIP Stack\TCP.c
                 __pa_153   0x003796    program     static D:\git\testing79m\Microchip\TCPIP Stack\TCP.c
                 __pa_153   0x0066c2    program     static D:\git\testing79m\Singcom\Drivers\lcd.c
                 __pa_154   0x0037a4    program     static D:\git\testing79m\Microchip\TCPIP Stack\TCP.c
                 __pa_154   0x0066ca    program     static D:\git\testing79m\Singcom\Drivers\lcd.c
                 __pa_155   0x0066d4    program     static D:\git\testing79m\Singcom\Drivers\lcd.c
                 __pa_155   0x0037b2    program     static D:\git\testing79m\Microchip\TCPIP Stack\TCP.c
                 __pa_156   0x0037c0    program     static D:\git\testing79m\Microchip\TCPIP Stack\TCP.c
                 __pa_156   0x0066e6    program     static D:\git\testing79m\Singcom\Drivers\lcd.c
                 __pa_157   0x0066f0    program     static D:\git\testing79m\Singcom\Drivers\lcd.c
                 __pa_157   0x0037ce    program     static D:\git\testing79m\Microchip\TCPIP Stack\TCP.c
                 __pa_158   0x0066f8    program     static D:\git\testing79m\Singcom\Drivers\lcd.c
                 __pa_158   0x0037dc    program     static D:\git\testing79m\Microchip\TCPIP Stack\TCP.c
                 __pa_159   0x006702    program     static D:\git\testing79m\Singcom\Drivers\lcd.c
                 __pa_159   0x0037ea    program     static D:\git\testing79m\Microchip\TCPIP Stack\TCP.c
                  __pa_16   0x00d130    program     static D:\git\testing79m\App\WebUI\HTTPPrint.c
                  __pa_16   0x00c20c    program     static D:\git\testing79m\Microchip\TCPIP Stack\MPFS2.c
                  __pa_16   0x005ea4    program     static D:\git\testing79m\Singcom\Drivers\lcd.c
                  __pa_16   0x00b2f6    program     static D:\git\testing79m\SysLib\util.c
                  __pa_16   0x010c24    program     static D:\git\testing79m\App\WebUI\HTTPApp.c
                  __pa_16   0x00ec70    program     static C:\Program Files\mcc18\src\traditional\stdclib\vfprintf.c
                  __pa_16   0x0104e8    program     static D:\git\testing79m\Microchip\TCPIP Stack\ETH97J60.c
                  __pa_16   0x012470    program     static D:\git\testing79m\Singcom\Devices\MainControl_c1.c
                  __pa_16   0x008648    program     static D:\git\testing79m\Microchip\TCPIP Stack\HTTP2.c
                  __pa_16   0x00a092    program     static D:\git\testing79m\App\WebUI\HTTPGetDevInfo.c
                  __pa_16   0x002f06    program     static D:\git\testing79m\Microchip\TCPIP Stack\TCP.c
                  __pa_16   0x00e11a    program     static D:\git\testing79m\Microchip\TCPIP Stack\Helpers.c
                 __pa_160   0x0037f8    program     static D:\git\testing79m\Microchip\TCPIP Stack\TCP.c
                 __pa_160   0x00670c    program     static D:\git\testing79m\Singcom\Drivers\lcd.c
                 __pa_161   0x006716    program     static D:\git\testing79m\Singcom\Drivers\lcd.c
                 __pa_161   0x003806    program     static D:\git\testing79m\Microchip\TCPIP Stack\TCP.c
                 __pa_162   0x00671e    program     static D:\git\testing79m\Singcom\Drivers\lcd.c
                 __pa_162   0x003814    program     static D:\git\testing79m\Microchip\TCPIP Stack\TCP.c
                 __pa_163   0x006730    program     static D:\git\testing79m\Singcom\Drivers\lcd.c
                 __pa_163   0x003822    program     static D:\git\testing79m\Microchip\TCPIP Stack\TCP.c
                 __pa_164   0x006742    program     static D:\git\testing79m\Singcom\Drivers\lcd.c
                 __pa_164   0x003830    program     static D:\git\testing79m\Microchip\TCPIP Stack\TCP.c
                 __pa_165   0x00383a    program     static D:\git\testing79m\Microchip\TCPIP Stack\TCP.c
                 __pa_165   0x00674a    program     static D:\git\testing79m\Singcom\Drivers\lcd.c
                 __pa_166   0x003844    program     static D:\git\testing79m\Microchip\TCPIP Stack\TCP.c
                 __pa_166   0x006750    program     static D:\git\testing79m\Singcom\Drivers\lcd.c
                 __pa_167   0x00384e    program     static D:\git\testing79m\Microchip\TCPIP Stack\TCP.c
                 __pa_167   0x006762    program     static D:\git\testing79m\Singcom\Drivers\lcd.c
                 __pa_168   0x003858    program     static D:\git\testing79m\Microchip\TCPIP Stack\TCP.c
                 __pa_168   0x006770    program     static D:\git\testing79m\Singcom\Drivers\lcd.c
                 __pa_169   0x003862    program     static D:\git\testing79m\Microchip\TCPIP Stack\TCP.c
                 __pa_169   0x006778    program     static D:\git\testing79m\Singcom\Drivers\lcd.c
                  __pa_17   0x00c226    program     static D:\git\testing79m\Microchip\TCPIP Stack\MPFS2.c
                  __pa_17   0x00b308    program     static D:\git\testing79m\SysLib\util.c
                  __pa_17   0x00d148    program     static D:\git\testing79m\App\WebUI\HTTPPrint.c
                  __pa_17   0x005eb2    program     static D:\git\testing79m\Singcom\Drivers\lcd.c
                  __pa_17   0x008652    program     static D:\git\testing79m\Microchip\TCPIP Stack\HTTP2.c
                  __pa_17   0x002f12    program     static D:\git\testing79m\Microchip\TCPIP Stack\TCP.c
                  __pa_17   0x00a0c8    program     static D:\git\testing79m\App\WebUI\HTTPGetDevInfo.c
                  __pa_17   0x012478    program     static D:\git\testing79m\Singcom\Devices\MainControl_c1.c
                  __pa_17   0x00e12c    program     static D:\git\testing79m\Microchip\TCPIP Stack\Helpers.c
                  __pa_17   0x0104f6    program     static D:\git\testing79m\Microchip\TCPIP Stack\ETH97J60.c
                  __pa_17   0x00ec82    program     static C:\Program Files\mcc18\src\traditional\stdclib\vfprintf.c
                  __pa_17   0x010c32    program     static D:\git\testing79m\App\WebUI\HTTPApp.c
                 __pa_170   0x006780    program     static D:\git\testing79m\Singcom\Drivers\lcd.c
                 __pa_170   0x00386c    program     static D:\git\testing79m\Microchip\TCPIP Stack\TCP.c
                 __pa_171   0x003876    program     static D:\git\testing79m\Microchip\TCPIP Stack\TCP.c
                 __pa_171   0x00678e    program     static D:\git\testing79m\Singcom\Drivers\lcd.c
                 __pa_172   0x003880    program     static D:\git\testing79m\Microchip\TCPIP Stack\TCP.c
                 __pa_172   0x006798    program     static D:\git\testing79m\Singcom\Drivers\lcd.c
                 __pa_173   0x003888    program     static D:\git\testing79m\Microchip\TCPIP Stack\TCP.c
                 __pa_173   0x0067a6    program     static D:\git\testing79m\Singcom\Drivers\lcd.c
                 __pa_174   0x003892    program     static D:\git\testing79m\Microchip\TCPIP Stack\TCP.c
                 __pa_174   0x0067b2    program     static D:\git\testing79m\Singcom\Drivers\lcd.c
                 __pa_175   0x0038a0    program     static D:\git\testing79m\Microchip\TCPIP Stack\TCP.c
                 __pa_175   0x0067be    program     static D:\git\testing79m\Singcom\Drivers\lcd.c
                 __pa_176   0x0038c8    program     static D:\git\testing79m\Microchip\TCPIP Stack\TCP.c
                 __pa_176   0x0067cc    program     static D:\git\testing79m\Singcom\Drivers\lcd.c
                 __pa_177   0x0067d8    program     static D:\git\testing79m\Singcom\Drivers\lcd.c
                 __pa_177   0x0038d6    program     static D:\git\testing79m\Microchip\TCPIP Stack\TCP.c
                 __pa_178   0x0067e0    program     static D:\git\testing79m\Singcom\Drivers\lcd.c
                 __pa_178   0x0038de    program     static D:\git\testing79m\Microchip\TCPIP Stack\TCP.c
                 __pa_179   0x0038e8    program     static D:\git\testing79m\Microchip\TCPIP Stack\TCP.c
                 __pa_179   0x0067e8    program     static D:\git\testing79m\Singcom\Drivers\lcd.c
                  __pa_18   0x0104fe    program     static D:\git\testing79m\Microchip\TCPIP Stack\ETH97J60.c
                  __pa_18   0x00e13c    program     static D:\git\testing79m\Microchip\TCPIP Stack\Helpers.c
                  __pa_18   0x01248a    program     static D:\git\testing79m\Singcom\Devices\MainControl_c1.c
                  __pa_18   0x00ec94    program     static C:\Program Files\mcc18\src\traditional\stdclib\vfprintf.c
                  __pa_18   0x008662    program     static D:\git\testing79m\Microchip\TCPIP Stack\HTTP2.c
                  __pa_18   0x00a0e0    program     static D:\git\testing79m\App\WebUI\HTTPGetDevInfo.c
                  __pa_18   0x002f20    program     static D:\git\testing79m\Microchip\TCPIP Stack\TCP.c
                  __pa_18   0x005ecc    program     static D:\git\testing79m\Singcom\Drivers\lcd.c
                  __pa_18   0x010c3c    program     static D:\git\testing79m\App\WebUI\HTTPApp.c
                  __pa_18   0x00b314    program     static D:\git\testing79m\SysLib\util.c
                  __pa_18   0x00c23a    program     static D:\git\testing79m\Microchip\TCPIP Stack\MPFS2.c
                  __pa_18   0x00d14e    program     static D:\git\testing79m\App\WebUI\HTTPPrint.c
                 __pa_180   0x0067f0    program     static D:\git\testing79m\Singcom\Drivers\lcd.c
                 __pa_180   0x0038f6    program     static D:\git\testing79m\Microchip\TCPIP Stack\TCP.c
                 __pa_181   0x0067fa    program     static D:\git\testing79m\Singcom\Drivers\lcd.c
                 __pa_181   0x003900    program     static D:\git\testing79m\Microchip\TCPIP Stack\TCP.c
                 __pa_182   0x006800    program     static D:\git\testing79m\Singcom\Drivers\lcd.c
                 __pa_182   0x00390e    program     static D:\git\testing79m\Microchip\TCPIP Stack\TCP.c
                 __pa_183   0x006806    program     static D:\git\testing79m\Singcom\Drivers\lcd.c
                 __pa_183   0x00391a    program     static D:\git\testing79m\Microchip\TCPIP Stack\TCP.c
                 __pa_184   0x006810    program     static D:\git\testing79m\Singcom\Drivers\lcd.c
                 __pa_184   0x003924    program     static D:\git\testing79m\Microchip\TCPIP Stack\TCP.c
                 __pa_185   0x003934    program     static D:\git\testing79m\Microchip\TCPIP Stack\TCP.c
                 __pa_185   0x006818    program     static D:\git\testing79m\Singcom\Drivers\lcd.c
                 __pa_186   0x006820    program     static D:\git\testing79m\Singcom\Drivers\lcd.c
                 __pa_186   0x00393e    program     static D:\git\testing79m\Microchip\TCPIP Stack\TCP.c
                 __pa_187   0x00395c    program     static D:\git\testing79m\Microchip\TCPIP Stack\TCP.c
                 __pa_187   0x006828    program     static D:\git\testing79m\Singcom\Drivers\lcd.c
                 __pa_188   0x003972    program     static D:\git\testing79m\Microchip\TCPIP Stack\TCP.c
                 __pa_188   0x006832    program     static D:\git\testing79m\Singcom\Drivers\lcd.c
                 __pa_189   0x003988    program     static D:\git\testing79m\Microchip\TCPIP Stack\TCP.c
                  __pa_19   0x005ee0    program     static D:\git\testing79m\Singcom\Drivers\lcd.c
                  __pa_19   0x008670    program     static D:\git\testing79m\Microchip\TCPIP Stack\HTTP2.c
                  __pa_19   0x00ec9e    program     static C:\Program Files\mcc18\src\traditional\stdclib\vfprintf.c
                  __pa_19   0x002f2a    program     static D:\git\testing79m\Microchip\TCPIP Stack\TCP.c
                  __pa_19   0x01249c    program     static D:\git\testing79m\Singcom\Devices\MainControl_c1.c
                  __pa_19   0x00e14c    program     static D:\git\testing79m\Microchip\TCPIP Stack\Helpers.c
                  __pa_19   0x00c244    program     static D:\git\testing79m\Microchip\TCPIP Stack\MPFS2.c
                  __pa_19   0x010508    program     static D:\git\testing79m\Microchip\TCPIP Stack\ETH97J60.c
                  __pa_19   0x00b322    program     static D:\git\testing79m\SysLib\util.c
                  __pa_19   0x00a0f4    program     static D:\git\testing79m\App\WebUI\HTTPGetDevInfo.c
                  __pa_19   0x00d15e    program     static D:\git\testing79m\App\WebUI\HTTPPrint.c
                  __pa_19   0x010c46    program     static D:\git\testing79m\App\WebUI\HTTPApp.c
                 __pa_190   0x0039a4    program     static D:\git\testing79m\Microchip\TCPIP Stack\TCP.c
                 __pa_191   0x0039c0    program     static D:\git\testing79m\Microchip\TCPIP Stack\TCP.c
                 __pa_192   0x0039cc    program     static D:\git\testing79m\Microchip\TCPIP Stack\TCP.c
                 __pa_193   0x0039da    program     static D:\git\testing79m\Microchip\TCPIP Stack\TCP.c
                 __pa_194   0x0039e4    program     static D:\git\testing79m\Microchip\TCPIP Stack\TCP.c
                 __pa_195   0x0039ee    program     static D:\git\testing79m\Microchip\TCPIP Stack\TCP.c
                 __pa_196   0x0039f6    program     static D:\git\testing79m\Microchip\TCPIP Stack\TCP.c
                 __pa_197   0x003a00    program     static D:\git\testing79m\Microchip\TCPIP Stack\TCP.c
                 __pa_198   0x003a0a    program     static D:\git\testing79m\Microchip\TCPIP Stack\TCP.c
                 __pa_199   0x003a14    program     static D:\git\testing79m\Microchip\TCPIP Stack\TCP.c
                   __pa_2   0x010b7e    program     static D:\git\testing79m\App\WebUI\HTTPApp.c
                   __pa_2   0x0127c0    program     static D:\git\testing79m\Bootstrap\Initialization.c
                   __pa_2   0x012b0c    program     static D:\git\testing79m\Microchip\TCPIP Stack\IP.c
                   __pa_2   0x011bdc    program     static D:\git\testing79m\Microchip\TCPIP Stack\ARP.c
                   __pa_2   0x013400    program     static D:\git\testing79m\Singcom\Drivers\oled_c1.c
                   __pa_2   0x013e7c    program     static D:\git\testing79m\Drivers\MCU-Internal\ISR.c
                   __pa_2   0x013c76    program     static D:\git\testing79m\Drivers\External-Peripherals\devadc.c
                   __pa_2   0x013b06    program     static D:\git\testing79m\Microchip\TCPIP Stack\StackTsk.c
                   __pa_2   0x002d96    program     static D:\git\testing79m\Microchip\TCPIP Stack\TCP.c
                   __pa_2   0x00dfee    program     static D:\git\testing79m\Microchip\TCPIP Stack\Helpers.c
                   __pa_2   0x0123de    program     static D:\git\testing79m\Singcom\Devices\MainControl_c1.c
                   __pa_2   0x00eb4a    program     static C:\Program Files\mcc18\src\traditional\stdclib\vfprintf.c
                   __pa_2   0x0130be    program     static D:\git\testing79m\Singcom\Drivers\i2c_c1.c
                   __pa_2   0x010420    program     static D:\git\testing79m\Microchip\TCPIP Stack\ETH97J60.c
                   __pa_2   0x0143d4    program     static D:\git\testing79m\Microchip\TCPIP Stack\Tick.c
                   __pa_2   0x0144b8    program     static D:\git\testing79m\Microchip\TCPIP Stack\UART.c
                   __pa_2   0x00b18a    program     static D:\git\testing79m\SysLib\util.c
                   __pa_2   0x009f3e    program     static D:\git\testing79m\App\WebUI\HTTPGetDevInfo.c
                   __pa_2   0x00c0f6    program     static D:\git\testing79m\Microchip\TCPIP Stack\MPFS2.c
                   __pa_2   0x005dac    program     static D:\git\testing79m\Singcom\Drivers\lcd.c
                   __pa_2   0x0142c6    program     static D:\git\testing79m\Microchip\TCPIP Stack\ICMP.c
                   __pa_2   0x00d060    program     static D:\git\testing79m\App\WebUI\HTTPPrint.c
                   __pa_2   0x012e0e    program     static D:\git\testing79m\Microchip\TCPIP Stack\SPIEEPROM.c
                   __pa_2   0x008560    program     static D:\git\testing79m\Microchip\TCPIP Stack\HTTP2.c
                  __pa_20   0x00a108    program     static D:\git\testing79m\App\WebUI\HTTPGetDevInfo.c
                  __pa_20   0x010512    program     static D:\git\testing79m\Microchip\TCPIP Stack\ETH97J60.c
                  __pa_20   0x00e15c    program     static D:\git\testing79m\Microchip\TCPIP Stack\Helpers.c
                  __pa_20   0x008676    program     static D:\git\testing79m\Microchip\TCPIP Stack\HTTP2.c
                  __pa_20   0x005eee    program     static D:\git\testing79m\Singcom\Drivers\lcd.c
                  __pa_20   0x002f46    program     static D:\git\testing79m\Microchip\TCPIP Stack\TCP.c
                  __pa_20   0x0124ac    program     static D:\git\testing79m\Singcom\Devices\MainControl_c1.c
                  __pa_20   0x00ecae    program     static C:\Program Files\mcc18\src\traditional\stdclib\vfprintf.c
                  __pa_20   0x010c50    program     static D:\git\testing79m\App\WebUI\HTTPApp.c
                  __pa_20   0x00c252    program     static D:\git\testing79m\Microchip\TCPIP Stack\MPFS2.c
                  __pa_20   0x00b33c    program     static D:\git\testing79m\SysLib\util.c
                  __pa_20   0x00d164    program     static D:\git\testing79m\App\WebUI\HTTPPrint.c
                 __pa_200   0x003a1e    program     static D:\git\testing79m\Microchip\TCPIP Stack\TCP.c
                 __pa_201   0x003a34    program     static D:\git\testing79m\Microchip\TCPIP Stack\TCP.c
                 __pa_202   0x003a40    program     static D:\git\testing79m\Microchip\TCPIP Stack\TCP.c
                 __pa_203   0x003a4c    program     static D:\git\testing79m\Microchip\TCPIP Stack\TCP.c
                 __pa_204   0x003a52    program     static D:\git\testing79m\Microchip\TCPIP Stack\TCP.c
                 __pa_205   0x003a5e    program     static D:\git\testing79m\Microchip\TCPIP Stack\TCP.c
                 __pa_206   0x003a72    program     static D:\git\testing79m\Microchip\TCPIP Stack\TCP.c
                 __pa_207   0x003a86    program     static D:\git\testing79m\Microchip\TCPIP Stack\TCP.c
                 __pa_208   0x003a94    program     static D:\git\testing79m\Microchip\TCPIP Stack\TCP.c
                 __pa_209   0x003a9e    program     static D:\git\testing79m\Microchip\TCPIP Stack\TCP.c
                  __pa_21   0x00c274    program     static D:\git\testing79m\Microchip\TCPIP Stack\MPFS2.c
                  __pa_21   0x00a118    program     static D:\git\testing79m\App\WebUI\HTTPGetDevInfo.c
                  __pa_21   0x01052a    program     static D:\git\testing79m\Microchip\TCPIP Stack\ETH97J60.c
                  __pa_21   0x00ecbe    program     static C:\Program Files\mcc18\src\traditional\stdclib\vfprintf.c
                  __pa_21   0x010c60    program     static D:\git\testing79m\App\WebUI\HTTPApp.c
                  __pa_21   0x00e164    program     static D:\git\testing79m\Microchip\TCPIP Stack\Helpers.c
                  __pa_21   0x002f52    program     static D:\git\testing79m\Microchip\TCPIP Stack\TCP.c
                  __pa_21   0x008680    program     static D:\git\testing79m\Microchip\TCPIP Stack\HTTP2.c
                  __pa_21   0x00b356    program     static D:\git\testing79m\SysLib\util.c
                  __pa_21   0x00d172    program     static D:\git\testing79m\App\WebUI\HTTPPrint.c
                  __pa_21   0x005f10    program     static D:\git\testing79m\Singcom\Drivers\lcd.c
                  __pa_21   0x0124ba    program     static D:\git\testing79m\Singcom\Devices\MainControl_c1.c
                 __pa_210   0x003aa6    program     static D:\git\testing79m\Microchip\TCPIP Stack\TCP.c
                 __pa_211   0x003ab0    program     static D:\git\testing79m\Microchip\TCPIP Stack\TCP.c
                 __pa_212   0x003aba    program     static D:\git\testing79m\Microchip\TCPIP Stack\TCP.c
                 __pa_213   0x003ac2    program     static D:\git\testing79m\Microchip\TCPIP Stack\TCP.c
                 __pa_214   0x003ad0    program     static D:\git\testing79m\Microchip\TCPIP Stack\TCP.c
                 __pa_215   0x003ada    program     static D:\git\testing79m\Microchip\TCPIP Stack\TCP.c
                 __pa_216   0x003ae6    program     static D:\git\testing79m\Microchip\TCPIP Stack\TCP.c
                 __pa_217   0x003af8    program     static D:\git\testing79m\Microchip\TCPIP Stack\TCP.c
                 __pa_218   0x003afe    program     static D:\git\testing79m\Microchip\TCPIP Stack\TCP.c
                 __pa_219   0x003b06    program     static D:\git\testing79m\Microchip\TCPIP Stack\TCP.c
                  __pa_22   0x00ecce    program     static C:\Program Files\mcc18\src\traditional\stdclib\vfprintf.c
                  __pa_22   0x00c294    program     static D:\git\testing79m\Microchip\TCPIP Stack\MPFS2.c
                  __pa_22   0x00d17e    program     static D:\git\testing79m\App\WebUI\HTTPPrint.c
                  __pa_22   0x005f28    program     static D:\git\testing79m\Singcom\Drivers\lcd.c
                  __pa_22   0x00a128    program     static D:\git\testing79m\App\WebUI\HTTPGetDevInfo.c
                  __pa_22   0x0124c8    program     static D:\git\testing79m\Singcom\Devices\MainControl_c1.c
                  __pa_22   0x00868a    program     static D:\git\testing79m\Microchip\TCPIP Stack\HTTP2.c
                  __pa_22   0x002f60    program     static D:\git\testing79m\Microchip\TCPIP Stack\TCP.c
                  __pa_22   0x010c6c    program     static D:\git\testing79m\App\WebUI\HTTPApp.c
                  __pa_22   0x00b360    program     static D:\git\testing79m\SysLib\util.c
                  __pa_22   0x00e172    program     static D:\git\testing79m\Microchip\TCPIP Stack\Helpers.c
                  __pa_22   0x010532    program     static D:\git\testing79m\Microchip\TCPIP Stack\ETH97J60.c
                 __pa_220   0x003b18    program     static D:\git\testing79m\Microchip\TCPIP Stack\TCP.c
                 __pa_221   0x003b26    program     static D:\git\testing79m\Microchip\TCPIP Stack\TCP.c
                 __pa_222   0x003b30    program     static D:\git\testing79m\Microchip\TCPIP Stack\TCP.c
                 __pa_223   0x003b3a    program     static D:\git\testing79m\Microchip\TCPIP Stack\TCP.c
                 __pa_224   0x003b44    program     static D:\git\testing79m\Microchip\TCPIP Stack\TCP.c
                 __pa_225   0x003b4c    program     static D:\git\testing79m\Microchip\TCPIP Stack\TCP.c
                 __pa_226   0x003b56    program     static D:\git\testing79m\Microchip\TCPIP Stack\TCP.c
                 __pa_227   0x003b60    program     static D:\git\testing79m\Microchip\TCPIP Stack\TCP.c
                 __pa_228   0x003b68    program     static D:\git\testing79m\Microchip\TCPIP Stack\TCP.c
                 __pa_229   0x003b72    program     static D:\git\testing79m\Microchip\TCPIP Stack\TCP.c
                  __pa_23   0x00ecda    program     static C:\Program Files\mcc18\src\traditional\stdclib\vfprintf.c
                  __pa_23   0x00d18a    program     static D:\git\testing79m\App\WebUI\HTTPPrint.c
                  __pa_23   0x010c76    program     static D:\git\testing79m\App\WebUI\HTTPApp.c
                  __pa_23   0x002f7e    program     static D:\git\testing79m\Microchip\TCPIP Stack\TCP.c
                  __pa_23   0x00e180    program     static D:\git\testing79m\Microchip\TCPIP Stack\Helpers.c
                  __pa_23   0x010540    program     static D:\git\testing79m\Microchip\TCPIP Stack\ETH97J60.c
                  __pa_23   0x00a138    program     static D:\git\testing79m\App\WebUI\HTTPGetDevInfo.c
                  __pa_23   0x00869e    program     static D:\git\testing79m\Microchip\TCPIP Stack\HTTP2.c
                  __pa_23   0x00b36a    program     static D:\git\testing79m\SysLib\util.c
                  __pa_23   0x005f34    program     static D:\git\testing79m\Singcom\Drivers\lcd.c
                  __pa_23   0x00c2a6    program     static D:\git\testing79m\Microchip\TCPIP Stack\MPFS2.c
                 __pa_230   0x003b80    program     static D:\git\testing79m\Microchip\TCPIP Stack\TCP.c
                 __pa_231   0x003b90    program     static D:\git\testing79m\Microchip\TCPIP Stack\TCP.c
                 __pa_232   0x003ba0    program     static D:\git\testing79m\Microchip\TCPIP Stack\TCP.c
                 __pa_233   0x003bae    program     static D:\git\testing79m\Microchip\TCPIP Stack\TCP.c
                 __pa_234   0x003bbc    program     static D:\git\testing79m\Microchip\TCPIP Stack\TCP.c
                 __pa_235   0x003bc8    program     static D:\git\testing79m\Microchip\TCPIP Stack\TCP.c
                 __pa_236   0x003bd4    program     static D:\git\testing79m\Microchip\TCPIP Stack\TCP.c
                 __pa_237   0x003bde    program     static D:\git\testing79m\Microchip\TCPIP Stack\TCP.c
                 __pa_238   0x003bea    program     static D:\git\testing79m\Microchip\TCPIP Stack\TCP.c
                 __pa_239   0x003bf8    program     static D:\git\testing79m\Microchip\TCPIP Stack\TCP.c
                  __pa_24   0x005f40    program     static D:\git\testing79m\Singcom\Drivers\lcd.c
                  __pa_24   0x002f88    program     static D:\git\testing79m\Microchip\TCPIP Stack\TCP.c
                  __pa_24   0x00d1a4    program     static D:\git\testing79m\App\WebUI\HTTPPrint.c
                  __pa_24   0x010548    program     static D:\git\testing79m\Microchip\TCPIP Stack\ETH97J60.c
                  __pa_24   0x0086aa    program     static D:\git\testing79m\Microchip\TCPIP Stack\HTTP2.c
                  __pa_24   0x00a142    program     static D:\git\testing79m\App\WebUI\HTTPGetDevInfo.c
                  __pa_24   0x00e194    program     static D:\git\testing79m\Microchip\TCPIP Stack\Helpers.c
                  __pa_24   0x00b37e    program     static D:\git\testing79m\SysLib\util.c
                  __pa_24   0x010c7c    program     static D:\git\testing79m\App\WebUI\HTTPApp.c
                  __pa_24   0x00ece8    program     static C:\Program Files\mcc18\src\traditional\stdclib\vfprintf.c
                  __pa_24   0x00c2b8    program     static D:\git\testing79m\Microchip\TCPIP Stack\MPFS2.c
                 __pa_240   0x003c06    program     static D:\git\testing79m\Microchip\TCPIP Stack\TCP.c
                 __pa_241   0x003c14    program     static D:\git\testing79m\Microchip\TCPIP Stack\TCP.c
                 __pa_242   0x003c22    program     static D:\git\testing79m\Microchip\TCPIP Stack\TCP.c
                 __pa_243   0x003c30    program     static D:\git\testing79m\Microchip\TCPIP Stack\TCP.c
                 __pa_244   0x003c3e    program     static D:\git\testing79m\Microchip\TCPIP Stack\TCP.c
                 __pa_245   0x003c4c    program     static D:\git\testing79m\Microchip\TCPIP Stack\TCP.c
                 __pa_246   0x003c5a    program     static D:\git\testing79m\Microchip\TCPIP Stack\TCP.c
                 __pa_247   0x003c68    program     static D:\git\testing79m\Microchip\TCPIP Stack\TCP.c
                 __pa_248   0x003c76    program     static D:\git\testing79m\Microchip\TCPIP Stack\TCP.c
                 __pa_249   0x003c84    program     static D:\git\testing79m\Microchip\TCPIP Stack\TCP.c
                  __pa_25   0x00ecf0    program     static C:\Program Files\mcc18\src\traditional\stdclib\vfprintf.c
                  __pa_25   0x0086b0    program     static D:\git\testing79m\Microchip\TCPIP Stack\HTTP2.c
                  __pa_25   0x002f92    program     static D:\git\testing79m\Microchip\TCPIP Stack\TCP.c
                  __pa_25   0x00d1b0    program     static D:\git\testing79m\App\WebUI\HTTPPrint.c
                  __pa_25   0x010558    program     static D:\git\testing79m\Microchip\TCPIP Stack\ETH97J60.c
                  __pa_25   0x00a14a    program     static D:\git\testing79m\App\WebUI\HTTPGetDevInfo.c
                  __pa_25   0x00e19e    program     static D:\git\testing79m\Microchip\TCPIP Stack\Helpers.c
                  __pa_25   0x00c2c6    program     static D:\git\testing79m\Microchip\TCPIP Stack\MPFS2.c
                  __pa_25   0x005f54    program     static D:\git\testing79m\Singcom\Drivers\lcd.c
                  __pa_25   0x00b38c    program     static D:\git\testing79m\SysLib\util.c
                 __pa_250   0x003c92    program     static D:\git\testing79m\Microchip\TCPIP Stack\TCP.c
                 __pa_251   0x003c9a    program     static D:\git\testing79m\Microchip\TCPIP Stack\TCP.c
                 __pa_252   0x003ca4    program     static D:\git\testing79m\Microchip\TCPIP Stack\TCP.c
                 __pa_253   0x003cae    program     static D:\git\testing79m\Microchip\TCPIP Stack\TCP.c
                 __pa_254   0x003cb8    program     static D:\git\testing79m\Microchip\TCPIP Stack\TCP.c
                 __pa_255   0x003cc2    program     static D:\git\testing79m\Microchip\TCPIP Stack\TCP.c
                 __pa_256   0x003cca    program     static D:\git\testing79m\Microchip\TCPIP Stack\TCP.c
                 __pa_257   0x003cd4    program     static D:\git\testing79m\Microchip\TCPIP Stack\TCP.c
                 __pa_258   0x003cde    program     static D:\git\testing79m\Microchip\TCPIP Stack\TCP.c
                 __pa_259   0x003ce8    program     static D:\git\testing79m\Microchip\TCPIP Stack\TCP.c
                  __pa_26   0x005f66    program     static D:\git\testing79m\Singcom\Drivers\lcd.c
                  __pa_26   0x00a158    program     static D:\git\testing79m\App\WebUI\HTTPGetDevInfo.c
                  __pa_26   0x00d1bc    program     static D:\git\testing79m\App\WebUI\HTTPPrint.c
                  __pa_26   0x00b39e    program     static D:\git\testing79m\SysLib\util.c
                  __pa_26   0x00c2e2    program     static D:\git\testing79m\Microchip\TCPIP Stack\MPFS2.c
                  __pa_26   0x00e1ac    program     static D:\git\testing79m\Microchip\TCPIP Stack\Helpers.c
                  __pa_26   0x010564    program     static D:\git\testing79m\Microchip\TCPIP Stack\ETH97J60.c
                  __pa_26   0x00ecfa    program     static C:\Program Files\mcc18\src\traditional\stdclib\vfprintf.c
                  __pa_26   0x002f9e    program     static D:\git\testing79m\Microchip\TCPIP Stack\TCP.c
                  __pa_26   0x0086b6    program     static D:\git\testing79m\Microchip\TCPIP Stack\HTTP2.c
                 __pa_260   0x003cf2    program     static D:\git\testing79m\Microchip\TCPIP Stack\TCP.c
                 __pa_261   0x003cfa    program     static D:\git\testing79m\Microchip\TCPIP Stack\TCP.c
                 __pa_262   0x003d06    program     static D:\git\testing79m\Microchip\TCPIP Stack\TCP.c
                 __pa_263   0x003d16    program     static D:\git\testing79m\Microchip\TCPIP Stack\TCP.c
                 __pa_264   0x003d20    program     static D:\git\testing79m\Microchip\TCPIP Stack\TCP.c
                 __pa_265   0x003d32    program     static D:\git\testing79m\Microchip\TCPIP Stack\TCP.c
                 __pa_266   0x003d42    program     static D:\git\testing79m\Microchip\TCPIP Stack\TCP.c
                 __pa_267   0x003d50    program     static D:\git\testing79m\Microchip\TCPIP Stack\TCP.c
                 __pa_268   0x003d56    program     static D:\git\testing79m\Microchip\TCPIP Stack\TCP.c
                 __pa_269   0x003d64    program     static D:\git\testing79m\Microchip\TCPIP Stack\TCP.c
                  __pa_27   0x00b3ac    program     static D:\git\testing79m\SysLib\util.c
                  __pa_27   0x00c2fc    program     static D:\git\testing79m\Microchip\TCPIP Stack\MPFS2.c
                  __pa_27   0x00ed04    program     static C:\Program Files\mcc18\src\traditional\stdclib\vfprintf.c
                  __pa_27   0x005f70    program     static D:\git\testing79m\Singcom\Drivers\lcd.c
                  __pa_27   0x00e1ba    program     static D:\git\testing79m\Microchip\TCPIP Stack\Helpers.c
                  __pa_27   0x00a170    program     static D:\git\testing79m\App\WebUI\HTTPGetDevInfo.c
                  __pa_27   0x00d1c6    program     static D:\git\testing79m\App\WebUI\HTTPPrint.c
                  __pa_27   0x0086bc    program     static D:\git\testing79m\Microchip\TCPIP Stack\HTTP2.c
                  __pa_27   0x002fb4    program     static D:\git\testing79m\Microchip\TCPIP Stack\TCP.c
                  __pa_27   0x010572    program     static D:\git\testing79m\Microchip\TCPIP Stack\ETH97J60.c
                 __pa_270   0x003d6c    program     static D:\git\testing79m\Microchip\TCPIP Stack\TCP.c
                 __pa_271   0x003d76    program     static D:\git\testing79m\Microchip\TCPIP Stack\TCP.c
                 __pa_272   0x003d7e    program     static D:\git\testing79m\Microchip\TCPIP Stack\TCP.c
                 __pa_273   0x003d86    program     static D:\git\testing79m\Microchip\TCPIP Stack\TCP.c
                 __pa_274   0x003d92    program     static D:\git\testing79m\Microchip\TCPIP Stack\TCP.c
                 __pa_275   0x003d9e    program     static D:\git\testing79m\Microchip\TCPIP Stack\TCP.c
                 __pa_276   0x003daa    program     static D:\git\testing79m\Microchip\TCPIP Stack\TCP.c
                 __pa_277   0x003db6    program     static D:\git\testing79m\Microchip\TCPIP Stack\TCP.c
                 __pa_278   0x003dc2    program     static D:\git\testing79m\Microchip\TCPIP Stack\TCP.c
                 __pa_279   0x003dca    program     static D:\git\testing79m\Microchip\TCPIP Stack\TCP.c
                  __pa_28   0x00a17c    program     static D:\git\testing79m\App\WebUI\HTTPGetDevInfo.c
                  __pa_28   0x005f86    program     static D:\git\testing79m\Singcom\Drivers\lcd.c
                  __pa_28   0x00d1d2    program     static D:\git\testing79m\App\WebUI\HTTPPrint.c
                  __pa_28   0x010582    program     static D:\git\testing79m\Microchip\TCPIP Stack\ETH97J60.c
                  __pa_28   0x00c316    program     static D:\git\testing79m\Microchip\TCPIP Stack\MPFS2.c
                  __pa_28   0x00ed0c    program     static C:\Program Files\mcc18\src\traditional\stdclib\vfprintf.c
                  __pa_28   0x0086c2    program     static D:\git\testing79m\Microchip\TCPIP Stack\HTTP2.c
                  __pa_28   0x00b3c4    program     static D:\git\testing79m\SysLib\util.c
                  __pa_28   0x00e1ca    program     static D:\git\testing79m\Microchip\TCPIP Stack\Helpers.c
                  __pa_28   0x002fc2    program     static D:\git\testing79m\Microchip\TCPIP Stack\TCP.c
                 __pa_280   0x003dd2    program     static D:\git\testing79m\Microchip\TCPIP Stack\TCP.c
                 __pa_281   0x003dda    program     static D:\git\testing79m\Microchip\TCPIP Stack\TCP.c
                 __pa_282   0x003de2    program     static D:\git\testing79m\Microchip\TCPIP Stack\TCP.c
                 __pa_283   0x003dec    program     static D:\git\testing79m\Microchip\TCPIP Stack\TCP.c
                 __pa_284   0x003df4    program     static D:\git\testing79m\Microchip\TCPIP Stack\TCP.c
                 __pa_285   0x003dfc    program     static D:\git\testing79m\Microchip\TCPIP Stack\TCP.c
                 __pa_286   0x003e04    program     static D:\git\testing79m\Microchip\TCPIP Stack\TCP.c
                 __pa_287   0x003e0c    program     static D:\git\testing79m\Microchip\TCPIP Stack\TCP.c
                  __pa_29   0x00d1d8    program     static D:\git\testing79m\App\WebUI\HTTPPrint.c
                  __pa_29   0x005f92    program     static D:\git\testing79m\Singcom\Drivers\lcd.c
                  __pa_29   0x01058c    program     static D:\git\testing79m\Microchip\TCPIP Stack\ETH97J60.c
                  __pa_29   0x00a1a6    program     static D:\git\testing79m\App\WebUI\HTTPGetDevInfo.c
                  __pa_29   0x00c330    program     static D:\git\testing79m\Microchip\TCPIP Stack\MPFS2.c
                  __pa_29   0x00e1d8    program     static D:\git\testing79m\Microchip\TCPIP Stack\Helpers.c
                  __pa_29   0x0086cc    program     static D:\git\testing79m\Microchip\TCPIP Stack\HTTP2.c
                  __pa_29   0x00b3d0    program     static D:\git\testing79m\SysLib\util.c
                  __pa_29   0x00ed1a    program     static C:\Program Files\mcc18\src\traditional\stdclib\vfprintf.c
                  __pa_29   0x002fd0    program     static D:\git\testing79m\Microchip\TCPIP Stack\TCP.c
                   __pa_3   0x013c82    program     static D:\git\testing79m\Drivers\External-Peripherals\devadc.c
                   __pa_3   0x0130de    program     static D:\git\testing79m\Singcom\Drivers\i2c_c1.c
                   __pa_3   0x00856c    program     static D:\git\testing79m\Microchip\TCPIP Stack\HTTP2.c
                   __pa_3   0x0123ea    program     static D:\git\testing79m\Singcom\Devices\MainControl_c1.c
                   __pa_3   0x012e28    program     static D:\git\testing79m\Microchip\TCPIP Stack\SPIEEPROM.c
                   __pa_3   0x00dffa    program     static D:\git\testing79m\Microchip\TCPIP Stack\Helpers.c
                   __pa_3   0x00c0fa    program     static D:\git\testing79m\Microchip\TCPIP Stack\MPFS2.c
                   __pa_3   0x00b190    program     static D:\git\testing79m\SysLib\util.c
                   __pa_3   0x012b18    program     static D:\git\testing79m\Microchip\TCPIP Stack\IP.c
                   __pa_3   0x013e94    program     static D:\git\testing79m\Drivers\MCU-Internal\ISR.c
                   __pa_3   0x010b8c    program     static D:\git\testing79m\App\WebUI\HTTPApp.c
                   __pa_3   0x0143e0    program     static D:\git\testing79m\Microchip\TCPIP Stack\Tick.c
                   __pa_3   0x011be8    program     static D:\git\testing79m\Microchip\TCPIP Stack\ARP.c
                   __pa_3   0x01340e    program     static D:\git\testing79m\Singcom\Drivers\oled_c1.c
                   __pa_3   0x005dbe    program     static D:\git\testing79m\Singcom\Drivers\lcd.c
                   __pa_3   0x01043e    program     static D:\git\testing79m\Microchip\TCPIP Stack\ETH97J60.c
                   __pa_3   0x00eb54    program     static C:\Program Files\mcc18\src\traditional\stdclib\vfprintf.c
                   __pa_3   0x0144c8    program     static D:\git\testing79m\Microchip\TCPIP Stack\UART.c
                   __pa_3   0x00d07a    program     static D:\git\testing79m\App\WebUI\HTTPPrint.c
                   __pa_3   0x002da4    program     static D:\git\testing79m\Microchip\TCPIP Stack\TCP.c
                   __pa_3   0x0127d0    program     static D:\git\testing79m\Bootstrap\Initialization.c
                   __pa_3   0x009f5a    program     static D:\git\testing79m\App\WebUI\HTTPGetDevInfo.c
                  __pa_30   0x010596    program     static D:\git\testing79m\Microchip\TCPIP Stack\ETH97J60.c
                  __pa_30   0x00e1e2    program     static D:\git\testing79m\Microchip\TCPIP Stack\Helpers.c
                  __pa_30   0x00a1b0    program     static D:\git\testing79m\App\WebUI\HTTPGetDevInfo.c
                  __pa_30   0x00b3dc    program     static D:\git\testing79m\SysLib\util.c
                  __pa_30   0x005fbe    program     static D:\git\testing79m\Singcom\Drivers\lcd.c
                  __pa_30   0x00d1e6    program     static D:\git\testing79m\App\WebUI\HTTPPrint.c
                  __pa_30   0x0086da    program     static D:\git\testing79m\Microchip\TCPIP Stack\HTTP2.c
                  __pa_30   0x00c340    program     static D:\git\testing79m\Microchip\TCPIP Stack\MPFS2.c
                  __pa_30   0x00ed36    program     static C:\Program Files\mcc18\src\traditional\stdclib\vfprintf.c
                  __pa_30   0x002fde    program     static D:\git\testing79m\Microchip\TCPIP Stack\TCP.c
                  __pa_31   0x005fc8    program     static D:\git\testing79m\Singcom\Drivers\lcd.c
                  __pa_31   0x00c358    program     static D:\git\testing79m\Microchip\TCPIP Stack\MPFS2.c
                  __pa_31   0x002fea    program     static D:\git\testing79m\Microchip\TCPIP Stack\TCP.c
                  __pa_31   0x00a1c0    program     static D:\git\testing79m\App\WebUI\HTTPGetDevInfo.c
                  __pa_31   0x00ed50    program     static C:\Program Files\mcc18\src\traditional\stdclib\vfprintf.c
                  __pa_31   0x0086e4    program     static D:\git\testing79m\Microchip\TCPIP Stack\HTTP2.c
                  __pa_31   0x00d1fa    program     static D:\git\testing79m\App\WebUI\HTTPPrint.c
                  __pa_31   0x00b3ea    program     static D:\git\testing79m\SysLib\util.c
                  __pa_31   0x00e1ea    program     static D:\git\testing79m\Microchip\TCPIP Stack\Helpers.c
                  __pa_31   0x01059e    program     static D:\git\testing79m\Microchip\TCPIP Stack\ETH97J60.c
                  __pa_32   0x002ff2    program     static D:\git\testing79m\Microchip\TCPIP Stack\TCP.c
                  __pa_32   0x00a1c6    program     static D:\git\testing79m\App\WebUI\HTTPGetDevInfo.c
                  __pa_32   0x0086f4    program     static D:\git\testing79m\Microchip\TCPIP Stack\HTTP2.c
                  __pa_32   0x00d20c    program     static D:\git\testing79m\App\WebUI\HTTPPrint.c
                  __pa_32   0x005fd4    program     static D:\git\testing79m\Singcom\Drivers\lcd.c
                  __pa_32   0x00ed6a    program     static C:\Program Files\mcc18\src\traditional\stdclib\vfprintf.c
                  __pa_32   0x00b3f8    program     static D:\git\testing79m\SysLib\util.c
                  __pa_32   0x00c36a    program     static D:\git\testing79m\Microchip\TCPIP Stack\MPFS2.c
                  __pa_33   0x00b40c    program     static D:\git\testing79m\SysLib\util.c
                  __pa_33   0x00301c    program     static D:\git\testing79m\Microchip\TCPIP Stack\TCP.c
                  __pa_33   0x00a1cc    program     static D:\git\testing79m\App\WebUI\HTTPGetDevInfo.c
                  __pa_33   0x00ed82    program     static C:\Program Files\mcc18\src\traditional\stdclib\vfprintf.c
                  __pa_33   0x008702    program     static D:\git\testing79m\Microchip\TCPIP Stack\HTTP2.c
                  __pa_33   0x00c380    program     static D:\git\testing79m\Microchip\TCPIP Stack\MPFS2.c
                  __pa_33   0x005fe4    program     static D:\git\testing79m\Singcom\Drivers\lcd.c
                  __pa_33   0x00d21e    program     static D:\git\testing79m\App\WebUI\HTTPPrint.c
                  __pa_34   0x00d230    program     static D:\git\testing79m\App\WebUI\HTTPPrint.c
                  __pa_34   0x008716    program     static D:\git\testing79m\Microchip\TCPIP Stack\HTTP2.c
                  __pa_34   0x00c38e    program     static D:\git\testing79m\Microchip\TCPIP Stack\MPFS2.c
                  __pa_34   0x00a1d6    program     static D:\git\testing79m\App\WebUI\HTTPGetDevInfo.c
                  __pa_34   0x00ed8c    program     static C:\Program Files\mcc18\src\traditional\stdclib\vfprintf.c
                  __pa_34   0x005ff2    program     static D:\git\testing79m\Singcom\Drivers\lcd.c
                  __pa_34   0x003030    program     static D:\git\testing79m\Microchip\TCPIP Stack\TCP.c
                  __pa_34   0x00b418    program     static D:\git\testing79m\SysLib\util.c
                  __pa_35   0x00ed9a    program     static C:\Program Files\mcc18\src\traditional\stdclib\vfprintf.c
                  __pa_35   0x00a1e4    program     static D:\git\testing79m\App\WebUI\HTTPGetDevInfo.c
                  __pa_35   0x00304c    program     static D:\git\testing79m\Microchip\TCPIP Stack\TCP.c
                  __pa_35   0x00b42a    program     static D:\git\testing79m\SysLib\util.c
                  __pa_35   0x008726    program     static D:\git\testing79m\Microchip\TCPIP Stack\HTTP2.c
                  __pa_35   0x00d242    program     static D:\git\testing79m\App\WebUI\HTTPPrint.c
                  __pa_35   0x00c39c    program     static D:\git\testing79m\Microchip\TCPIP Stack\MPFS2.c
                  __pa_35   0x006004    program     static D:\git\testing79m\Singcom\Drivers\lcd.c
                  __pa_36   0x00a1ec    program     static D:\git\testing79m\App\WebUI\HTTPGetDevInfo.c
                  __pa_36   0x00873a    program     static D:\git\testing79m\Microchip\TCPIP Stack\HTTP2.c
                  __pa_36   0x00d24e    program     static D:\git\testing79m\App\WebUI\HTTPPrint.c
                  __pa_36   0x00eda2    program     static C:\Program Files\mcc18\src\traditional\stdclib\vfprintf.c
                  __pa_36   0x00c3aa    program     static D:\git\testing79m\Microchip\TCPIP Stack\MPFS2.c
                  __pa_36   0x003066    program     static D:\git\testing79m\Microchip\TCPIP Stack\TCP.c
                  __pa_36   0x006028    program     static D:\git\testing79m\Singcom\Drivers\lcd.c
                  __pa_36   0x00b432    program     static D:\git\testing79m\SysLib\util.c
                  __pa_37   0x00604e    program     static D:\git\testing79m\Singcom\Drivers\lcd.c
                  __pa_37   0x00edac    program     static C:\Program Files\mcc18\src\traditional\stdclib\vfprintf.c
                  __pa_37   0x00306e    program     static D:\git\testing79m\Microchip\TCPIP Stack\TCP.c
                  __pa_37   0x00874a    program     static D:\git\testing79m\Microchip\TCPIP Stack\HTTP2.c
                  __pa_37   0x00c3b4    program     static D:\git\testing79m\Microchip\TCPIP Stack\MPFS2.c
                  __pa_37   0x00b43e    program     static D:\git\testing79m\SysLib\util.c
                  __pa_37   0x00d258    program     static D:\git\testing79m\App\WebUI\HTTPPrint.c
                  __pa_37   0x00a1fe    program     static D:\git\testing79m\App\WebUI\HTTPGetDevInfo.c
                  __pa_38   0x00edbc    program     static C:\Program Files\mcc18\src\traditional\stdclib\vfprintf.c
                  __pa_38   0x00a20e    program     static D:\git\testing79m\App\WebUI\HTTPGetDevInfo.c
                  __pa_38   0x00d25e    program     static D:\git\testing79m\App\WebUI\HTTPPrint.c
                  __pa_38   0x00b448    program     static D:\git\testing79m\SysLib\util.c
                  __pa_38   0x00307e    program     static D:\git\testing79m\Microchip\TCPIP Stack\TCP.c
                  __pa_38   0x00c3c6    program     static D:\git\testing79m\Microchip\TCPIP Stack\MPFS2.c
                  __pa_38   0x00605c    program     static D:\git\testing79m\Singcom\Drivers\lcd.c
                  __pa_38   0x008758    program     static D:\git\testing79m\Microchip\TCPIP Stack\HTTP2.c
                  __pa_39   0x00b456    program     static D:\git\testing79m\SysLib\util.c
                  __pa_39   0x00d26e    program     static D:\git\testing79m\App\WebUI\HTTPPrint.c
                  __pa_39   0x008760    program     static D:\git\testing79m\Microchip\TCPIP Stack\HTTP2.c
                  __pa_39   0x00a22a    program     static D:\git\testing79m\App\WebUI\HTTPGetDevInfo.c
                  __pa_39   0x00c3d4    program     static D:\git\testing79m\Microchip\TCPIP Stack\MPFS2.c
                  __pa_39   0x00edca    program     static C:\Program Files\mcc18\src\traditional\stdclib\vfprintf.c
                  __pa_39   0x006078    program     static D:\git\testing79m\Singcom\Drivers\lcd.c
                  __pa_39   0x00308e    program     static D:\git\testing79m\Microchip\TCPIP Stack\TCP.c
                   __pa_4   0x010456    program     static D:\git\testing79m\Microchip\TCPIP Stack\ETH97J60.c
                   __pa_4   0x00b1bc    program     static D:\git\testing79m\SysLib\util.c
                   __pa_4   0x012e38    program     static D:\git\testing79m\Microchip\TCPIP Stack\SPIEEPROM.c
                   __pa_4   0x0127fa    program     static D:\git\testing79m\Bootstrap\Initialization.c
                   __pa_4   0x011bfc    program     static D:\git\testing79m\Microchip\TCPIP Stack\ARP.c
                   __pa_4   0x010baa    program     static D:\git\testing79m\App\WebUI\HTTPApp.c
                   __pa_4   0x00c106    program     static D:\git\testing79m\Microchip\TCPIP Stack\MPFS2.c
                   __pa_4   0x012b1e    program     static D:\git\testing79m\Microchip\TCPIP Stack\IP.c
                   __pa_4   0x00eb6c    program     static C:\Program Files\mcc18\src\traditional\stdclib\vfprintf.c
                   __pa_4   0x005dc6    program     static D:\git\testing79m\Singcom\Drivers\lcd.c
                   __pa_4   0x009f6c    program     static D:\git\testing79m\App\WebUI\HTTPGetDevInfo.c
                   __pa_4   0x013426    program     static D:\git\testing79m\Singcom\Drivers\oled_c1.c
                   __pa_4   0x002db0    program     static D:\git\testing79m\Microchip\TCPIP Stack\TCP.c
                   __pa_4   0x0123f6    program     static D:\git\testing79m\Singcom\Devices\MainControl_c1.c
                   __pa_4   0x008588    program     static D:\git\testing79m\Microchip\TCPIP Stack\HTTP2.c
                   __pa_4   0x013c9c    program     static D:\git\testing79m\Drivers\External-Peripherals\devadc.c
                   __pa_4   0x00d086    program     static D:\git\testing79m\App\WebUI\HTTPPrint.c
                   __pa_4   0x00e01c    program     static D:\git\testing79m\Microchip\TCPIP Stack\Helpers.c
                   __pa_4   0x0130ea    program     static D:\git\testing79m\Singcom\Drivers\i2c_c1.c
                  __pa_40   0x00a242    program     static D:\git\testing79m\App\WebUI\HTTPGetDevInfo.c
                  __pa_40   0x00309c    program     static D:\git\testing79m\Microchip\TCPIP Stack\TCP.c
                  __pa_40   0x00b464    program     static D:\git\testing79m\SysLib\util.c
                  __pa_40   0x00edd6    program     static C:\Program Files\mcc18\src\traditional\stdclib\vfprintf.c
                  __pa_40   0x00d27e    program     static D:\git\testing79m\App\WebUI\HTTPPrint.c
                  __pa_40   0x00608e    program     static D:\git\testing79m\Singcom\Drivers\lcd.c
                  __pa_40   0x00c3e2    program     static D:\git\testing79m\Microchip\TCPIP Stack\MPFS2.c
                  __pa_40   0x00876e    program     static D:\git\testing79m\Microchip\TCPIP Stack\HTTP2.c
                  __pa_41   0x00ede2    program     static C:\Program Files\mcc18\src\traditional\stdclib\vfprintf.c
                  __pa_41   0x00a250    program     static D:\git\testing79m\App\WebUI\HTTPGetDevInfo.c
                  __pa_41   0x00b472    program     static D:\git\testing79m\SysLib\util.c
                  __pa_41   0x0060b0    program     static D:\git\testing79m\Singcom\Drivers\lcd.c
                  __pa_41   0x0030b8    program     static D:\git\testing79m\Microchip\TCPIP Stack\TCP.c
                  __pa_41   0x00c3ec    program     static D:\git\testing79m\Microchip\TCPIP Stack\MPFS2.c
                  __pa_41   0x00d28e    program     static D:\git\testing79m\App\WebUI\HTTPPrint.c
                  __pa_41   0x00877a    program     static D:\git\testing79m\Microchip\TCPIP Stack\HTTP2.c
                  __pa_42   0x00a25e    program     static D:\git\testing79m\App\WebUI\HTTPGetDevInfo.c
                  __pa_42   0x008786    program     static D:\git\testing79m\Microchip\TCPIP Stack\HTTP2.c
                  __pa_42   0x0060ca    program     static D:\git\testing79m\Singcom\Drivers\lcd.c
                  __pa_42   0x00c3f6    program     static D:\git\testing79m\Microchip\TCPIP Stack\MPFS2.c
                  __pa_42   0x0030c0    program     static D:\git\testing79m\Microchip\TCPIP Stack\TCP.c
                  __pa_42   0x00b480    program     static D:\git\testing79m\SysLib\util.c
                  __pa_42   0x00edea    program     static C:\Program Files\mcc18\src\traditional\stdclib\vfprintf.c
                  __pa_42   0x00d29e    program     static D:\git\testing79m\App\WebUI\HTTPPrint.c
                  __pa_43   0x00b48a    program     static D:\git\testing79m\SysLib\util.c
                  __pa_43   0x0030d8    program     static D:\git\testing79m\Microchip\TCPIP Stack\TCP.c
                  __pa_43   0x0060de    program     static D:\git\testing79m\Singcom\Drivers\lcd.c
                  __pa_43   0x008790    program     static D:\git\testing79m\Microchip\TCPIP Stack\HTTP2.c
                  __pa_43   0x00edf4    program     static C:\Program Files\mcc18\src\traditional\stdclib\vfprintf.c
                  __pa_43   0x00d2ac    program     static D:\git\testing79m\App\WebUI\HTTPPrint.c
                  __pa_43   0x00a26c    program     static D:\git\testing79m\App\WebUI\HTTPGetDevInfo.c
                  __pa_43   0x00c408    program     static D:\git\testing79m\Microchip\TCPIP Stack\MPFS2.c
                  __pa_44   0x0060ea    program     static D:\git\testing79m\Singcom\Drivers\lcd.c
                  __pa_44   0x00d2c0    program     static D:\git\testing79m\App\WebUI\HTTPPrint.c
                  __pa_44   0x00b494    program     static D:\git\testing79m\SysLib\util.c
                  __pa_44   0x00a282    program     static D:\git\testing79m\App\WebUI\HTTPGetDevInfo.c
                  __pa_44   0x00c430    program     static D:\git\testing79m\Microchip\TCPIP Stack\MPFS2.c
                  __pa_44   0x00edfa    program     static C:\Program Files\mcc18\src\traditional\stdclib\vfprintf.c
                  __pa_44   0x008798    program     static D:\git\testing79m\Microchip\TCPIP Stack\HTTP2.c
                  __pa_44   0x0030ea    program     static D:\git\testing79m\Microchip\TCPIP Stack\TCP.c
                  __pa_45   0x00b49e    program     static D:\git\testing79m\SysLib\util.c
                  __pa_45   0x0060f8    program     static D:\git\testing79m\Singcom\Drivers\lcd.c
                  __pa_45   0x0087a8    program     static D:\git\testing79m\Microchip\TCPIP Stack\HTTP2.c
                  __pa_45   0x00ee04    program     static C:\Program Files\mcc18\src\traditional\stdclib\vfprintf.c
                  __pa_45   0x00d2ce    program     static D:\git\testing79m\App\WebUI\HTTPPrint.c
                  __pa_45   0x00a28c    program     static D:\git\testing79m\App\WebUI\HTTPGetDevInfo.c
                  __pa_45   0x00c43a    program     static D:\git\testing79m\Microchip\TCPIP Stack\MPFS2.c
                  __pa_45   0x0030f4    program     static D:\git\testing79m\Microchip\TCPIP Stack\TCP.c
                  __pa_46   0x00b4a6    program     static D:\git\testing79m\SysLib\util.c
                  __pa_46   0x00ee10    program     static C:\Program Files\mcc18\src\traditional\stdclib\vfprintf.c
                  __pa_46   0x00d2d2    program     static D:\git\testing79m\App\WebUI\HTTPPrint.c
                  __pa_46   0x006106    program     static D:\git\testing79m\Singcom\Drivers\lcd.c
                  __pa_46   0x003106    program     static D:\git\testing79m\Microchip\TCPIP Stack\TCP.c
                  __pa_46   0x00c454    program     static D:\git\testing79m\Microchip\TCPIP Stack\MPFS2.c
                  __pa_46   0x0087b8    program     static D:\git\testing79m\Microchip\TCPIP Stack\HTTP2.c
                  __pa_46   0x00a296    program     static D:\git\testing79m\App\WebUI\HTTPGetDevInfo.c
                  __pa_47   0x006112    program     static D:\git\testing79m\Singcom\Drivers\lcd.c
                  __pa_47   0x00c45c    program     static D:\git\testing79m\Microchip\TCPIP Stack\MPFS2.c
                  __pa_47   0x0087c8    program     static D:\git\testing79m\Microchip\TCPIP Stack\HTTP2.c
                  __pa_47   0x00d2d6    program     static D:\git\testing79m\App\WebUI\HTTPPrint.c
                  __pa_47   0x00a2a2    program     static D:\git\testing79m\App\WebUI\HTTPGetDevInfo.c
                  __pa_47   0x00b4cc    program     static D:\git\testing79m\SysLib\util.c
                  __pa_47   0x00312c    program     static D:\git\testing79m\Microchip\TCPIP Stack\TCP.c
                  __pa_48   0x006128    program     static D:\git\testing79m\Singcom\Drivers\lcd.c
                  __pa_48   0x00b4ee    program     static D:\git\testing79m\SysLib\util.c
                  __pa_48   0x00314a    program     static D:\git\testing79m\Microchip\TCPIP Stack\TCP.c
                  __pa_48   0x0087d8    program     static D:\git\testing79m\Microchip\TCPIP Stack\HTTP2.c
                  __pa_48   0x00a2ae    program     static D:\git\testing79m\App\WebUI\HTTPGetDevInfo.c
                  __pa_48   0x00d2da    program     static D:\git\testing79m\App\WebUI\HTTPPrint.c
                  __pa_48   0x00c46c    program     static D:\git\testing79m\Microchip\TCPIP Stack\MPFS2.c
                  __pa_49   0x00b4f6    program     static D:\git\testing79m\SysLib\util.c
                  __pa_49   0x00a2ba    program     static D:\git\testing79m\App\WebUI\HTTPGetDevInfo.c
                  __pa_49   0x00d2e2    program     static D:\git\testing79m\App\WebUI\HTTPPrint.c
                  __pa_49   0x00c484    program     static D:\git\testing79m\Microchip\TCPIP Stack\MPFS2.c
                  __pa_49   0x00316a    program     static D:\git\testing79m\Microchip\TCPIP Stack\TCP.c
                  __pa_49   0x006144    program     static D:\git\testing79m\Singcom\Drivers\lcd.c
                  __pa_49   0x0087de    program     static D:\git\testing79m\Microchip\TCPIP Stack\HTTP2.c
                   __pa_5   0x008594    program     static D:\git\testing79m\Microchip\TCPIP Stack\HTTP2.c
                   __pa_5   0x012402    program     static D:\git\testing79m\Singcom\Devices\MainControl_c1.c
                   __pa_5   0x012b34    program     static D:\git\testing79m\Microchip\TCPIP Stack\IP.c
                   __pa_5   0x005dda    program     static D:\git\testing79m\Singcom\Drivers\lcd.c
                   __pa_5   0x00d096    program     static D:\git\testing79m\App\WebUI\HTTPPrint.c
                   __pa_5   0x00eb80    program     static C:\Program Files\mcc18\src\traditional\stdclib\vfprintf.c
                   __pa_5   0x00e02a    program     static D:\git\testing79m\Microchip\TCPIP Stack\Helpers.c
                   __pa_5   0x009f72    program     static D:\git\testing79m\App\WebUI\HTTPGetDevInfo.c
                   __pa_5   0x013104    program     static D:\git\testing79m\Singcom\Drivers\i2c_c1.c
                   __pa_5   0x01343e    program     static D:\git\testing79m\Singcom\Drivers\oled_c1.c
                   __pa_5   0x00b1c8    program     static D:\git\testing79m\SysLib\util.c
                   __pa_5   0x010bb6    program     static D:\git\testing79m\App\WebUI\HTTPApp.c
                   __pa_5   0x012808    program     static D:\git\testing79m\Bootstrap\Initialization.c
                   __pa_5   0x013caa    program     static D:\git\testing79m\Drivers\External-Peripherals\devadc.c
                   __pa_5   0x002dba    program     static D:\git\testing79m\Microchip\TCPIP Stack\TCP.c
                   __pa_5   0x00c118    program     static D:\git\testing79m\Microchip\TCPIP Stack\MPFS2.c
                   __pa_5   0x010460    program     static D:\git\testing79m\Microchip\TCPIP Stack\ETH97J60.c
                   __pa_5   0x011c06    program     static D:\git\testing79m\Microchip\TCPIP Stack\ARP.c
                   __pa_5   0x012e42    program     static D:\git\testing79m\Microchip\TCPIP Stack\SPIEEPROM.c
                  __pa_50   0x00d2f4    program     static D:\git\testing79m\App\WebUI\HTTPPrint.c
                  __pa_50   0x00c492    program     static D:\git\testing79m\Microchip\TCPIP Stack\MPFS2.c
                  __pa_50   0x0087ea    program     static D:\git\testing79m\Microchip\TCPIP Stack\HTTP2.c
                  __pa_50   0x006158    program     static D:\git\testing79m\Singcom\Drivers\lcd.c
                  __pa_50   0x00a2ca    program     static D:\git\testing79m\App\WebUI\HTTPGetDevInfo.c
                  __pa_50   0x003180    program     static D:\git\testing79m\Microchip\TCPIP Stack\TCP.c
                  __pa_50   0x00b504    program     static D:\git\testing79m\SysLib\util.c
                  __pa_51   0x0087f6    program     static D:\git\testing79m\Microchip\TCPIP Stack\HTTP2.c
                  __pa_51   0x00615e    program     static D:\git\testing79m\Singcom\Drivers\lcd.c
                  __pa_51   0x003196    program     static D:\git\testing79m\Microchip\TCPIP Stack\TCP.c
                  __pa_51   0x00b50c    program     static D:\git\testing79m\SysLib\util.c
                  __pa_51   0x00d2fa    program     static D:\git\testing79m\App\WebUI\HTTPPrint.c
                  __pa_51   0x00a2d4    program     static D:\git\testing79m\App\WebUI\HTTPGetDevInfo.c
                  __pa_51   0x00c498    program     static D:\git\testing79m\Microchip\TCPIP Stack\MPFS2.c
                  __pa_52   0x006164    program     static D:\git\testing79m\Singcom\Drivers\lcd.c
                  __pa_52   0x0031a2    program     static D:\git\testing79m\Microchip\TCPIP Stack\TCP.c
                  __pa_52   0x00c4b4    program     static D:\git\testing79m\Microchip\TCPIP Stack\MPFS2.c
                  __pa_52   0x00d304    program     static D:\git\testing79m\App\WebUI\HTTPPrint.c
                  __pa_52   0x00a2e4    program     static D:\git\testing79m\App\WebUI\HTTPGetDevInfo.c
                  __pa_52   0x00b514    program     static D:\git\testing79m\SysLib\util.c
                  __pa_52   0x008806    program     static D:\git\testing79m\Microchip\TCPIP Stack\HTTP2.c
                  __pa_53   0x00d312    program     static D:\git\testing79m\App\WebUI\HTTPPrint.c
                  __pa_53   0x0031b0    program     static D:\git\testing79m\Microchip\TCPIP Stack\TCP.c
                  __pa_53   0x00b526    program     static D:\git\testing79m\SysLib\util.c
                  __pa_53   0x00c4c4    program     static D:\git\testing79m\Microchip\TCPIP Stack\MPFS2.c
                  __pa_53   0x008816    program     static D:\git\testing79m\Microchip\TCPIP Stack\HTTP2.c
                  __pa_53   0x006176    program     static D:\git\testing79m\Singcom\Drivers\lcd.c
                  __pa_53   0x00a2f2    program     static D:\git\testing79m\App\WebUI\HTTPGetDevInfo.c
                  __pa_54   0x00b534    program     static D:\git\testing79m\SysLib\util.c
                  __pa_54   0x00d320    program     static D:\git\testing79m\App\WebUI\HTTPPrint.c
                  __pa_54   0x00618a    program     static D:\git\testing79m\Singcom\Drivers\lcd.c
                  __pa_54   0x00a2fc    program     static D:\git\testing79m\App\WebUI\HTTPGetDevInfo.c
                  __pa_54   0x00882c    program     static D:\git\testing79m\Microchip\TCPIP Stack\HTTP2.c
                  __pa_54   0x0031b8    program     static D:\git\testing79m\Microchip\TCPIP Stack\TCP.c
                  __pa_54   0x00c4dc    program     static D:\git\testing79m\Microchip\TCPIP Stack\MPFS2.c
                  __pa_55   0x006190    program     static D:\git\testing79m\Singcom\Drivers\lcd.c
                  __pa_55   0x00a310    program     static D:\git\testing79m\App\WebUI\HTTPGetDevInfo.c
                  __pa_55   0x008838    program     static D:\git\testing79m\Microchip\TCPIP Stack\HTTP2.c
                  __pa_55   0x00c4ea    program     static D:\git\testing79m\Microchip\TCPIP Stack\MPFS2.c
                  __pa_55   0x00b53c    program     static D:\git\testing79m\SysLib\util.c
                  __pa_55   0x00d330    program     static D:\git\testing79m\App\WebUI\HTTPPrint.c
                  __pa_55   0x0031c6    program     static D:\git\testing79m\Microchip\TCPIP Stack\TCP.c
                  __pa_56   0x008846    program     static D:\git\testing79m\Microchip\TCPIP Stack\HTTP2.c
                  __pa_56   0x00d336    program     static D:\git\testing79m\App\WebUI\HTTPPrint.c
                  __pa_56   0x00a324    program     static D:\git\testing79m\App\WebUI\HTTPGetDevInfo.c
                  __pa_56   0x00c4fe    program     static D:\git\testing79m\Microchip\TCPIP Stack\MPFS2.c
                  __pa_56   0x00b54a    program     static D:\git\testing79m\SysLib\util.c
                  __pa_56   0x00619c    program     static D:\git\testing79m\Singcom\Drivers\lcd.c
                  __pa_56   0x0031d4    program     static D:\git\testing79m\Microchip\TCPIP Stack\TCP.c
                  __pa_57   0x008854    program     static D:\git\testing79m\Microchip\TCPIP Stack\HTTP2.c
                  __pa_57   0x00a338    program     static D:\git\testing79m\App\WebUI\HTTPGetDevInfo.c
                  __pa_57   0x00d346    program     static D:\git\testing79m\App\WebUI\HTTPPrint.c
                  __pa_57   0x00b558    program     static D:\git\testing79m\SysLib\util.c
                  __pa_57   0x0061ac    program     static D:\git\testing79m\Singcom\Drivers\lcd.c
                  __pa_57   0x0031de    program     static D:\git\testing79m\Microchip\TCPIP Stack\TCP.c
                  __pa_57   0x00c50c    program     static D:\git\testing79m\Microchip\TCPIP Stack\MPFS2.c
                  __pa_58   0x008864    program     static D:\git\testing79m\Microchip\TCPIP Stack\HTTP2.c
                  __pa_58   0x0031fc    program     static D:\git\testing79m\Microchip\TCPIP Stack\TCP.c
                  __pa_58   0x00a340    program     static D:\git\testing79m\App\WebUI\HTTPGetDevInfo.c
                  __pa_58   0x0061b6    program     static D:\git\testing79m\Singcom\Drivers\lcd.c
                  __pa_58   0x00b562    program     static D:\git\testing79m\SysLib\util.c
                  __pa_58   0x00d354    program     static D:\git\testing79m\App\WebUI\HTTPPrint.c
                  __pa_58   0x00c51e    program     static D:\git\testing79m\Microchip\TCPIP Stack\MPFS2.c
                  __pa_59   0x008872    program     static D:\git\testing79m\Microchip\TCPIP Stack\HTTP2.c
                  __pa_59   0x00a348    program     static D:\git\testing79m\App\WebUI\HTTPGetDevInfo.c
                  __pa_59   0x00d362    program     static D:\git\testing79m\App\WebUI\HTTPPrint.c
                  __pa_59   0x00c528    program     static D:\git\testing79m\Microchip\TCPIP Stack\MPFS2.c
                  __pa_59   0x00b574    program     static D:\git\testing79m\SysLib\util.c
                  __pa_59   0x003220    program     static D:\git\testing79m\Microchip\TCPIP Stack\TCP.c
                  __pa_59   0x0061cc    program     static D:\git\testing79m\Singcom\Drivers\lcd.c
                   __pa_6   0x00d0a6    program     static D:\git\testing79m\App\WebUI\HTTPPrint.c
                   __pa_6   0x013110    program     static D:\git\testing79m\Singcom\Drivers\i2c_c1.c
                   __pa_6   0x013446    program     static D:\git\testing79m\Singcom\Drivers\oled_c1.c
                   __pa_6   0x012816    program     static D:\git\testing79m\Bootstrap\Initialization.c
                   __pa_6   0x00b1ce    program     static D:\git\testing79m\SysLib\util.c
                   __pa_6   0x01240e    program     static D:\git\testing79m\Singcom\Devices\MainControl_c1.c
                   __pa_6   0x009f78    program     static D:\git\testing79m\App\WebUI\HTTPGetDevInfo.c
                   __pa_6   0x00e050    program     static D:\git\testing79m\Microchip\TCPIP Stack\Helpers.c
                   __pa_6   0x012b3e    program     static D:\git\testing79m\Microchip\TCPIP Stack\IP.c
                   __pa_6   0x010bc6    program     static D:\git\testing79m\App\WebUI\HTTPApp.c
                   __pa_6   0x00eb9c    program     static C:\Program Files\mcc18\src\traditional\stdclib\vfprintf.c
                   __pa_6   0x011c16    program     static D:\git\testing79m\Microchip\TCPIP Stack\ARP.c
                   __pa_6   0x002e4e    program     static D:\git\testing79m\Microchip\TCPIP Stack\TCP.c
                   __pa_6   0x010464    program     static D:\git\testing79m\Microchip\TCPIP Stack\ETH97J60.c
                   __pa_6   0x005dec    program     static D:\git\testing79m\Singcom\Drivers\lcd.c
                   __pa_6   0x0085bc    program     static D:\git\testing79m\Microchip\TCPIP Stack\HTTP2.c
                   __pa_6   0x012e54    program     static D:\git\testing79m\Microchip\TCPIP Stack\SPIEEPROM.c
                   __pa_6   0x00c13a    program     static D:\git\testing79m\Microchip\TCPIP Stack\MPFS2.c
                   __pa_6   0x013cbc    program     static D:\git\testing79m\Drivers\External-Peripherals\devadc.c
                  __pa_60   0x008886    program     static D:\git\testing79m\Microchip\TCPIP Stack\HTTP2.c
                  __pa_60   0x00c534    program     static D:\git\testing79m\Microchip\TCPIP Stack\MPFS2.c
                  __pa_60   0x003230    program     static D:\git\testing79m\Microchip\TCPIP Stack\TCP.c
                  __pa_60   0x00b57c    program     static D:\git\testing79m\SysLib\util.c
                  __pa_60   0x0061da    program     static D:\git\testing79m\Singcom\Drivers\lcd.c
                  __pa_60   0x00d36a    program     static D:\git\testing79m\App\WebUI\HTTPPrint.c
                  __pa_60   0x00a35a    program     static D:\git\testing79m\App\WebUI\HTTPGetDevInfo.c
                  __pa_61   0x00888e    program     static D:\git\testing79m\Microchip\TCPIP Stack\HTTP2.c
                  __pa_61   0x00c542    program     static D:\git\testing79m\Microchip\TCPIP Stack\MPFS2.c
                  __pa_61   0x00323a    program     static D:\git\testing79m\Microchip\TCPIP Stack\TCP.c
                  __pa_61   0x00b586    program     static D:\git\testing79m\SysLib\util.c
                  __pa_61   0x0061e4    program     static D:\git\testing79m\Singcom\Drivers\lcd.c
                  __pa_61   0x00d370    program     static D:\git\testing79m\App\WebUI\HTTPPrint.c
                  __pa_61   0x00a36c    program     static D:\git\testing79m\App\WebUI\HTTPGetDevInfo.c
                  __pa_62   0x00d380    program     static D:\git\testing79m\App\WebUI\HTTPPrint.c
                  __pa_62   0x00a378    program     static D:\git\testing79m\App\WebUI\HTTPGetDevInfo.c
                  __pa_62   0x00b58c    program     static D:\git\testing79m\SysLib\util.c
                  __pa_62   0x003244    program     static D:\git\testing79m\Microchip\TCPIP Stack\TCP.c
                  __pa_62   0x0088a0    program     static D:\git\testing79m\Microchip\TCPIP Stack\HTTP2.c
                  __pa_62   0x00c550    program     static D:\git\testing79m\Microchip\TCPIP Stack\MPFS2.c
                  __pa_62   0x0061f2    program     static D:\git\testing79m\Singcom\Drivers\lcd.c
                  __pa_63   0x00b59a    program     static D:\git\testing79m\SysLib\util.c
                  __pa_63   0x00c558    program     static D:\git\testing79m\Microchip\TCPIP Stack\MPFS2.c
                  __pa_63   0x0088ac    program     static D:\git\testing79m\Microchip\TCPIP Stack\HTTP2.c
                  __pa_63   0x006200    program     static D:\git\testing79m\Singcom\Drivers\lcd.c
                  __pa_63   0x003264    program     static D:\git\testing79m\Microchip\TCPIP Stack\TCP.c
                  __pa_63   0x00a384    program     static D:\git\testing79m\App\WebUI\HTTPGetDevInfo.c
                  __pa_63   0x00d390    program     static D:\git\testing79m\App\WebUI\HTTPPrint.c
                  __pa_64   0x00327a    program     static D:\git\testing79m\Microchip\TCPIP Stack\TCP.c
                  __pa_64   0x00c562    program     static D:\git\testing79m\Microchip\TCPIP Stack\MPFS2.c
                  __pa_64   0x00b5a8    program     static D:\git\testing79m\SysLib\util.c
                  __pa_64   0x00d39a    program     static D:\git\testing79m\App\WebUI\HTTPPrint.c
                  __pa_64   0x0088be    program     static D:\git\testing79m\Microchip\TCPIP Stack\HTTP2.c
                  __pa_64   0x00a390    program     static D:\git\testing79m\App\WebUI\HTTPGetDevInfo.c
                  __pa_64   0x00620c    program     static D:\git\testing79m\Singcom\Drivers\lcd.c
                  __pa_65   0x0088ca    program     static D:\git\testing79m\Microchip\TCPIP Stack\HTTP2.c
                  __pa_65   0x00a3a0    program     static D:\git\testing79m\App\WebUI\HTTPGetDevInfo.c
                  __pa_65   0x00328e    program     static D:\git\testing79m\Microchip\TCPIP Stack\TCP.c
                  __pa_65   0x00d3a2    program     static D:\git\testing79m\App\WebUI\HTTPPrint.c
                  __pa_65   0x006216    program     static D:\git\testing79m\Singcom\Drivers\lcd.c
                  __pa_65   0x00c568    program     static D:\git\testing79m\Microchip\TCPIP Stack\MPFS2.c
                  __pa_65   0x00b5b4    program     static D:\git\testing79m\SysLib\util.c
                  __pa_66   0x0032a4    program     static D:\git\testing79m\Microchip\TCPIP Stack\TCP.c
                  __pa_66   0x00a3ae    program     static D:\git\testing79m\App\WebUI\HTTPGetDevInfo.c
                  __pa_66   0x00c582    program     static D:\git\testing79m\Microchip\TCPIP Stack\MPFS2.c
                  __pa_66   0x00621e    program     static D:\git\testing79m\Singcom\Drivers\lcd.c
                  __pa_66   0x00b5c2    program     static D:\git\testing79m\SysLib\util.c
                  __pa_66   0x0088d6    program     static D:\git\testing79m\Microchip\TCPIP Stack\HTTP2.c
                  __pa_66   0x00d3ae    program     static D:\git\testing79m\App\WebUI\HTTPPrint.c
                  __pa_67   0x0088e2    program     static D:\git\testing79m\Microchip\TCPIP Stack\HTTP2.c
                  __pa_67   0x0032c2    program     static D:\git\testing79m\Microchip\TCPIP Stack\TCP.c
                  __pa_67   0x00d3b8    program     static D:\git\testing79m\App\WebUI\HTTPPrint.c
                  __pa_67   0x006228    program     static D:\git\testing79m\Singcom\Drivers\lcd.c
                  __pa_67   0x00c590    program     static D:\git\testing79m\Microchip\TCPIP Stack\MPFS2.c
                  __pa_67   0x00a3bc    program     static D:\git\testing79m\App\WebUI\HTTPGetDevInfo.c
                  __pa_67   0x00b5cc    program     static D:\git\testing79m\SysLib\util.c
                  __pa_68   0x006238    program     static D:\git\testing79m\Singcom\Drivers\lcd.c
                  __pa_68   0x0032d8    program     static D:\git\testing79m\Microchip\TCPIP Stack\TCP.c
                  __pa_68   0x00a3ca    program     static D:\git\testing79m\App\WebUI\HTTPGetDevInfo.c
                  __pa_68   0x00b5d2    program     static D:\git\testing79m\SysLib\util.c
                  __pa_68   0x00c59a    program     static D:\git\testing79m\Microchip\TCPIP Stack\MPFS2.c
                  __pa_68   0x0088e8    program     static D:\git\testing79m\Microchip\TCPIP Stack\HTTP2.c
                  __pa_68   0x00d3c2    program     static D:\git\testing79m\App\WebUI\HTTPPrint.c
                  __pa_69   0x00b5dc    program     static D:\git\testing79m\SysLib\util.c
                  __pa_69   0x006240    program     static D:\git\testing79m\Singcom\Drivers\lcd.c
                  __pa_69   0x00a3d8    program     static D:\git\testing79m\App\WebUI\HTTPGetDevInfo.c
                  __pa_69   0x0088ee    program     static D:\git\testing79m\Microchip\TCPIP Stack\HTTP2.c
                  __pa_69   0x00d3cc    program     static D:\git\testing79m\App\WebUI\HTTPPrint.c
                  __pa_69   0x0032e6    program     static D:\git\testing79m\Microchip\TCPIP Stack\TCP.c
                   __pa_7   0x00e072    program     static D:\git\testing79m\Microchip\TCPIP Stack\Helpers.c
                   __pa_7   0x01241a    program     static D:\git\testing79m\Singcom\Devices\MainControl_c1.c
                   __pa_7   0x009f84    program     static D:\git\testing79m\App\WebUI\HTTPGetDevInfo.c
                   __pa_7   0x00b228    program     static D:\git\testing79m\SysLib\util.c
                   __pa_7   0x012b48    program     static D:\git\testing79m\Microchip\TCPIP Stack\IP.c
                   __pa_7   0x002e5a    program     static D:\git\testing79m\Microchip\TCPIP Stack\TCP.c
                   __pa_7   0x00c17e    program     static D:\git\testing79m\Microchip\TCPIP Stack\MPFS2.c
                   __pa_7   0x01046a    program     static D:\git\testing79m\Microchip\TCPIP Stack\ETH97J60.c
                   __pa_7   0x011c22    program     static D:\git\testing79m\Microchip\TCPIP Stack\ARP.c
                   __pa_7   0x01311e    program     static D:\git\testing79m\Singcom\Drivers\i2c_c1.c
                   __pa_7   0x012820    program     static D:\git\testing79m\Bootstrap\Initialization.c
                   __pa_7   0x012e60    program     static D:\git\testing79m\Microchip\TCPIP Stack\SPIEEPROM.c
                   __pa_7   0x013cce    program     static D:\git\testing79m\Drivers\External-Peripherals\devadc.c
                   __pa_7   0x0085c4    program     static D:\git\testing79m\Microchip\TCPIP Stack\HTTP2.c
                   __pa_7   0x00d0b0    program     static D:\git\testing79m\App\WebUI\HTTPPrint.c
                   __pa_7   0x00eba6    program     static C:\Program Files\mcc18\src\traditional\stdclib\vfprintf.c
                   __pa_7   0x005df4    program     static D:\git\testing79m\Singcom\Drivers\lcd.c
                   __pa_7   0x010bd2    program     static D:\git\testing79m\App\WebUI\HTTPApp.c
                  __pa_70   0x00d3e4    program     static D:\git\testing79m\App\WebUI\HTTPPrint.c
                  __pa_70   0x0088f8    program     static D:\git\testing79m\Microchip\TCPIP Stack\HTTP2.c
                  __pa_70   0x00b5e4    program     static D:\git\testing79m\SysLib\util.c
                  __pa_70   0x00a3e6    program     static D:\git\testing79m\App\WebUI\HTTPGetDevInfo.c
                  __pa_70   0x00624e    program     static D:\git\testing79m\Singcom\Drivers\lcd.c
                  __pa_70   0x0032f8    program     static D:\git\testing79m\Microchip\TCPIP Stack\TCP.c
                  __pa_71   0x00625c    program     static D:\git\testing79m\Singcom\Drivers\lcd.c
                  __pa_71   0x00a3ee    program     static D:\git\testing79m\App\WebUI\HTTPGetDevInfo.c
                  __pa_71   0x00d3fa    program     static D:\git\testing79m\App\WebUI\HTTPPrint.c
                  __pa_71   0x00b5ee    program     static D:\git\testing79m\SysLib\util.c
                  __pa_71   0x00330a    program     static D:\git\testing79m\Microchip\TCPIP Stack\TCP.c
                  __pa_71   0x008902    program     static D:\git\testing79m\Microchip\TCPIP Stack\HTTP2.c
                  __pa_72   0x00b5f8    program     static D:\git\testing79m\SysLib\util.c
                  __pa_72   0x00d400    program     static D:\git\testing79m\App\WebUI\HTTPPrint.c
                  __pa_72   0x00890e    program     static D:\git\testing79m\Microchip\TCPIP Stack\HTTP2.c
                  __pa_72   0x00a3fc    program     static D:\git\testing79m\App\WebUI\HTTPGetDevInfo.c
                  __pa_72   0x00331c    program     static D:\git\testing79m\Microchip\TCPIP Stack\TCP.c
                  __pa_72   0x00626a    program     static D:\git\testing79m\Singcom\Drivers\lcd.c
                  __pa_73   0x00a404    program     static D:\git\testing79m\App\WebUI\HTTPGetDevInfo.c
                  __pa_73   0x006278    program     static D:\git\testing79m\Singcom\Drivers\lcd.c
                  __pa_73   0x00b602    program     static D:\git\testing79m\SysLib\util.c
                  __pa_73   0x00332e    program     static D:\git\testing79m\Microchip\TCPIP Stack\TCP.c
                  __pa_73   0x00891e    program     static D:\git\testing79m\Microchip\TCPIP Stack\HTTP2.c
                  __pa_73   0x00d408    program     static D:\git\testing79m\App\WebUI\HTTPPrint.c
                  __pa_74   0x00d412    program     static D:\git\testing79m\App\WebUI\HTTPPrint.c
                  __pa_74   0x00b620    program     static D:\git\testing79m\SysLib\util.c
                  __pa_74   0x006286    program     static D:\git\testing79m\Singcom\Drivers\lcd.c
                  __pa_74   0x008928    program     static D:\git\testing79m\Microchip\TCPIP Stack\HTTP2.c
                  __pa_74   0x003338    program     static D:\git\testing79m\Microchip\TCPIP Stack\TCP.c
                  __pa_74   0x00a40c    program     static D:\git\testing79m\App\WebUI\HTTPGetDevInfo.c
                  __pa_75   0x00d41a    program     static D:\git\testing79m\App\WebUI\HTTPPrint.c
                  __pa_75   0x00a416    program     static D:\git\testing79m\App\WebUI\HTTPGetDevInfo.c
                  __pa_75   0x00334a    program     static D:\git\testing79m\Microchip\TCPIP Stack\TCP.c
                  __pa_75   0x006294    program     static D:\git\testing79m\Singcom\Drivers\lcd.c
                  __pa_75   0x008930    program     static D:\git\testing79m\Microchip\TCPIP Stack\HTTP2.c
                  __pa_75   0x00b63e    program     static D:\git\testing79m\SysLib\util.c
                  __pa_76   0x003354    program     static D:\git\testing79m\Microchip\TCPIP Stack\TCP.c
                  __pa_76   0x00b644    program     static D:\git\testing79m\SysLib\util.c
                  __pa_76   0x00d422    program     static D:\git\testing79m\App\WebUI\HTTPPrint.c
                  __pa_76   0x00a420    program     static D:\git\testing79m\App\WebUI\HTTPGetDevInfo.c
                  __pa_76   0x0062a2    program     static D:\git\testing79m\Singcom\Drivers\lcd.c
                  __pa_76   0x008938    program     static D:\git\testing79m\Microchip\TCPIP Stack\HTTP2.c
                  __pa_77   0x00a42a    program     static D:\git\testing79m\App\WebUI\HTTPGetDevInfo.c
                  __pa_77   0x0062b0    program     static D:\git\testing79m\Singcom\Drivers\lcd.c
                  __pa_77   0x003362    program     static D:\git\testing79m\Microchip\TCPIP Stack\TCP.c
                  __pa_77   0x00b656    program     static D:\git\testing79m\SysLib\util.c
                  __pa_77   0x008940    program     static D:\git\testing79m\Microchip\TCPIP Stack\HTTP2.c
                  __pa_77   0x00d434    program     static D:\git\testing79m\App\WebUI\HTTPPrint.c
                  __pa_78   0x00a434    program     static D:\git\testing79m\App\WebUI\HTTPGetDevInfo.c
                  __pa_78   0x0062be    program     static D:\git\testing79m\Singcom\Drivers\lcd.c
                  __pa_78   0x003370    program     static D:\git\testing79m\Microchip\TCPIP Stack\TCP.c
                  __pa_78   0x00894e    program     static D:\git\testing79m\Microchip\TCPIP Stack\HTTP2.c
                  __pa_78   0x00d446    program     static D:\git\testing79m\App\WebUI\HTTPPrint.c
                  __pa_78   0x00b668    program     static D:\git\testing79m\SysLib\util.c
                  __pa_79   0x00337e    program     static D:\git\testing79m\Microchip\TCPIP Stack\TCP.c
                  __pa_79   0x00b676    program     static D:\git\testing79m\SysLib\util.c
                  __pa_79   0x0062cc    program     static D:\git\testing79m\Singcom\Drivers\lcd.c
                  __pa_79   0x00895c    program     static D:\git\testing79m\Microchip\TCPIP Stack\HTTP2.c
                  __pa_79   0x00d450    program     static D:\git\testing79m\App\WebUI\HTTPPrint.c
                  __pa_79   0x00a43e    program     static D:\git\testing79m\App\WebUI\HTTPGetDevInfo.c
                   __pa_8   0x00e084    program     static D:\git\testing79m\Microchip\TCPIP Stack\Helpers.c
                   __pa_8   0x01282e    program     static D:\git\testing79m\Bootstrap\Initialization.c
                   __pa_8   0x012e70    program     static D:\git\testing79m\Microchip\TCPIP Stack\SPIEEPROM.c
                   __pa_8   0x009f8c    program     static D:\git\testing79m\App\WebUI\HTTPGetDevInfo.c
                   __pa_8   0x01312c    program     static D:\git\testing79m\Singcom\Drivers\i2c_c1.c
                   __pa_8   0x00b242    program     static D:\git\testing79m\SysLib\util.c
                   __pa_8   0x00ebb2    program     static C:\Program Files\mcc18\src\traditional\stdclib\vfprintf.c
                   __pa_8   0x013ce0    program     static D:\git\testing79m\Drivers\External-Peripherals\devadc.c
                   __pa_8   0x00d0bc    program     static D:\git\testing79m\App\WebUI\HTTPPrint.c
                   __pa_8   0x0085e0    program     static D:\git\testing79m\Microchip\TCPIP Stack\HTTP2.c
                   __pa_8   0x005e02    program     static D:\git\testing79m\Singcom\Drivers\lcd.c
                   __pa_8   0x012426    program     static D:\git\testing79m\Singcom\Devices\MainControl_c1.c
                   __pa_8   0x010bde    program     static D:\git\testing79m\App\WebUI\HTTPApp.c
                   __pa_8   0x011c30    program     static D:\git\testing79m\Microchip\TCPIP Stack\ARP.c
                   __pa_8   0x012b56    program     static D:\git\testing79m\Microchip\TCPIP Stack\IP.c
                   __pa_8   0x002e7c    program     static D:\git\testing79m\Microchip\TCPIP Stack\TCP.c
                   __pa_8   0x010474    program     static D:\git\testing79m\Microchip\TCPIP Stack\ETH97J60.c
                   __pa_8   0x00c186    program     static D:\git\testing79m\Microchip\TCPIP Stack\MPFS2.c
                  __pa_80   0x00338c    program     static D:\git\testing79m\Microchip\TCPIP Stack\TCP.c
                  __pa_80   0x0062da    program     static D:\git\testing79m\Singcom\Drivers\lcd.c
                  __pa_80   0x00d456    program     static D:\git\testing79m\App\WebUI\HTTPPrint.c
                  __pa_80   0x00b67c    program     static D:\git\testing79m\SysLib\util.c
                  __pa_80   0x00a47c    program     static D:\git\testing79m\App\WebUI\HTTPGetDevInfo.c
                  __pa_80   0x00896a    program     static D:\git\testing79m\Microchip\TCPIP Stack\HTTP2.c
                  __pa_81   0x00b682    program     static D:\git\testing79m\SysLib\util.c
                  __pa_81   0x00a4a0    program     static D:\git\testing79m\App\WebUI\HTTPGetDevInfo.c
                  __pa_81   0x008978    program     static D:\git\testing79m\Microchip\TCPIP Stack\HTTP2.c
                  __pa_81   0x0062e8    program     static D:\git\testing79m\Singcom\Drivers\lcd.c
                  __pa_81   0x00d464    program     static D:\git\testing79m\App\WebUI\HTTPPrint.c
                  __pa_81   0x003394    program     static D:\git\testing79m\Microchip\TCPIP Stack\TCP.c
                  __pa_82   0x008986    program     static D:\git\testing79m\Microchip\TCPIP Stack\HTTP2.c
                  __pa_82   0x0062f2    program     static D:\git\testing79m\Singcom\Drivers\lcd.c
                  __pa_82   0x00a4b0    program     static D:\git\testing79m\App\WebUI\HTTPGetDevInfo.c
                  __pa_82   0x00b688    program     static D:\git\testing79m\SysLib\util.c
                  __pa_82   0x0033a0    program     static D:\git\testing79m\Microchip\TCPIP Stack\TCP.c
                  __pa_82   0x00d470    program     static D:\git\testing79m\App\WebUI\HTTPPrint.c
                  __pa_83   0x008994    program     static D:\git\testing79m\Microchip\TCPIP Stack\HTTP2.c
                  __pa_83   0x0033aa    program     static D:\git\testing79m\Microchip\TCPIP Stack\TCP.c
                  __pa_83   0x00a4be    program     static D:\git\testing79m\App\WebUI\HTTPGetDevInfo.c
                  __pa_83   0x0062fc    program     static D:\git\testing79m\Singcom\Drivers\lcd.c
                  __pa_83   0x00d476    program     static D:\git\testing79m\App\WebUI\HTTPPrint.c
                  __pa_84   0x0033b4    program     static D:\git\testing79m\Microchip\TCPIP Stack\TCP.c
                  __pa_84   0x006302    program     static D:\git\testing79m\Singcom\Drivers\lcd.c
                  __pa_84   0x0089a2    program     static D:\git\testing79m\Microchip\TCPIP Stack\HTTP2.c
                  __pa_84   0x00a4c4    program     static D:\git\testing79m\App\WebUI\HTTPGetDevInfo.c
                  __pa_85   0x00630c    program     static D:\git\testing79m\Singcom\Drivers\lcd.c
                  __pa_85   0x0089b0    program     static D:\git\testing79m\Microchip\TCPIP Stack\HTTP2.c
                  __pa_85   0x0033be    program     static D:\git\testing79m\Microchip\TCPIP Stack\TCP.c
                  __pa_85   0x00a4cc    program     static D:\git\testing79m\App\WebUI\HTTPGetDevInfo.c
                  __pa_86   0x0089be    program     static D:\git\testing79m\Microchip\TCPIP Stack\HTTP2.c
                  __pa_86   0x006314    program     static D:\git\testing79m\Singcom\Drivers\lcd.c
                  __pa_86   0x0033c8    program     static D:\git\testing79m\Microchip\TCPIP Stack\TCP.c
                  __pa_86   0x00a4e0    program     static D:\git\testing79m\App\WebUI\HTTPGetDevInfo.c
                  __pa_87   0x00a4ea    program     static D:\git\testing79m\App\WebUI\HTTPGetDevInfo.c
                  __pa_87   0x0089c8    program     static D:\git\testing79m\Microchip\TCPIP Stack\HTTP2.c
                  __pa_87   0x00631c    program     static D:\git\testing79m\Singcom\Drivers\lcd.c
                  __pa_87   0x0033d8    program     static D:\git\testing79m\Microchip\TCPIP Stack\TCP.c
                  __pa_88   0x0089d2    program     static D:\git\testing79m\Microchip\TCPIP Stack\HTTP2.c
                  __pa_88   0x00632c    program     static D:\git\testing79m\Singcom\Drivers\lcd.c
                  __pa_88   0x00a4f8    program     static D:\git\testing79m\App\WebUI\HTTPGetDevInfo.c
                  __pa_88   0x0033e6    program     static D:\git\testing79m\Microchip\TCPIP Stack\TCP.c
                  __pa_89   0x0089da    program     static D:\git\testing79m\Microchip\TCPIP Stack\HTTP2.c
                  __pa_89   0x006332    program     static D:\git\testing79m\Singcom\Drivers\lcd.c
                  __pa_89   0x00a506    program     static D:\git\testing79m\App\WebUI\HTTPGetDevInfo.c
                  __pa_89   0x003400    program     static D:\git\testing79m\Microchip\TCPIP Stack\TCP.c
                   __pa_9   0x013136    program     static D:\git\testing79m\Singcom\Drivers\i2c_c1.c
                   __pa_9   0x012432    program     static D:\git\testing79m\Singcom\Devices\MainControl_c1.c
                   __pa_9   0x011c3e    program     static D:\git\testing79m\Microchip\TCPIP Stack\ARP.c
                   __pa_9   0x010482    program     static D:\git\testing79m\Microchip\TCPIP Stack\ETH97J60.c
                   __pa_9   0x002ea4    program     static D:\git\testing79m\Microchip\TCPIP Stack\TCP.c
                   __pa_9   0x012b64    program     static D:\git\testing79m\Microchip\TCPIP Stack\IP.c
                   __pa_9   0x00e08e    program     static D:\git\testing79m\Microchip\TCPIP Stack\Helpers.c
                   __pa_9   0x00ebd4    program     static C:\Program Files\mcc18\src\traditional\stdclib\vfprintf.c
                   __pa_9   0x00a00e    program     static D:\git\testing79m\App\WebUI\HTTPGetDevInfo.c
                   __pa_9   0x00b25c    program     static D:\git\testing79m\SysLib\util.c
                   __pa_9   0x010be6    program     static D:\git\testing79m\App\WebUI\HTTPApp.c
                   __pa_9   0x00d0c2    program     static D:\git\testing79m\App\WebUI\HTTPPrint.c
                   __pa_9   0x01283a    program     static D:\git\testing79m\Bootstrap\Initialization.c
                   __pa_9   0x00c18c    program     static D:\git\testing79m\Microchip\TCPIP Stack\MPFS2.c
                   __pa_9   0x005e0a    program     static D:\git\testing79m\Singcom\Drivers\lcd.c
                   __pa_9   0x0085ee    program     static D:\git\testing79m\Microchip\TCPIP Stack\HTTP2.c
                  __pa_90   0x0089f0    program     static D:\git\testing79m\Microchip\TCPIP Stack\HTTP2.c
                  __pa_90   0x003408    program     static D:\git\testing79m\Microchip\TCPIP Stack\TCP.c
                  __pa_90   0x006340    program     static D:\git\testing79m\Singcom\Drivers\lcd.c
                  __pa_90   0x00a510    program     static D:\git\testing79m\App\WebUI\HTTPGetDevInfo.c
                  __pa_91   0x00a51a    program     static D:\git\testing79m\App\WebUI\HTTPGetDevInfo.c
                  __pa_91   0x0089f6    program     static D:\git\testing79m\Microchip\TCPIP Stack\HTTP2.c
                  __pa_91   0x003412    program     static D:\git\testing79m\Microchip\TCPIP Stack\TCP.c
                  __pa_91   0x006350    program     static D:\git\testing79m\Singcom\Drivers\lcd.c
                  __pa_92   0x00341c    program     static D:\git\testing79m\Microchip\TCPIP Stack\TCP.c
                  __pa_92   0x006358    program     static D:\git\testing79m\Singcom\Drivers\lcd.c
                  __pa_92   0x00a52e    program     static D:\git\testing79m\App\WebUI\HTTPGetDevInfo.c
                  __pa_92   0x008a04    program     static D:\git\testing79m\Microchip\TCPIP Stack\HTTP2.c
                  __pa_93   0x00a540    program     static D:\git\testing79m\App\WebUI\HTTPGetDevInfo.c
                  __pa_93   0x008a0e    program     static D:\git\testing79m\Microchip\TCPIP Stack\HTTP2.c
                  __pa_93   0x003426    program     static D:\git\testing79m\Microchip\TCPIP Stack\TCP.c
                  __pa_93   0x006380    program     static D:\git\testing79m\Singcom\Drivers\lcd.c
                  __pa_94   0x008a18    program     static D:\git\testing79m\Microchip\TCPIP Stack\HTTP2.c
                  __pa_94   0x003430    program     static D:\git\testing79m\Microchip\TCPIP Stack\TCP.c
                  __pa_94   0x00638c    program     static D:\git\testing79m\Singcom\Drivers\lcd.c
                  __pa_94   0x00a552    program     static D:\git\testing79m\App\WebUI\HTTPGetDevInfo.c
                  __pa_95   0x00a55e    program     static D:\git\testing79m\App\WebUI\HTTPGetDevInfo.c
                  __pa_95   0x0063d6    program     static D:\git\testing79m\Singcom\Drivers\lcd.c
                  __pa_95   0x00343a    program     static D:\git\testing79m\Microchip\TCPIP Stack\TCP.c
                  __pa_95   0x008a22    program     static D:\git\testing79m\Microchip\TCPIP Stack\HTTP2.c
                  __pa_96   0x00a568    program     static D:\git\testing79m\App\WebUI\HTTPGetDevInfo.c
                  __pa_96   0x0063de    program     static D:\git\testing79m\Singcom\Drivers\lcd.c
                  __pa_96   0x003452    program     static D:\git\testing79m\Microchip\TCPIP Stack\TCP.c
                  __pa_96   0x008a30    program     static D:\git\testing79m\Microchip\TCPIP Stack\HTTP2.c
                  __pa_97   0x00a576    program     static D:\git\testing79m\App\WebUI\HTTPGetDevInfo.c
                  __pa_97   0x0063e6    program     static D:\git\testing79m\Singcom\Drivers\lcd.c
                  __pa_97   0x003460    program     static D:\git\testing79m\Microchip\TCPIP Stack\TCP.c
                  __pa_97   0x008a38    program     static D:\git\testing79m\Microchip\TCPIP Stack\HTTP2.c
                  __pa_98   0x003478    program     static D:\git\testing79m\Microchip\TCPIP Stack\TCP.c
                  __pa_98   0x008a42    program     static D:\git\testing79m\Microchip\TCPIP Stack\HTTP2.c
                  __pa_98   0x006402    program     static D:\git\testing79m\Singcom\Drivers\lcd.c
                  __pa_98   0x00a580    program     static D:\git\testing79m\App\WebUI\HTTPGetDevInfo.c
                  __pa_99   0x00a58a    program     static D:\git\testing79m\App\WebUI\HTTPGetDevInfo.c
                  __pa_99   0x006418    program     static D:\git\testing79m\Singcom\Drivers\lcd.c
                  __pa_99   0x003488    program     static D:\git\testing79m\Microchip\TCPIP Stack\TCP.c
                  __pa_99   0x008a58    program     static D:\git\testing79m\Microchip\TCPIP Stack\HTTP2.c
               __string_0   0x00f67f    program     static D:\git\testing79m\Singcom\Devices\UpConverter_c1.c
               __string_0   0x00f824    program     static D:\git\testing79m\App\WebUI\HTTPGetDevInfo.c
               __string_0   0x00f672    program     static D:\git\testing79m\Singcom\Devices\MainControl_c1.c
               __string_0   0x00f635    program     static D:\git\testing79m\App\WebUI\HTTPApp.c
               __string_0   0x00f5a2    program     static D:\git\testing79m\Microchip\TCPIP Stack\MPFS2.c
               __string_0   0x00f5a9    program     static D:\git\testing79m\SysLib\util.c
               __string_0   0x00f597    program     static D:\git\testing79m\Microchip\TCPIP Stack\HTTP2.c
               __string_0   0x00f90d    program     static D:\git\testing79m\App\WebUI\HTTPPrint.c
               __string_0   0x00ee24    program     static D:\git\testing79m\Bootstrap\Initialization.c
               __string_1   0x00f81d    program     static D:\git\testing79m\App\WebUI\HTTPGetDevInfo.c
               __string_1   0x00ee1a    program     static D:\git\testing79m\Bootstrap\Initialization.c
               __string_1   0x00f66b    program     static D:\git\testing79m\Singcom\Devices\MainControl_c1.c
               __string_1   0x00f58c    program     static D:\git\testing79m\Microchip\TCPIP Stack\HTTP2.c
               __string_1   0x00f676    program     static D:\git\testing79m\Singcom\Devices\UpConverter_c1.c
               __string_1   0x00f630    program     static D:\git\testing79m\App\WebUI\HTTPApp.c
               __string_1   0x00f904    program     static D:\git\testing79m\App\WebUI\HTTPPrint.c
              __string_10   0x00f56a    program     static D:\git\testing79m\Microchip\TCPIP Stack\HTTP2.c
              __string_10   0x00f7b1    program     static D:\git\testing79m\App\WebUI\HTTPGetDevInfo.c
              __string_10   0x00f8c6    program     static D:\git\testing79m\App\WebUI\HTTPPrint.c
              __string_10   0x00f5eb    program     static D:\git\testing79m\App\WebUI\HTTPApp.c
              __string_11   0x00f8bd    program     static D:\git\testing79m\App\WebUI\HTTPPrint.c
              __string_11   0x00f5e6    program     static D:\git\testing79m\App\WebUI\HTTPApp.c
              __string_11   0x00f7a7    program     static D:\git\testing79m\App\WebUI\HTTPGetDevInfo.c
              __string_11   0x00f566    program     static D:\git\testing79m\Microchip\TCPIP Stack\HTTP2.c
              __string_12   0x00f5e2    program     static D:\git\testing79m\App\WebUI\HTTPApp.c
              __string_12   0x00f79d    program     static D:\git\testing79m\App\WebUI\HTTPGetDevInfo.c
              __string_12   0x00f562    program     static D:\git\testing79m\Microchip\TCPIP Stack\HTTP2.c
              __string_12   0x00f8b4    program     static D:\git\testing79m\App\WebUI\HTTPPrint.c
              __string_13   0x00f5dd    program     static D:\git\testing79m\App\WebUI\HTTPApp.c
              __string_13   0x00f55e    program     static D:\git\testing79m\Microchip\TCPIP Stack\HTTP2.c
              __string_13   0x00f78f    program     static D:\git\testing79m\App\WebUI\HTTPGetDevInfo.c
              __string_13   0x00f8ab    program     static D:\git\testing79m\App\WebUI\HTTPPrint.c
              __string_14   0x00f781    program     static D:\git\testing79m\App\WebUI\HTTPGetDevInfo.c
              __string_14   0x00f8a8    program     static D:\git\testing79m\App\WebUI\HTTPPrint.c
              __string_14   0x00f5d8    program     static D:\git\testing79m\App\WebUI\HTTPApp.c
              __string_14   0x00f55a    program     static D:\git\testing79m\Microchip\TCPIP Stack\HTTP2.c
              __string_15   0x00f8a4    program     static D:\git\testing79m\App\WebUI\HTTPPrint.c
              __string_15   0x00f774    program     static D:\git\testing79m\App\WebUI\HTTPGetDevInfo.c
              __string_15   0x00f5c3    program     static D:\git\testing79m\App\WebUI\HTTPApp.c
              __string_15   0x00f556    program     static D:\git\testing79m\Microchip\TCPIP Stack\HTTP2.c
              __string_16   0x00f76a    program     static D:\git\testing79m\App\WebUI\HTTPGetDevInfo.c
              __string_16   0x00f5af    program     static D:\git\testing79m\App\WebUI\HTTPApp.c
              __string_16   0x00f54b    program     static D:\git\testing79m\Microchip\TCPIP Stack\HTTP2.c
              __string_16   0x00f89e    program     static D:\git\testing79m\App\WebUI\HTTPPrint.c
              __string_17   0x00f765    program     static D:\git\testing79m\App\WebUI\HTTPGetDevInfo.c
              __string_17   0x00f541    program     static D:\git\testing79m\Microchip\TCPIP Stack\HTTP2.c
              __string_17   0x00f88e    program     static D:\git\testing79m\App\WebUI\HTTPPrint.c
              __string_18   0x00f538    program     static D:\git\testing79m\Microchip\TCPIP Stack\HTTP2.c
              __string_18   0x00f871    program     static D:\git\testing79m\App\WebUI\HTTPPrint.c
              __string_18   0x00f761    program     static D:\git\testing79m\App\WebUI\HTTPGetDevInfo.c
              __string_19   0x00f85e    program     static D:\git\testing79m\App\WebUI\HTTPPrint.c
              __string_19   0x00f75d    program     static D:\git\testing79m\App\WebUI\HTTPGetDevInfo.c
              __string_19   0x00f52f    program     static D:\git\testing79m\Microchip\TCPIP Stack\HTTP2.c
               __string_2   0x00f62a    program     static D:\git\testing79m\App\WebUI\HTTPApp.c
               __string_2   0x00f819    program     static D:\git\testing79m\App\WebUI\HTTPGetDevInfo.c
               __string_2   0x00f666    program     static D:\git\testing79m\Singcom\Devices\MainControl_c1.c
               __string_2   0x00f8ff    program     static D:\git\testing79m\App\WebUI\HTTPPrint.c
               __string_2   0x00f587    program     static D:\git\testing79m\Microchip\TCPIP Stack\HTTP2.c
              __string_20   0x00f525    program     static D:\git\testing79m\Microchip\TCPIP Stack\HTTP2.c
              __string_20   0x00f84a    program     static D:\git\testing79m\App\WebUI\HTTPPrint.c
              __string_20   0x00f758    program     static D:\git\testing79m\App\WebUI\HTTPGetDevInfo.c
              __string_21   0x00f51b    program     static D:\git\testing79m\Microchip\TCPIP Stack\HTTP2.c
              __string_21   0x00f82c    program     static D:\git\testing79m\App\WebUI\HTTPPrint.c
              __string_21   0x00f752    program     static D:\git\testing79m\App\WebUI\HTTPGetDevInfo.c
              __string_22   0x00f827    program     static D:\git\testing79m\App\WebUI\HTTPPrint.c
              __string_22   0x00f749    program     static D:\git\testing79m\App\WebUI\HTTPGetDevInfo.c
              __string_22   0x00f510    program     static D:\git\testing79m\Microchip\TCPIP Stack\HTTP2.c
              __string_23   0x00f4fc    program     static D:\git\testing79m\Microchip\TCPIP Stack\HTTP2.c
              __string_23   0x00f740    program     static D:\git\testing79m\App\WebUI\HTTPGetDevInfo.c
              __string_24   0x00f4ef    program     static D:\git\testing79m\Microchip\TCPIP Stack\HTTP2.c
              __string_24   0x00f73a    program     static D:\git\testing79m\App\WebUI\HTTPGetDevInfo.c
              __string_25   0x00f4ee    program     static D:\git\testing79m\Microchip\TCPIP Stack\HTTP2.c
              __string_25   0x00f732    program     static D:\git\testing79m\App\WebUI\HTTPGetDevInfo.c
              __string_26   0x00f4c9    program     static D:\git\testing79m\Microchip\TCPIP Stack\HTTP2.c
              __string_26   0x00f72a    program     static D:\git\testing79m\App\WebUI\HTTPGetDevInfo.c
              __string_27   0x00f46b    program     static D:\git\testing79m\Microchip\TCPIP Stack\HTTP2.c
              __string_27   0x00f723    program     static D:\git\testing79m\App\WebUI\HTTPGetDevInfo.c
              __string_28   0x00f71c    program     static D:\git\testing79m\App\WebUI\HTTPGetDevInfo.c
              __string_28   0x00f3ea    program     static D:\git\testing79m\Microchip\TCPIP Stack\HTTP2.c
              __string_29   0x00f34c    program     static D:\git\testing79m\Microchip\TCPIP Stack\HTTP2.c
              __string_29   0x00f70f    program     static D:\git\testing79m\App\WebUI\HTTPGetDevInfo.c
               __string_3   0x00f65f    program     static D:\git\testing79m\Singcom\Devices\MainControl_c1.c
               __string_3   0x00f8f8    program     static D:\git\testing79m\App\WebUI\HTTPPrint.c
               __string_3   0x00f811    program     static D:\git\testing79m\App\WebUI\HTTPGetDevInfo.c
               __string_3   0x00f617    program     static D:\git\testing79m\App\WebUI\HTTPApp.c
              __string_30   0x00f2df    program     static D:\git\testing79m\Microchip\TCPIP Stack\HTTP2.c
              __string_30   0x00f702    program     static D:\git\testing79m\App\WebUI\HTTPGetDevInfo.c
              __string_31   0x00f6ef    program     static D:\git\testing79m\App\WebUI\HTTPGetDevInfo.c
              __string_31   0x00f9e9    program     static D:\git\testing79m\Singcom\Drivers\lcd.c
              __string_31   0x00f26f    program     static D:\git\testing79m\Microchip\TCPIP Stack\HTTP2.c
              __string_32   0x00f6db    program     static D:\git\testing79m\App\WebUI\HTTPGetDevInfo.c
              __string_32   0x00f209    program     static D:\git\testing79m\Microchip\TCPIP Stack\HTTP2.c
              __string_33   0x00f0e9    program     static D:\git\testing79m\Microchip\TCPIP Stack\HTTP2.c
              __string_33   0x00f6d7    program     static D:\git\testing79m\App\WebUI\HTTPGetDevInfo.c
              __string_34   0x00f03c    program     static D:\git\testing79m\Microchip\TCPIP Stack\HTTP2.c
              __string_34   0x00f6c7    program     static D:\git\testing79m\App\WebUI\HTTPGetDevInfo.c
              __string_35   0x00f6c2    program     static D:\git\testing79m\App\WebUI\HTTPGetDevInfo.c
              __string_35   0x00ef69    program     static D:\git\testing79m\Microchip\TCPIP Stack\HTTP2.c
              __string_36   0x00f6bd    program     static D:\git\testing79m\App\WebUI\HTTPGetDevInfo.c
              __string_36   0x00ef37    program     static D:\git\testing79m\Microchip\TCPIP Stack\HTTP2.c
              __string_37   0x00f6b7    program     static D:\git\testing79m\App\WebUI\HTTPGetDevInfo.c
              __string_37   0x00eee0    program     static D:\git\testing79m\Microchip\TCPIP Stack\HTTP2.c
              __string_38   0x00eed8    program     static D:\git\testing79m\Microchip\TCPIP Stack\HTTP2.c
              __string_38   0x00f6ad    program     static D:\git\testing79m\App\WebUI\HTTPGetDevInfo.c
              __string_39   0x00eec9    program     static D:\git\testing79m\Microchip\TCPIP Stack\HTTP2.c
              __string_39   0x00f6a3    program     static D:\git\testing79m\App\WebUI\HTTPGetDevInfo.c
               __string_4   0x00f80a    program     static D:\git\testing79m\App\WebUI\HTTPGetDevInfo.c
               __string_4   0x00f658    program     static D:\git\testing79m\Singcom\Devices\MainControl_c1.c
               __string_4   0x00f8f5    program     static D:\git\testing79m\App\WebUI\HTTPPrint.c
               __string_4   0x00f583    program     static D:\git\testing79m\Microchip\TCPIP Stack\HTTP2.c
               __string_4   0x00f607    program     static D:\git\testing79m\App\WebUI\HTTPApp.c
              __string_40   0x00eeb9    program     static D:\git\testing79m\Microchip\TCPIP Stack\HTTP2.c
              __string_40   0x00f696    program     static D:\git\testing79m\App\WebUI\HTTPGetDevInfo.c
              __string_41   0x00eeb5    program     static D:\git\testing79m\Microchip\TCPIP Stack\HTTP2.c
              __string_41   0x00f691    program     static D:\git\testing79m\App\WebUI\HTTPGetDevInfo.c
              __string_42   0x00f68c    program     static D:\git\testing79m\App\WebUI\HTTPGetDevInfo.c
              __string_42   0x00eeb0    program     static D:\git\testing79m\Microchip\TCPIP Stack\HTTP2.c
              __string_43   0x00eea5    program     static D:\git\testing79m\Microchip\TCPIP Stack\HTTP2.c
              __string_43   0x00f688    program     static D:\git\testing79m\App\WebUI\HTTPGetDevInfo.c
              __string_44   0x00ee9b    program     static D:\git\testing79m\Microchip\TCPIP Stack\HTTP2.c
              __string_45   0x00f9e5    program     static D:\git\testing79m\Singcom\Drivers\lcd.c
              __string_45   0x00ee88    program     static D:\git\testing79m\Microchip\TCPIP Stack\HTTP2.c
              __string_46   0x00f9e1    program     static D:\git\testing79m\Singcom\Drivers\lcd.c
              __string_46   0x00ee79    program     static D:\git\testing79m\Microchip\TCPIP Stack\HTTP2.c
              __string_47   0x00ee60    program     static D:\git\testing79m\Microchip\TCPIP Stack\HTTP2.c
              __string_47   0x00f9d8    program     static D:\git\testing79m\Singcom\Drivers\lcd.c
              __string_48   0x00f9c9    program     static D:\git\testing79m\Singcom\Drivers\lcd.c
              __string_48   0x00ee50    program     static D:\git\testing79m\Microchip\TCPIP Stack\HTTP2.c
              __string_49   0x00f9bd    program     static D:\git\testing79m\Singcom\Drivers\lcd.c
              __string_49   0x00ee47    program     static D:\git\testing79m\Microchip\TCPIP Stack\HTTP2.c
               __string_5   0x00f603    program     static D:\git\testing79m\App\WebUI\HTTPApp.c
               __string_5   0x00f57f    program     static D:\git\testing79m\Microchip\TCPIP Stack\HTTP2.c
               __string_5   0x00f7f9    program     static D:\git\testing79m\App\WebUI\HTTPGetDevInfo.c
               __string_5   0x00f8f1    program     static D:\git\testing79m\App\WebUI\HTTPPrint.c
               __string_5   0x00f64f    program     static D:\git\testing79m\Singcom\Devices\MainControl_c1.c
              __string_50   0x00f9af    program     static D:\git\testing79m\Singcom\Drivers\lcd.c
              __string_50   0x00ee3e    program     static D:\git\testing79m\Microchip\TCPIP Stack\HTTP2.c
              __string_51   0x00f9a5    program     static D:\git\testing79m\Singcom\Drivers\lcd.c
              __string_51   0x00ee3a    program     static D:\git\testing79m\Microchip\TCPIP Stack\HTTP2.c
              __string_52   0x00f99c    program     static D:\git\testing79m\Singcom\Drivers\lcd.c
              __string_52   0x00ee35    program     static D:\git\testing79m\Microchip\TCPIP Stack\HTTP2.c
              __string_53   0x00f997    program     static D:\git\testing79m\Singcom\Drivers\lcd.c
              __string_53   0x00ee2a    program     static D:\git\testing79m\Microchip\TCPIP Stack\HTTP2.c
              __string_54   0x00f993    program     static D:\git\testing79m\Singcom\Drivers\lcd.c
              __string_55   0x00f990    program     static D:\git\testing79m\Singcom\Drivers\lcd.c
              __string_56   0x00f967    program     static D:\git\testing79m\Singcom\Drivers\lcd.c
              __string_57   0x00f93e    program     static D:\git\testing79m\Singcom\Drivers\lcd.c
              __string_58   0x00f915    program     static D:\git\testing79m\Singcom\Drivers\lcd.c
               __string_6   0x00f8e8    program     static D:\git\testing79m\App\WebUI\HTTPPrint.c
               __string_6   0x00f7e8    program     static D:\git\testing79m\App\WebUI\HTTPGetDevInfo.c
               __string_6   0x00f646    program     static D:\git\testing79m\Singcom\Devices\MainControl_c1.c
               __string_6   0x00f57a    program     static D:\git\testing79m\Microchip\TCPIP Stack\HTTP2.c
               __string_6   0x00f5fa    program     static D:\git\testing79m\App\WebUI\HTTPApp.c
               __string_7   0x00f642    program     static D:\git\testing79m\Singcom\Devices\MainControl_c1.c
               __string_7   0x00f7d8    program     static D:\git\testing79m\App\WebUI\HTTPGetDevInfo.c
               __string_7   0x00f5f7    program     static D:\git\testing79m\App\WebUI\HTTPApp.c
               __string_7   0x00f576    program     static D:\git\testing79m\Microchip\TCPIP Stack\HTTP2.c
               __string_7   0x00f8df    program     static D:\git\testing79m\App\WebUI\HTTPPrint.c
               __string_8   0x00f63d    program     static D:\git\testing79m\Singcom\Devices\MainControl_c1.c
               __string_8   0x00f7c8    program     static D:\git\testing79m\App\WebUI\HTTPGetDevInfo.c
               __string_8   0x00f5f4    program     static D:\git\testing79m\App\WebUI\HTTPApp.c
               __string_8   0x00f572    program     static D:\git\testing79m\Microchip\TCPIP Stack\HTTP2.c
               __string_8   0x00f8d8    program     static D:\git\testing79m\App\WebUI\HTTPPrint.c
               __string_9   0x00f7bb    program     static D:\git\testing79m\App\WebUI\HTTPGetDevInfo.c
               __string_9   0x00f56e    program     static D:\git\testing79m\Microchip\TCPIP Stack\HTTP2.c
               __string_9   0x00f8d0    program     static D:\git\testing79m\App\WebUI\HTTPPrint.c
               __string_9   0x00f5f0    program     static D:\git\testing79m\App\WebUI\HTTPApp.c
               __tmplbl_0   0x00d580    program     static                          
              __tmplbl_10   0x00fd08    program     static                          
             __tmplbl_100   0x002da4    program     static                          
             __tmplbl_101   0x002da4    program     static                          
             __tmplbl_102   0x002da4    program     static                          
             __tmplbl_103   0x002da4    program     static                          
             __tmplbl_104   0x002da4    program     static                          
             __tmplbl_106   0x002da4    program     static                          
             __tmplbl_108   0x002da4    program     static                          
             __tmplbl_109   0x009f78    program     static                          
             __tmplbl_109   0x002da4    program     static                          
              __tmplbl_11   0x00fd06    program     static                          
             __tmplbl_110   0x009f78    program     static                          
             __tmplbl_110   0x002da4    program     static                          
             __tmplbl_111   0x002da4    program     static                          
             __tmplbl_111   0x009f78    program     static                          
             __tmplbl_112   0x009f78    program     static                          
             __tmplbl_113   0x009f78    program     static                          
             __tmplbl_114   0x009f78    program     static                          
             __tmplbl_114   0x002da4    program     static                          
             __tmplbl_115   0x009f78    program     static                          
             __tmplbl_116   0x009f78    program     static                          
             __tmplbl_117   0x009f78    program     static                          
             __tmplbl_117   0x002da4    program     static                          
             __tmplbl_118   0x002da4    program     static                          
             __tmplbl_118   0x009f78    program     static                          
             __tmplbl_119   0x009f78    program     static                          
              __tmplbl_12   0x00fde2    program     static                          
             __tmplbl_120   0x00a4c4    program     static                          
             __tmplbl_121   0x00a4c4    program     static                          
             __tmplbl_122   0x00a4c4    program     static                          
             __tmplbl_123   0x00a4c4    program     static                          
             __tmplbl_124   0x00a4c4    program     static                          
             __tmplbl_125   0x00a4c4    program     static                          
             __tmplbl_126   0x00a4c4    program     static                          
             __tmplbl_127   0x00a4c4    program     static                          
             __tmplbl_128   0x00a4c4    program     static                          
             __tmplbl_129   0x00a4c4    program     static                          
              __tmplbl_13   0x00fdd4    program     static                          
             __tmplbl_130   0x002da4    program     static                          
             __tmplbl_131   0x002da4    program     static                          
             __tmplbl_133   0x0050a2    program     static                          
             __tmplbl_134   0x005588    program     static                          
             __tmplbl_135   0x005580    program     static                          
             __tmplbl_136   0x0055e8    program     static                          
             __tmplbl_137   0x0055e0    program     static                          
             __tmplbl_138   0x0056be    program     static                          
             __tmplbl_139   0x0056b6    program     static                          
              __tmplbl_14   0x00fdda    program     static                          
             __tmplbl_140   0x00570c    program     static                          
             __tmplbl_141   0x005704    program     static                          
             __tmplbl_148   0x002da4    program     static                          
             __tmplbl_150   0x005f34    program     static                          
             __tmplbl_151   0x005f34    program     static                          
             __tmplbl_151   0x002da4    program     static                          
             __tmplbl_152   0x005f34    program     static                          
             __tmplbl_152   0x002da4    program     static                          
             __tmplbl_154   0x005f34    program     static                          
             __tmplbl_155   0x002a1c    program     static                          
             __tmplbl_157   0x002a1c    program     static                          
             __tmplbl_158   0x002a2a    program     static                          
             __tmplbl_164   0x002a2a    program     static                          
             __tmplbl_166   0x002a2a    program     static                          
             __tmplbl_167   0x002a2a    program     static                          
             __tmplbl_168   0x008588    program     static                          
             __tmplbl_169   0x008588    program     static                          
             __tmplbl_170   0x008588    program     static                          
             __tmplbl_171   0x008588    program     static                          
             __tmplbl_172   0x007a36    program     static                          
             __tmplbl_173   0x0079f0    program     static                          
             __tmplbl_174   0x002a22    program     static                          
             __tmplbl_174   0x0079c4    program     static                          
             __tmplbl_175   0x0079be    program     static                          
             __tmplbl_179   0x005f34    program     static                          
             __tmplbl_180   0x005f34    program     static                          
             __tmplbl_181   0x005f34    program     static                          
             __tmplbl_182   0x007a52    program     static                          
             __tmplbl_183   0x007a52    program     static                          
             __tmplbl_184   0x007a52    program     static                          
             __tmplbl_186   0x0066b6    program     static                          
             __tmplbl_187   0x0066b6    program     static                          
             __tmplbl_188   0x0067b2    program     static                          
             __tmplbl_198   0x00710a    program     static                          
             __tmplbl_199   0x008588    program     static                          
             __tmplbl_200   0x008588    program     static                          
             __tmplbl_201   0x008588    program     static                          
             __tmplbl_203   0x008588    program     static                          
             __tmplbl_213   0x003db6    program     static                          
             __tmplbl_214   0x003b3a    program     static                          
             __tmplbl_215   0x003bae    program     static                          
             __tmplbl_216   0x003df4    program     static                          
              __tmplbl_25   0x010414    program     static                          
              __tmplbl_39   0x00d4f8    program     static                          
              __tmplbl_40   0x00d59c    program     static                          
              __tmplbl_41   0x00d5dc    program     static                          
              __tmplbl_41   0x00b1bc    program     static                          
              __tmplbl_42   0x00ecce    program     static                          
              __tmplbl_42   0x00b1bc    program     static                          
              __tmplbl_42   0x00d640    program     static                          
              __tmplbl_43   0x00eb16    program     static                          
              __tmplbl_44   0x00eafc    program     static                          
               __tmplbl_5   0x00fd72    program     static                          
              __tmplbl_55   0x00d3fa    program     static                          
              __tmplbl_56   0x00d3fa    program     static                          
              __tmplbl_58   0x00d2d2    program     static                          
               __tmplbl_6   0x00fd5c    program     static                          
              __tmplbl_60   0x00c0fa    program     static                          
              __tmplbl_60   0x00d0b0    program     static                          
              __tmplbl_61   0x00c0fa    program     static                          
              __tmplbl_61   0x00d15e    program     static                          
              __tmplbl_63   0x00d15e    program     static                          
              __tmplbl_64   0x00d15e    program     static                          
              __tmplbl_65   0x00d15e    program     static                          
              __tmplbl_66   0x00d15e    program     static                          
              __tmplbl_67   0x00d0b0    program     static                          
              __tmplbl_68   0x00d0b0    program     static                          
              __tmplbl_69   0x00d2d2    program     static                          
               __tmplbl_7   0x00fd44    program     static                          
              __tmplbl_79   0x002da4    program     static                          
               __tmplbl_8   0x00fd2e    program     static                          
              __tmplbl_81   0x002da4    program     static                          
              __tmplbl_85   0x00e24e    program     static                          
              __tmplbl_85   0x002da4    program     static                          
              __tmplbl_87   0x002da4    program     static                          
              __tmplbl_88   0x002da4    program     static                          
              __tmplbl_89   0x002da4    program     static                          
               __tmplbl_9   0x00fd16    program     static                          
              __tmplbl_90   0x002da4    program     static                          
              __tmplbl_91   0x002da4    program     static                          
              __tmplbl_92   0x002da4    program     static                          
              __tmplbl_93   0x002da4    program     static                          
              __tmplbl_95   0x002da4    program     static                          
              __tmplbl_97   0x002da4    program     static                          
              __tmplbl_99   0x002da4    program     static                          
            __zero_memory   0x014a26    program     extern C:\MCC18\src\traditional\proc\p18F97J60.asm
                _do_cinit   0x014584    program     extern C:\Program Files\mcc18\src\traditional\startup\c018iz.c
                   _entry   0x000000    program     extern C:\Program Files\mcc18\src\traditional\startup\c018iz.c
                   _false   0x0148ca    program     static                          
                 _startup   0x014944    program     extern C:\Program Files\mcc18\src\traditional\startup\c018iz.c
              _usart_putc   0x0149a2    program     extern C:\MCC18\src\pmc_common\USART\_usartpc.asm
               _user_putc   0x014a40    program     extern C:\Program Files\mcc18\src\traditional\stdclib\_user_putc.c
                    atof1   0x00afe2    program     extern D:\git\testing79m\SysLib\util.c
                    atof5   0x00af5c    program     extern D:\git\testing79m\SysLib\util.c
                     atol   0x013ea6    program     extern C:\Program Files\mcc18\src\traditional\stdclib\atol.asm
             btohexa_high   0x00dc04    program     extern D:\git\testing79m\Microchip\TCPIP Stack\Helpers.c
              btohexa_low   0x00dc2c    program     extern D:\git\testing79m\Microchip\TCPIP Stack\Helpers.c
               clear_loop   0x014a2c    program     static C:\MCC18\src\traditional\proc\p18F97J60.asm
                copy_loop   0x0145f6    program     static                          
            copy_one_byte   0x0145fc    program     static                          
                     done   0x014620    program     static                          
             done_copying   0x01460a    program     static                          
                  endloop   0x0148f6    program     static                          
                  endloop   0x0149d4    program     static                          
                  hexatob   0x00dbba    program     extern D:\git\testing79m\Microchip\TCPIP Stack\Helpers.c
         httpContentTypes   0x014753    program     static D:\git\testing79m\Microchip\TCPIP Stack\HTTP2.c
       httpFileExtensions   0x01472f    program     static D:\git\testing79m\Microchip\TCPIP Stack\HTTP2.c
                 i2cclock   0x012f70    program     extern D:\git\testing79m\Singcom\Drivers\i2c_c1.c
                 i2cdelay   0x012fbe    program     extern D:\git\testing79m\Singcom\Drivers\i2c_c1.c
                i2cgetack   0x012f9c    program     extern D:\git\testing79m\Singcom\Drivers\i2c_c1.c
               i2cgetbyte   0x012f12    program     extern D:\git\testing79m\Singcom\Drivers\i2c_c1.c
               i2creadbit   0x012f7c    program     extern D:\git\testing79m\Singcom\Drivers\i2c_c1.c
               i2csendack   0x012fb6    program     extern D:\git\testing79m\Singcom\Drivers\i2c_c1.c
              i2csendbyte   0x012ee0    program     extern D:\git\testing79m\Singcom\Drivers\i2c_c1.c
              i2csendnack   0x012fba    program     extern D:\git\testing79m\Singcom\Drivers\i2c_c1.c
                 i2cstart   0x012f4a    program     extern D:\git\testing79m\Singcom\Drivers\i2c_c1.c
                  i2cstop   0x012f5e    program     extern D:\git\testing79m\Singcom\Drivers\i2c_c1.c
                  isdigit   0x0148fc    program     extern C:\Program Files\mcc18\src\traditional\stdclib\isdigit.asm
                 jANotInf   0x010e20    program     static C:\Program Files\mcc18\src\traditional\math\divFP.asm
                 jANotInf   0x010ec6    program     static C:\Program Files\mcc18\src\traditional\math\mulFP.asm
                 jANotInf   0x010cfe    program     static C:\Program Files\mcc18\src\traditional\math\addFP.asm
                 jANotNeg   0x010d92    program     static C:\Program Files\mcc18\src\traditional\math\addFP.asm
                jANotZero   0x010e34    program     static C:\Program Files\mcc18\src\traditional\math\divFP.asm
              jAandWsetup   0x010d62    program     static C:\Program Files\mcc18\src\traditional\math\addFP.asm
                 jAltBexp   0x010d50    program     static C:\Program Files\mcc18\src\traditional\math\addFP.asm
                jBANotInf   0x010cf4    program     static C:\Program Files\mcc18\src\traditional\math\addFP.asm
                 jBNotInf   0x010d0c    program     static C:\Program Files\mcc18\src\traditional\math\addFP.asm
              jBothFinite   0x010ed4    program     static C:\Program Files\mcc18\src\traditional\math\mulFP.asm
             jBothNotZero   0x010ee0    program     static C:\Program Files\mcc18\src\traditional\math\mulFP.asm
            jDifOrPosSign   0x010d20    program     static C:\Program Files\mcc18\src\traditional\math\addFP.asm
                     jEnd   0x011e34    program     static C:\Program Files\mcc18\src\traditional\stdclib\scatp2r.asm
                     jEnd   0x011f90    program     static C:\Program Files\mcc18\src\traditional\stdclib\slenpgm.asm
                     jEnd   0x011f58    program     static C:\Program Files\mcc18\src\traditional\stdclib\strlen.asm
                     jEnd   0x011e5c    program     static C:\Program Files\mcc18\src\traditional\stdclib\strchr.asm
                     jEnd   0x011f3c    program     static C:\Program Files\mcc18\src\traditional\stdclib\scpyp2r.asm
                     jEnd   0x011ff4    program     static C:\Program Files\mcc18\src\traditional\stdclib\strncat.asm
                     jEnd   0x012050    program     static C:\Program Files\mcc18\src\traditional\stdclib\strncpy.asm
                     jEnd   0x011e88    program     static C:\Program Files\mcc18\src\traditional\stdclib\strcmp.asm
                     jEnd   0x011db4    program     static C:\Program Files\mcc18\src\traditional\stdclib\memset.asm
                     jEnd   0x011ec8    program     static C:\Program Files\mcc18\src\traditional\stdclib\scmpp2r.asm
                     jEnd   0x0120ac    program     static C:\Program Files\mcc18\src\traditional\stdclib\sncpyp2r.asm
                     jEnd   0x013fc4    program     static C:\Program Files\mcc18\src\traditional\stdclib\atol.asm
                     jEnd   0x011d80    program     static C:\Program Files\mcc18\src\traditional\stdclib\mcpyp2r.asm
                     jEnd   0x011ca6    program     static C:\Program Files\mcc18\src\traditional\stdclib\memchr.asm
                     jEnd   0x011ce4    program     static C:\Program Files\mcc18\src\traditional\stdclib\mcmpp2r.asm
                     jEnd   0x0120d6    program     static C:\Program Files\mcc18\src\traditional\stdclib\strupr.asm
                     jEnd   0x011d2a    program     static C:\Program Files\mcc18\src\traditional\stdclib\memcpy.asm
                 jEndLoop   0x013f94    program     static C:\Program Files\mcc18\src\traditional\stdclib\atol.asm
                    jExit   0x011152    program     static C:\Program Files\mcc18\src\traditional\math\castFP16.asm
               jFinalSign   0x010dfa    program     static C:\Program Files\mcc18\src\traditional\math\addFP.asm
                jHaveZero   0x010edc    program     static C:\Program Files\mcc18\src\traditional\math\mulFP.asm
                jI2F08Beg   0x010c96    program     static C:\Program Files\mcc18\src\traditional\math\cast08FP.asm
                jI2F16Beg   0x010cbe    program     static C:\Program Files\mcc18\src\traditional\math\cast16FP.asm
                    jLoop   0x011fd2    program     static C:\Program Files\mcc18\src\traditional\stdclib\strncat.asm
                    jLoop   0x01202e    program     static C:\Program Files\mcc18\src\traditional\stdclib\strncpy.asm
                    jLoop   0x010e5c    program     static C:\Program Files\mcc18\src\traditional\math\divFP.asm
                    jLoop   0x011f78    program     static C:\Program Files\mcc18\src\traditional\stdclib\slenpgm.asm
                    jLoop   0x011f4e    program     static C:\Program Files\mcc18\src\traditional\stdclib\strlen.asm
                    jLoop   0x012088    program     static C:\Program Files\mcc18\src\traditional\stdclib\sncpyp2r.asm
                    jLoop   0x0120c2    program     static C:\Program Files\mcc18\src\traditional\stdclib\strupr.asm
                    jLoop   0x011f32    program     static C:\Program Files\mcc18\src\traditional\stdclib\scpyp2r.asm
                    jLoop   0x011ef2    program     static C:\Program Files\mcc18\src\traditional\stdclib\strcpy.asm
                    jLoop   0x011d62    program     static C:\Program Files\mcc18\src\traditional\stdclib\mcpyp2r.asm
                    jLoop   0x011d0e    program     static C:\Program Files\mcc18\src\traditional\stdclib\memcpy.asm
                    jLoop   0x011d96    program     static C:\Program Files\mcc18\src\traditional\stdclib\memset.asm
                    jLoop   0x011cc6    program     static C:\Program Files\mcc18\src\traditional\stdclib\mcmpp2r.asm
                    jLoop   0x013f06    program     static C:\Program Files\mcc18\src\traditional\stdclib\atol.asm
                    jLoop   0x011132    program     static C:\Program Files\mcc18\src\traditional\math\castFP16.asm
                    jLoop   0x011de4    program     static C:\Program Files\mcc18\src\traditional\stdclib\strcat.asm
                    jLoop   0x011c78    program     static C:\Program Files\mcc18\src\traditional\stdclib\memchr.asm
                    jLoop   0x011e2a    program     static C:\Program Files\mcc18\src\traditional\stdclib\scatp2r.asm
                    jLoop   0x011e42    program     static C:\Program Files\mcc18\src\traditional\stdclib\strchr.asm
                    jLoop   0x011ebc    program     static C:\Program Files\mcc18\src\traditional\stdclib\scmpp2r.asm
                    jLoop   0x011e7e    program     static C:\Program Files\mcc18\src\traditional\stdclib\strcmp.asm
                jLoopExit   0x011142    program     static C:\Program Files\mcc18\src\traditional\math\castFP16.asm
                   jMatch   0x01491c    program     static C:\Program Files\mcc18\src\traditional\stdclib\isdigit.asm
                   jMatch   0x011e54    program     static C:\Program Files\mcc18\src\traditional\stdclib\strchr.asm
                     jMax   0x011106    program     static C:\Program Files\mcc18\src\traditional\math\castFP16.asm
                  jMaxNeg   0x011114    program     static C:\Program Files\mcc18\src\traditional\math\castFP16.asm
                  jMaxPos   0x01110a    program     static C:\Program Files\mcc18\src\traditional\math\castFP16.asm
                    jNext   0x010e82    program     static C:\Program Files\mcc18\src\traditional\math\divFP.asm
                jNoAdjust   0x010e80    program     static C:\Program Files\mcc18\src\traditional\math\divFP.asm
                 jNoMatch   0x01491e    program     static C:\Program Files\mcc18\src\traditional\stdclib\isdigit.asm
                 jNoMatch   0x011ca2    program     static C:\Program Files\mcc18\src\traditional\stdclib\memchr.asm
             jNotBothZero   0x010d24    program     static C:\Program Files\mcc18\src\traditional\math\addFP.asm
                  jNotInf   0x011122    program     static C:\Program Files\mcc18\src\traditional\math\castFP16.asm
                jNullLoop   0x011fcc    program     static C:\Program Files\mcc18\src\traditional\stdclib\strncat.asm
                jNullLoop   0x011dde    program     static C:\Program Files\mcc18\src\traditional\stdclib\strcat.asm
                jNullLoop   0x011e24    program     static C:\Program Files\mcc18\src\traditional\stdclib\scatp2r.asm
                  jPkLoop   0x01119a    program     static C:\Program Files\mcc18\src\traditional\math\packFP.asm
             jPkRoundDone   0x0111e4    program     static C:\Program Files\mcc18\src\traditional\math\packFP.asm
               jPkRoundIt   0x0111cc    program     static C:\Program Files\mcc18\src\traditional\math\packFP.asm
             jPkShiftDone   0x0111b6    program     static C:\Program Files\mcc18\src\traditional\math\packFP.asm
           jReturnPosInf0   0x011170    program     static C:\Program Files\mcc18\src\traditional\math\packFP.asm
               jShiftDone   0x010dba    program     static C:\Program Files\mcc18\src\traditional\math\addFP.asm
               jShiftLoop   0x010dac    program     static C:\Program Files\mcc18\src\traditional\math\addFP.asm
                jSignDone   0x010dea    program     static C:\Program Files\mcc18\src\traditional\math\addFP.asm
              jSignedZero   0x010e2a    program     static C:\Program Files\mcc18\src\traditional\math\divFP.asm
                    jSkip   0x0120d2    program     static C:\Program Files\mcc18\src\traditional\stdclib\strupr.asm
                  jSkipWS   0x013edc    program     static C:\Program Files\mcc18\src\traditional\stdclib\atol.asm
                 jSkipWS1   0x013eee    program     static C:\Program Files\mcc18\src\traditional\stdclib\atol.asm
                    jTerm   0x011ff2    program     static C:\Program Files\mcc18\src\traditional\stdclib\strncat.asm
                 jTstSign   0x013ef2    program     static C:\Program Files\mcc18\src\traditional\stdclib\atol.asm
                jTstSign1   0x013efe    program     static C:\Program Files\mcc18\src\traditional\stdclib\atol.asm
                jTstSign2   0x013f04    program     static C:\Program Files\mcc18\src\traditional\stdclib\atol.asm
                jTstSign3   0x013f06    program     static C:\Program Files\mcc18\src\traditional\stdclib\atol.asm
                  jUnpkA1   0x01120e    program     static C:\Program Files\mcc18\src\traditional\math\UnpackFP.asm
                  jUnpkA2   0x011226    program     static C:\Program Files\mcc18\src\traditional\math\UnpackFP.asm
                 jUnpkANZ   0x01121c    program     static C:\Program Files\mcc18\src\traditional\math\UnpackFP.asm
                  jUnpkB1   0x01123e    program     static C:\Program Files\mcc18\src\traditional\math\UnpackFP.asm
                  jUnpkB2   0x011256    program     static C:\Program Files\mcc18\src\traditional\math\UnpackFP.asm
                 jUnpkBNZ   0x01124c    program     static C:\Program Files\mcc18\src\traditional\math\UnpackFP.asm
                 jUnpkNaN   0x011230    program     static C:\Program Files\mcc18\src\traditional\math\UnpackFP.asm
                 jWNotNeg   0x010da6    program     static C:\Program Files\mcc18\src\traditional\math\addFP.asm
                    jZero   0x01111c    program     static C:\Program Files\mcc18\src\traditional\math\castFP16.asm
               jZero1and2   0x011174    program     static C:\Program Files\mcc18\src\traditional\math\packFP.asm
          leftRotateDWORD   0x00dea8    program     extern D:\git\testing79m\Microchip\TCPIP Stack\Helpers.c
                     loop   0x014958    program     static                          
                     loop   0x014896    program     static                          
                     loop   0x0149b2    program     static C:\MCC18\src\pmc_common\USART\_usartpc.asm
                     loop   0x0148da    program     static                          
                     loop   0x0149c6    program     static                          
                     main   0x0135f4    program     extern D:\git\testing79m\Main\Main.c
                   memchr   0x011c6c    program     extern C:\Program Files\mcc18\src\traditional\stdclib\memchr.asm
            memcmppgm2ram   0x011ca8    program     extern C:\Program Files\mcc18\src\traditional\stdclib\mcmpp2r.asm
                   memcpy   0x011ce6    program     extern C:\Program Files\mcc18\src\traditional\stdclib\memcpy.asm
            memcpypgm2ram   0x011d3c    program     extern C:\Program Files\mcc18\src\traditional\stdclib\mcpyp2r.asm
                   memset   0x011d82    program     extern C:\Program Files\mcc18\src\traditional\stdclib\memset.asm
                     putc   0x0146a8    program     extern C:\Program Files\mcc18\src\traditional\stdclib\putc.c
                putsUSART   0x01442a    program     extern D:\git\testing79m\Microchip\TCPIP Stack\UART.c
               putsUSART2   0x01447e    program     extern D:\git\testing79m\Microchip\TCPIP Stack\UART.c
                     rand   0x01400a    program     extern C:\Program Files\mcc18\src\traditional\stdclib\rand.asm
                 s_digits   0x014a04    program     static C:\Program Files\mcc18\src\traditional\stdclib\vfprintf.c
            s_put_n_chars   0x00e1f8    program     static C:\Program Files\mcc18\src\traditional\stdclib\vfprintf.c
                  sprintf   0x0144d8    program     extern C:\Program Files\mcc18\src\traditional\stdclib\sprintf.c
                    srand   0x013ffc    program     extern C:\Program Files\mcc18\src\traditional\stdclib\rand.asm
                   strcat   0x011db6    program     extern C:\Program Files\mcc18\src\traditional\stdclib\strcat.asm
            strcatpgm2ram   0x011dfe    program     extern C:\Program Files\mcc18\src\traditional\stdclib\scatp2r.asm
                   strchr   0x011e36    program     extern C:\Program Files\mcc18\src\traditional\stdclib\strchr.asm
                   strcmp   0x011e5e    program     extern C:\Program Files\mcc18\src\traditional\stdclib\strcmp.asm
            strcmppgm2ram   0x011e9e    program     extern C:\Program Files\mcc18\src\traditional\stdclib\scmpp2r.asm
                   strcpy   0x011eca    program     extern C:\Program Files\mcc18\src\traditional\stdclib\strcpy.asm
            strcpypgm2ram   0x011f0c    program     extern C:\Program Files\mcc18\src\traditional\stdclib\scpyp2r.asm
           stricmppgm2ram   0x00dc50    program     extern D:\git\testing79m\Microchip\TCPIP Stack\Helpers.c
                   strlen   0x011f3e    program     extern C:\Program Files\mcc18\src\traditional\stdclib\strlen.asm
                strlenpgm   0x011f5a    program     extern C:\Program Files\mcc18\src\traditional\stdclib\slenpgm.asm
                  strncat   0x011fa4    program     extern C:\Program Files\mcc18\src\traditional\stdclib\strncat.asm
                  strnchr   0x00df80    program     extern D:\git\testing79m\Microchip\TCPIP Stack\Helpers.c
                  strncpy   0x012006    program     extern C:\Program Files\mcc18\src\traditional\stdclib\strncpy.asm
           strncpypgm2ram   0x012062    program     extern C:\Program Files\mcc18\src\traditional\stdclib\sncpyp2r.asm
                   strupr   0x0120ae    program     extern C:\Program Files\mcc18\src\traditional\stdclib\strupr.asm
                    swapl   0x00dd3e    program     extern D:\git\testing79m\Microchip\TCPIP Stack\Helpers.c
                    swaps   0x00dd00    program     extern D:\git\testing79m\Microchip\TCPIP Stack\Helpers.c
                     test   0x01459e    program     static                          
                    uitoa   0x00dac4    program     extern D:\git\testing79m\Microchip\TCPIP Stack\Helpers.c
                 vfprintf   0x00e224    program     extern C:\Program Files\mcc18\src\traditional\stdclib\vfprintf.c
                 ADCInfo1   0x0002ea       data     extern D:\git\testing79m\Drivers\MCU-Internal\internalADC.c
                   ADCON0   0x000fc2       data     extern C:\MCC18\src\traditional\proc\p18F97J60.asm
               ADCON0bits   0x000fc2       data     extern C:\MCC18\src\traditional\proc\p18F97J60.asm
                   ADCON1   0x000fc1       data     extern C:\MCC18\src\traditional\proc\p18F97J60.asm
               ADCON1bits   0x000fc1       data     extern C:\MCC18\src\traditional\proc\p18F97J60.asm
                   ADCON2   0x000fc0       data     extern C:\MCC18\src\traditional\proc\p18F97J60.asm
               ADCON2bits   0x000fc0       data     extern C:\MCC18\src\traditional\proc\p18F97J60.asm
               ADC_result   0x0002f2       data     extern D:\git\testing79m\Drivers\MCU-Internal\internalADC.c
                    ADRES   0x000fc3       data     extern C:\MCC18\src\traditional\proc\p18F97J60.asm
                   ADRESH   0x000fc4       data     extern C:\MCC18\src\traditional\proc\p18F97J60.asm
                   ADRESL   0x000fc3       data     extern C:\MCC18\src\traditional\proc\p18F97J60.asm
                AppConfig   0x0003b8       data     extern D:\git\testing79m\Main\Main.c
             AttenString1   0x00095f       data     extern D:\git\testing79m\Main\Global.c
             AttenString2   0x000967       data     extern D:\git\testing79m\Main\Global.c
                  BAUDCON   0x000f7e       data     extern C:\MCC18\src\traditional\proc\p18F97J60.asm
                 BAUDCON1   0x000f7e       data     extern C:\MCC18\src\traditional\proc\p18F97J60.asm
             BAUDCON1bits   0x000f7e       data     extern C:\MCC18\src\traditional\proc\p18F97J60.asm
                 BAUDCON2   0x000f7c       data     extern C:\MCC18\src\traditional\proc\p18F97J60.asm
             BAUDCON2bits   0x000f7c       data     extern C:\MCC18\src\traditional\proc\p18F97J60.asm
              BAUDCONbits   0x000f7e       data     extern C:\MCC18\src\traditional\proc\p18F97J60.asm
                  BAUDCTL   0x000f7e       data     extern C:\MCC18\src\traditional\proc\p18F97J60.asm
                 BAUDCTL1   0x000f7e       data     extern C:\MCC18\src\traditional\proc\p18F97J60.asm
             BAUDCTL1bits   0x000f7e       data     extern C:\MCC18\src\traditional\proc\p18F97J60.asm
                 BAUDCTL2   0x000f7c       data     extern C:\MCC18\src\traditional\proc\p18F97J60.asm
             BAUDCTL2bits   0x000f7c       data     extern C:\MCC18\src\traditional\proc\p18F97J60.asm
              BAUDCTLbits   0x000f7e       data     extern C:\MCC18\src\traditional\proc\p18F97J60.asm
                      BSR   0x000fe0       data     extern C:\MCC18\src\traditional\proc\p18F97J60.asm
             BlinkingFlag   0x000930       data     static D:\git\testing79m\Singcom\Drivers\lcd.c
                  CCP1CON   0x000fbd       data     extern C:\MCC18\src\traditional\proc\p18F97J60.asm
              CCP1CONbits   0x000fbd       data     extern C:\MCC18\src\traditional\proc\p18F97J60.asm
                  CCP2CON   0x000fba       data     extern C:\MCC18\src\traditional\proc\p18F97J60.asm
              CCP2CONbits   0x000fba       data     extern C:\MCC18\src\traditional\proc\p18F97J60.asm
                  CCP3CON   0x000fb7       data     extern C:\MCC18\src\traditional\proc\p18F97J60.asm
              CCP3CONbits   0x000fb7       data     extern C:\MCC18\src\traditional\proc\p18F97J60.asm
                  CCP4CON   0x000f73       data     extern C:\MCC18\src\traditional\proc\p18F97J60.asm
              CCP4CONbits   0x000f73       data     extern C:\MCC18\src\traditional\proc\p18F97J60.asm
                  CCP5CON   0x000f70       data     extern C:\MCC18\src\traditional\proc\p18F97J60.asm
              CCP5CONbits   0x000f70       data     extern C:\MCC18\src\traditional\proc\p18F97J60.asm
                    CCPR1   0x000fbe       data     extern C:\MCC18\src\traditional\proc\p18F97J60.asm
                   CCPR1H   0x000fbf       data     extern C:\MCC18\src\traditional\proc\p18F97J60.asm
                   CCPR1L   0x000fbe       data     extern C:\MCC18\src\traditional\proc\p18F97J60.asm
                    CCPR2   0x000fbb       data     extern C:\MCC18\src\traditional\proc\p18F97J60.asm
                   CCPR2H   0x000fbc       data     extern C:\MCC18\src\traditional\proc\p18F97J60.asm
                   CCPR2L   0x000fbb       data     extern C:\MCC18\src\traditional\proc\p18F97J60.asm
                    CCPR3   0x000fb8       data     extern C:\MCC18\src\traditional\proc\p18F97J60.asm
                   CCPR3H   0x000fb9       data     extern C:\MCC18\src\traditional\proc\p18F97J60.asm
                   CCPR3L   0x000fb8       data     extern C:\MCC18\src\traditional\proc\p18F97J60.asm
                    CCPR4   0x000f74       data     extern C:\MCC18\src\traditional\proc\p18F97J60.asm
                   CCPR4H   0x000f75       data     extern C:\MCC18\src\traditional\proc\p18F97J60.asm
                   CCPR4L   0x000f74       data     extern C:\MCC18\src\traditional\proc\p18F97J60.asm
                    CCPR5   0x000f71       data     extern C:\MCC18\src\traditional\proc\p18F97J60.asm
                   CCPR5H   0x000f72       data     extern C:\MCC18\src\traditional\proc\p18F97J60.asm
                   CCPR5L   0x000f71       data     extern C:\MCC18\src\traditional\proc\p18F97J60.asm
                    CMCON   0x000fb4       data     extern C:\MCC18\src\traditional\proc\p18F97J60.asm
                CMCONbits   0x000fb4       data     extern C:\MCC18\src\traditional\proc\p18F97J60.asm
                   CVRCON   0x000fb5       data     extern C:\MCC18\src\traditional\proc\p18F97J60.asm
               CVRCONbits   0x000fb5       data     extern C:\MCC18\src\traditional\proc\p18F97J60.asm
                    Cache   0x0003eb       data     static D:\git\testing79m\Microchip\TCPIP Stack\ARP.c
              CurrentMenu   0x000800       data     static D:\git\testing79m\Singcom\Drivers\lcd.c
    CurrentPacketLocation   0x000449       data     static D:\git\testing79m\Microchip\TCPIP Stack\ETH97J60.c
                     DDRA   0x000f92       data     extern C:\MCC18\src\traditional\proc\p18F97J60.asm
                 DDRAbits   0x000f92       data     extern C:\MCC18\src\traditional\proc\p18F97J60.asm
                     DDRB   0x000f93       data     extern C:\MCC18\src\traditional\proc\p18F97J60.asm
                 DDRBbits   0x000f93       data     extern C:\MCC18\src\traditional\proc\p18F97J60.asm
                     DDRC   0x000f94       data     extern C:\MCC18\src\traditional\proc\p18F97J60.asm
                 DDRCbits   0x000f94       data     extern C:\MCC18\src\traditional\proc\p18F97J60.asm
                     DDRD   0x000f95       data     extern C:\MCC18\src\traditional\proc\p18F97J60.asm
                 DDRDbits   0x000f95       data     extern C:\MCC18\src\traditional\proc\p18F97J60.asm
                     DDRE   0x000f96       data     extern C:\MCC18\src\traditional\proc\p18F97J60.asm
                 DDREbits   0x000f96       data     extern C:\MCC18\src\traditional\proc\p18F97J60.asm
                     DDRF   0x000f97       data     extern C:\MCC18\src\traditional\proc\p18F97J60.asm
                 DDRFbits   0x000f97       data     extern C:\MCC18\src\traditional\proc\p18F97J60.asm
                     DDRG   0x000f98       data     extern C:\MCC18\src\traditional\proc\p18F97J60.asm
                 DDRGbits   0x000f98       data     extern C:\MCC18\src\traditional\proc\p18F97J60.asm
                     DDRH   0x000f99       data     extern C:\MCC18\src\traditional\proc\p18F97J60.asm
                 DDRHbits   0x000f99       data     extern C:\MCC18\src\traditional\proc\p18F97J60.asm
                     DDRJ   0x000f9a       data     extern C:\MCC18\src\traditional\proc\p18F97J60.asm
                 DDRJbits   0x000f9a       data     extern C:\MCC18\src\traditional\proc\p18F97J60.asm
            DelayCounter1   0x00002c       data     extern C:\Program Files\mcc18\src\traditional\delays\delayd1.asm
                  ECCP1AS   0x000fb6       data     extern C:\MCC18\src\traditional\proc\p18F97J60.asm
              ECCP1ASbits   0x000fb6       data     extern C:\MCC18\src\traditional\proc\p18F97J60.asm
                 ECCP1CON   0x000fbd       data     extern C:\MCC18\src\traditional\proc\p18F97J60.asm
             ECCP1CONbits   0x000fbd       data     extern C:\MCC18\src\traditional\proc\p18F97J60.asm
                 ECCP1DEL   0x000f79       data     extern C:\MCC18\src\traditional\proc\p18F97J60.asm
             ECCP1DELbits   0x000f79       data     extern C:\MCC18\src\traditional\proc\p18F97J60.asm
                  ECCP2AS   0x000f68       data     extern C:\MCC18\src\traditional\proc\p18F97J60.asm
              ECCP2ASbits   0x000f68       data     extern C:\MCC18\src\traditional\proc\p18F97J60.asm
                 ECCP2CON   0x000fba       data     extern C:\MCC18\src\traditional\proc\p18F97J60.asm
             ECCP2CONbits   0x000fba       data     extern C:\MCC18\src\traditional\proc\p18F97J60.asm
                 ECCP2DEL   0x000f67       data     extern C:\MCC18\src\traditional\proc\p18F97J60.asm
             ECCP2DELbits   0x000f67       data     extern C:\MCC18\src\traditional\proc\p18F97J60.asm
                  ECCP3AS   0x000f6a       data     extern C:\MCC18\src\traditional\proc\p18F97J60.asm
              ECCP3ASbits   0x000f6a       data     extern C:\MCC18\src\traditional\proc\p18F97J60.asm
                 ECCP3CON   0x000fb7       data     extern C:\MCC18\src\traditional\proc\p18F97J60.asm
             ECCP3CONbits   0x000fb7       data     extern C:\MCC18\src\traditional\proc\p18F97J60.asm
                 ECCP3DEL   0x000f69       data     extern C:\MCC18\src\traditional\proc\p18F97J60.asm
             ECCP3DELbits   0x000f69       data     extern C:\MCC18\src\traditional\proc\p18F97J60.asm
                    ECON1   0x000fd2       data     extern C:\MCC18\src\traditional\proc\p18F97J60.asm
                ECON1bits   0x000fd2       data     extern C:\MCC18\src\traditional\proc\p18F97J60.asm
                    ECON2   0x000efe       data     extern C:\MCC18\src\traditional\proc\p18F97J60.asm
                ECON2bits   0x000efe       data     extern C:\MCC18\src\traditional\proc\p18F97J60.asm
                    EDATA   0x000f61       data     extern C:\MCC18\src\traditional\proc\p18F97J60.asm
                EDATAbits   0x000f61       data     extern C:\MCC18\src\traditional\proc\p18F97J60.asm
                   EDMACS   0x000ef6       data     extern C:\MCC18\src\traditional\proc\p18F97J60.asm
                  EDMACSH   0x000ef7       data     extern C:\MCC18\src\traditional\proc\p18F97J60.asm
                  EDMACSL   0x000ef6       data     extern C:\MCC18\src\traditional\proc\p18F97J60.asm
                  EDMADST   0x000ef4       data     extern C:\MCC18\src\traditional\proc\p18F97J60.asm
                 EDMADSTH   0x000ef5       data     extern C:\MCC18\src\traditional\proc\p18F97J60.asm
                 EDMADSTL   0x000ef4       data     extern C:\MCC18\src\traditional\proc\p18F97J60.asm
                   EDMAND   0x000ef2       data     extern C:\MCC18\src\traditional\proc\p18F97J60.asm
                  EDMANDH   0x000ef3       data     extern C:\MCC18\src\traditional\proc\p18F97J60.asm
                  EDMANDL   0x000ef2       data     extern C:\MCC18\src\traditional\proc\p18F97J60.asm
                   EDMAST   0x000ef0       data     extern C:\MCC18\src\traditional\proc\p18F97J60.asm
                  EDMASTH   0x000ef1       data     extern C:\MCC18\src\traditional\proc\p18F97J60.asm
                  EDMASTL   0x000ef0       data     extern C:\MCC18\src\traditional\proc\p18F97J60.asm
                   EECON1   0x000fa6       data     extern C:\MCC18\src\traditional\proc\p18F97J60.asm
               EECON1bits   0x000fa6       data     extern C:\MCC18\src\traditional\proc\p18F97J60.asm
                   EECON2   0x000fa7       data     extern C:\MCC18\src\traditional\proc\p18F97J60.asm
            EEPROMAddress   0x000400       data     static D:\git\testing79m\Microchip\TCPIP Stack\SPIEEPROM.c
             EEPROMBuffer   0x000404       data     static D:\git\testing79m\Microchip\TCPIP Stack\SPIEEPROM.c
                  EFLOCON   0x000e97       data     extern C:\MCC18\src\traditional\proc\p18F97J60.asm
              EFLOCONbits   0x000e97       data     extern C:\MCC18\src\traditional\proc\p18F97J60.asm
                     EHT0   0x000ec0       data     extern C:\MCC18\src\traditional\proc\p18F97J60.asm
                     EHT1   0x000ec1       data     extern C:\MCC18\src\traditional\proc\p18F97J60.asm
                     EHT2   0x000ec2       data     extern C:\MCC18\src\traditional\proc\p18F97J60.asm
                     EHT3   0x000ec3       data     extern C:\MCC18\src\traditional\proc\p18F97J60.asm
                     EHT4   0x000ec4       data     extern C:\MCC18\src\traditional\proc\p18F97J60.asm
                     EHT5   0x000ec5       data     extern C:\MCC18\src\traditional\proc\p18F97J60.asm
                     EHT6   0x000ec6       data     extern C:\MCC18\src\traditional\proc\p18F97J60.asm
                     EHT7   0x000ec7       data     extern C:\MCC18\src\traditional\proc\p18F97J60.asm
                      EIE   0x000efb       data     extern C:\MCC18\src\traditional\proc\p18F97J60.asm
                  EIEbits   0x000efb       data     extern C:\MCC18\src\traditional\proc\p18F97J60.asm
                      EIR   0x000f60       data     extern C:\MCC18\src\traditional\proc\p18F97J60.asm
                  EIRbits   0x000f60       data     extern C:\MCC18\src\traditional\proc\p18F97J60.asm
                    EPAUS   0x000e98       data     extern C:\MCC18\src\traditional\proc\p18F97J60.asm
                   EPAUSH   0x000e99       data     extern C:\MCC18\src\traditional\proc\p18F97J60.asm
                   EPAUSL   0x000e98       data     extern C:\MCC18\src\traditional\proc\p18F97J60.asm
                  EPKTCNT   0x000ed9       data     extern C:\MCC18\src\traditional\proc\p18F97J60.asm
                    EPMCS   0x000ed0       data     extern C:\MCC18\src\traditional\proc\p18F97J60.asm
                   EPMCSH   0x000ed1       data     extern C:\MCC18\src\traditional\proc\p18F97J60.asm
                   EPMCSL   0x000ed0       data     extern C:\MCC18\src\traditional\proc\p18F97J60.asm
                    EPMM0   0x000ec8       data     extern C:\MCC18\src\traditional\proc\p18F97J60.asm
                    EPMM1   0x000ec9       data     extern C:\MCC18\src\traditional\proc\p18F97J60.asm
                    EPMM2   0x000eca       data     extern C:\MCC18\src\traditional\proc\p18F97J60.asm
                    EPMM3   0x000ecb       data     extern C:\MCC18\src\traditional\proc\p18F97J60.asm
                    EPMM4   0x000ecc       data     extern C:\MCC18\src\traditional\proc\p18F97J60.asm
                    EPMM5   0x000ecd       data     extern C:\MCC18\src\traditional\proc\p18F97J60.asm
                    EPMM6   0x000ece       data     extern C:\MCC18\src\traditional\proc\p18F97J60.asm
                    EPMM7   0x000ecf       data     extern C:\MCC18\src\traditional\proc\p18F97J60.asm
                     EPMO   0x000ed4       data     extern C:\MCC18\src\traditional\proc\p18F97J60.asm
                    EPMOH   0x000ed5       data     extern C:\MCC18\src\traditional\proc\p18F97J60.asm
                    EPMOL   0x000ed4       data     extern C:\MCC18\src\traditional\proc\p18F97J60.asm
                    ERDPT   0x000f7a       data     extern C:\MCC18\src\traditional\proc\p18F97J60.asm
                   ERDPTH   0x000f7b       data     extern C:\MCC18\src\traditional\proc\p18F97J60.asm
                   ERDPTL   0x000f7a       data     extern C:\MCC18\src\traditional\proc\p18F97J60.asm
                  ERXFCON   0x000ed8       data     extern C:\MCC18\src\traditional\proc\p18F97J60.asm
              ERXFCONbits   0x000ed8       data     extern C:\MCC18\src\traditional\proc\p18F97J60.asm
                    ERXND   0x000eea       data     extern C:\MCC18\src\traditional\proc\p18F97J60.asm
                   ERXNDH   0x000eeb       data     extern C:\MCC18\src\traditional\proc\p18F97J60.asm
                   ERXNDL   0x000eea       data     extern C:\MCC18\src\traditional\proc\p18F97J60.asm
                  ERXRDPT   0x000eec       data     extern C:\MCC18\src\traditional\proc\p18F97J60.asm
                 ERXRDPTH   0x000eed       data     extern C:\MCC18\src\traditional\proc\p18F97J60.asm
                 ERXRDPTL   0x000eec       data     extern C:\MCC18\src\traditional\proc\p18F97J60.asm
                    ERXST   0x000ee8       data     extern C:\MCC18\src\traditional\proc\p18F97J60.asm
                   ERXSTH   0x000ee9       data     extern C:\MCC18\src\traditional\proc\p18F97J60.asm
                   ERXSTL   0x000ee8       data     extern C:\MCC18\src\traditional\proc\p18F97J60.asm
                  ERXWRPT   0x000eee       data     extern C:\MCC18\src\traditional\proc\p18F97J60.asm
                 ERXWRPTH   0x000eef       data     extern C:\MCC18\src\traditional\proc\p18F97J60.asm
                 ERXWRPTL   0x000eee       data     extern C:\MCC18\src\traditional\proc\p18F97J60.asm
                    ESTAT   0x000efd       data     extern C:\MCC18\src\traditional\proc\p18F97J60.asm
                ESTATbits   0x000efd       data     extern C:\MCC18\src\traditional\proc\p18F97J60.asm
                    ETXND   0x000ee6       data     extern C:\MCC18\src\traditional\proc\p18F97J60.asm
                   ETXNDH   0x000ee7       data     extern C:\MCC18\src\traditional\proc\p18F97J60.asm
                   ETXNDL   0x000ee6       data     extern C:\MCC18\src\traditional\proc\p18F97J60.asm
                    ETXST   0x000ee4       data     extern C:\MCC18\src\traditional\proc\p18F97J60.asm
                   ETXSTH   0x000ee5       data     extern C:\MCC18\src\traditional\proc\p18F97J60.asm
                   ETXSTL   0x000ee4       data     extern C:\MCC18\src\traditional\proc\p18F97J60.asm
                    EWRPT   0x000ee2       data     extern C:\MCC18\src\traditional\proc\p18F97J60.asm
                   EWRPTH   0x000ee3       data     extern C:\MCC18\src\traditional\proc\p18F97J60.asm
                   EWRPTL   0x000ee2       data     extern C:\MCC18\src\traditional\proc\p18F97J60.asm
                 EditMode   0x000803       data     extern D:\git\testing79m\Singcom\Drivers\lcd.c
             EditPosition   0x000804       data     extern D:\git\testing79m\Singcom\Drivers\lcd.c
           EditUpdateFlag   0x000811       data     extern D:\git\testing79m\Singcom\Drivers\lcd.c
                     FSR0   0x000fe9       data     extern C:\MCC18\src\traditional\proc\p18F97J60.asm
                    FSR0H   0x000fea       data     extern C:\MCC18\src\traditional\proc\p18F97J60.asm
                    FSR0L   0x000fe9       data     extern C:\MCC18\src\traditional\proc\p18F97J60.asm
                     FSR1   0x000fe1       data     extern C:\MCC18\src\traditional\proc\p18F97J60.asm
                    FSR1H   0x000fe2       data     extern C:\MCC18\src\traditional\proc\p18F97J60.asm
                    FSR1L   0x000fe1       data     extern C:\MCC18\src\traditional\proc\p18F97J60.asm
                     FSR2   0x000fd9       data     extern C:\MCC18\src\traditional\proc\p18F97J60.asm
                    FSR2H   0x000fda       data     extern C:\MCC18\src\traditional\proc\p18F97J60.asm
                    FSR2L   0x000fd9       data     extern C:\MCC18\src\traditional\proc\p18F97J60.asm
          FirmwareVersion   0x0000e4       data     extern D:\git\testing79m\Main\Main.c
              HardwareWDT   0x0000ea       data     extern D:\git\testing79m\Main\Main.c
         I2CReceiveBuffer   0x000e6f       data     extern D:\git\testing79m\Singcom\Drivers\i2c_c1.c
          I2CSlaveAddress   0x00046f       data     extern D:\git\testing79m\App\WebUI\HTTPGetDevInfo.c
                    INDF0   0x000fef       data     extern C:\MCC18\src\traditional\proc\p18F97J60.asm
                    INDF1   0x000fe7       data     extern C:\MCC18\src\traditional\proc\p18F97J60.asm
                    INDF2   0x000fdf       data     extern C:\MCC18\src\traditional\proc\p18F97J60.asm
                   INTCON   0x000ff2       data     extern C:\MCC18\src\traditional\proc\p18F97J60.asm
                  INTCON2   0x000ff1       data     extern C:\MCC18\src\traditional\proc\p18F97J60.asm
              INTCON2bits   0x000ff1       data     extern C:\MCC18\src\traditional\proc\p18F97J60.asm
                  INTCON3   0x000ff0       data     extern C:\MCC18\src\traditional\proc\p18F97J60.asm
              INTCON3bits   0x000ff0       data     extern C:\MCC18\src\traditional\proc\p18F97J60.asm
               INTCONbits   0x000ff2       data     extern C:\MCC18\src\traditional\proc\p18F97J60.asm
              IPHeaderLen   0x0000ff       data     static D:\git\testing79m\Microchip\TCPIP Stack\IP.c
                     IPR1   0x000f9f       data     extern C:\MCC18\src\traditional\proc\p18F97J60.asm
                 IPR1bits   0x000f9f       data     extern C:\MCC18\src\traditional\proc\p18F97J60.asm
                     IPR2   0x000fa2       data     extern C:\MCC18\src\traditional\proc\p18F97J60.asm
                 IPR2bits   0x000fa2       data     extern C:\MCC18\src\traditional\proc\p18F97J60.asm
                     IPR3   0x000fa5       data     extern C:\MCC18\src\traditional\proc\p18F97J60.asm
                 IPR3bits   0x000fa5       data     extern C:\MCC18\src\traditional\proc\p18F97J60.asm
                 IPString   0x00096f       data     extern D:\git\testing79m\Main\Global.c
           KeyPressedFlag   0x0009ec       data     extern D:\git\testing79m\Main\Global.c
                        L   0x0009fd       data     extern D:\git\testing79m\SysLib\util.c
                     LATA   0x000f89       data     extern C:\MCC18\src\traditional\proc\p18F97J60.asm
                 LATAbits   0x000f89       data     extern C:\MCC18\src\traditional\proc\p18F97J60.asm
                     LATB   0x000f8a       data     extern C:\MCC18\src\traditional\proc\p18F97J60.asm
                 LATBbits   0x000f8a       data     extern C:\MCC18\src\traditional\proc\p18F97J60.asm
                     LATC   0x000f8b       data     extern C:\MCC18\src\traditional\proc\p18F97J60.asm
                 LATCbits   0x000f8b       data     extern C:\MCC18\src\traditional\proc\p18F97J60.asm
                     LATD   0x000f8c       data     extern C:\MCC18\src\traditional\proc\p18F97J60.asm
                 LATDbits   0x000f8c       data     extern C:\MCC18\src\traditional\proc\p18F97J60.asm
                     LATE   0x000f8d       data     extern C:\MCC18\src\traditional\proc\p18F97J60.asm
                 LATEbits   0x000f8d       data     extern C:\MCC18\src\traditional\proc\p18F97J60.asm
                     LATF   0x000f8e       data     extern C:\MCC18\src\traditional\proc\p18F97J60.asm
                 LATFbits   0x000f8e       data     extern C:\MCC18\src\traditional\proc\p18F97J60.asm
                     LATG   0x000f8f       data     extern C:\MCC18\src\traditional\proc\p18F97J60.asm
                 LATGbits   0x000f8f       data     extern C:\MCC18\src\traditional\proc\p18F97J60.asm
                     LATH   0x000f90       data     extern C:\MCC18\src\traditional\proc\p18F97J60.asm
                 LATHbits   0x000f90       data     extern C:\MCC18\src\traditional\proc\p18F97J60.asm
                     LATJ   0x000f91       data     extern C:\MCC18\src\traditional\proc\p18F97J60.asm
                 LATJbits   0x000f91       data     extern C:\MCC18\src\traditional\proc\p18F97J60.asm
        LCDBufferPosition   0x000469       data     extern D:\git\testing79m\Main\Global.c
       LCDDigitUpdateFlag   0x000814       data     extern D:\git\testing79m\Singcom\Drivers\lcd.c
           LCDPrintBuffer   0x000200       data     extern D:\git\testing79m\Singcom\Drivers\lcd.c
           LCDRefreshFlag   0x000813       data     extern D:\git\testing79m\Singcom\Drivers\lcd.c
          LOStatusString1   0x000935       data     extern D:\git\testing79m\Main\Global.c
          LOStatusString2   0x00093e       data     extern D:\git\testing79m\Main\Global.c
                 LastMenu   0x000801       data     static D:\git\testing79m\Singcom\Drivers\lcd.c
             LeftMostMenu   0x000802       data     static D:\git\testing79m\Singcom\Drivers\lcd.c
                   MAADR1   0x000e84       data     extern C:\MCC18\src\traditional\proc\p18F97J60.asm
                   MAADR2   0x000e85       data     extern C:\MCC18\src\traditional\proc\p18F97J60.asm
                   MAADR3   0x000e82       data     extern C:\MCC18\src\traditional\proc\p18F97J60.asm
                   MAADR4   0x000e83       data     extern C:\MCC18\src\traditional\proc\p18F97J60.asm
                   MAADR5   0x000e80       data     extern C:\MCC18\src\traditional\proc\p18F97J60.asm
                   MAADR6   0x000e81       data     extern C:\MCC18\src\traditional\proc\p18F97J60.asm
                  MABBIPG   0x000ea4       data     extern C:\MCC18\src\traditional\proc\p18F97J60.asm
                   MACON1   0x000ea0       data     extern C:\MCC18\src\traditional\proc\p18F97J60.asm
               MACON1bits   0x000ea0       data     extern C:\MCC18\src\traditional\proc\p18F97J60.asm
                   MACON3   0x000ea2       data     extern C:\MCC18\src\traditional\proc\p18F97J60.asm
               MACON3bits   0x000ea2       data     extern C:\MCC18\src\traditional\proc\p18F97J60.asm
                   MACON4   0x000ea3       data     extern C:\MCC18\src\traditional\proc\p18F97J60.asm
               MACON4bits   0x000ea3       data     extern C:\MCC18\src\traditional\proc\p18F97J60.asm
                    MAIPG   0x000ea6       data     extern C:\MCC18\src\traditional\proc\p18F97J60.asm
                   MAIPGH   0x000ea7       data     extern C:\MCC18\src\traditional\proc\p18F97J60.asm
                   MAIPGL   0x000ea6       data     extern C:\MCC18\src\traditional\proc\p18F97J60.asm
                   MAMXFL   0x000eaa       data     extern C:\MCC18\src\traditional\proc\p18F97J60.asm
                  MAMXFLH   0x000eab       data     extern C:\MCC18\src\traditional\proc\p18F97J60.asm
                  MAMXFLL   0x000eaa       data     extern C:\MCC18\src\traditional\proc\p18F97J60.asm
                   MEMCON   0x000f9c       data     extern C:\MCC18\src\traditional\proc\p18F97J60.asm
               MEMCONbits   0x000f9c       data     extern C:\MCC18\src\traditional\proc\p18F97J60.asm
                    MICMD   0x000eb2       data     extern C:\MCC18\src\traditional\proc\p18F97J60.asm
                MICMDbits   0x000eb2       data     extern C:\MCC18\src\traditional\proc\p18F97J60.asm
                     MIRD   0x000eb8       data     extern C:\MCC18\src\traditional\proc\p18F97J60.asm
                    MIRDH   0x000eb9       data     extern C:\MCC18\src\traditional\proc\p18F97J60.asm
                    MIRDL   0x000eb8       data     extern C:\MCC18\src\traditional\proc\p18F97J60.asm
                 MIREGADR   0x000eb4       data     extern C:\MCC18\src\traditional\proc\p18F97J60.asm
                   MISTAT   0x000e8a       data     extern C:\MCC18\src\traditional\proc\p18F97J60.asm
               MISTATbits   0x000e8a       data     extern C:\MCC18\src\traditional\proc\p18F97J60.asm
                     MIWR   0x000eb6       data     extern C:\MCC18\src\traditional\proc\p18F97J60.asm
                    MIWRH   0x000eb7       data     extern C:\MCC18\src\traditional\proc\p18F97J60.asm
                    MIWRL   0x000eb6       data     extern C:\MCC18\src\traditional\proc\p18F97J60.asm
                 MNString   0x00097f       data     extern D:\git\testing79m\Main\Global.c
                MPFSStubs   0x000e00       data     static D:\git\testing79m\Microchip\TCPIP Stack\MPFS2.c
               Manager_IP   0x000459       data     extern D:\git\testing79m\Bootstrap\Initialization.c
                MenuValue   0x000815       data     extern D:\git\testing79m\Singcom\Drivers\lcd.c
            MinuteCounter   0x0000e9       data     extern D:\git\testing79m\Main\Main.c
           MyStaticIPAddr   0x0001f0       data     extern D:\git\testing79m\Main\Main.c
                    MyTCB   0x000252       data     static D:\git\testing79m\Microchip\TCPIP Stack\TCP.c
                MyTCBStub   0x000277       data     static D:\git\testing79m\Microchip\TCPIP Stack\TCP.c
       NextPacketLocation   0x000447       data     static D:\git\testing79m\Microchip\TCPIP Stack\ETH97J60.c
                 NextPort   0x000250       data     static D:\git\testing79m\Microchip\TCPIP Stack\TCP.c
                   OSCCON   0x000fd3       data     extern C:\MCC18\src\traditional\proc\p18F97J60.asm
               OSCCONbits   0x000fd3       data     extern C:\MCC18\src\traditional\proc\p18F97J60.asm
                  OSCTUNE   0x000f9b       data     extern C:\MCC18\src\traditional\proc\p18F97J60.asm
              OSCTUNEbits   0x000f9b       data     extern C:\MCC18\src\traditional\proc\p18F97J60.asm
                       PC   0x000ff9       data     extern C:\MCC18\src\traditional\proc\p18F97J60.asm
                      PCL   0x000ff9       data     extern C:\MCC18\src\traditional\proc\p18F97J60.asm
                   PCLATH   0x000ffa       data     extern C:\MCC18\src\traditional\proc\p18F97J60.asm
                   PCLATU   0x000ffb       data     extern C:\MCC18\src\traditional\proc\p18F97J60.asm
                     PIE1   0x000f9d       data     extern C:\MCC18\src\traditional\proc\p18F97J60.asm
                 PIE1bits   0x000f9d       data     extern C:\MCC18\src\traditional\proc\p18F97J60.asm
                     PIE2   0x000fa0       data     extern C:\MCC18\src\traditional\proc\p18F97J60.asm
                 PIE2bits   0x000fa0       data     extern C:\MCC18\src\traditional\proc\p18F97J60.asm
                     PIE3   0x000fa3       data     extern C:\MCC18\src\traditional\proc\p18F97J60.asm
                 PIE3bits   0x000fa3       data     extern C:\MCC18\src\traditional\proc\p18F97J60.asm
                     PIR1   0x000f9e       data     extern C:\MCC18\src\traditional\proc\p18F97J60.asm
                 PIR1bits   0x000f9e       data     extern C:\MCC18\src\traditional\proc\p18F97J60.asm
                     PIR2   0x000fa1       data     extern C:\MCC18\src\traditional\proc\p18F97J60.asm
                 PIR2bits   0x000fa1       data     extern C:\MCC18\src\traditional\proc\p18F97J60.asm
                     PIR3   0x000fa4       data     extern C:\MCC18\src\traditional\proc\p18F97J60.asm
                 PIR3bits   0x000fa4       data     extern C:\MCC18\src\traditional\proc\p18F97J60.asm
                   PLUSW0   0x000feb       data     extern C:\MCC18\src\traditional\proc\p18F97J60.asm
                   PLUSW1   0x000fe3       data     extern C:\MCC18\src\traditional\proc\p18F97J60.asm
                   PLUSW2   0x000fdb       data     extern C:\MCC18\src\traditional\proc\p18F97J60.asm
                    PORTA   0x000f80       data     extern C:\MCC18\src\traditional\proc\p18F97J60.asm
                PORTAbits   0x000f80       data     extern C:\MCC18\src\traditional\proc\p18F97J60.asm
                    PORTB   0x000f81       data     extern C:\MCC18\src\traditional\proc\p18F97J60.asm
                PORTBbits   0x000f81       data     extern C:\MCC18\src\traditional\proc\p18F97J60.asm
                    PORTC   0x000f82       data     extern C:\MCC18\src\traditional\proc\p18F97J60.asm
                PORTCbits   0x000f82       data     extern C:\MCC18\src\traditional\proc\p18F97J60.asm
                    PORTD   0x000f83       data     extern C:\MCC18\src\traditional\proc\p18F97J60.asm
                PORTDbits   0x000f83       data     extern C:\MCC18\src\traditional\proc\p18F97J60.asm
                    PORTE   0x000f84       data     extern C:\MCC18\src\traditional\proc\p18F97J60.asm
                PORTEbits   0x000f84       data     extern C:\MCC18\src\traditional\proc\p18F97J60.asm
                    PORTF   0x000f85       data     extern C:\MCC18\src\traditional\proc\p18F97J60.asm
                PORTFbits   0x000f85       data     extern C:\MCC18\src\traditional\proc\p18F97J60.asm
                    PORTG   0x000f86       data     extern C:\MCC18\src\traditional\proc\p18F97J60.asm
                PORTGbits   0x000f86       data     extern C:\MCC18\src\traditional\proc\p18F97J60.asm
                    PORTH   0x000f87       data     extern C:\MCC18\src\traditional\proc\p18F97J60.asm
                PORTHbits   0x000f87       data     extern C:\MCC18\src\traditional\proc\p18F97J60.asm
                    PORTJ   0x000f88       data     extern C:\MCC18\src\traditional\proc\p18F97J60.asm
                PORTJbits   0x000f88       data     extern C:\MCC18\src\traditional\proc\p18F97J60.asm
                 POSTDEC0   0x000fed       data     extern C:\MCC18\src\traditional\proc\p18F97J60.asm
                 POSTDEC1   0x000fe5       data     extern C:\MCC18\src\traditional\proc\p18F97J60.asm
                 POSTDEC2   0x000fdd       data     extern C:\MCC18\src\traditional\proc\p18F97J60.asm
                 POSTINC0   0x000fee       data     extern C:\MCC18\src\traditional\proc\p18F97J60.asm
                 POSTINC1   0x000fe6       data     extern C:\MCC18\src\traditional\proc\p18F97J60.asm
                 POSTINC2   0x000fde       data     extern C:\MCC18\src\traditional\proc\p18F97J60.asm
                      PR2   0x000fcb       data     extern C:\MCC18\src\traditional\proc\p18F97J60.asm
                      PR4   0x000f77       data     extern C:\MCC18\src\traditional\proc\p18F97J60.asm
                  PREINC0   0x000fec       data     extern C:\MCC18\src\traditional\proc\p18F97J60.asm
                  PREINC1   0x000fe4       data     extern C:\MCC18\src\traditional\proc\p18F97J60.asm
                  PREINC2   0x000fdc       data     extern C:\MCC18\src\traditional\proc\p18F97J60.asm
                     PROD   0x000ff3       data     extern C:\MCC18\src\traditional\proc\p18F97J60.asm
                    PRODH   0x000ff4       data     extern C:\MCC18\src\traditional\proc\p18F97J60.asm
                    PRODL   0x000ff3       data     extern C:\MCC18\src\traditional\proc\p18F97J60.asm
                   PSPCON   0x000fb0       data     extern C:\MCC18\src\traditional\proc\p18F97J60.asm
               PSPCONbits   0x000fb0       data     extern C:\MCC18\src\traditional\proc\p18F97J60.asm
               PressedKey   0x0009ed       data     extern D:\git\testing79m\Main\Global.c
                     RCON   0x000fd0       data     extern C:\MCC18\src\traditional\proc\p18F97J60.asm
                 RCONbits   0x000fd0       data     extern C:\MCC18\src\traditional\proc\p18F97J60.asm
                    RCREG   0x000fae       data     extern C:\MCC18\src\traditional\proc\p18F97J60.asm
                   RCREG1   0x000fae       data     extern C:\MCC18\src\traditional\proc\p18F97J60.asm
                   RCREG2   0x000f6e       data     extern C:\MCC18\src\traditional\proc\p18F97J60.asm
                    RCSTA   0x000fab       data     extern C:\MCC18\src\traditional\proc\p18F97J60.asm
                   RCSTA1   0x000fab       data     extern C:\MCC18\src\traditional\proc\p18F97J60.asm
               RCSTA1bits   0x000fab       data     extern C:\MCC18\src\traditional\proc\p18F97J60.asm
                   RCSTA2   0x000f6b       data     extern C:\MCC18\src\traditional\proc\p18F97J60.asm
               RCSTA2bits   0x000f6b       data     extern C:\MCC18\src\traditional\proc\p18F97J60.asm
                RCSTAbits   0x000fab       data     extern C:\MCC18\src\traditional\proc\p18F97J60.asm
            RFFreqString1   0x000947       data     extern D:\git\testing79m\Main\Global.c
            RFFreqString2   0x000953       data     extern D:\git\testing79m\Main\Global.c
                RXHeadPtr   0x0000f7       data     static D:\git\testing79m\Microchip\TCPIP Stack\UART2TCPBridge.c
                RXTailPtr   0x0000f9       data     static D:\git\testing79m\Microchip\TCPIP Stack\UART2TCPBridge.c
              RdI2CBuffer   0x00039a       data     extern D:\git\testing79m\App\WebUI\HTTPGetDevInfo.c
                    Read2   0x0001f7       data     extern D:\git\testing79m\Main\Main.c
              RefreshFlag   0x000810       data     extern D:\git\testing79m\Singcom\Drivers\lcd.c
               RemoteInfo   0x000293       data     static D:\git\testing79m\Microchip\TCPIP Stack\TCP.c
                     SIGN   0x000018       data     extern C:\Program Files\mcc18\src\traditional\math\cmath18.asm
                 SNString   0x000991       data     extern D:\git\testing79m\Main\Global.c
                    SPBRG   0x000faf       data     extern C:\MCC18\src\traditional\proc\p18F97J60.asm
                   SPBRG1   0x000faf       data     extern C:\MCC18\src\traditional\proc\p18F97J60.asm
                   SPBRG2   0x000f6f       data     extern C:\MCC18\src\traditional\proc\p18F97J60.asm
                   SPBRGH   0x000f7f       data     extern C:\MCC18\src\traditional\proc\p18F97J60.asm
                  SPBRGH1   0x000f7f       data     extern C:\MCC18\src\traditional\proc\p18F97J60.asm
                  SPBRGH2   0x000f7d       data     extern C:\MCC18\src\traditional\proc\p18F97J60.asm
                  SSP1ADD   0x000fc8       data     extern C:\MCC18\src\traditional\proc\p18F97J60.asm
                  SSP1BUF   0x000fc9       data     extern C:\MCC18\src\traditional\proc\p18F97J60.asm
                 SSP1CON1   0x000fc6       data     extern C:\MCC18\src\traditional\proc\p18F97J60.asm
             SSP1CON1bits   0x000fc6       data     extern C:\MCC18\src\traditional\proc\p18F97J60.asm
                 SSP1CON2   0x000fc5       data     extern C:\MCC18\src\traditional\proc\p18F97J60.asm
             SSP1CON2bits   0x000fc5       data     extern C:\MCC18\src\traditional\proc\p18F97J60.asm
                 SSP1STAT   0x000fc7       data     extern C:\MCC18\src\traditional\proc\p18F97J60.asm
             SSP1STATbits   0x000fc7       data     extern C:\MCC18\src\traditional\proc\p18F97J60.asm
                  SSP2ADD   0x000f65       data     extern C:\MCC18\src\traditional\proc\p18F97J60.asm
                  SSP2BUF   0x000f66       data     extern C:\MCC18\src\traditional\proc\p18F97J60.asm
                 SSP2CON1   0x000f63       data     extern C:\MCC18\src\traditional\proc\p18F97J60.asm
             SSP2CON1bits   0x000f63       data     extern C:\MCC18\src\traditional\proc\p18F97J60.asm
                 SSP2CON2   0x000f62       data     extern C:\MCC18\src\traditional\proc\p18F97J60.asm
             SSP2CON2bits   0x000f62       data     extern C:\MCC18\src\traditional\proc\p18F97J60.asm
                 SSP2STAT   0x000f64       data     extern C:\MCC18\src\traditional\proc\p18F97J60.asm
             SSP2STATbits   0x000f64       data     extern C:\MCC18\src\traditional\proc\p18F97J60.asm
                   SSPADD   0x000fc8       data     extern C:\MCC18\src\traditional\proc\p18F97J60.asm
                   SSPBUF   0x000fc9       data     extern C:\MCC18\src\traditional\proc\p18F97J60.asm
                  SSPCON1   0x000fc6       data     extern C:\MCC18\src\traditional\proc\p18F97J60.asm
              SSPCON1bits   0x000fc6       data     extern C:\MCC18\src\traditional\proc\p18F97J60.asm
                  SSPCON2   0x000fc5       data     extern C:\MCC18\src\traditional\proc\p18F97J60.asm
              SSPCON2bits   0x000fc5       data     extern C:\MCC18\src\traditional\proc\p18F97J60.asm
                  SSPSTAT   0x000fc7       data     extern C:\MCC18\src\traditional\proc\p18F97J60.asm
              SSPSTATbits   0x000fc7       data     extern C:\MCC18\src\traditional\proc\p18F97J60.asm
                   STATUS   0x000fd8       data     extern C:\MCC18\src\traditional\proc\p18F97J60.asm
               STATUSbits   0x000fd8       data     extern C:\MCC18\src\traditional\proc\p18F97J60.asm
                   STKPTR   0x000ffc       data     extern C:\MCC18\src\traditional\proc\p18F97J60.asm
               STKPTRbits   0x000ffc       data     extern C:\MCC18\src\traditional\proc\p18F97J60.asm
                 SYNQueue   0x000340       data     static D:\git\testing79m\Microchip\TCPIP Stack\TCP.c
            SecondCounter   0x0000e8       data     extern D:\git\testing79m\Main\Main.c
                     Seed   0x0002fe       data     static C:\Program Files\mcc18\src\traditional\stdclib\rand.asm
                    T0CON   0x000fd5       data     extern C:\MCC18\src\traditional\proc\p18F97J60.asm
                T0CONbits   0x000fd5       data     extern C:\MCC18\src\traditional\proc\p18F97J60.asm
                    T1CON   0x000fcd       data     extern C:\MCC18\src\traditional\proc\p18F97J60.asm
                T1CONbits   0x000fcd       data     extern C:\MCC18\src\traditional\proc\p18F97J60.asm
                    T2CON   0x000fca       data     extern C:\MCC18\src\traditional\proc\p18F97J60.asm
                T2CONbits   0x000fca       data     extern C:\MCC18\src\traditional\proc\p18F97J60.asm
                    T3CON   0x000fb1       data     extern C:\MCC18\src\traditional\proc\p18F97J60.asm
                T3CONbits   0x000fb1       data     extern C:\MCC18\src\traditional\proc\p18F97J60.asm
                    T4CON   0x000f76       data     extern C:\MCC18\src\traditional\proc\p18F97J60.asm
                T4CONbits   0x000f76       data     extern C:\MCC18\src\traditional\proc\p18F97J60.asm
                   TABLAT   0x000ff5       data     extern C:\MCC18\src\traditional\proc\p18F97J60.asm
                   TBLPTR   0x000ff6       data     extern C:\MCC18\src\traditional\proc\p18F97J60.asm
                  TBLPTRH   0x000ff7       data     extern C:\MCC18\src\traditional\proc\p18F97J60.asm
                  TBLPTRL   0x000ff6       data     extern C:\MCC18\src\traditional\proc\p18F97J60.asm
                  TBLPTRU   0x000ff8       data     extern C:\MCC18\src\traditional\proc\p18F97J60.asm
                 TCBStubs   0x000100       data     static D:\git\testing79m\Microchip\TCPIP Stack\TCP.c
                  TEMP_IP   0x000455       data     extern D:\git\testing79m\App\SNMP\SNMPLLiBUCDevInfo.c
                    TMR0H   0x000fd7       data     extern C:\MCC18\src\traditional\proc\p18F97J60.asm
                    TMR0L   0x000fd6       data     extern C:\MCC18\src\traditional\proc\p18F97J60.asm
                    TMR1H   0x000fcf       data     extern C:\MCC18\src\traditional\proc\p18F97J60.asm
                    TMR1L   0x000fce       data     extern C:\MCC18\src\traditional\proc\p18F97J60.asm
                     TMR2   0x000fcc       data     extern C:\MCC18\src\traditional\proc\p18F97J60.asm
                    TMR3H   0x000fb3       data     extern C:\MCC18\src\traditional\proc\p18F97J60.asm
                    TMR3L   0x000fb2       data     extern C:\MCC18\src\traditional\proc\p18F97J60.asm
                     TMR4   0x000f78       data     extern C:\MCC18\src\traditional\proc\p18F97J60.asm
                      TOS   0x000ffd       data     extern C:\MCC18\src\traditional\proc\p18F97J60.asm
                     TOSH   0x000ffe       data     extern C:\MCC18\src\traditional\proc\p18F97J60.asm
                     TOSL   0x000ffd       data     extern C:\MCC18\src\traditional\proc\p18F97J60.asm
                     TOSU   0x000fff       data     extern C:\MCC18\src\traditional\proc\p18F97J60.asm
                    TRISA   0x000f92       data     extern C:\MCC18\src\traditional\proc\p18F97J60.asm
                TRISAbits   0x000f92       data     extern C:\MCC18\src\traditional\proc\p18F97J60.asm
                    TRISB   0x000f93       data     extern C:\MCC18\src\traditional\proc\p18F97J60.asm
                TRISBbits   0x000f93       data     extern C:\MCC18\src\traditional\proc\p18F97J60.asm
                    TRISC   0x000f94       data     extern C:\MCC18\src\traditional\proc\p18F97J60.asm
                TRISCbits   0x000f94       data     extern C:\MCC18\src\traditional\proc\p18F97J60.asm
                    TRISD   0x000f95       data     extern C:\MCC18\src\traditional\proc\p18F97J60.asm
                TRISDbits   0x000f95       data     extern C:\MCC18\src\traditional\proc\p18F97J60.asm
                    TRISE   0x000f96       data     extern C:\MCC18\src\traditional\proc\p18F97J60.asm
                TRISEbits   0x000f96       data     extern C:\MCC18\src\traditional\proc\p18F97J60.asm
                    TRISF   0x000f97       data     extern C:\MCC18\src\traditional\proc\p18F97J60.asm
                TRISFbits   0x000f97       data     extern C:\MCC18\src\traditional\proc\p18F97J60.asm
                    TRISG   0x000f98       data     extern C:\MCC18\src\traditional\proc\p18F97J60.asm
                TRISGbits   0x000f98       data     extern C:\MCC18\src\traditional\proc\p18F97J60.asm
                    TRISH   0x000f99       data     extern C:\MCC18\src\traditional\proc\p18F97J60.asm
                TRISHbits   0x000f99       data     extern C:\MCC18\src\traditional\proc\p18F97J60.asm
                    TRISJ   0x000f9a       data     extern C:\MCC18\src\traditional\proc\p18F97J60.asm
                TRISJbits   0x000f9a       data     extern C:\MCC18\src\traditional\proc\p18F97J60.asm
                TXHeadPtr   0x0000fb       data     static D:\git\testing79m\Microchip\TCPIP Stack\UART2TCPBridge.c
                    TXREG   0x000fad       data     extern C:\MCC18\src\traditional\proc\p18F97J60.asm
                   TXREG1   0x000fad       data     extern C:\MCC18\src\traditional\proc\p18F97J60.asm
                   TXREG2   0x000f6d       data     extern C:\MCC18\src\traditional\proc\p18F97J60.asm
                    TXSTA   0x000fac       data     extern C:\MCC18\src\traditional\proc\p18F97J60.asm
                   TXSTA1   0x000fac       data     extern C:\MCC18\src\traditional\proc\p18F97J60.asm
               TXSTA1bits   0x000fac       data     extern C:\MCC18\src\traditional\proc\p18F97J60.asm
                   TXSTA2   0x000f6c       data     extern C:\MCC18\src\traditional\proc\p18F97J60.asm
               TXSTA2bits   0x000f6c       data     extern C:\MCC18\src\traditional\proc\p18F97J60.asm
                TXSTAbits   0x000fac       data     extern C:\MCC18\src\traditional\proc\p18F97J60.asm
                TXTailPtr   0x0000fd       data     static D:\git\testing79m\Microchip\TCPIP Stack\UART2TCPBridge.c
                   Target   0x0003f5       data     static D:\git\testing79m\Microchip\TCPIP Stack\ARP.c
            Timer2Counter   0x0001ff       data     extern D:\git\testing79m\Drivers\MCU-Internal\ISR.c
          ValueUpdateFlag   0x000812       data     extern D:\git\testing79m\Singcom\Drivers\lcd.c
                   WDTCON   0x000fd1       data     extern C:\MCC18\src\traditional\proc\p18F97J60.asm
               WDTCONbits   0x000fd1       data     extern C:\MCC18\src\traditional\proc\p18F97J60.asm
                     WREG   0x000fe8       data     extern C:\MCC18\src\traditional\proc\p18F97J60.asm
             WasDiscarded   0x00044b       data     static D:\git\testing79m\Microchip\TCPIP Stack\ETH97J60.c
      WebpageWriteI2CFlag   0x000470       data     extern D:\git\testing79m\App\WebUI\HTTPGetDevInfo.c
              _Identifier   0x00046d       data     static D:\git\testing79m\Microchip\TCPIP Stack\IP.c
                 __AARGB0   0x000021       data     extern C:\Program Files\mcc18\src\traditional\math\aarg.asm
                 __AARGB1   0x000020       data     extern C:\Program Files\mcc18\src\traditional\math\aarg.asm
                 __AARGB2   0x00001f       data     extern C:\Program Files\mcc18\src\traditional\math\aarg.asm
                 __AARGB3   0x00001e       data     extern C:\Program Files\mcc18\src\traditional\math\aarg.asm
                 __AARGB4   0x00001d       data     extern C:\Program Files\mcc18\src\traditional\math\aarg.asm
                 __AARGB5   0x00001c       data     extern C:\Program Files\mcc18\src\traditional\math\aarg.asm
                 __AARGB6   0x00001b       data     extern C:\Program Files\mcc18\src\traditional\math\aarg.asm
                 __AARGB7   0x00001a       data     extern C:\Program Files\mcc18\src\traditional\math\aarg.asm
                   __AEXP   0x000022       data     extern C:\Program Files\mcc18\src\traditional\math\aarg.asm
                 __BARGB0   0x000026       data     extern C:\Program Files\mcc18\src\traditional\math\barg.asm
                 __BARGB1   0x000025       data     extern C:\Program Files\mcc18\src\traditional\math\barg.asm
                 __BARGB2   0x000024       data     extern C:\Program Files\mcc18\src\traditional\math\barg.asm
                 __BARGB3   0x000023       data     extern C:\Program Files\mcc18\src\traditional\math\barg.asm
                   __BEXP   0x000027       data     extern C:\Program Files\mcc18\src\traditional\math\barg.asm
                __FPFLAGS   0x000019       data     extern C:\Program Files\mcc18\src\traditional\math\cmath18.asm
            __FPFLAGSbits   0x000019       data     extern C:\Program Files\mcc18\src\traditional\math\cmath18.asm
                  __REMB0   0x00001d       data     extern C:\Program Files\mcc18\src\traditional\math\aarg.asm
                  __REMB1   0x00001c       data     extern C:\Program Files\mcc18\src\traditional\math\aarg.asm
                  __REMB2   0x00001b       data     extern C:\Program Files\mcc18\src\traditional\math\aarg.asm
                  __REMB3   0x00001a       data     extern C:\Program Files\mcc18\src\traditional\math\aarg.asm
                   __TEMP   0x00002b       data     extern C:\Program Files\mcc18\src\traditional\math\temparg.asm
                 __TEMPB0   0x00002b       data     extern C:\Program Files\mcc18\src\traditional\math\temparg.asm
                 __TEMPB1   0x00002a       data     extern C:\Program Files\mcc18\src\traditional\math\temparg.asm
                 __TEMPB2   0x000029       data     extern C:\Program Files\mcc18\src\traditional\math\temparg.asm
                 __TEMPB3   0x000028       data     extern C:\Program Files\mcc18\src\traditional\math\temparg.asm
                  __tmp_0   0x000000       data     static C:\MCC18\src\pmc_common\ADC\adcopen.c
                  __tmp_0   0x000000       data     static C:\Program Files\mcc18\src\traditional\stdclib\sprintf.c
                  __tmp_0   0x000000       data     static C:\Program Files\mcc18\src\traditional\stdclib\vfprintf.c
                  __tmp_0   0x000000       data     static C:\Program Files\mcc18\src\traditional\stdclib\putc.c
                  __tmp_0   0x000000       data     static D:\git\testing79m\Microchip\TCPIP Stack\HTTP2.c
                  __tmp_0   0x000000       data     static D:\git\testing79m\App\WebUI\HTTPPrint.c
                  __tmp_0   0x000000       data     static D:\git\testing79m\App\WebUI\HTTPGetDevInfo.c
                  __tmp_0   0x000000       data     static D:\git\testing79m\Main\Main.c
                  __tmp_0   0x000000       data     static D:\git\testing79m\Singcom\Devices\UpConverter_c1.c
                  __tmp_0   0x000000       data     static D:\git\testing79m\Singcom\Devices\MainControl_c1.c
                  __tmp_0   0x000000       data     static D:\git\testing79m\Microchip\TCPIP Stack\MPFS2.c
                  __tmp_0   0x000000       data     static D:\git\testing79m\Microchip\TCPIP Stack\ICMP.c
                  __tmp_0   0x000000       data     static D:\git\testing79m\Microchip\TCPIP Stack\Helpers.c
                  __tmp_0   0x000000       data     static D:\git\testing79m\Singcom\Drivers\lcd.c
                  __tmp_0   0x000000       data     static D:\git\testing79m\Singcom\Drivers\oled_c1.c
                  __tmp_0   0x000000       data     static D:\git\testing79m\Singcom\Drivers\i2c_c1.c
                  __tmp_0   0x000000       data     static D:\git\testing79m\Microchip\TCPIP Stack\IP.c
                  __tmp_0   0x000000       data     static D:\git\testing79m\Microchip\TCPIP Stack\ETH97J60.c
                  __tmp_0   0x000000       data     static D:\git\testing79m\Microchip\TCPIP Stack\ARP.c
                  __tmp_0   0x000000       data     static D:\git\testing79m\Microchip\TCPIP Stack\TCP.c
                  __tmp_0   0x000000       data     static D:\git\testing79m\App\WebUI\HTTPApp.c
                  __tmp_0   0x000000       data     static D:\git\testing79m\Microchip\TCPIP Stack\SPIEEPROM.c
                  __tmp_0   0x000000       data     static D:\git\testing79m\Microchip\TCPIP Stack\StackTsk.c
                  __tmp_0   0x000000       data     static D:\git\testing79m\Bootstrap\Initialization.c
                  __tmp_0   0x000000       data     static D:\git\testing79m\SysLib\util.c
                  __tmp_0   0x000000       data     static D:\git\testing79m\Drivers\MCU-Internal\devspi.c
                  __tmp_0   0x000000       data     static D:\git\testing79m\Drivers\External-Peripherals\devadc.c
                  __tmp_0   0x000000       data     static D:\git\testing79m\Drivers\MCU-Internal\internalADC.c
                    ctemp   0x0001f6       data     extern D:\git\testing79m\Main\Main.c
                  curHTTP   0x000060       data     extern D:\git\testing79m\Microchip\TCPIP Stack\HTTP2.c
                curHTTPID   0x0000e3       data     extern D:\git\testing79m\Microchip\TCPIP Stack\HTTP2.c
                curr_byte   0x0002f7       data     static C:\Program Files\mcc18\src\traditional\startup\c018iz.c
               curr_entry   0x0002f9       data     static C:\Program Files\mcc18\src\traditional\startup\c018iz.c
                 data_ptr   0x0002fb       data     static C:\Program Files\mcc18\src\traditional\startup\c018iz.c
          dwInternalTicks   0x000465       data     static D:\git\testing79m\Microchip\TCPIP Stack\Tick.c
                 dwLastIP   0x000461       data     extern D:\git\testing79m\SysLib\util.c
                 fatCache   0x000e51       data     static D:\git\testing79m\Microchip\TCPIP Stack\MPFS2.c
               fatCacheID   0x000e67       data     static D:\git\testing79m\Microchip\TCPIP Stack\MPFS2.c
         global_char_temp   0x0009ee       data     extern D:\git\testing79m\App\WebUI\HTTPPrint.c
              hCurrentTCP   0x00046b       data     static D:\git\testing79m\Microchip\TCPIP Stack\TCP.c
                 hLastTCB   0x00046c       data     static D:\git\testing79m\Microchip\TCPIP Stack\TCP.c
                   hMPFS1   0x0009ff       data     extern D:\git\testing79m\SysLib\util.c
                httpStubs   0x0000df       data     extern D:\git\testing79m\Microchip\TCPIP Stack\HTTP2.c
             isMPFSLocked   0x000e50       data     static D:\git\testing79m\Microchip\TCPIP Stack\MPFS2.c
               keypad_tmr   0x0000f3       data     static D:\git\testing79m\Main\Main.c
              lastFailure   0x000472       data     extern D:\git\testing79m\App\WebUI\HTTPApp.c
                 lastRead   0x000e6b       data     extern D:\git\testing79m\Microchip\TCPIP Stack\MPFS2.c
              lastSuccess   0x000471       data     extern D:\git\testing79m\App\WebUI\HTTPApp.c
                lcd_timer   0x0000ef       data     static D:\git\testing79m\Main\Main.c
                    myRef   0x000454       data     extern D:\git\testing79m\App\SNMP\SNMPLLiBUCDevInfo.c
                     newp   0x000386       data     extern D:\git\testing79m\App\WebUI\HTTPGetDevInfo.c
                 numFiles   0x000e69       data     static D:\git\testing79m\Microchip\TCPIP Stack\MPFS2.c
                     oend   0x0001f5       data     extern D:\git\testing79m\Main\Main.c
                     oldp   0x00037c       data     extern D:\git\testing79m\App\WebUI\HTTPGetDevInfo.c
                   ostart   0x0001f4       data     extern D:\git\testing79m\Main\Main.c
                     prom   0x0002f4       data     static C:\Program Files\mcc18\src\traditional\startup\c018iz.c
                 readflag   0x00092d       data     extern D:\git\testing79m\Singcom\Drivers\lcd.c
               remoteNode   0x0002e0       data     extern D:\git\testing79m\Microchip\TCPIP Stack\StackTsk.c
                      rep   0x000390       data     extern D:\git\testing79m\App\WebUI\HTTPGetDevInfo.c
                   s18VDC   0x00099a       data     extern D:\git\testing79m\Main\Global.c
                   s24VDC   0x00099e       data     extern D:\git\testing79m\Main\Global.c
                    sALCa   0x0009d2       data     extern D:\git\testing79m\Main\Global.c
                    sALCb   0x0009d6       data     extern D:\git\testing79m\Main\Global.c
                  sBUCREF   0x0009a6       data     extern D:\git\testing79m\Main\Global.c
                 sDCPower   0x0009b4       data     extern D:\git\testing79m\Main\Global.c
               sDNC_StPwr   0x0009c8       data     extern D:\git\testing79m\Main\Global.c
                  sLNBREF   0x0009a2       data     extern D:\git\testing79m\Main\Global.c
                   sMutea   0x0009da       data     extern D:\git\testing79m\Main\Global.c
                   sMuteb   0x0009e3       data     extern D:\git\testing79m\Main\Global.c
                 sUCPower   0x0009aa       data     extern D:\git\testing79m\Main\Global.c
               sUPC_StPwr   0x0009be       data     extern D:\git\testing79m\Main\Global.c
                    smARP   0x0003ff       data     static D:\git\testing79m\Microchip\TCPIP Stack\ARP.c
                  smStack   0x0002df       data     static D:\git\testing79m\Microchip\TCPIP Stack\StackTsk.c
              stConverter   0x0001a8       data     extern D:\git\testing79m\Main\Main.c
               stI2CDCMsg   0x000431       data     extern D:\git\testing79m\Singcom\Devices\DownConverter_c1.c
              stI2CREFMsg   0x00043d       data     extern D:\git\testing79m\Singcom\Devices\DownConverter_c1.c
               stI2CUCMsg   0x000425       data     extern D:\git\testing79m\Singcom\Devices\DownConverter_c1.c
              systeminfo1   0x000300       data     extern D:\git\testing79m\Main\Main.c
              systeminfo2   0x00029f       data     extern D:\git\testing79m\Main\Main.c
                tempvalue   0x0009fe       data     extern D:\git\testing79m\SysLib\util.c
            tiDisplay_tmr   0x000931       data     static D:\git\testing79m\Singcom\Drivers\lcd.c
                 toRotate   0x00045d       data     extern D:\git\testing79m\Microchip\TCPIP Stack\Helpers.c
                  u8Index   0x00092f       data     static D:\git\testing79m\Singcom\Drivers\lcd.c
                  u8Index   0x00092e       data     static D:\git\testing79m\Singcom\Drivers\lcd.c
           vBytesInBuffer   0x000424       data     static D:\git\testing79m\Microchip\TCPIP Stack\SPIEEPROM.c
             vTickReading   0x00044e       data     static D:\git\testing79m\Microchip\TCPIP Stack\Tick.c
              vUARTRXFIFO   0x000f00       data     static D:\git\testing79m\Microchip\TCPIP Stack\UART2TCPBridge.c
              vUARTTXFIFO   0x000f41       data     static D:\git\testing79m\Microchip\TCPIP Stack\UART2TCPBridge.c
              wTXWatchdog   0x00044c       data     static D:\git\testing79m\Microchip\TCPIP Stack\ETH97J60.c
              webPass_tmr   0x0000eb       data     static D:\git\testing79m\Main\Main.c
              webpassinfo   0x000f52       data     extern D:\git\testing79m\App\WebUI\HTTPApp.c
                    zeros   0x000805       data     extern D:\git\testing79m\Singcom\Drivers\lcd.c



                              Symbols - Sorted by Address
                     Name    Address   Location    Storage File                     
                ---------  ---------  ---------  --------- ---------                
                   _entry   0x000000    program     extern C:\Program Files\mcc18\src\traditional\startup\c018iz.c
       ___return_lbl00000   0x000004    program     static                          
               HighVector   0x000008    program     extern D:\git\testing79m\Drivers\MCU-Internal\ISR.c
       ___return_lbl00020   0x00000c    program     static                          
                LowVector   0x000018    program     extern D:\git\testing79m\Drivers\MCU-Internal\ISR.c
       ___return_lbl00019   0x00001c    program     static                          
              SyncTCBStub   0x0000c8    program     static D:\git\testing79m\Microchip\TCPIP Stack\TCP.c
                  SyncTCB   0x000132    program     static D:\git\testing79m\Microchip\TCPIP Stack\TCP.c
                  TCPInit   0x0001b0    program     extern D:\git\testing79m\Microchip\TCPIP Stack\TCP.c
                  TCPOpen   0x000360    program     extern D:\git\testing79m\Microchip\TCPIP Stack\TCP.c
              TCPWasReset   0x000494    program     extern D:\git\testing79m\Microchip\TCPIP Stack\TCP.c
           TCPIsConnected   0x0004aa    program     extern D:\git\testing79m\Microchip\TCPIP Stack\TCP.c
            TCPDisconnect   0x0004c0    program     extern D:\git\testing79m\Microchip\TCPIP Stack\TCP.c
                 TCPClose   0x00053c    program     extern D:\git\testing79m\Microchip\TCPIP Stack\TCP.c
         TCPGetRemoteInfo   0x000550    program     extern D:\git\testing79m\Microchip\TCPIP Stack\TCP.c
                 TCPFlush   0x00058a    program     extern D:\git\testing79m\Microchip\TCPIP Stack\TCP.c
            TCPIsPutReady   0x0005a6    program     extern D:\git\testing79m\Microchip\TCPIP Stack\TCP.c
                   TCPPut   0x00060c    program     extern D:\git\testing79m\Microchip\TCPIP Stack\TCP.c
              TCPPutArray   0x00069a    program     extern D:\git\testing79m\Microchip\TCPIP Stack\TCP.c
           TCPPutROMArray   0x00073e    program     extern D:\git\testing79m\Microchip\TCPIP Stack\TCP.c
             TCPPutString   0x0007f0    program     extern D:\git\testing79m\Microchip\TCPIP Stack\TCP.c
          TCPPutROMString   0x000850    program     extern D:\git\testing79m\Microchip\TCPIP Stack\TCP.c
         TCPGetTxFIFOFull   0x0008ba    program     extern D:\git\testing79m\Microchip\TCPIP Stack\TCP.c
               TCPDiscard   0x0008e2    program     extern D:\git\testing79m\Microchip\TCPIP Stack\TCP.c
            TCPIsGetReady   0x000904    program     extern D:\git\testing79m\Microchip\TCPIP Stack\TCP.c
                   TCPGet   0x00094a    program     extern D:\git\testing79m\Microchip\TCPIP Stack\TCP.c
              TCPGetArray   0x0009b6    program     extern D:\git\testing79m\Microchip\TCPIP Stack\TCP.c
         TCPGetRxFIFOFree   0x000aee    program     extern D:\git\testing79m\Microchip\TCPIP Stack\TCP.c
             TCPPeekArray   0x000b16    program     extern D:\git\testing79m\Microchip\TCPIP Stack\TCP.c
                  TCPPeek   0x000c46    program     extern D:\git\testing79m\Microchip\TCPIP Stack\TCP.c
           TCPFindArrayEx   0x000c72    program     extern D:\git\testing79m\Microchip\TCPIP Stack\TCP.c
        TCPFindROMArrayEx   0x000ef0    program     extern D:\git\testing79m\Microchip\TCPIP Stack\TCP.c
                TCPFindEx   0x001140    program     extern D:\git\testing79m\Microchip\TCPIP Stack\TCP.c
                  TCPTick   0x001176    program     extern D:\git\testing79m\Microchip\TCPIP Stack\TCP.c
               TCPProcess   0x00154a    program     extern D:\git\testing79m\Microchip\TCPIP Stack\TCP.c
                  SendTCP   0x0016a4    program     static D:\git\testing79m\Microchip\TCPIP Stack\TCP.c
       FindMatchingSocket   0x001c0a    program     static D:\git\testing79m\Microchip\TCPIP Stack\TCP.c
            SwapTCPHeader   0x001ea8    program     static D:\git\testing79m\Microchip\TCPIP Stack\TCP.c
              CloseSocket   0x001f24    program     static D:\git\testing79m\Microchip\TCPIP Stack\TCP.c
             HandleTCPSeg   0x001fa2    program     static D:\git\testing79m\Microchip\TCPIP Stack\TCP.c
             __tmplbl_157   0x002a1c    program     static                          
             __tmplbl_155   0x002a1c    program     static                          
             __tmplbl_174   0x002a22    program     static                          
             __tmplbl_167   0x002a2a    program     static                          
             __tmplbl_166   0x002a2a    program     static                          
             __tmplbl_158   0x002a2a    program     static                          
             __tmplbl_164   0x002a2a    program     static                          
        TCPAdjustFIFOSize   0x002a38    program     extern D:\git\testing79m\Microchip\TCPIP Stack\TCP.c
               TCPRAMCopy   0x002bf2    program     static D:\git\testing79m\Microchip\TCPIP Stack\TCP.c
            TCPRAMCopyROM   0x002c80    program     static D:\git\testing79m\Microchip\TCPIP Stack\TCP.c
                   __pa_0   0x002d60    program     static D:\git\testing79m\Microchip\TCPIP Stack\TCP.c
                   __pa_1   0x002d88    program     static D:\git\testing79m\Microchip\TCPIP Stack\TCP.c
                   __pa_2   0x002d96    program     static D:\git\testing79m\Microchip\TCPIP Stack\TCP.c
             __tmplbl_100   0x002da4    program     static                          
             __tmplbl_101   0x002da4    program     static                          
             __tmplbl_102   0x002da4    program     static                          
             __tmplbl_103   0x002da4    program     static                          
                   __pa_3   0x002da4    program     static D:\git\testing79m\Microchip\TCPIP Stack\TCP.c
             __tmplbl_104   0x002da4    program     static                          
             __tmplbl_106   0x002da4    program     static                          
              __tmplbl_99   0x002da4    program     static                          
              __tmplbl_97   0x002da4    program     static                          
             __tmplbl_130   0x002da4    program     static                          
              __tmplbl_95   0x002da4    program     static                          
             __tmplbl_131   0x002da4    program     static                          
             __tmplbl_148   0x002da4    program     static                          
              __tmplbl_93   0x002da4    program     static                          
              __tmplbl_92   0x002da4    program     static                          
              __tmplbl_91   0x002da4    program     static                          
              __tmplbl_90   0x002da4    program     static                          
              __tmplbl_89   0x002da4    program     static                          
             __tmplbl_151   0x002da4    program     static                          
             __tmplbl_152   0x002da4    program     static                          
              __tmplbl_88   0x002da4    program     static                          
              __tmplbl_87   0x002da4    program     static                          
              __tmplbl_85   0x002da4    program     static                          
              __tmplbl_81   0x002da4    program     static                          
              __tmplbl_79   0x002da4    program     static                          
             __tmplbl_108   0x002da4    program     static                          
             __tmplbl_109   0x002da4    program     static                          
             __tmplbl_110   0x002da4    program     static                          
             __tmplbl_111   0x002da4    program     static                          
             __tmplbl_114   0x002da4    program     static                          
             __tmplbl_117   0x002da4    program     static                          
             __tmplbl_118   0x002da4    program     static                          
                   __pa_4   0x002db0    program     static D:\git\testing79m\Microchip\TCPIP Stack\TCP.c
                   __pa_5   0x002dba    program     static D:\git\testing79m\Microchip\TCPIP Stack\TCP.c
                   __pa_6   0x002e4e    program     static D:\git\testing79m\Microchip\TCPIP Stack\TCP.c
                   __pa_7   0x002e5a    program     static D:\git\testing79m\Microchip\TCPIP Stack\TCP.c
                   __pa_8   0x002e7c    program     static D:\git\testing79m\Microchip\TCPIP Stack\TCP.c
                   __pa_9   0x002ea4    program     static D:\git\testing79m\Microchip\TCPIP Stack\TCP.c
                  __pa_10   0x002eaa    program     static D:\git\testing79m\Microchip\TCPIP Stack\TCP.c
                  __pa_11   0x002ed6    program     static D:\git\testing79m\Microchip\TCPIP Stack\TCP.c
                  __pa_12   0x002ede    program     static D:\git\testing79m\Microchip\TCPIP Stack\TCP.c
                  __pa_13   0x002ee6    program     static D:\git\testing79m\Microchip\TCPIP Stack\TCP.c
                  __pa_14   0x002ef2    program     static D:\git\testing79m\Microchip\TCPIP Stack\TCP.c
                  __pa_15   0x002efc    program     static D:\git\testing79m\Microchip\TCPIP Stack\TCP.c
                  __pa_16   0x002f06    program     static D:\git\testing79m\Microchip\TCPIP Stack\TCP.c
                  __pa_17   0x002f12    program     static D:\git\testing79m\Microchip\TCPIP Stack\TCP.c
                  __pa_18   0x002f20    program     static D:\git\testing79m\Microchip\TCPIP Stack\TCP.c
                  __pa_19   0x002f2a    program     static D:\git\testing79m\Microchip\TCPIP Stack\TCP.c
                  __pa_20   0x002f46    program     static D:\git\testing79m\Microchip\TCPIP Stack\TCP.c
                  __pa_21   0x002f52    program     static D:\git\testing79m\Microchip\TCPIP Stack\TCP.c
                  __pa_22   0x002f60    program     static D:\git\testing79m\Microchip\TCPIP Stack\TCP.c
                  __pa_23   0x002f7e    program     static D:\git\testing79m\Microchip\TCPIP Stack\TCP.c
                  __pa_24   0x002f88    program     static D:\git\testing79m\Microchip\TCPIP Stack\TCP.c
                  __pa_25   0x002f92    program     static D:\git\testing79m\Microchip\TCPIP Stack\TCP.c
                  __pa_26   0x002f9e    program     static D:\git\testing79m\Microchip\TCPIP Stack\TCP.c
                  __pa_27   0x002fb4    program     static D:\git\testing79m\Microchip\TCPIP Stack\TCP.c
                  __pa_28   0x002fc2    program     static D:\git\testing79m\Microchip\TCPIP Stack\TCP.c
                  __pa_29   0x002fd0    program     static D:\git\testing79m\Microchip\TCPIP Stack\TCP.c
                  __pa_30   0x002fde    program     static D:\git\testing79m\Microchip\TCPIP Stack\TCP.c
                  __pa_31   0x002fea    program     static D:\git\testing79m\Microchip\TCPIP Stack\TCP.c
                  __pa_32   0x002ff2    program     static D:\git\testing79m\Microchip\TCPIP Stack\TCP.c
                  __pa_33   0x00301c    program     static D:\git\testing79m\Microchip\TCPIP Stack\TCP.c
                  __pa_34   0x003030    program     static D:\git\testing79m\Microchip\TCPIP Stack\TCP.c
                  __pa_35   0x00304c    program     static D:\git\testing79m\Microchip\TCPIP Stack\TCP.c
                  __pa_36   0x003066    program     static D:\git\testing79m\Microchip\TCPIP Stack\TCP.c
                  __pa_37   0x00306e    program     static D:\git\testing79m\Microchip\TCPIP Stack\TCP.c
                  __pa_38   0x00307e    program     static D:\git\testing79m\Microchip\TCPIP Stack\TCP.c
                  __pa_39   0x00308e    program     static D:\git\testing79m\Microchip\TCPIP Stack\TCP.c
                  __pa_40   0x00309c    program     static D:\git\testing79m\Microchip\TCPIP Stack\TCP.c
                  __pa_41   0x0030b8    program     static D:\git\testing79m\Microchip\TCPIP Stack\TCP.c
                  __pa_42   0x0030c0    program     static D:\git\testing79m\Microchip\TCPIP Stack\TCP.c
                  __pa_43   0x0030d8    program     static D:\git\testing79m\Microchip\TCPIP Stack\TCP.c
                  __pa_44   0x0030ea    program     static D:\git\testing79m\Microchip\TCPIP Stack\TCP.c
                  __pa_45   0x0030f4    program     static D:\git\testing79m\Microchip\TCPIP Stack\TCP.c
                  __pa_46   0x003106    program     static D:\git\testing79m\Microchip\TCPIP Stack\TCP.c
                  __pa_47   0x00312c    program     static D:\git\testing79m\Microchip\TCPIP Stack\TCP.c
                  __pa_48   0x00314a    program     static D:\git\testing79m\Microchip\TCPIP Stack\TCP.c
                  __pa_49   0x00316a    program     static D:\git\testing79m\Microchip\TCPIP Stack\TCP.c
                  __pa_50   0x003180    program     static D:\git\testing79m\Microchip\TCPIP Stack\TCP.c
                  __pa_51   0x003196    program     static D:\git\testing79m\Microchip\TCPIP Stack\TCP.c
                  __pa_52   0x0031a2    program     static D:\git\testing79m\Microchip\TCPIP Stack\TCP.c
                  __pa_53   0x0031b0    program     static D:\git\testing79m\Microchip\TCPIP Stack\TCP.c
                  __pa_54   0x0031b8    program     static D:\git\testing79m\Microchip\TCPIP Stack\TCP.c
                  __pa_55   0x0031c6    program     static D:\git\testing79m\Microchip\TCPIP Stack\TCP.c
                  __pa_56   0x0031d4    program     static D:\git\testing79m\Microchip\TCPIP Stack\TCP.c
                  __pa_57   0x0031de    program     static D:\git\testing79m\Microchip\TCPIP Stack\TCP.c
                  __pa_58   0x0031fc    program     static D:\git\testing79m\Microchip\TCPIP Stack\TCP.c
                  __pa_59   0x003220    program     static D:\git\testing79m\Microchip\TCPIP Stack\TCP.c
                  __pa_60   0x003230    program     static D:\git\testing79m\Microchip\TCPIP Stack\TCP.c
                  __pa_61   0x00323a    program     static D:\git\testing79m\Microchip\TCPIP Stack\TCP.c
                  __pa_62   0x003244    program     static D:\git\testing79m\Microchip\TCPIP Stack\TCP.c
                  __pa_63   0x003264    program     static D:\git\testing79m\Microchip\TCPIP Stack\TCP.c
                  __pa_64   0x00327a    program     static D:\git\testing79m\Microchip\TCPIP Stack\TCP.c
                  __pa_65   0x00328e    program     static D:\git\testing79m\Microchip\TCPIP Stack\TCP.c
                  __pa_66   0x0032a4    program     static D:\git\testing79m\Microchip\TCPIP Stack\TCP.c
                  __pa_67   0x0032c2    program     static D:\git\testing79m\Microchip\TCPIP Stack\TCP.c
                  __pa_68   0x0032d8    program     static D:\git\testing79m\Microchip\TCPIP Stack\TCP.c
                  __pa_69   0x0032e6    program     static D:\git\testing79m\Microchip\TCPIP Stack\TCP.c
                  __pa_70   0x0032f8    program     static D:\git\testing79m\Microchip\TCPIP Stack\TCP.c
                  __pa_71   0x00330a    program     static D:\git\testing79m\Microchip\TCPIP Stack\TCP.c
                  __pa_72   0x00331c    program     static D:\git\testing79m\Microchip\TCPIP Stack\TCP.c
                  __pa_73   0x00332e    program     static D:\git\testing79m\Microchip\TCPIP Stack\TCP.c
                  __pa_74   0x003338    program     static D:\git\testing79m\Microchip\TCPIP Stack\TCP.c
                  __pa_75   0x00334a    program     static D:\git\testing79m\Microchip\TCPIP Stack\TCP.c
                  __pa_76   0x003354    program     static D:\git\testing79m\Microchip\TCPIP Stack\TCP.c
                  __pa_77   0x003362    program     static D:\git\testing79m\Microchip\TCPIP Stack\TCP.c
                  __pa_78   0x003370    program     static D:\git\testing79m\Microchip\TCPIP Stack\TCP.c
                  __pa_79   0x00337e    program     static D:\git\testing79m\Microchip\TCPIP Stack\TCP.c
                  __pa_80   0x00338c    program     static D:\git\testing79m\Microchip\TCPIP Stack\TCP.c
                  __pa_81   0x003394    program     static D:\git\testing79m\Microchip\TCPIP Stack\TCP.c
                  __pa_82   0x0033a0    program     static D:\git\testing79m\Microchip\TCPIP Stack\TCP.c
                  __pa_83   0x0033aa    program     static D:\git\testing79m\Microchip\TCPIP Stack\TCP.c
                  __pa_84   0x0033b4    program     static D:\git\testing79m\Microchip\TCPIP Stack\TCP.c
                  __pa_85   0x0033be    program     static D:\git\testing79m\Microchip\TCPIP Stack\TCP.c
                  __pa_86   0x0033c8    program     static D:\git\testing79m\Microchip\TCPIP Stack\TCP.c
                  __pa_87   0x0033d8    program     static D:\git\testing79m\Microchip\TCPIP Stack\TCP.c
                  __pa_88   0x0033e6    program     static D:\git\testing79m\Microchip\TCPIP Stack\TCP.c
                  __pa_89   0x003400    program     static D:\git\testing79m\Microchip\TCPIP Stack\TCP.c
                  __pa_90   0x003408    program     static D:\git\testing79m\Microchip\TCPIP Stack\TCP.c
                  __pa_91   0x003412    program     static D:\git\testing79m\Microchip\TCPIP Stack\TCP.c
                  __pa_92   0x00341c    program     static D:\git\testing79m\Microchip\TCPIP Stack\TCP.c
                  __pa_93   0x003426    program     static D:\git\testing79m\Microchip\TCPIP Stack\TCP.c
                  __pa_94   0x003430    program     static D:\git\testing79m\Microchip\TCPIP Stack\TCP.c
                  __pa_95   0x00343a    program     static D:\git\testing79m\Microchip\TCPIP Stack\TCP.c
                  __pa_96   0x003452    program     static D:\git\testing79m\Microchip\TCPIP Stack\TCP.c
                  __pa_97   0x003460    program     static D:\git\testing79m\Microchip\TCPIP Stack\TCP.c
                  __pa_98   0x003478    program     static D:\git\testing79m\Microchip\TCPIP Stack\TCP.c
                  __pa_99   0x003488    program     static D:\git\testing79m\Microchip\TCPIP Stack\TCP.c
                 __pa_100   0x0034a0    program     static D:\git\testing79m\Microchip\TCPIP Stack\TCP.c
                 __pa_101   0x0034b8    program     static D:\git\testing79m\Microchip\TCPIP Stack\TCP.c
                 __pa_102   0x0034c4    program     static D:\git\testing79m\Microchip\TCPIP Stack\TCP.c
                 __pa_103   0x0034d0    program     static D:\git\testing79m\Microchip\TCPIP Stack\TCP.c
                 __pa_104   0x0034dc    program     static D:\git\testing79m\Microchip\TCPIP Stack\TCP.c
                 __pa_105   0x0034f2    program     static D:\git\testing79m\Microchip\TCPIP Stack\TCP.c
                 __pa_106   0x003502    program     static D:\git\testing79m\Microchip\TCPIP Stack\TCP.c
                 __pa_107   0x003518    program     static D:\git\testing79m\Microchip\TCPIP Stack\TCP.c
                 __pa_108   0x00352e    program     static D:\git\testing79m\Microchip\TCPIP Stack\TCP.c
                 __pa_109   0x00353c    program     static D:\git\testing79m\Microchip\TCPIP Stack\TCP.c
                 __pa_110   0x00354a    program     static D:\git\testing79m\Microchip\TCPIP Stack\TCP.c
                 __pa_111   0x003552    program     static D:\git\testing79m\Microchip\TCPIP Stack\TCP.c
                 __pa_112   0x003560    program     static D:\git\testing79m\Microchip\TCPIP Stack\TCP.c
                 __pa_113   0x003568    program     static D:\git\testing79m\Microchip\TCPIP Stack\TCP.c
                 __pa_114   0x003576    program     static D:\git\testing79m\Microchip\TCPIP Stack\TCP.c
                 __pa_115   0x003584    program     static D:\git\testing79m\Microchip\TCPIP Stack\TCP.c
                 __pa_116   0x003592    program     static D:\git\testing79m\Microchip\TCPIP Stack\TCP.c
                 __pa_117   0x00359c    program     static D:\git\testing79m\Microchip\TCPIP Stack\TCP.c
                 __pa_118   0x0035a6    program     static D:\git\testing79m\Microchip\TCPIP Stack\TCP.c
                 __pa_119   0x0035b0    program     static D:\git\testing79m\Microchip\TCPIP Stack\TCP.c
                 __pa_120   0x0035ba    program     static D:\git\testing79m\Microchip\TCPIP Stack\TCP.c
                 __pa_121   0x0035c4    program     static D:\git\testing79m\Microchip\TCPIP Stack\TCP.c
                 __pa_122   0x0035cc    program     static D:\git\testing79m\Microchip\TCPIP Stack\TCP.c
                 __pa_123   0x0035e0    program     static D:\git\testing79m\Microchip\TCPIP Stack\TCP.c
                 __pa_124   0x0035f4    program     static D:\git\testing79m\Microchip\TCPIP Stack\TCP.c
                 __pa_125   0x003608    program     static D:\git\testing79m\Microchip\TCPIP Stack\TCP.c
                 __pa_126   0x003610    program     static D:\git\testing79m\Microchip\TCPIP Stack\TCP.c
                 __pa_127   0x00361a    program     static D:\git\testing79m\Microchip\TCPIP Stack\TCP.c
                 __pa_128   0x00362c    program     static D:\git\testing79m\Microchip\TCPIP Stack\TCP.c
                 __pa_129   0x00363e    program     static D:\git\testing79m\Microchip\TCPIP Stack\TCP.c
                 __pa_130   0x003650    program     static D:\git\testing79m\Microchip\TCPIP Stack\TCP.c
                 __pa_131   0x003662    program     static D:\git\testing79m\Microchip\TCPIP Stack\TCP.c
                 __pa_132   0x003674    program     static D:\git\testing79m\Microchip\TCPIP Stack\TCP.c
                 __pa_133   0x003686    program     static D:\git\testing79m\Microchip\TCPIP Stack\TCP.c
                 __pa_134   0x003698    program     static D:\git\testing79m\Microchip\TCPIP Stack\TCP.c
                 __pa_135   0x0036aa    program     static D:\git\testing79m\Microchip\TCPIP Stack\TCP.c
                 __pa_136   0x0036bc    program     static D:\git\testing79m\Microchip\TCPIP Stack\TCP.c
                 __pa_137   0x0036c4    program     static D:\git\testing79m\Microchip\TCPIP Stack\TCP.c
                 __pa_138   0x0036d2    program     static D:\git\testing79m\Microchip\TCPIP Stack\TCP.c
                 __pa_139   0x0036de    program     static D:\git\testing79m\Microchip\TCPIP Stack\TCP.c
                 __pa_140   0x0036ea    program     static D:\git\testing79m\Microchip\TCPIP Stack\TCP.c
                 __pa_141   0x0036f4    program     static D:\git\testing79m\Microchip\TCPIP Stack\TCP.c
                 __pa_142   0x0036fe    program     static D:\git\testing79m\Microchip\TCPIP Stack\TCP.c
                 __pa_143   0x003708    program     static D:\git\testing79m\Microchip\TCPIP Stack\TCP.c
                 __pa_144   0x003718    program     static D:\git\testing79m\Microchip\TCPIP Stack\TCP.c
                 __pa_145   0x003728    program     static D:\git\testing79m\Microchip\TCPIP Stack\TCP.c
                 __pa_146   0x003738    program     static D:\git\testing79m\Microchip\TCPIP Stack\TCP.c
                 __pa_147   0x003748    program     static D:\git\testing79m\Microchip\TCPIP Stack\TCP.c
                 __pa_148   0x003758    program     static D:\git\testing79m\Microchip\TCPIP Stack\TCP.c
                 __pa_149   0x00375e    program     static D:\git\testing79m\Microchip\TCPIP Stack\TCP.c
                 __pa_150   0x00376c    program     static D:\git\testing79m\Microchip\TCPIP Stack\TCP.c
                 __pa_151   0x00377a    program     static D:\git\testing79m\Microchip\TCPIP Stack\TCP.c
                 __pa_152   0x003788    program     static D:\git\testing79m\Microchip\TCPIP Stack\TCP.c
                 __pa_153   0x003796    program     static D:\git\testing79m\Microchip\TCPIP Stack\TCP.c
                 __pa_154   0x0037a4    program     static D:\git\testing79m\Microchip\TCPIP Stack\TCP.c
                 __pa_155   0x0037b2    program     static D:\git\testing79m\Microchip\TCPIP Stack\TCP.c
                 __pa_156   0x0037c0    program     static D:\git\testing79m\Microchip\TCPIP Stack\TCP.c
                 __pa_157   0x0037ce    program     static D:\git\testing79m\Microchip\TCPIP Stack\TCP.c
                 __pa_158   0x0037dc    program     static D:\git\testing79m\Microchip\TCPIP Stack\TCP.c
                 __pa_159   0x0037ea    program     static D:\git\testing79m\Microchip\TCPIP Stack\TCP.c
                 __pa_160   0x0037f8    program     static D:\git\testing79m\Microchip\TCPIP Stack\TCP.c
                 __pa_161   0x003806    program     static D:\git\testing79m\Microchip\TCPIP Stack\TCP.c
                 __pa_162   0x003814    program     static D:\git\testing79m\Microchip\TCPIP Stack\TCP.c
                 __pa_163   0x003822    program     static D:\git\testing79m\Microchip\TCPIP Stack\TCP.c
                 __pa_164   0x003830    program     static D:\git\testing79m\Microchip\TCPIP Stack\TCP.c
                 __pa_165   0x00383a    program     static D:\git\testing79m\Microchip\TCPIP Stack\TCP.c
                 __pa_166   0x003844    program     static D:\git\testing79m\Microchip\TCPIP Stack\TCP.c
                 __pa_167   0x00384e    program     static D:\git\testing79m\Microchip\TCPIP Stack\TCP.c
                 __pa_168   0x003858    program     static D:\git\testing79m\Microchip\TCPIP Stack\TCP.c
                 __pa_169   0x003862    program     static D:\git\testing79m\Microchip\TCPIP Stack\TCP.c
                 __pa_170   0x00386c    program     static D:\git\testing79m\Microchip\TCPIP Stack\TCP.c
                 __pa_171   0x003876    program     static D:\git\testing79m\Microchip\TCPIP Stack\TCP.c
                 __pa_172   0x003880    program     static D:\git\testing79m\Microchip\TCPIP Stack\TCP.c
                 __pa_173   0x003888    program     static D:\git\testing79m\Microchip\TCPIP Stack\TCP.c
                 __pa_174   0x003892    program     static D:\git\testing79m\Microchip\TCPIP Stack\TCP.c
                 __pa_175   0x0038a0    program     static D:\git\testing79m\Microchip\TCPIP Stack\TCP.c
                 __pa_176   0x0038c8    program     static D:\git\testing79m\Microchip\TCPIP Stack\TCP.c
                 __pa_177   0x0038d6    program     static D:\git\testing79m\Microchip\TCPIP Stack\TCP.c
                 __pa_178   0x0038de    program     static D:\git\testing79m\Microchip\TCPIP Stack\TCP.c
                 __pa_179   0x0038e8    program     static D:\git\testing79m\Microchip\TCPIP Stack\TCP.c
                 __pa_180   0x0038f6    program     static D:\git\testing79m\Microchip\TCPIP Stack\TCP.c
                 __pa_181   0x003900    program     static D:\git\testing79m\Microchip\TCPIP Stack\TCP.c
                 __pa_182   0x00390e    program     static D:\git\testing79m\Microchip\TCPIP Stack\TCP.c
                 __pa_183   0x00391a    program     static D:\git\testing79m\Microchip\TCPIP Stack\TCP.c
                 __pa_184   0x003924    program     static D:\git\testing79m\Microchip\TCPIP Stack\TCP.c
                 __pa_185   0x003934    program     static D:\git\testing79m\Microchip\TCPIP Stack\TCP.c
                 __pa_186   0x00393e    program     static D:\git\testing79m\Microchip\TCPIP Stack\TCP.c
                 __pa_187   0x00395c    program     static D:\git\testing79m\Microchip\TCPIP Stack\TCP.c
                 __pa_188   0x003972    program     static D:\git\testing79m\Microchip\TCPIP Stack\TCP.c
                 __pa_189   0x003988    program     static D:\git\testing79m\Microchip\TCPIP Stack\TCP.c
                 __pa_190   0x0039a4    program     static D:\git\testing79m\Microchip\TCPIP Stack\TCP.c
                 __pa_191   0x0039c0    program     static D:\git\testing79m\Microchip\TCPIP Stack\TCP.c
                 __pa_192   0x0039cc    program     static D:\git\testing79m\Microchip\TCPIP Stack\TCP.c
                 __pa_193   0x0039da    program     static D:\git\testing79m\Microchip\TCPIP Stack\TCP.c
                 __pa_194   0x0039e4    program     static D:\git\testing79m\Microchip\TCPIP Stack\TCP.c
                 __pa_195   0x0039ee    program     static D:\git\testing79m\Microchip\TCPIP Stack\TCP.c
                 __pa_196   0x0039f6    program     static D:\git\testing79m\Microchip\TCPIP Stack\TCP.c
                 __pa_197   0x003a00    program     static D:\git\testing79m\Microchip\TCPIP Stack\TCP.c
                 __pa_198   0x003a0a    program     static D:\git\testing79m\Microchip\TCPIP Stack\TCP.c
                 __pa_199   0x003a14    program     static D:\git\testing79m\Microchip\TCPIP Stack\TCP.c
                 __pa_200   0x003a1e    program     static D:\git\testing79m\Microchip\TCPIP Stack\TCP.c
                 __pa_201   0x003a34    program     static D:\git\testing79m\Microchip\TCPIP Stack\TCP.c
                 __pa_202   0x003a40    program     static D:\git\testing79m\Microchip\TCPIP Stack\TCP.c
                 __pa_203   0x003a4c    program     static D:\git\testing79m\Microchip\TCPIP Stack\TCP.c
                 __pa_204   0x003a52    program     static D:\git\testing79m\Microchip\TCPIP Stack\TCP.c
                 __pa_205   0x003a5e    program     static D:\git\testing79m\Microchip\TCPIP Stack\TCP.c
                 __pa_206   0x003a72    program     static D:\git\testing79m\Microchip\TCPIP Stack\TCP.c
                 __pa_207   0x003a86    program     static D:\git\testing79m\Microchip\TCPIP Stack\TCP.c
                 __pa_208   0x003a94    program     static D:\git\testing79m\Microchip\TCPIP Stack\TCP.c
                 __pa_209   0x003a9e    program     static D:\git\testing79m\Microchip\TCPIP Stack\TCP.c
                 __pa_210   0x003aa6    program     static D:\git\testing79m\Microchip\TCPIP Stack\TCP.c
                 __pa_211   0x003ab0    program     static D:\git\testing79m\Microchip\TCPIP Stack\TCP.c
                 __pa_212   0x003aba    program     static D:\git\testing79m\Microchip\TCPIP Stack\TCP.c
                 __pa_213   0x003ac2    program     static D:\git\testing79m\Microchip\TCPIP Stack\TCP.c
                 __pa_214   0x003ad0    program     static D:\git\testing79m\Microchip\TCPIP Stack\TCP.c
                 __pa_215   0x003ada    program     static D:\git\testing79m\Microchip\TCPIP Stack\TCP.c
                 __pa_216   0x003ae6    program     static D:\git\testing79m\Microchip\TCPIP Stack\TCP.c
                 __pa_217   0x003af8    program     static D:\git\testing79m\Microchip\TCPIP Stack\TCP.c
                 __pa_218   0x003afe    program     static D:\git\testing79m\Microchip\TCPIP Stack\TCP.c
                 __pa_219   0x003b06    program     static D:\git\testing79m\Microchip\TCPIP Stack\TCP.c
                 __pa_220   0x003b18    program     static D:\git\testing79m\Microchip\TCPIP Stack\TCP.c
                 __pa_221   0x003b26    program     static D:\git\testing79m\Microchip\TCPIP Stack\TCP.c
                 __pa_222   0x003b30    program     static D:\git\testing79m\Microchip\TCPIP Stack\TCP.c
                 __pa_223   0x003b3a    program     static D:\git\testing79m\Microchip\TCPIP Stack\TCP.c
             __tmplbl_214   0x003b3a    program     static                          
                 __pa_224   0x003b44    program     static D:\git\testing79m\Microchip\TCPIP Stack\TCP.c
                 __pa_225   0x003b4c    program     static D:\git\testing79m\Microchip\TCPIP Stack\TCP.c
                 __pa_226   0x003b56    program     static D:\git\testing79m\Microchip\TCPIP Stack\TCP.c
                 __pa_227   0x003b60    program     static D:\git\testing79m\Microchip\TCPIP Stack\TCP.c
                 __pa_228   0x003b68    program     static D:\git\testing79m\Microchip\TCPIP Stack\TCP.c
                 __pa_229   0x003b72    program     static D:\git\testing79m\Microchip\TCPIP Stack\TCP.c
                 __pa_230   0x003b80    program     static D:\git\testing79m\Microchip\TCPIP Stack\TCP.c
                 __pa_231   0x003b90    program     static D:\git\testing79m\Microchip\TCPIP Stack\TCP.c
                 __pa_232   0x003ba0    program     static D:\git\testing79m\Microchip\TCPIP Stack\TCP.c
                 __pa_233   0x003bae    program     static D:\git\testing79m\Microchip\TCPIP Stack\TCP.c
             __tmplbl_215   0x003bae    program     static                          
                 __pa_234   0x003bbc    program     static D:\git\testing79m\Microchip\TCPIP Stack\TCP.c
                 __pa_235   0x003bc8    program     static D:\git\testing79m\Microchip\TCPIP Stack\TCP.c
                 __pa_236   0x003bd4    program     static D:\git\testing79m\Microchip\TCPIP Stack\TCP.c
                 __pa_237   0x003bde    program     static D:\git\testing79m\Microchip\TCPIP Stack\TCP.c
                 __pa_238   0x003bea    program     static D:\git\testing79m\Microchip\TCPIP Stack\TCP.c
                 __pa_239   0x003bf8    program     static D:\git\testing79m\Microchip\TCPIP Stack\TCP.c
                 __pa_240   0x003c06    program     static D:\git\testing79m\Microchip\TCPIP Stack\TCP.c
                 __pa_241   0x003c14    program     static D:\git\testing79m\Microchip\TCPIP Stack\TCP.c
                 __pa_242   0x003c22    program     static D:\git\testing79m\Microchip\TCPIP Stack\TCP.c
                 __pa_243   0x003c30    program     static D:\git\testing79m\Microchip\TCPIP Stack\TCP.c
                 __pa_244   0x003c3e    program     static D:\git\testing79m\Microchip\TCPIP Stack\TCP.c
                 __pa_245   0x003c4c    program     static D:\git\testing79m\Microchip\TCPIP Stack\TCP.c
                 __pa_246   0x003c5a    program     static D:\git\testing79m\Microchip\TCPIP Stack\TCP.c
                 __pa_247   0x003c68    program     static D:\git\testing79m\Microchip\TCPIP Stack\TCP.c
                 __pa_248   0x003c76    program     static D:\git\testing79m\Microchip\TCPIP Stack\TCP.c
                 __pa_249   0x003c84    program     static D:\git\testing79m\Microchip\TCPIP Stack\TCP.c
                 __pa_250   0x003c92    program     static D:\git\testing79m\Microchip\TCPIP Stack\TCP.c
                 __pa_251   0x003c9a    program     static D:\git\testing79m\Microchip\TCPIP Stack\TCP.c
                 __pa_252   0x003ca4    program     static D:\git\testing79m\Microchip\TCPIP Stack\TCP.c
                 __pa_253   0x003cae    program     static D:\git\testing79m\Microchip\TCPIP Stack\TCP.c
                 __pa_254   0x003cb8    program     static D:\git\testing79m\Microchip\TCPIP Stack\TCP.c
                 __pa_255   0x003cc2    program     static D:\git\testing79m\Microchip\TCPIP Stack\TCP.c
                 __pa_256   0x003cca    program     static D:\git\testing79m\Microchip\TCPIP Stack\TCP.c
                 __pa_257   0x003cd4    program     static D:\git\testing79m\Microchip\TCPIP Stack\TCP.c
                 __pa_258   0x003cde    program     static D:\git\testing79m\Microchip\TCPIP Stack\TCP.c
                 __pa_259   0x003ce8    program     static D:\git\testing79m\Microchip\TCPIP Stack\TCP.c
                 __pa_260   0x003cf2    program     static D:\git\testing79m\Microchip\TCPIP Stack\TCP.c
                 __pa_261   0x003cfa    program     static D:\git\testing79m\Microchip\TCPIP Stack\TCP.c
                 __pa_262   0x003d06    program     static D:\git\testing79m\Microchip\TCPIP Stack\TCP.c
                 __pa_263   0x003d16    program     static D:\git\testing79m\Microchip\TCPIP Stack\TCP.c
                 __pa_264   0x003d20    program     static D:\git\testing79m\Microchip\TCPIP Stack\TCP.c
                 __pa_265   0x003d32    program     static D:\git\testing79m\Microchip\TCPIP Stack\TCP.c
                 __pa_266   0x003d42    program     static D:\git\testing79m\Microchip\TCPIP Stack\TCP.c
                 __pa_267   0x003d50    program     static D:\git\testing79m\Microchip\TCPIP Stack\TCP.c
                 __pa_268   0x003d56    program     static D:\git\testing79m\Microchip\TCPIP Stack\TCP.c
                 __pa_269   0x003d64    program     static D:\git\testing79m\Microchip\TCPIP Stack\TCP.c
                 __pa_270   0x003d6c    program     static D:\git\testing79m\Microchip\TCPIP Stack\TCP.c
                 __pa_271   0x003d76    program     static D:\git\testing79m\Microchip\TCPIP Stack\TCP.c
                 __pa_272   0x003d7e    program     static D:\git\testing79m\Microchip\TCPIP Stack\TCP.c
                 __pa_273   0x003d86    program     static D:\git\testing79m\Microchip\TCPIP Stack\TCP.c
                 __pa_274   0x003d92    program     static D:\git\testing79m\Microchip\TCPIP Stack\TCP.c
                 __pa_275   0x003d9e    program     static D:\git\testing79m\Microchip\TCPIP Stack\TCP.c
                 __pa_276   0x003daa    program     static D:\git\testing79m\Microchip\TCPIP Stack\TCP.c
             __tmplbl_213   0x003db6    program     static                          
                 __pa_277   0x003db6    program     static D:\git\testing79m\Microchip\TCPIP Stack\TCP.c
                 __pa_278   0x003dc2    program     static D:\git\testing79m\Microchip\TCPIP Stack\TCP.c
                 __pa_279   0x003dca    program     static D:\git\testing79m\Microchip\TCPIP Stack\TCP.c
                 __pa_280   0x003dd2    program     static D:\git\testing79m\Microchip\TCPIP Stack\TCP.c
                 __pa_281   0x003dda    program     static D:\git\testing79m\Microchip\TCPIP Stack\TCP.c
                 __pa_282   0x003de2    program     static D:\git\testing79m\Microchip\TCPIP Stack\TCP.c
                 __pa_283   0x003dec    program     static D:\git\testing79m\Microchip\TCPIP Stack\TCP.c
                 __pa_284   0x003df4    program     static D:\git\testing79m\Microchip\TCPIP Stack\TCP.c
             __tmplbl_216   0x003df4    program     static                          
                 __pa_285   0x003dfc    program     static D:\git\testing79m\Microchip\TCPIP Stack\TCP.c
                 __pa_286   0x003e04    program     static D:\git\testing79m\Microchip\TCPIP Stack\TCP.c
                 __pa_287   0x003e0c    program     static D:\git\testing79m\Microchip\TCPIP Stack\TCP.c
 SYS__u8UpdateUpConverter   0x003e16    program     static D:\git\testing79m\Singcom\Drivers\lcd.c
SYS__u8UpdateDownConverter   0x004194    program     static D:\git\testing79m\Singcom\Drivers\lcd.c
         SYS__u8UpdateVOL   0x004522    program     static D:\git\testing79m\Singcom\Drivers\lcd.c
             UpdateStatus   0x0047ca    program     extern D:\git\testing79m\Singcom\Drivers\lcd.c
      UpdateDataModuleSys   0x0047f4    program     extern D:\git\testing79m\Singcom\Drivers\lcd.c
        UpdateDataMenuSys   0x00481e    program     extern D:\git\testing79m\Singcom\Drivers\lcd.c
            KeyProcessing   0x004952    program     extern D:\git\testing79m\Singcom\Drivers\lcd.c
          LCDMenuInScreen   0x004f02    program     extern D:\git\testing79m\Singcom\Drivers\lcd.c
     PrintLCDEditPosition   0x004fcc    program     extern D:\git\testing79m\Singcom\Drivers\lcd.c
                 PrintLCD   0x005052    program     extern D:\git\testing79m\Singcom\Drivers\lcd.c
             __tmplbl_133   0x0050a2    program     static                          
        ___while_lbl00303   0x00516a    program     static                          
        ___while_lbl00304   0x00529c    program     static                          
           ___if_lbl00305   0x0053e6    program     static                          
          ___for_lbl00308   0x005408    program     static                          
          ___for_lbl00306   0x00542c    program     static                          
          ___for_lbl00307   0x005430    program     static                          
         ___else_lbl00313   0x005432    program     static                          
          ___for_lbl00311   0x00544c    program     static                          
          ___for_lbl00309   0x00547c    program     static                          
          ___for_lbl00310   0x005480    program     static                          
           ___if_lbl00312   0x005480    program     static                          
         ___else_lbl00315   0x0054aa    program     static                          
           ___if_lbl00316   0x0054ca    program     static                          
           ___if_lbl00314   0x0054ca    program     static                          
           ___if_lbl00317   0x0054d6    program     static                          
           ___if_lbl00318   0x0054e2    program     static                          
       ___return_lbl00302   0x0054e2    program     static                          
        PrintLCDWholePage   0x0054fa    program     extern D:\git\testing79m\Singcom\Drivers\lcd.c
          ___for_lbl00326   0x005558    program     static                          
             __tmplbl_135   0x005580    program     static                          
             __tmplbl_134   0x005588    program     static                          
         ___else_lbl00325   0x005596    program     static                          
           ___if_lbl00323   0x0055a6    program     static                          
           ___if_lbl00324   0x0055a6    program     static                          
          ___for_lbl00320   0x0055a6    program     static                          
          ___for_lbl00321   0x0055aa    program     static                          
          ___for_lbl00333   0x0055b8    program     static                          
             __tmplbl_137   0x0055e0    program     static                          
             __tmplbl_136   0x0055e8    program     static                          
         ___else_lbl00332   0x0055f6    program     static                          
           ___if_lbl00331   0x005606    program     static                          
           ___if_lbl00330   0x005606    program     static                          
          ___for_lbl00327   0x005606    program     static                          
          ___for_lbl00328   0x00560a    program     static                          
         ___else_lbl00335   0x005634    program     static                          
           ___if_lbl00334   0x005654    program     static                          
       ___return_lbl00319   0x005654    program     static                          
       PrintLCDFromBuffer   0x00566c    program     extern D:\git\testing79m\Singcom\Drivers\lcd.c
          ___for_lbl00341   0x00568e    program     static                          
             __tmplbl_139   0x0056b6    program     static                          
             __tmplbl_138   0x0056be    program     static                          
          ___for_lbl00337   0x0056ca    program     static                          
           ___if_lbl00340   0x0056ca    program     static                          
          ___for_lbl00338   0x0056ce    program     static                          
          ___for_lbl00346   0x0056dc    program     static                          
             __tmplbl_141   0x005704    program     static                          
             __tmplbl_140   0x00570c    program     static                          
           ___if_lbl00345   0x005718    program     static                          
          ___for_lbl00342   0x005718    program     static                          
       ___return_lbl00336   0x00571c    program     static                          
          ___for_lbl00343   0x00571c    program     static                          
       LCDDisplayLoadData   0x00572c    program     extern D:\git\testing79m\Singcom\Drivers\lcd.c
        LCDMenuValue2Char   0x005b42    program     extern D:\git\testing79m\Singcom\Drivers\lcd.c
            LCD_vSetKepad   0x005baa    program     extern D:\git\testing79m\Singcom\Drivers\lcd.c
               LCD_vSetIO   0x005bbc    program     extern D:\git\testing79m\Singcom\Drivers\lcd.c
              Initial_LCD   0x005bd4    program     extern D:\git\testing79m\Singcom\Drivers\lcd.c
       DisplayCompanyMenu   0x005bee    program     extern D:\git\testing79m\Singcom\Drivers\lcd.c
     LCD_vEnableInterrupt   0x005c52    program     extern D:\git\testing79m\Singcom\Drivers\lcd.c
      Value2DisplayBuffer   0x005c68    program     extern D:\git\testing79m\Singcom\Drivers\lcd.c
                   __pa_0   0x005d86    program     static D:\git\testing79m\Singcom\Drivers\lcd.c
                   __pa_1   0x005d9a    program     static D:\git\testing79m\Singcom\Drivers\lcd.c
                   __pa_2   0x005dac    program     static D:\git\testing79m\Singcom\Drivers\lcd.c
                   __pa_3   0x005dbe    program     static D:\git\testing79m\Singcom\Drivers\lcd.c
                   __pa_4   0x005dc6    program     static D:\git\testing79m\Singcom\Drivers\lcd.c
                   __pa_5   0x005dda    program     static D:\git\testing79m\Singcom\Drivers\lcd.c
                   __pa_6   0x005dec    program     static D:\git\testing79m\Singcom\Drivers\lcd.c
                   __pa_7   0x005df4    program     static D:\git\testing79m\Singcom\Drivers\lcd.c
                   __pa_8   0x005e02    program     static D:\git\testing79m\Singcom\Drivers\lcd.c
                   __pa_9   0x005e0a    program     static D:\git\testing79m\Singcom\Drivers\lcd.c
                  __pa_10   0x005e12    program     static D:\git\testing79m\Singcom\Drivers\lcd.c
                  __pa_11   0x005e1c    program     static D:\git\testing79m\Singcom\Drivers\lcd.c
                  __pa_12   0x005e60    program     static D:\git\testing79m\Singcom\Drivers\lcd.c
                  __pa_13   0x005e6c    program     static D:\git\testing79m\Singcom\Drivers\lcd.c
                  __pa_14   0x005e84    program     static D:\git\testing79m\Singcom\Drivers\lcd.c
                  __pa_15   0x005e92    program     static D:\git\testing79m\Singcom\Drivers\lcd.c
                  __pa_16   0x005ea4    program     static D:\git\testing79m\Singcom\Drivers\lcd.c
                  __pa_17   0x005eb2    program     static D:\git\testing79m\Singcom\Drivers\lcd.c
                  __pa_18   0x005ecc    program     static D:\git\testing79m\Singcom\Drivers\lcd.c
                  __pa_19   0x005ee0    program     static D:\git\testing79m\Singcom\Drivers\lcd.c
                  __pa_20   0x005eee    program     static D:\git\testing79m\Singcom\Drivers\lcd.c
                  __pa_21   0x005f10    program     static D:\git\testing79m\Singcom\Drivers\lcd.c
                  __pa_22   0x005f28    program     static D:\git\testing79m\Singcom\Drivers\lcd.c
             __tmplbl_150   0x005f34    program     static                          
             __tmplbl_181   0x005f34    program     static                          
             __tmplbl_151   0x005f34    program     static                          
             __tmplbl_154   0x005f34    program     static                          
             __tmplbl_180   0x005f34    program     static                          
             __tmplbl_179   0x005f34    program     static                          
             __tmplbl_152   0x005f34    program     static                          
                  __pa_23   0x005f34    program     static D:\git\testing79m\Singcom\Drivers\lcd.c
                  __pa_24   0x005f40    program     static D:\git\testing79m\Singcom\Drivers\lcd.c
                  __pa_25   0x005f54    program     static D:\git\testing79m\Singcom\Drivers\lcd.c
                  __pa_26   0x005f66    program     static D:\git\testing79m\Singcom\Drivers\lcd.c
                  __pa_27   0x005f70    program     static D:\git\testing79m\Singcom\Drivers\lcd.c
                  __pa_28   0x005f86    program     static D:\git\testing79m\Singcom\Drivers\lcd.c
                  __pa_29   0x005f92    program     static D:\git\testing79m\Singcom\Drivers\lcd.c
                  __pa_30   0x005fbe    program     static D:\git\testing79m\Singcom\Drivers\lcd.c
                  __pa_31   0x005fc8    program     static D:\git\testing79m\Singcom\Drivers\lcd.c
                  __pa_32   0x005fd4    program     static D:\git\testing79m\Singcom\Drivers\lcd.c
                  __pa_33   0x005fe4    program     static D:\git\testing79m\Singcom\Drivers\lcd.c
                  __pa_34   0x005ff2    program     static D:\git\testing79m\Singcom\Drivers\lcd.c
                  __pa_35   0x006004    program     static D:\git\testing79m\Singcom\Drivers\lcd.c
                  __pa_36   0x006028    program     static D:\git\testing79m\Singcom\Drivers\lcd.c
                  __pa_37   0x00604e    program     static D:\git\testing79m\Singcom\Drivers\lcd.c
                  __pa_38   0x00605c    program     static D:\git\testing79m\Singcom\Drivers\lcd.c
                  __pa_39   0x006078    program     static D:\git\testing79m\Singcom\Drivers\lcd.c
                  __pa_40   0x00608e    program     static D:\git\testing79m\Singcom\Drivers\lcd.c
                  __pa_41   0x0060b0    program     static D:\git\testing79m\Singcom\Drivers\lcd.c
                  __pa_42   0x0060ca    program     static D:\git\testing79m\Singcom\Drivers\lcd.c
                  __pa_43   0x0060de    program     static D:\git\testing79m\Singcom\Drivers\lcd.c
                  __pa_44   0x0060ea    program     static D:\git\testing79m\Singcom\Drivers\lcd.c
                  __pa_45   0x0060f8    program     static D:\git\testing79m\Singcom\Drivers\lcd.c
                  __pa_46   0x006106    program     static D:\git\testing79m\Singcom\Drivers\lcd.c
                  __pa_47   0x006112    program     static D:\git\testing79m\Singcom\Drivers\lcd.c
                  __pa_48   0x006128    program     static D:\git\testing79m\Singcom\Drivers\lcd.c
                  __pa_49   0x006144    program     static D:\git\testing79m\Singcom\Drivers\lcd.c
                  __pa_50   0x006158    program     static D:\git\testing79m\Singcom\Drivers\lcd.c
                  __pa_51   0x00615e    program     static D:\git\testing79m\Singcom\Drivers\lcd.c
                  __pa_52   0x006164    program     static D:\git\testing79m\Singcom\Drivers\lcd.c
                  __pa_53   0x006176    program     static D:\git\testing79m\Singcom\Drivers\lcd.c
                  __pa_54   0x00618a    program     static D:\git\testing79m\Singcom\Drivers\lcd.c
                  __pa_55   0x006190    program     static D:\git\testing79m\Singcom\Drivers\lcd.c
                  __pa_56   0x00619c    program     static D:\git\testing79m\Singcom\Drivers\lcd.c
                  __pa_57   0x0061ac    program     static D:\git\testing79m\Singcom\Drivers\lcd.c
                  __pa_58   0x0061b6    program     static D:\git\testing79m\Singcom\Drivers\lcd.c
                  __pa_59   0x0061cc    program     static D:\git\testing79m\Singcom\Drivers\lcd.c
                  __pa_60   0x0061da    program     static D:\git\testing79m\Singcom\Drivers\lcd.c
                  __pa_61   0x0061e4    program     static D:\git\testing79m\Singcom\Drivers\lcd.c
                  __pa_62   0x0061f2    program     static D:\git\testing79m\Singcom\Drivers\lcd.c
                  __pa_63   0x006200    program     static D:\git\testing79m\Singcom\Drivers\lcd.c
                  __pa_64   0x00620c    program     static D:\git\testing79m\Singcom\Drivers\lcd.c
                  __pa_65   0x006216    program     static D:\git\testing79m\Singcom\Drivers\lcd.c
                  __pa_66   0x00621e    program     static D:\git\testing79m\Singcom\Drivers\lcd.c
                  __pa_67   0x006228    program     static D:\git\testing79m\Singcom\Drivers\lcd.c
                  __pa_68   0x006238    program     static D:\git\testing79m\Singcom\Drivers\lcd.c
                  __pa_69   0x006240    program     static D:\git\testing79m\Singcom\Drivers\lcd.c
                  __pa_70   0x00624e    program     static D:\git\testing79m\Singcom\Drivers\lcd.c
                  __pa_71   0x00625c    program     static D:\git\testing79m\Singcom\Drivers\lcd.c
                  __pa_72   0x00626a    program     static D:\git\testing79m\Singcom\Drivers\lcd.c
                  __pa_73   0x006278    program     static D:\git\testing79m\Singcom\Drivers\lcd.c
                  __pa_74   0x006286    program     static D:\git\testing79m\Singcom\Drivers\lcd.c
                  __pa_75   0x006294    program     static D:\git\testing79m\Singcom\Drivers\lcd.c
                  __pa_76   0x0062a2    program     static D:\git\testing79m\Singcom\Drivers\lcd.c
                  __pa_77   0x0062b0    program     static D:\git\testing79m\Singcom\Drivers\lcd.c
                  __pa_78   0x0062be    program     static D:\git\testing79m\Singcom\Drivers\lcd.c
                  __pa_79   0x0062cc    program     static D:\git\testing79m\Singcom\Drivers\lcd.c
                  __pa_80   0x0062da    program     static D:\git\testing79m\Singcom\Drivers\lcd.c
                  __pa_81   0x0062e8    program     static D:\git\testing79m\Singcom\Drivers\lcd.c
                  __pa_82   0x0062f2    program     static D:\git\testing79m\Singcom\Drivers\lcd.c
                  __pa_83   0x0062fc    program     static D:\git\testing79m\Singcom\Drivers\lcd.c
                  __pa_84   0x006302    program     static D:\git\testing79m\Singcom\Drivers\lcd.c
                  __pa_85   0x00630c    program     static D:\git\testing79m\Singcom\Drivers\lcd.c
                  __pa_86   0x006314    program     static D:\git\testing79m\Singcom\Drivers\lcd.c
                  __pa_87   0x00631c    program     static D:\git\testing79m\Singcom\Drivers\lcd.c
                  __pa_88   0x00632c    program     static D:\git\testing79m\Singcom\Drivers\lcd.c
                  __pa_89   0x006332    program     static D:\git\testing79m\Singcom\Drivers\lcd.c
                  __pa_90   0x006340    program     static D:\git\testing79m\Singcom\Drivers\lcd.c
                  __pa_91   0x006350    program     static D:\git\testing79m\Singcom\Drivers\lcd.c
                  __pa_92   0x006358    program     static D:\git\testing79m\Singcom\Drivers\lcd.c
                  __pa_93   0x006380    program     static D:\git\testing79m\Singcom\Drivers\lcd.c
                  __pa_94   0x00638c    program     static D:\git\testing79m\Singcom\Drivers\lcd.c
                  __pa_95   0x0063d6    program     static D:\git\testing79m\Singcom\Drivers\lcd.c
                  __pa_96   0x0063de    program     static D:\git\testing79m\Singcom\Drivers\lcd.c
                  __pa_97   0x0063e6    program     static D:\git\testing79m\Singcom\Drivers\lcd.c
                  __pa_98   0x006402    program     static D:\git\testing79m\Singcom\Drivers\lcd.c
                  __pa_99   0x006418    program     static D:\git\testing79m\Singcom\Drivers\lcd.c
                 __pa_100   0x006420    program     static D:\git\testing79m\Singcom\Drivers\lcd.c
                 __pa_101   0x006432    program     static D:\git\testing79m\Singcom\Drivers\lcd.c
                 __pa_102   0x006462    program     static D:\git\testing79m\Singcom\Drivers\lcd.c
                 __pa_103   0x006468    program     static D:\git\testing79m\Singcom\Drivers\lcd.c
                 __pa_104   0x00648e    program     static D:\git\testing79m\Singcom\Drivers\lcd.c
                 __pa_105   0x00649a    program     static D:\git\testing79m\Singcom\Drivers\lcd.c
                 __pa_106   0x00649e    program     static D:\git\testing79m\Singcom\Drivers\lcd.c
                 __pa_107   0x0064ac    program     static D:\git\testing79m\Singcom\Drivers\lcd.c
                 __pa_108   0x0064b6    program     static D:\git\testing79m\Singcom\Drivers\lcd.c
                 __pa_109   0x0064c2    program     static D:\git\testing79m\Singcom\Drivers\lcd.c
                 __pa_110   0x0064cc    program     static D:\git\testing79m\Singcom\Drivers\lcd.c
                 __pa_111   0x0064da    program     static D:\git\testing79m\Singcom\Drivers\lcd.c
                 __pa_112   0x0064e8    program     static D:\git\testing79m\Singcom\Drivers\lcd.c
                 __pa_113   0x0064fe    program     static D:\git\testing79m\Singcom\Drivers\lcd.c
                 __pa_114   0x006506    program     static D:\git\testing79m\Singcom\Drivers\lcd.c
                 __pa_115   0x00650c    program     static D:\git\testing79m\Singcom\Drivers\lcd.c
                 __pa_116   0x006518    program     static D:\git\testing79m\Singcom\Drivers\lcd.c
                 __pa_117   0x00652c    program     static D:\git\testing79m\Singcom\Drivers\lcd.c
                 __pa_118   0x006540    program     static D:\git\testing79m\Singcom\Drivers\lcd.c
                 __pa_119   0x00654c    program     static D:\git\testing79m\Singcom\Drivers\lcd.c
                 __pa_120   0x006556    program     static D:\git\testing79m\Singcom\Drivers\lcd.c
                 __pa_121   0x006568    program     static D:\git\testing79m\Singcom\Drivers\lcd.c
                 __pa_122   0x006572    program     static D:\git\testing79m\Singcom\Drivers\lcd.c
                 __pa_123   0x006582    program     static D:\git\testing79m\Singcom\Drivers\lcd.c
                 __pa_124   0x00658e    program     static D:\git\testing79m\Singcom\Drivers\lcd.c
                 __pa_125   0x006598    program     static D:\git\testing79m\Singcom\Drivers\lcd.c
                 __pa_126   0x00659e    program     static D:\git\testing79m\Singcom\Drivers\lcd.c
                 __pa_127   0x0065a4    program     static D:\git\testing79m\Singcom\Drivers\lcd.c
                 __pa_128   0x0065ac    program     static D:\git\testing79m\Singcom\Drivers\lcd.c
                 __pa_129   0x0065ba    program     static D:\git\testing79m\Singcom\Drivers\lcd.c
                 __pa_130   0x0065c4    program     static D:\git\testing79m\Singcom\Drivers\lcd.c
                 __pa_131   0x0065cc    program     static D:\git\testing79m\Singcom\Drivers\lcd.c
                 __pa_132   0x0065d6    program     static D:\git\testing79m\Singcom\Drivers\lcd.c
                 __pa_133   0x0065de    program     static D:\git\testing79m\Singcom\Drivers\lcd.c
                 __pa_134   0x0065e4    program     static D:\git\testing79m\Singcom\Drivers\lcd.c
                 __pa_135   0x0065f0    program     static D:\git\testing79m\Singcom\Drivers\lcd.c
                 __pa_136   0x006600    program     static D:\git\testing79m\Singcom\Drivers\lcd.c
                 __pa_137   0x00660a    program     static D:\git\testing79m\Singcom\Drivers\lcd.c
                 __pa_138   0x006616    program     static D:\git\testing79m\Singcom\Drivers\lcd.c
                 __pa_139   0x006624    program     static D:\git\testing79m\Singcom\Drivers\lcd.c
                 __pa_140   0x00662e    program     static D:\git\testing79m\Singcom\Drivers\lcd.c
                 __pa_141   0x00663c    program     static D:\git\testing79m\Singcom\Drivers\lcd.c
                 __pa_142   0x00664a    program     static D:\git\testing79m\Singcom\Drivers\lcd.c
                 __pa_143   0x006658    program     static D:\git\testing79m\Singcom\Drivers\lcd.c
                 __pa_144   0x00665e    program     static D:\git\testing79m\Singcom\Drivers\lcd.c
                 __pa_145   0x006666    program     static D:\git\testing79m\Singcom\Drivers\lcd.c
                 __pa_146   0x006670    program     static D:\git\testing79m\Singcom\Drivers\lcd.c
                 __pa_147   0x006678    program     static D:\git\testing79m\Singcom\Drivers\lcd.c
                 __pa_148   0x006682    program     static D:\git\testing79m\Singcom\Drivers\lcd.c
                 __pa_149   0x00668c    program     static D:\git\testing79m\Singcom\Drivers\lcd.c
                 __pa_150   0x006694    program     static D:\git\testing79m\Singcom\Drivers\lcd.c
                 __pa_151   0x00669e    program     static D:\git\testing79m\Singcom\Drivers\lcd.c
                 __pa_152   0x0066b6    program     static D:\git\testing79m\Singcom\Drivers\lcd.c
             __tmplbl_187   0x0066b6    program     static                          
             __tmplbl_186   0x0066b6    program     static                          
                 __pa_153   0x0066c2    program     static D:\git\testing79m\Singcom\Drivers\lcd.c
                 __pa_154   0x0066ca    program     static D:\git\testing79m\Singcom\Drivers\lcd.c
                 __pa_155   0x0066d4    program     static D:\git\testing79m\Singcom\Drivers\lcd.c
                 __pa_156   0x0066e6    program     static D:\git\testing79m\Singcom\Drivers\lcd.c
                 __pa_157   0x0066f0    program     static D:\git\testing79m\Singcom\Drivers\lcd.c
                 __pa_158   0x0066f8    program     static D:\git\testing79m\Singcom\Drivers\lcd.c
                 __pa_159   0x006702    program     static D:\git\testing79m\Singcom\Drivers\lcd.c
                 __pa_160   0x00670c    program     static D:\git\testing79m\Singcom\Drivers\lcd.c
                 __pa_161   0x006716    program     static D:\git\testing79m\Singcom\Drivers\lcd.c
                 __pa_162   0x00671e    program     static D:\git\testing79m\Singcom\Drivers\lcd.c
                 __pa_163   0x006730    program     static D:\git\testing79m\Singcom\Drivers\lcd.c
                 __pa_164   0x006742    program     static D:\git\testing79m\Singcom\Drivers\lcd.c
                 __pa_165   0x00674a    program     static D:\git\testing79m\Singcom\Drivers\lcd.c
                 __pa_166   0x006750    program     static D:\git\testing79m\Singcom\Drivers\lcd.c
                 __pa_167   0x006762    program     static D:\git\testing79m\Singcom\Drivers\lcd.c
                 __pa_168   0x006770    program     static D:\git\testing79m\Singcom\Drivers\lcd.c
                 __pa_169   0x006778    program     static D:\git\testing79m\Singcom\Drivers\lcd.c
                 __pa_170   0x006780    program     static D:\git\testing79m\Singcom\Drivers\lcd.c
                 __pa_171   0x00678e    program     static D:\git\testing79m\Singcom\Drivers\lcd.c
                 __pa_172   0x006798    program     static D:\git\testing79m\Singcom\Drivers\lcd.c
                 __pa_173   0x0067a6    program     static D:\git\testing79m\Singcom\Drivers\lcd.c
                 __pa_174   0x0067b2    program     static D:\git\testing79m\Singcom\Drivers\lcd.c
             __tmplbl_188   0x0067b2    program     static                          
                 __pa_175   0x0067be    program     static D:\git\testing79m\Singcom\Drivers\lcd.c
                 __pa_176   0x0067cc    program     static D:\git\testing79m\Singcom\Drivers\lcd.c
                 __pa_177   0x0067d8    program     static D:\git\testing79m\Singcom\Drivers\lcd.c
                 __pa_178   0x0067e0    program     static D:\git\testing79m\Singcom\Drivers\lcd.c
                 __pa_179   0x0067e8    program     static D:\git\testing79m\Singcom\Drivers\lcd.c
                 __pa_180   0x0067f0    program     static D:\git\testing79m\Singcom\Drivers\lcd.c
                 __pa_181   0x0067fa    program     static D:\git\testing79m\Singcom\Drivers\lcd.c
                 __pa_182   0x006800    program     static D:\git\testing79m\Singcom\Drivers\lcd.c
                 __pa_183   0x006806    program     static D:\git\testing79m\Singcom\Drivers\lcd.c
                 __pa_184   0x006810    program     static D:\git\testing79m\Singcom\Drivers\lcd.c
                 __pa_185   0x006818    program     static D:\git\testing79m\Singcom\Drivers\lcd.c
                 __pa_186   0x006820    program     static D:\git\testing79m\Singcom\Drivers\lcd.c
                 __pa_187   0x006828    program     static D:\git\testing79m\Singcom\Drivers\lcd.c
                 __pa_188   0x006832    program     static D:\git\testing79m\Singcom\Drivers\lcd.c
                HTTPPrint   0x00683a    program     extern D:\git\testing79m\Microchip\Include\TCPIP Stack\HTTPPrint.h
               HTTPPrint_   0x006fbc    program     extern D:\git\testing79m\Microchip\Include\TCPIP Stack\HTTPPrint.h
                 HTTPInit   0x006fce    program     extern D:\git\testing79m\Microchip\TCPIP Stack\HTTP2.c
               HTTPServer   0x007030    program     extern D:\git\testing79m\Microchip\TCPIP Stack\HTTP2.c
             HTTPLoadConn   0x0070b2    program     static D:\git\testing79m\Microchip\TCPIP Stack\HTTP2.c
              HTTPProcess   0x0070fa    program     static D:\git\testing79m\Microchip\TCPIP Stack\HTTP2.c
             __tmplbl_198   0x00710a    program     static                          
             __tmplbl_175   0x0079be    program     static                          
             __tmplbl_174   0x0079c4    program     static                          
             __tmplbl_173   0x0079f0    program     static                          
             __tmplbl_172   0x007a36    program     static                          
             __tmplbl_183   0x007a52    program     static                          
             __tmplbl_184   0x007a52    program     static                          
             __tmplbl_182   0x007a52    program     static                          
             HTTPSendFile   0x007a6c    program     static D:\git\testing79m\Microchip\TCPIP Stack\HTTP2.c
    HTTPHeaderParseLookup   0x007be4    program     static D:\git\testing79m\Microchip\TCPIP Stack\HTTP2.c
HTTPHeaderParseAuthorization   0x007c00    program     static D:\git\testing79m\Microchip\TCPIP Stack\HTTP2.c
HTTPHeaderParseContentLength   0x007d2c    program     static D:\git\testing79m\Microchip\TCPIP Stack\HTTP2.c
            HTTPURLDecode   0x007db4    program     extern D:\git\testing79m\Microchip\TCPIP Stack\HTTP2.c
               HTTPGetArg   0x007eee    program     extern D:\git\testing79m\Microchip\TCPIP Stack\HTTP2.c
            HTTPGetROMArg   0x007f34    program     extern D:\git\testing79m\Microchip\TCPIP Stack\HTTP2.c
         HTTPReadPostName   0x007f96    program     extern D:\git\testing79m\Microchip\TCPIP Stack\HTTP2.c
        HTTPReadPostValue   0x007fc6    program     extern D:\git\testing79m\Microchip\TCPIP Stack\HTTP2.c
               HTTPReadTo   0x008036    program     static D:\git\testing79m\Microchip\TCPIP Stack\HTTP2.c
           HTTPMPFSUpload   0x0081c2    program     static D:\git\testing79m\Microchip\TCPIP Stack\HTTP2.c
              HTTPIncFile   0x0083f2    program     extern D:\git\testing79m\Microchip\TCPIP Stack\HTTP2.c
                   __pa_0   0x008504    program     static D:\git\testing79m\Microchip\TCPIP Stack\HTTP2.c
                   __pa_1   0x00850e    program     static D:\git\testing79m\Microchip\TCPIP Stack\HTTP2.c
                   __pa_2   0x008560    program     static D:\git\testing79m\Microchip\TCPIP Stack\HTTP2.c
                   __pa_3   0x00856c    program     static D:\git\testing79m\Microchip\TCPIP Stack\HTTP2.c
             __tmplbl_168   0x008588    program     static                          
             __tmplbl_203   0x008588    program     static                          
             __tmplbl_199   0x008588    program     static                          
             __tmplbl_171   0x008588    program     static                          
             __tmplbl_201   0x008588    program     static                          
             __tmplbl_169   0x008588    program     static                          
                   __pa_4   0x008588    program     static D:\git\testing79m\Microchip\TCPIP Stack\HTTP2.c
             __tmplbl_170   0x008588    program     static                          
             __tmplbl_200   0x008588    program     static                          
                   __pa_5   0x008594    program     static D:\git\testing79m\Microchip\TCPIP Stack\HTTP2.c
                   __pa_6   0x0085bc    program     static D:\git\testing79m\Microchip\TCPIP Stack\HTTP2.c
                   __pa_7   0x0085c4    program     static D:\git\testing79m\Microchip\TCPIP Stack\HTTP2.c
                   __pa_8   0x0085e0    program     static D:\git\testing79m\Microchip\TCPIP Stack\HTTP2.c
                   __pa_9   0x0085ee    program     static D:\git\testing79m\Microchip\TCPIP Stack\HTTP2.c
                  __pa_10   0x0085f4    program     static D:\git\testing79m\Microchip\TCPIP Stack\HTTP2.c
                  __pa_11   0x0085fa    program     static D:\git\testing79m\Microchip\TCPIP Stack\HTTP2.c
                  __pa_12   0x008604    program     static D:\git\testing79m\Microchip\TCPIP Stack\HTTP2.c
                  __pa_13   0x00862a    program     static D:\git\testing79m\Microchip\TCPIP Stack\HTTP2.c
                  __pa_14   0x008632    program     static D:\git\testing79m\Microchip\TCPIP Stack\HTTP2.c
                  __pa_15   0x00863a    program     static D:\git\testing79m\Microchip\TCPIP Stack\HTTP2.c
                  __pa_16   0x008648    program     static D:\git\testing79m\Microchip\TCPIP Stack\HTTP2.c
                  __pa_17   0x008652    program     static D:\git\testing79m\Microchip\TCPIP Stack\HTTP2.c
                  __pa_18   0x008662    program     static D:\git\testing79m\Microchip\TCPIP Stack\HTTP2.c
                  __pa_19   0x008670    program     static D:\git\testing79m\Microchip\TCPIP Stack\HTTP2.c
                  __pa_20   0x008676    program     static D:\git\testing79m\Microchip\TCPIP Stack\HTTP2.c
                  __pa_21   0x008680    program     static D:\git\testing79m\Microchip\TCPIP Stack\HTTP2.c
                  __pa_22   0x00868a    program     static D:\git\testing79m\Microchip\TCPIP Stack\HTTP2.c
                  __pa_23   0x00869e    program     static D:\git\testing79m\Microchip\TCPIP Stack\HTTP2.c
                  __pa_24   0x0086aa    program     static D:\git\testing79m\Microchip\TCPIP Stack\HTTP2.c
                  __pa_25   0x0086b0    program     static D:\git\testing79m\Microchip\TCPIP Stack\HTTP2.c
                  __pa_26   0x0086b6    program     static D:\git\testing79m\Microchip\TCPIP Stack\HTTP2.c
                  __pa_27   0x0086bc    program     static D:\git\testing79m\Microchip\TCPIP Stack\HTTP2.c
                  __pa_28   0x0086c2    program     static D:\git\testing79m\Microchip\TCPIP Stack\HTTP2.c
                  __pa_29   0x0086cc    program     static D:\git\testing79m\Microchip\TCPIP Stack\HTTP2.c
                  __pa_30   0x0086da    program     static D:\git\testing79m\Microchip\TCPIP Stack\HTTP2.c
                  __pa_31   0x0086e4    program     static D:\git\testing79m\Microchip\TCPIP Stack\HTTP2.c
                  __pa_32   0x0086f4    program     static D:\git\testing79m\Microchip\TCPIP Stack\HTTP2.c
                  __pa_33   0x008702    program     static D:\git\testing79m\Microchip\TCPIP Stack\HTTP2.c
                  __pa_34   0x008716    program     static D:\git\testing79m\Microchip\TCPIP Stack\HTTP2.c
                  __pa_35   0x008726    program     static D:\git\testing79m\Microchip\TCPIP Stack\HTTP2.c
                  __pa_36   0x00873a    program     static D:\git\testing79m\Microchip\TCPIP Stack\HTTP2.c
                  __pa_37   0x00874a    program     static D:\git\testing79m\Microchip\TCPIP Stack\HTTP2.c
                  __pa_38   0x008758    program     static D:\git\testing79m\Microchip\TCPIP Stack\HTTP2.c
                  __pa_39   0x008760    program     static D:\git\testing79m\Microchip\TCPIP Stack\HTTP2.c
                  __pa_40   0x00876e    program     static D:\git\testing79m\Microchip\TCPIP Stack\HTTP2.c
                  __pa_41   0x00877a    program     static D:\git\testing79m\Microchip\TCPIP Stack\HTTP2.c
                  __pa_42   0x008786    program     static D:\git\testing79m\Microchip\TCPIP Stack\HTTP2.c
                  __pa_43   0x008790    program     static D:\git\testing79m\Microchip\TCPIP Stack\HTTP2.c
                  __pa_44   0x008798    program     static D:\git\testing79m\Microchip\TCPIP Stack\HTTP2.c
                  __pa_45   0x0087a8    program     static D:\git\testing79m\Microchip\TCPIP Stack\HTTP2.c
                  __pa_46   0x0087b8    program     static D:\git\testing79m\Microchip\TCPIP Stack\HTTP2.c
                  __pa_47   0x0087c8    program     static D:\git\testing79m\Microchip\TCPIP Stack\HTTP2.c
                  __pa_48   0x0087d8    program     static D:\git\testing79m\Microchip\TCPIP Stack\HTTP2.c
                  __pa_49   0x0087de    program     static D:\git\testing79m\Microchip\TCPIP Stack\HTTP2.c
                  __pa_50   0x0087ea    program     static D:\git\testing79m\Microchip\TCPIP Stack\HTTP2.c
                  __pa_51   0x0087f6    program     static D:\git\testing79m\Microchip\TCPIP Stack\HTTP2.c
                  __pa_52   0x008806    program     static D:\git\testing79m\Microchip\TCPIP Stack\HTTP2.c
                  __pa_53   0x008816    program     static D:\git\testing79m\Microchip\TCPIP Stack\HTTP2.c
                  __pa_54   0x00882c    program     static D:\git\testing79m\Microchip\TCPIP Stack\HTTP2.c
                  __pa_55   0x008838    program     static D:\git\testing79m\Microchip\TCPIP Stack\HTTP2.c
                  __pa_56   0x008846    program     static D:\git\testing79m\Microchip\TCPIP Stack\HTTP2.c
                  __pa_57   0x008854    program     static D:\git\testing79m\Microchip\TCPIP Stack\HTTP2.c
                  __pa_58   0x008864    program     static D:\git\testing79m\Microchip\TCPIP Stack\HTTP2.c
                  __pa_59   0x008872    program     static D:\git\testing79m\Microchip\TCPIP Stack\HTTP2.c
                  __pa_60   0x008886    program     static D:\git\testing79m\Microchip\TCPIP Stack\HTTP2.c
                  __pa_61   0x00888e    program     static D:\git\testing79m\Microchip\TCPIP Stack\HTTP2.c
                  __pa_62   0x0088a0    program     static D:\git\testing79m\Microchip\TCPIP Stack\HTTP2.c
                  __pa_63   0x0088ac    program     static D:\git\testing79m\Microchip\TCPIP Stack\HTTP2.c
                  __pa_64   0x0088be    program     static D:\git\testing79m\Microchip\TCPIP Stack\HTTP2.c
                  __pa_65   0x0088ca    program     static D:\git\testing79m\Microchip\TCPIP Stack\HTTP2.c
                  __pa_66   0x0088d6    program     static D:\git\testing79m\Microchip\TCPIP Stack\HTTP2.c
                  __pa_67   0x0088e2    program     static D:\git\testing79m\Microchip\TCPIP Stack\HTTP2.c
                  __pa_68   0x0088e8    program     static D:\git\testing79m\Microchip\TCPIP Stack\HTTP2.c
                  __pa_69   0x0088ee    program     static D:\git\testing79m\Microchip\TCPIP Stack\HTTP2.c
                  __pa_70   0x0088f8    program     static D:\git\testing79m\Microchip\TCPIP Stack\HTTP2.c
                  __pa_71   0x008902    program     static D:\git\testing79m\Microchip\TCPIP Stack\HTTP2.c
                  __pa_72   0x00890e    program     static D:\git\testing79m\Microchip\TCPIP Stack\HTTP2.c
                  __pa_73   0x00891e    program     static D:\git\testing79m\Microchip\TCPIP Stack\HTTP2.c
                  __pa_74   0x008928    program     static D:\git\testing79m\Microchip\TCPIP Stack\HTTP2.c
                  __pa_75   0x008930    program     static D:\git\testing79m\Microchip\TCPIP Stack\HTTP2.c
                  __pa_76   0x008938    program     static D:\git\testing79m\Microchip\TCPIP Stack\HTTP2.c
                  __pa_77   0x008940    program     static D:\git\testing79m\Microchip\TCPIP Stack\HTTP2.c
                  __pa_78   0x00894e    program     static D:\git\testing79m\Microchip\TCPIP Stack\HTTP2.c
                  __pa_79   0x00895c    program     static D:\git\testing79m\Microchip\TCPIP Stack\HTTP2.c
                  __pa_80   0x00896a    program     static D:\git\testing79m\Microchip\TCPIP Stack\HTTP2.c
                  __pa_81   0x008978    program     static D:\git\testing79m\Microchip\TCPIP Stack\HTTP2.c
                  __pa_82   0x008986    program     static D:\git\testing79m\Microchip\TCPIP Stack\HTTP2.c
                  __pa_83   0x008994    program     static D:\git\testing79m\Microchip\TCPIP Stack\HTTP2.c
                  __pa_84   0x0089a2    program     static D:\git\testing79m\Microchip\TCPIP Stack\HTTP2.c
                  __pa_85   0x0089b0    program     static D:\git\testing79m\Microchip\TCPIP Stack\HTTP2.c
                  __pa_86   0x0089be    program     static D:\git\testing79m\Microchip\TCPIP Stack\HTTP2.c
                  __pa_87   0x0089c8    program     static D:\git\testing79m\Microchip\TCPIP Stack\HTTP2.c
                  __pa_88   0x0089d2    program     static D:\git\testing79m\Microchip\TCPIP Stack\HTTP2.c
                  __pa_89   0x0089da    program     static D:\git\testing79m\Microchip\TCPIP Stack\HTTP2.c
                  __pa_90   0x0089f0    program     static D:\git\testing79m\Microchip\TCPIP Stack\HTTP2.c
                  __pa_91   0x0089f6    program     static D:\git\testing79m\Microchip\TCPIP Stack\HTTP2.c
                  __pa_92   0x008a04    program     static D:\git\testing79m\Microchip\TCPIP Stack\HTTP2.c
                  __pa_93   0x008a0e    program     static D:\git\testing79m\Microchip\TCPIP Stack\HTTP2.c
                  __pa_94   0x008a18    program     static D:\git\testing79m\Microchip\TCPIP Stack\HTTP2.c
                  __pa_95   0x008a22    program     static D:\git\testing79m\Microchip\TCPIP Stack\HTTP2.c
                  __pa_96   0x008a30    program     static D:\git\testing79m\Microchip\TCPIP Stack\HTTP2.c
                  __pa_97   0x008a38    program     static D:\git\testing79m\Microchip\TCPIP Stack\HTTP2.c
                  __pa_98   0x008a42    program     static D:\git\testing79m\Microchip\TCPIP Stack\HTTP2.c
                  __pa_99   0x008a58    program     static D:\git\testing79m\Microchip\TCPIP Stack\HTTP2.c
                 __pa_100   0x008a5e    program     static D:\git\testing79m\Microchip\TCPIP Stack\HTTP2.c
                 __pa_101   0x008a68    program     static D:\git\testing79m\Microchip\TCPIP Stack\HTTP2.c
                 __pa_102   0x008a70    program     static D:\git\testing79m\Microchip\TCPIP Stack\HTTP2.c
                 __pa_103   0x008a7e    program     static D:\git\testing79m\Microchip\TCPIP Stack\HTTP2.c
                 __pa_104   0x008a8c    program     static D:\git\testing79m\Microchip\TCPIP Stack\HTTP2.c
                 __pa_105   0x008a94    program     static D:\git\testing79m\Microchip\TCPIP Stack\HTTP2.c
                 __pa_106   0x008aa2    program     static D:\git\testing79m\Microchip\TCPIP Stack\HTTP2.c
                 __pa_107   0x008aac    program     static D:\git\testing79m\Microchip\TCPIP Stack\HTTP2.c
                 __pa_108   0x008ab8    program     static D:\git\testing79m\Microchip\TCPIP Stack\HTTP2.c
                 __pa_109   0x008ac8    program     static D:\git\testing79m\Microchip\TCPIP Stack\HTTP2.c
                 __pa_110   0x008ad0    program     static D:\git\testing79m\Microchip\TCPIP Stack\HTTP2.c
                 __pa_111   0x008ada    program     static D:\git\testing79m\Microchip\TCPIP Stack\HTTP2.c
                 __pa_112   0x008ae2    program     static D:\git\testing79m\Microchip\TCPIP Stack\HTTP2.c
                 __pa_113   0x008af0    program     static D:\git\testing79m\Microchip\TCPIP Stack\HTTP2.c
                 __pa_114   0x008af6    program     static D:\git\testing79m\Microchip\TCPIP Stack\HTTP2.c
                 __pa_115   0x008afc    program     static D:\git\testing79m\Microchip\TCPIP Stack\HTTP2.c
                 __pa_116   0x008b08    program     static D:\git\testing79m\Microchip\TCPIP Stack\HTTP2.c
                 __pa_117   0x008b14    program     static D:\git\testing79m\Microchip\TCPIP Stack\HTTP2.c
                 __pa_118   0x008b22    program     static D:\git\testing79m\Microchip\TCPIP Stack\HTTP2.c
                 __pa_119   0x008b30    program     static D:\git\testing79m\Microchip\TCPIP Stack\HTTP2.c
                 __pa_120   0x008b38    program     static D:\git\testing79m\Microchip\TCPIP Stack\HTTP2.c
                 __pa_121   0x008b3e    program     static D:\git\testing79m\Microchip\TCPIP Stack\HTTP2.c
                 __pa_122   0x008b48    program     static D:\git\testing79m\Microchip\TCPIP Stack\HTTP2.c
                 __pa_123   0x008b52    program     static D:\git\testing79m\Microchip\TCPIP Stack\HTTP2.c
                 __pa_124   0x008b5c    program     static D:\git\testing79m\Microchip\TCPIP Stack\HTTP2.c
                 __pa_125   0x008b64    program     static D:\git\testing79m\Microchip\TCPIP Stack\HTTP2.c
                 __pa_126   0x008b6c    program     static D:\git\testing79m\Microchip\TCPIP Stack\HTTP2.c
                 __pa_127   0x008b74    program     static D:\git\testing79m\Microchip\TCPIP Stack\HTTP2.c
                 __pa_128   0x008b7a    program     static D:\git\testing79m\Microchip\TCPIP Stack\HTTP2.c
                 __pa_129   0x008b94    program     static D:\git\testing79m\Microchip\TCPIP Stack\HTTP2.c
                 __pa_130   0x008b9c    program     static D:\git\testing79m\Microchip\TCPIP Stack\HTTP2.c
                 __pa_131   0x008ba2    program     static D:\git\testing79m\Microchip\TCPIP Stack\HTTP2.c
                 __pa_132   0x008ba8    program     static D:\git\testing79m\Microchip\TCPIP Stack\HTTP2.c
                 __pa_133   0x008bb8    program     static D:\git\testing79m\Microchip\TCPIP Stack\HTTP2.c
                 __pa_134   0x008bc2    program     static D:\git\testing79m\Microchip\TCPIP Stack\HTTP2.c
                 __pa_135   0x008bd2    program     static D:\git\testing79m\Microchip\TCPIP Stack\HTTP2.c
                 __pa_136   0x008bde    program     static D:\git\testing79m\Microchip\TCPIP Stack\HTTP2.c
                 __pa_137   0x008be8    program     static D:\git\testing79m\Microchip\TCPIP Stack\HTTP2.c
                 __pa_138   0x008bf8    program     static D:\git\testing79m\Microchip\TCPIP Stack\HTTP2.c
                 __pa_139   0x008c02    program     static D:\git\testing79m\Microchip\TCPIP Stack\HTTP2.c
                 __pa_140   0x008c0e    program     static D:\git\testing79m\Microchip\TCPIP Stack\HTTP2.c
                 __pa_141   0x008c18    program     static D:\git\testing79m\Microchip\TCPIP Stack\HTTP2.c
                 __pa_142   0x008c26    program     static D:\git\testing79m\Microchip\TCPIP Stack\HTTP2.c
                 __pa_143   0x008c34    program     static D:\git\testing79m\Microchip\TCPIP Stack\HTTP2.c
                 __pa_144   0x008c40    program     static D:\git\testing79m\Microchip\TCPIP Stack\HTTP2.c
                 __pa_145   0x008c48    program     static D:\git\testing79m\Microchip\TCPIP Stack\HTTP2.c
                 __pa_146   0x008c4e    program     static D:\git\testing79m\Microchip\TCPIP Stack\HTTP2.c
                 __pa_147   0x008c54    program     static D:\git\testing79m\Microchip\TCPIP Stack\HTTP2.c
                 __pa_148   0x008c5c    program     static D:\git\testing79m\Microchip\TCPIP Stack\HTTP2.c
                 __pa_149   0x008c64    program     static D:\git\testing79m\Microchip\TCPIP Stack\HTTP2.c
                 __pa_150   0x008c6e    program     static D:\git\testing79m\Microchip\TCPIP Stack\HTTP2.c
    HTTPGet__boInfoConfig   0x008c74    program     static D:\git\testing79m\App\WebUI\HTTPGetDevInfo.c
 HTTPGet__boNetworkConfig   0x008cba    program     static D:\git\testing79m\App\WebUI\HTTPGetDevInfo.c
      HTTPGet__boSetOnOff   0x008d48    program     static D:\git\testing79m\App\WebUI\HTTPGetDevInfo.c
HTTPGet__u8SetUpCvtRFFreq   0x008d90    program     static D:\git\testing79m\App\WebUI\HTTPGetDevInfo.c
HTTPGet__u8SetDownCvtRFFreq   0x008ea2    program     static D:\git\testing79m\App\WebUI\HTTPGetDevInfo.c
  HTTPGet__u8SetUpCvtAttn   0x008fb8    program     static D:\git\testing79m\App\WebUI\HTTPGetDevInfo.c
HTTPGet__u8SetDownCvtAttn   0x0090aa    program     static D:\git\testing79m\App\WebUI\HTTPGetDevInfo.c
 HTTPGet__u8SetUpCvtPower   0x0091a0    program     static D:\git\testing79m\App\WebUI\HTTPGetDevInfo.c
HTTPGet__u8SetUpCvtSetPower   0x00926e    program     static D:\git\testing79m\App\WebUI\HTTPGetDevInfo.c
HTTPGet__u8SetDownCvtPower   0x009372    program     static D:\git\testing79m\App\WebUI\HTTPGetDevInfo.c
HTTPGet__u8SetDownCvtSetPower   0x009444    program     static D:\git\testing79m\App\WebUI\HTTPGetDevInfo.c
   HTTPGet__u8SetUpCvtALC   0x00954c    program     static D:\git\testing79m\App\WebUI\HTTPGetDevInfo.c
 HTTPGet__u8SetDownCvtALC   0x0095e8    program     static D:\git\testing79m\App\WebUI\HTTPGetDevInfo.c
  HTTPGet__u8SetUpCvtMute   0x00968a    program     static D:\git\testing79m\App\WebUI\HTTPGetDevInfo.c
HTTPGet__u8SetDownCvtMute   0x00973c    program     static D:\git\testing79m\App\WebUI\HTTPGetDevInfo.c
   HTTPGet__u8SetVOL18VDC   0x0097e6    program     static D:\git\testing79m\App\WebUI\HTTPGetDevInfo.c
   HTTPGet__u8SetVOL24VDC   0x00984e    program     static D:\git\testing79m\App\WebUI\HTTPGetDevInfo.c
     HTTPGet__u8SetBUCREF   0x0098b4    program     static D:\git\testing79m\App\WebUI\HTTPGetDevInfo.c
     HTTPGet__u8SetLNBREF   0x00991a    program     static D:\git\testing79m\App\WebUI\HTTPGetDevInfo.c
   HTTPGet__u8ClearBUCIAm   0x00997c    program     static D:\git\testing79m\App\WebUI\HTTPGetDevInfo.c
   HTTPGet__u8ClearLNBIAm   0x0099ae    program     static D:\git\testing79m\App\WebUI\HTTPGetDevInfo.c
  HTTPGet__boDeviceConfig   0x0099e0    program     static D:\git\testing79m\App\WebUI\HTTPGetDevInfo.c
   HTTPExe_get_deviceinfo   0x009a0a    program     extern D:\git\testing79m\App\WebUI\HTTPGetDevInfo.c
                   __pa_0   0x009f0e    program     static D:\git\testing79m\App\WebUI\HTTPGetDevInfo.c
                   __pa_1   0x009f24    program     static D:\git\testing79m\App\WebUI\HTTPGetDevInfo.c
                   __pa_2   0x009f3e    program     static D:\git\testing79m\App\WebUI\HTTPGetDevInfo.c
                   __pa_3   0x009f5a    program     static D:\git\testing79m\App\WebUI\HTTPGetDevInfo.c
                   __pa_4   0x009f6c    program     static D:\git\testing79m\App\WebUI\HTTPGetDevInfo.c
                   __pa_5   0x009f72    program     static D:\git\testing79m\App\WebUI\HTTPGetDevInfo.c
             __tmplbl_113   0x009f78    program     static                          
             __tmplbl_109   0x009f78    program     static                          
             __tmplbl_110   0x009f78    program     static                          
             __tmplbl_114   0x009f78    program     static                          
             __tmplbl_115   0x009f78    program     static                          
                   __pa_6   0x009f78    program     static D:\git\testing79m\App\WebUI\HTTPGetDevInfo.c
             __tmplbl_116   0x009f78    program     static                          
             __tmplbl_119   0x009f78    program     static                          
             __tmplbl_112   0x009f78    program     static                          
             __tmplbl_111   0x009f78    program     static                          
             __tmplbl_117   0x009f78    program     static                          
             __tmplbl_118   0x009f78    program     static                          
                   __pa_7   0x009f84    program     static D:\git\testing79m\App\WebUI\HTTPGetDevInfo.c
                   __pa_8   0x009f8c    program     static D:\git\testing79m\App\WebUI\HTTPGetDevInfo.c
                   __pa_9   0x00a00e    program     static D:\git\testing79m\App\WebUI\HTTPGetDevInfo.c
                  __pa_10   0x00a014    program     static D:\git\testing79m\App\WebUI\HTTPGetDevInfo.c
                  __pa_11   0x00a01c    program     static D:\git\testing79m\App\WebUI\HTTPGetDevInfo.c
                  __pa_12   0x00a038    program     static D:\git\testing79m\App\WebUI\HTTPGetDevInfo.c
                  __pa_13   0x00a058    program     static D:\git\testing79m\App\WebUI\HTTPGetDevInfo.c
                  __pa_14   0x00a074    program     static D:\git\testing79m\App\WebUI\HTTPGetDevInfo.c
                  __pa_15   0x00a07c    program     static D:\git\testing79m\App\WebUI\HTTPGetDevInfo.c
                  __pa_16   0x00a092    program     static D:\git\testing79m\App\WebUI\HTTPGetDevInfo.c
                  __pa_17   0x00a0c8    program     static D:\git\testing79m\App\WebUI\HTTPGetDevInfo.c
                  __pa_18   0x00a0e0    program     static D:\git\testing79m\App\WebUI\HTTPGetDevInfo.c
                  __pa_19   0x00a0f4    program     static D:\git\testing79m\App\WebUI\HTTPGetDevInfo.c
                  __pa_20   0x00a108    program     static D:\git\testing79m\App\WebUI\HTTPGetDevInfo.c
                  __pa_21   0x00a118    program     static D:\git\testing79m\App\WebUI\HTTPGetDevInfo.c
                  __pa_22   0x00a128    program     static D:\git\testing79m\App\WebUI\HTTPGetDevInfo.c
                  __pa_23   0x00a138    program     static D:\git\testing79m\App\WebUI\HTTPGetDevInfo.c
                  __pa_24   0x00a142    program     static D:\git\testing79m\App\WebUI\HTTPGetDevInfo.c
                  __pa_25   0x00a14a    program     static D:\git\testing79m\App\WebUI\HTTPGetDevInfo.c
                  __pa_26   0x00a158    program     static D:\git\testing79m\App\WebUI\HTTPGetDevInfo.c
                  __pa_27   0x00a170    program     static D:\git\testing79m\App\WebUI\HTTPGetDevInfo.c
                  __pa_28   0x00a17c    program     static D:\git\testing79m\App\WebUI\HTTPGetDevInfo.c
                  __pa_29   0x00a1a6    program     static D:\git\testing79m\App\WebUI\HTTPGetDevInfo.c
                  __pa_30   0x00a1b0    program     static D:\git\testing79m\App\WebUI\HTTPGetDevInfo.c
                  __pa_31   0x00a1c0    program     static D:\git\testing79m\App\WebUI\HTTPGetDevInfo.c
                  __pa_32   0x00a1c6    program     static D:\git\testing79m\App\WebUI\HTTPGetDevInfo.c
                  __pa_33   0x00a1cc    program     static D:\git\testing79m\App\WebUI\HTTPGetDevInfo.c
                  __pa_34   0x00a1d6    program     static D:\git\testing79m\App\WebUI\HTTPGetDevInfo.c
                  __pa_35   0x00a1e4    program     static D:\git\testing79m\App\WebUI\HTTPGetDevInfo.c
                  __pa_36   0x00a1ec    program     static D:\git\testing79m\App\WebUI\HTTPGetDevInfo.c
                  __pa_37   0x00a1fe    program     static D:\git\testing79m\App\WebUI\HTTPGetDevInfo.c
                  __pa_38   0x00a20e    program     static D:\git\testing79m\App\WebUI\HTTPGetDevInfo.c
                  __pa_39   0x00a22a    program     static D:\git\testing79m\App\WebUI\HTTPGetDevInfo.c
                  __pa_40   0x00a242    program     static D:\git\testing79m\App\WebUI\HTTPGetDevInfo.c
                  __pa_41   0x00a250    program     static D:\git\testing79m\App\WebUI\HTTPGetDevInfo.c
                  __pa_42   0x00a25e    program     static D:\git\testing79m\App\WebUI\HTTPGetDevInfo.c
                  __pa_43   0x00a26c    program     static D:\git\testing79m\App\WebUI\HTTPGetDevInfo.c
                  __pa_44   0x00a282    program     static D:\git\testing79m\App\WebUI\HTTPGetDevInfo.c
                  __pa_45   0x00a28c    program     static D:\git\testing79m\App\WebUI\HTTPGetDevInfo.c
                  __pa_46   0x00a296    program     static D:\git\testing79m\App\WebUI\HTTPGetDevInfo.c
                  __pa_47   0x00a2a2    program     static D:\git\testing79m\App\WebUI\HTTPGetDevInfo.c
                  __pa_48   0x00a2ae    program     static D:\git\testing79m\App\WebUI\HTTPGetDevInfo.c
                  __pa_49   0x00a2ba    program     static D:\git\testing79m\App\WebUI\HTTPGetDevInfo.c
                  __pa_50   0x00a2ca    program     static D:\git\testing79m\App\WebUI\HTTPGetDevInfo.c
                  __pa_51   0x00a2d4    program     static D:\git\testing79m\App\WebUI\HTTPGetDevInfo.c
                  __pa_52   0x00a2e4    program     static D:\git\testing79m\App\WebUI\HTTPGetDevInfo.c
                  __pa_53   0x00a2f2    program     static D:\git\testing79m\App\WebUI\HTTPGetDevInfo.c
                  __pa_54   0x00a2fc    program     static D:\git\testing79m\App\WebUI\HTTPGetDevInfo.c
                  __pa_55   0x00a310    program     static D:\git\testing79m\App\WebUI\HTTPGetDevInfo.c
                  __pa_56   0x00a324    program     static D:\git\testing79m\App\WebUI\HTTPGetDevInfo.c
                  __pa_57   0x00a338    program     static D:\git\testing79m\App\WebUI\HTTPGetDevInfo.c
                  __pa_58   0x00a340    program     static D:\git\testing79m\App\WebUI\HTTPGetDevInfo.c
                  __pa_59   0x00a348    program     static D:\git\testing79m\App\WebUI\HTTPGetDevInfo.c
                  __pa_60   0x00a35a    program     static D:\git\testing79m\App\WebUI\HTTPGetDevInfo.c
                  __pa_61   0x00a36c    program     static D:\git\testing79m\App\WebUI\HTTPGetDevInfo.c
                  __pa_62   0x00a378    program     static D:\git\testing79m\App\WebUI\HTTPGetDevInfo.c
                  __pa_63   0x00a384    program     static D:\git\testing79m\App\WebUI\HTTPGetDevInfo.c
                  __pa_64   0x00a390    program     static D:\git\testing79m\App\WebUI\HTTPGetDevInfo.c
                  __pa_65   0x00a3a0    program     static D:\git\testing79m\App\WebUI\HTTPGetDevInfo.c
                  __pa_66   0x00a3ae    program     static D:\git\testing79m\App\WebUI\HTTPGetDevInfo.c
                  __pa_67   0x00a3bc    program     static D:\git\testing79m\App\WebUI\HTTPGetDevInfo.c
                  __pa_68   0x00a3ca    program     static D:\git\testing79m\App\WebUI\HTTPGetDevInfo.c
                  __pa_69   0x00a3d8    program     static D:\git\testing79m\App\WebUI\HTTPGetDevInfo.c
                  __pa_70   0x00a3e6    program     static D:\git\testing79m\App\WebUI\HTTPGetDevInfo.c
                  __pa_71   0x00a3ee    program     static D:\git\testing79m\App\WebUI\HTTPGetDevInfo.c
                  __pa_72   0x00a3fc    program     static D:\git\testing79m\App\WebUI\HTTPGetDevInfo.c
                  __pa_73   0x00a404    program     static D:\git\testing79m\App\WebUI\HTTPGetDevInfo.c
                  __pa_74   0x00a40c    program     static D:\git\testing79m\App\WebUI\HTTPGetDevInfo.c
                  __pa_75   0x00a416    program     static D:\git\testing79m\App\WebUI\HTTPGetDevInfo.c
                  __pa_76   0x00a420    program     static D:\git\testing79m\App\WebUI\HTTPGetDevInfo.c
                  __pa_77   0x00a42a    program     static D:\git\testing79m\App\WebUI\HTTPGetDevInfo.c
                  __pa_78   0x00a434    program     static D:\git\testing79m\App\WebUI\HTTPGetDevInfo.c
                  __pa_79   0x00a43e    program     static D:\git\testing79m\App\WebUI\HTTPGetDevInfo.c
                  __pa_80   0x00a47c    program     static D:\git\testing79m\App\WebUI\HTTPGetDevInfo.c
                  __pa_81   0x00a4a0    program     static D:\git\testing79m\App\WebUI\HTTPGetDevInfo.c
                  __pa_82   0x00a4b0    program     static D:\git\testing79m\App\WebUI\HTTPGetDevInfo.c
                  __pa_83   0x00a4be    program     static D:\git\testing79m\App\WebUI\HTTPGetDevInfo.c
             __tmplbl_123   0x00a4c4    program     static                          
             __tmplbl_124   0x00a4c4    program     static                          
             __tmplbl_125   0x00a4c4    program     static                          
             __tmplbl_126   0x00a4c4    program     static                          
             __tmplbl_127   0x00a4c4    program     static                          
             __tmplbl_128   0x00a4c4    program     static                          
             __tmplbl_122   0x00a4c4    program     static                          
             __tmplbl_121   0x00a4c4    program     static                          
             __tmplbl_120   0x00a4c4    program     static                          
             __tmplbl_129   0x00a4c4    program     static                          
                  __pa_84   0x00a4c4    program     static D:\git\testing79m\App\WebUI\HTTPGetDevInfo.c
                  __pa_85   0x00a4cc    program     static D:\git\testing79m\App\WebUI\HTTPGetDevInfo.c
                  __pa_86   0x00a4e0    program     static D:\git\testing79m\App\WebUI\HTTPGetDevInfo.c
                  __pa_87   0x00a4ea    program     static D:\git\testing79m\App\WebUI\HTTPGetDevInfo.c
                  __pa_88   0x00a4f8    program     static D:\git\testing79m\App\WebUI\HTTPGetDevInfo.c
                  __pa_89   0x00a506    program     static D:\git\testing79m\App\WebUI\HTTPGetDevInfo.c
                  __pa_90   0x00a510    program     static D:\git\testing79m\App\WebUI\HTTPGetDevInfo.c
                  __pa_91   0x00a51a    program     static D:\git\testing79m\App\WebUI\HTTPGetDevInfo.c
                  __pa_92   0x00a52e    program     static D:\git\testing79m\App\WebUI\HTTPGetDevInfo.c
                  __pa_93   0x00a540    program     static D:\git\testing79m\App\WebUI\HTTPGetDevInfo.c
                  __pa_94   0x00a552    program     static D:\git\testing79m\App\WebUI\HTTPGetDevInfo.c
                  __pa_95   0x00a55e    program     static D:\git\testing79m\App\WebUI\HTTPGetDevInfo.c
                  __pa_96   0x00a568    program     static D:\git\testing79m\App\WebUI\HTTPGetDevInfo.c
                  __pa_97   0x00a576    program     static D:\git\testing79m\App\WebUI\HTTPGetDevInfo.c
                  __pa_98   0x00a580    program     static D:\git\testing79m\App\WebUI\HTTPGetDevInfo.c
                  __pa_99   0x00a58a    program     static D:\git\testing79m\App\WebUI\HTTPGetDevInfo.c
                 __pa_100   0x00a598    program     static D:\git\testing79m\App\WebUI\HTTPGetDevInfo.c
                 __pa_101   0x00a5a6    program     static D:\git\testing79m\App\WebUI\HTTPGetDevInfo.c
                 __pa_102   0x00a5b4    program     static D:\git\testing79m\App\WebUI\HTTPGetDevInfo.c
                 __pa_103   0x00a5c2    program     static D:\git\testing79m\App\WebUI\HTTPGetDevInfo.c
                 __pa_104   0x00a5ca    program     static D:\git\testing79m\App\WebUI\HTTPGetDevInfo.c
                 __pa_105   0x00a5d0    program     static D:\git\testing79m\App\WebUI\HTTPGetDevInfo.c
                 __pa_106   0x00a5d6    program     static D:\git\testing79m\App\WebUI\HTTPGetDevInfo.c
                 __pa_107   0x00a5dc    program     static D:\git\testing79m\App\WebUI\HTTPGetDevInfo.c
                 __pa_108   0x00a5e8    program     static D:\git\testing79m\App\WebUI\HTTPGetDevInfo.c
                 __pa_109   0x00a5ee    program     static D:\git\testing79m\App\WebUI\HTTPGetDevInfo.c
                 __pa_110   0x00a5f4    program     static D:\git\testing79m\App\WebUI\HTTPGetDevInfo.c
                 __pa_111   0x00a5fc    program     static D:\git\testing79m\App\WebUI\HTTPGetDevInfo.c
                 __pa_112   0x00a604    program     static D:\git\testing79m\App\WebUI\HTTPGetDevInfo.c
                 __pa_113   0x00a612    program     static D:\git\testing79m\App\WebUI\HTTPGetDevInfo.c
                 __pa_114   0x00a620    program     static D:\git\testing79m\App\WebUI\HTTPGetDevInfo.c
                 __pa_115   0x00a62e    program     static D:\git\testing79m\App\WebUI\HTTPGetDevInfo.c
                 __pa_116   0x00a63c    program     static D:\git\testing79m\App\WebUI\HTTPGetDevInfo.c
                 __pa_117   0x00a646    program     static D:\git\testing79m\App\WebUI\HTTPGetDevInfo.c
                 __pa_118   0x00a64e    program     static D:\git\testing79m\App\WebUI\HTTPGetDevInfo.c
                 __pa_119   0x00a656    program     static D:\git\testing79m\App\WebUI\HTTPGetDevInfo.c
                 __pa_120   0x00a66a    program     static D:\git\testing79m\App\WebUI\HTTPGetDevInfo.c
                 __pa_121   0x00a674    program     static D:\git\testing79m\App\WebUI\HTTPGetDevInfo.c
                 __pa_122   0x00a682    program     static D:\git\testing79m\App\WebUI\HTTPGetDevInfo.c
         Util_u16ByteSwap   0x00a68a    program     extern D:\git\testing79m\SysLib\util.c
        Util_u16DWORDSwap   0x00a716    program     extern D:\git\testing79m\SysLib\util.c
      Util_u8String2int16   0x00a900    program     extern D:\git\testing79m\SysLib\util.c
Util_u8String2int32_noDotH   0x00a9cc    program     extern D:\git\testing79m\SysLib\util.c
Util_u8String2int32_noDotL   0x00aa72    program     extern D:\git\testing79m\SysLib\util.c
      Util_u8String2DWORD   0x00ab18    program     extern D:\git\testing79m\SysLib\util.c
      Util_u8Float2String   0x00ab52    program     extern D:\git\testing79m\SysLib\util.c
      Util_u8String2Float   0x00ac10    program     extern D:\git\testing79m\SysLib\util.c
     Util_u8String2NFloat   0x00ace4    program     extern D:\git\testing79m\SysLib\util.c
                ASC2toHEX   0x00add0    program     extern D:\git\testing79m\SysLib\util.c
                HEXto2ASC   0x00ae42    program     extern D:\git\testing79m\SysLib\util.c
                  DelayMS   0x00ae8a    program     extern D:\git\testing79m\SysLib\util.c
                  Hex2Int   0x00aeba    program     extern D:\git\testing79m\SysLib\util.c
                  Int2Hex   0x00aef4    program     extern D:\git\testing79m\SysLib\util.c
                    atof5   0x00af5c    program     extern D:\git\testing79m\SysLib\util.c
                    atof1   0x00afe2    program     extern D:\git\testing79m\SysLib\util.c
            SaveAppConfig   0x00b07e    program     extern D:\git\testing79m\SysLib\util.c
              SaveSetting   0x00b0a2    program     extern D:\git\testing79m\SysLib\util.c
           DisplayIPValue   0x00b0f0    program     extern D:\git\testing79m\SysLib\util.c
                   __pa_0   0x00b174    program     static D:\git\testing79m\SysLib\util.c
                   __pa_1   0x00b17e    program     static D:\git\testing79m\SysLib\util.c
                   __pa_2   0x00b18a    program     static D:\git\testing79m\SysLib\util.c
                   __pa_3   0x00b190    program     static D:\git\testing79m\SysLib\util.c
              __tmplbl_42   0x00b1bc    program     static                          
                   __pa_4   0x00b1bc    program     static D:\git\testing79m\SysLib\util.c
              __tmplbl_41   0x00b1bc    program     static                          
                   __pa_5   0x00b1c8    program     static D:\git\testing79m\SysLib\util.c
                   __pa_6   0x00b1ce    program     static D:\git\testing79m\SysLib\util.c
                   __pa_7   0x00b228    program     static D:\git\testing79m\SysLib\util.c
                   __pa_8   0x00b242    program     static D:\git\testing79m\SysLib\util.c
                   __pa_9   0x00b25c    program     static D:\git\testing79m\SysLib\util.c
                  __pa_10   0x00b266    program     static D:\git\testing79m\SysLib\util.c
                  __pa_11   0x00b26e    program     static D:\git\testing79m\SysLib\util.c
                  __pa_12   0x00b276    program     static D:\git\testing79m\SysLib\util.c
                  __pa_13   0x00b2aa    program     static D:\git\testing79m\SysLib\util.c
                  __pa_14   0x00b2bc    program     static D:\git\testing79m\SysLib\util.c
                  __pa_15   0x00b2c4    program     static D:\git\testing79m\SysLib\util.c
                  __pa_16   0x00b2f6    program     static D:\git\testing79m\SysLib\util.c
                  __pa_17   0x00b308    program     static D:\git\testing79m\SysLib\util.c
                  __pa_18   0x00b314    program     static D:\git\testing79m\SysLib\util.c
                  __pa_19   0x00b322    program     static D:\git\testing79m\SysLib\util.c
                  __pa_20   0x00b33c    program     static D:\git\testing79m\SysLib\util.c
                  __pa_21   0x00b356    program     static D:\git\testing79m\SysLib\util.c
                  __pa_22   0x00b360    program     static D:\git\testing79m\SysLib\util.c
                  __pa_23   0x00b36a    program     static D:\git\testing79m\SysLib\util.c
                  __pa_24   0x00b37e    program     static D:\git\testing79m\SysLib\util.c
                  __pa_25   0x00b38c    program     static D:\git\testing79m\SysLib\util.c
                  __pa_26   0x00b39e    program     static D:\git\testing79m\SysLib\util.c
                  __pa_27   0x00b3ac    program     static D:\git\testing79m\SysLib\util.c
                  __pa_28   0x00b3c4    program     static D:\git\testing79m\SysLib\util.c
                  __pa_29   0x00b3d0    program     static D:\git\testing79m\SysLib\util.c
                  __pa_30   0x00b3dc    program     static D:\git\testing79m\SysLib\util.c
                  __pa_31   0x00b3ea    program     static D:\git\testing79m\SysLib\util.c
                  __pa_32   0x00b3f8    program     static D:\git\testing79m\SysLib\util.c
                  __pa_33   0x00b40c    program     static D:\git\testing79m\SysLib\util.c
                  __pa_34   0x00b418    program     static D:\git\testing79m\SysLib\util.c
                  __pa_35   0x00b42a    program     static D:\git\testing79m\SysLib\util.c
                  __pa_36   0x00b432    program     static D:\git\testing79m\SysLib\util.c
                  __pa_37   0x00b43e    program     static D:\git\testing79m\SysLib\util.c
                  __pa_38   0x00b448    program     static D:\git\testing79m\SysLib\util.c
                  __pa_39   0x00b456    program     static D:\git\testing79m\SysLib\util.c
                  __pa_40   0x00b464    program     static D:\git\testing79m\SysLib\util.c
                  __pa_41   0x00b472    program     static D:\git\testing79m\SysLib\util.c
                  __pa_42   0x00b480    program     static D:\git\testing79m\SysLib\util.c
                  __pa_43   0x00b48a    program     static D:\git\testing79m\SysLib\util.c
                  __pa_44   0x00b494    program     static D:\git\testing79m\SysLib\util.c
                  __pa_45   0x00b49e    program     static D:\git\testing79m\SysLib\util.c
                  __pa_46   0x00b4a6    program     static D:\git\testing79m\SysLib\util.c
                  __pa_47   0x00b4cc    program     static D:\git\testing79m\SysLib\util.c
                  __pa_48   0x00b4ee    program     static D:\git\testing79m\SysLib\util.c
                  __pa_49   0x00b4f6    program     static D:\git\testing79m\SysLib\util.c
                  __pa_50   0x00b504    program     static D:\git\testing79m\SysLib\util.c
                  __pa_51   0x00b50c    program     static D:\git\testing79m\SysLib\util.c
                  __pa_52   0x00b514    program     static D:\git\testing79m\SysLib\util.c
                  __pa_53   0x00b526    program     static D:\git\testing79m\SysLib\util.c
                  __pa_54   0x00b534    program     static D:\git\testing79m\SysLib\util.c
                  __pa_55   0x00b53c    program     static D:\git\testing79m\SysLib\util.c
                  __pa_56   0x00b54a    program     static D:\git\testing79m\SysLib\util.c
                  __pa_57   0x00b558    program     static D:\git\testing79m\SysLib\util.c
                  __pa_58   0x00b562    program     static D:\git\testing79m\SysLib\util.c
                  __pa_59   0x00b574    program     static D:\git\testing79m\SysLib\util.c
                  __pa_60   0x00b57c    program     static D:\git\testing79m\SysLib\util.c
                  __pa_61   0x00b586    program     static D:\git\testing79m\SysLib\util.c
                  __pa_62   0x00b58c    program     static D:\git\testing79m\SysLib\util.c
                  __pa_63   0x00b59a    program     static D:\git\testing79m\SysLib\util.c
                  __pa_64   0x00b5a8    program     static D:\git\testing79m\SysLib\util.c
                  __pa_65   0x00b5b4    program     static D:\git\testing79m\SysLib\util.c
                  __pa_66   0x00b5c2    program     static D:\git\testing79m\SysLib\util.c
                  __pa_67   0x00b5cc    program     static D:\git\testing79m\SysLib\util.c
                  __pa_68   0x00b5d2    program     static D:\git\testing79m\SysLib\util.c
                  __pa_69   0x00b5dc    program     static D:\git\testing79m\SysLib\util.c
                  __pa_70   0x00b5e4    program     static D:\git\testing79m\SysLib\util.c
                  __pa_71   0x00b5ee    program     static D:\git\testing79m\SysLib\util.c
                  __pa_72   0x00b5f8    program     static D:\git\testing79m\SysLib\util.c
                  __pa_73   0x00b602    program     static D:\git\testing79m\SysLib\util.c
                  __pa_74   0x00b620    program     static D:\git\testing79m\SysLib\util.c
                  __pa_75   0x00b63e    program     static D:\git\testing79m\SysLib\util.c
                  __pa_76   0x00b644    program     static D:\git\testing79m\SysLib\util.c
                  __pa_77   0x00b656    program     static D:\git\testing79m\SysLib\util.c
                  __pa_78   0x00b668    program     static D:\git\testing79m\SysLib\util.c
                  __pa_79   0x00b676    program     static D:\git\testing79m\SysLib\util.c
                  __pa_80   0x00b67c    program     static D:\git\testing79m\SysLib\util.c
                  __pa_81   0x00b682    program     static D:\git\testing79m\SysLib\util.c
                  __pa_82   0x00b688    program     static D:\git\testing79m\SysLib\util.c
                 MPFSInit   0x00b690    program     extern D:\git\testing79m\Microchip\TCPIP Stack\MPFS2.c
                 MPFSOpen   0x00b6c6    program     extern D:\git\testing79m\Microchip\TCPIP Stack\MPFS2.c
              MPFSOpenROM   0x00b814    program     extern D:\git\testing79m\Microchip\TCPIP Stack\MPFS2.c
               MPFSOpenID   0x00b958    program     extern D:\git\testing79m\Microchip\TCPIP Stack\MPFS2.c
                MPFSClose   0x00b9d6    program     extern D:\git\testing79m\Microchip\TCPIP Stack\MPFS2.c
                  MPFSGet   0x00b9ee    program     extern D:\git\testing79m\Microchip\TCPIP Stack\MPFS2.c
             MPFSGetArray   0x00ba94    program     extern D:\git\testing79m\Microchip\TCPIP Stack\MPFS2.c
              MPFSGetLong   0x00bb24    program     extern D:\git\testing79m\Microchip\TCPIP Stack\MPFS2.c
                 MPFSSeek   0x00bb64    program     extern D:\git\testing79m\Microchip\TCPIP Stack\MPFS2.c
               MPFSFormat   0x00bc82    program     extern D:\git\testing79m\Microchip\TCPIP Stack\MPFS2.c
             MPFSPutArray   0x00bd04    program     extern D:\git\testing79m\Microchip\TCPIP Stack\MPFS2.c
               MPFSPutEnd   0x00bd8a    program     extern D:\git\testing79m\Microchip\TCPIP Stack\MPFS2.c
           _LoadFATRecord   0x00bda6    program     static D:\git\testing79m\Microchip\TCPIP Stack\MPFS2.c
         MPFSGetTimestamp   0x00be32    program     extern D:\git\testing79m\Microchip\TCPIP Stack\MPFS2.c
         MPFSGetMicrotime   0x00be64    program     extern D:\git\testing79m\Microchip\TCPIP Stack\MPFS2.c
             MPFSGetFlags   0x00be96    program     extern D:\git\testing79m\Microchip\TCPIP Stack\MPFS2.c
              MPFSGetSize   0x00bec2    program     extern D:\git\testing79m\Microchip\TCPIP Stack\MPFS2.c
          MPFSGetBytesRem   0x00bef4    program     extern D:\git\testing79m\Microchip\TCPIP Stack\MPFS2.c
         MPFSGetStartAddr   0x00bf1e    program     extern D:\git\testing79m\Microchip\TCPIP Stack\MPFS2.c
           MPFSGetEndAddr   0x00bf5a    program     extern D:\git\testing79m\Microchip\TCPIP Stack\MPFS2.c
          MPFSGetFilename   0x00bfa8    program     extern D:\git\testing79m\Microchip\TCPIP Stack\MPFS2.c
          MPFSGetPosition   0x00c02e    program     extern D:\git\testing79m\Microchip\TCPIP Stack\MPFS2.c
                MPFSGetID   0x00c060    program     extern D:\git\testing79m\Microchip\TCPIP Stack\MPFS2.c
                _Validate   0x00c072    program     static D:\git\testing79m\Microchip\TCPIP Stack\MPFS2.c
                   __pa_0   0x00c0ea    program     static D:\git\testing79m\Microchip\TCPIP Stack\MPFS2.c
                   __pa_1   0x00c0f0    program     static D:\git\testing79m\Microchip\TCPIP Stack\MPFS2.c
                   __pa_2   0x00c0f6    program     static D:\git\testing79m\Microchip\TCPIP Stack\MPFS2.c
                   __pa_3   0x00c0fa    program     static D:\git\testing79m\Microchip\TCPIP Stack\MPFS2.c
              __tmplbl_61   0x00c0fa    program     static                          
              __tmplbl_60   0x00c0fa    program     static                          
                   __pa_4   0x00c106    program     static D:\git\testing79m\Microchip\TCPIP Stack\MPFS2.c
                   __pa_5   0x00c118    program     static D:\git\testing79m\Microchip\TCPIP Stack\MPFS2.c
                   __pa_6   0x00c13a    program     static D:\git\testing79m\Microchip\TCPIP Stack\MPFS2.c
                   __pa_7   0x00c17e    program     static D:\git\testing79m\Microchip\TCPIP Stack\MPFS2.c
                   __pa_8   0x00c186    program     static D:\git\testing79m\Microchip\TCPIP Stack\MPFS2.c
                   __pa_9   0x00c18c    program     static D:\git\testing79m\Microchip\TCPIP Stack\MPFS2.c
                  __pa_10   0x00c196    program     static D:\git\testing79m\Microchip\TCPIP Stack\MPFS2.c
                  __pa_11   0x00c1ac    program     static D:\git\testing79m\Microchip\TCPIP Stack\MPFS2.c
                  __pa_12   0x00c1b6    program     static D:\git\testing79m\Microchip\TCPIP Stack\MPFS2.c
                  __pa_13   0x00c1c0    program     static D:\git\testing79m\Microchip\TCPIP Stack\MPFS2.c
                  __pa_14   0x00c1d4    program     static D:\git\testing79m\Microchip\TCPIP Stack\MPFS2.c
                  __pa_15   0x00c1e6    program     static D:\git\testing79m\Microchip\TCPIP Stack\MPFS2.c
                  __pa_16   0x00c20c    program     static D:\git\testing79m\Microchip\TCPIP Stack\MPFS2.c
                  __pa_17   0x00c226    program     static D:\git\testing79m\Microchip\TCPIP Stack\MPFS2.c
                  __pa_18   0x00c23a    program     static D:\git\testing79m\Microchip\TCPIP Stack\MPFS2.c
                  __pa_19   0x00c244    program     static D:\git\testing79m\Microchip\TCPIP Stack\MPFS2.c
                  __pa_20   0x00c252    program     static D:\git\testing79m\Microchip\TCPIP Stack\MPFS2.c
                  __pa_21   0x00c274    program     static D:\git\testing79m\Microchip\TCPIP Stack\MPFS2.c
                  __pa_22   0x00c294    program     static D:\git\testing79m\Microchip\TCPIP Stack\MPFS2.c
                  __pa_23   0x00c2a6    program     static D:\git\testing79m\Microchip\TCPIP Stack\MPFS2.c
                  __pa_24   0x00c2b8    program     static D:\git\testing79m\Microchip\TCPIP Stack\MPFS2.c
                  __pa_25   0x00c2c6    program     static D:\git\testing79m\Microchip\TCPIP Stack\MPFS2.c
                  __pa_26   0x00c2e2    program     static D:\git\testing79m\Microchip\TCPIP Stack\MPFS2.c
                  __pa_27   0x00c2fc    program     static D:\git\testing79m\Microchip\TCPIP Stack\MPFS2.c
                  __pa_28   0x00c316    program     static D:\git\testing79m\Microchip\TCPIP Stack\MPFS2.c
                  __pa_29   0x00c330    program     static D:\git\testing79m\Microchip\TCPIP Stack\MPFS2.c
                  __pa_30   0x00c340    program     static D:\git\testing79m\Microchip\TCPIP Stack\MPFS2.c
                  __pa_31   0x00c358    program     static D:\git\testing79m\Microchip\TCPIP Stack\MPFS2.c
                  __pa_32   0x00c36a    program     static D:\git\testing79m\Microchip\TCPIP Stack\MPFS2.c
                  __pa_33   0x00c380    program     static D:\git\testing79m\Microchip\TCPIP Stack\MPFS2.c
                  __pa_34   0x00c38e    program     static D:\git\testing79m\Microchip\TCPIP Stack\MPFS2.c
                  __pa_35   0x00c39c    program     static D:\git\testing79m\Microchip\TCPIP Stack\MPFS2.c
                  __pa_36   0x00c3aa    program     static D:\git\testing79m\Microchip\TCPIP Stack\MPFS2.c
                  __pa_37   0x00c3b4    program     static D:\git\testing79m\Microchip\TCPIP Stack\MPFS2.c
                  __pa_38   0x00c3c6    program     static D:\git\testing79m\Microchip\TCPIP Stack\MPFS2.c
                  __pa_39   0x00c3d4    program     static D:\git\testing79m\Microchip\TCPIP Stack\MPFS2.c
                  __pa_40   0x00c3e2    program     static D:\git\testing79m\Microchip\TCPIP Stack\MPFS2.c
                  __pa_41   0x00c3ec    program     static D:\git\testing79m\Microchip\TCPIP Stack\MPFS2.c
                  __pa_42   0x00c3f6    program     static D:\git\testing79m\Microchip\TCPIP Stack\MPFS2.c
                  __pa_43   0x00c408    program     static D:\git\testing79m\Microchip\TCPIP Stack\MPFS2.c
                  __pa_44   0x00c430    program     static D:\git\testing79m\Microchip\TCPIP Stack\MPFS2.c
                  __pa_45   0x00c43a    program     static D:\git\testing79m\Microchip\TCPIP Stack\MPFS2.c
                  __pa_46   0x00c454    program     static D:\git\testing79m\Microchip\TCPIP Stack\MPFS2.c
                  __pa_47   0x00c45c    program     static D:\git\testing79m\Microchip\TCPIP Stack\MPFS2.c
                  __pa_48   0x00c46c    program     static D:\git\testing79m\Microchip\TCPIP Stack\MPFS2.c
                  __pa_49   0x00c484    program     static D:\git\testing79m\Microchip\TCPIP Stack\MPFS2.c
                  __pa_50   0x00c492    program     static D:\git\testing79m\Microchip\TCPIP Stack\MPFS2.c
                  __pa_51   0x00c498    program     static D:\git\testing79m\Microchip\TCPIP Stack\MPFS2.c
                  __pa_52   0x00c4b4    program     static D:\git\testing79m\Microchip\TCPIP Stack\MPFS2.c
                  __pa_53   0x00c4c4    program     static D:\git\testing79m\Microchip\TCPIP Stack\MPFS2.c
                  __pa_54   0x00c4dc    program     static D:\git\testing79m\Microchip\TCPIP Stack\MPFS2.c
                  __pa_55   0x00c4ea    program     static D:\git\testing79m\Microchip\TCPIP Stack\MPFS2.c
                  __pa_56   0x00c4fe    program     static D:\git\testing79m\Microchip\TCPIP Stack\MPFS2.c
                  __pa_57   0x00c50c    program     static D:\git\testing79m\Microchip\TCPIP Stack\MPFS2.c
                  __pa_58   0x00c51e    program     static D:\git\testing79m\Microchip\TCPIP Stack\MPFS2.c
                  __pa_59   0x00c528    program     static D:\git\testing79m\Microchip\TCPIP Stack\MPFS2.c
                  __pa_60   0x00c534    program     static D:\git\testing79m\Microchip\TCPIP Stack\MPFS2.c
                  __pa_61   0x00c542    program     static D:\git\testing79m\Microchip\TCPIP Stack\MPFS2.c
                  __pa_62   0x00c550    program     static D:\git\testing79m\Microchip\TCPIP Stack\MPFS2.c
                  __pa_63   0x00c558    program     static D:\git\testing79m\Microchip\TCPIP Stack\MPFS2.c
                  __pa_64   0x00c562    program     static D:\git\testing79m\Microchip\TCPIP Stack\MPFS2.c
                  __pa_65   0x00c568    program     static D:\git\testing79m\Microchip\TCPIP Stack\MPFS2.c
                  __pa_66   0x00c582    program     static D:\git\testing79m\Microchip\TCPIP Stack\MPFS2.c
                  __pa_67   0x00c590    program     static D:\git\testing79m\Microchip\TCPIP Stack\MPFS2.c
                  __pa_68   0x00c59a    program     static D:\git\testing79m\Microchip\TCPIP Stack\MPFS2.c
    HTTPPrint_DeviceModel   0x00c5a2    program     extern D:\git\testing79m\App\WebUI\HTTPPrint.c
   HTTPPrint_DeviceSerial   0x00c5ae    program     extern D:\git\testing79m\App\WebUI\HTTPPrint.c
    HTTPPrint_dhcp_status   0x00c5ba    program     extern D:\git\testing79m\App\WebUI\HTTPPrint.c
              HTTPPrintIP   0x00c5e2    program     extern D:\git\testing79m\App\WebUI\HTTPPrint.c
            HTTPPrint_MIP   0x00c63e    program     extern D:\git\testing79m\App\WebUI\HTTPPrint.c
      HTTPPrint_static_ip   0x00c652    program     extern D:\git\testing79m\App\WebUI\HTTPPrint.c
      HTTPPrint_config_ip   0x00c672    program     extern D:\git\testing79m\App\WebUI\HTTPPrint.c
  HTTPPrint_config_subnet   0x00c67a    program     extern D:\git\testing79m\App\WebUI\HTTPPrint.c
      HTTPPrint_config_gw   0x00c68e    program     extern D:\git\testing79m\App\WebUI\HTTPPrint.c
    HTTPPrint_Devicefwver   0x00c6a2    program     extern D:\git\testing79m\App\WebUI\HTTPPrint.c
                 GetPower   0x00c6c2    program     extern D:\git\testing79m\App\WebUI\HTTPPrint.c
            GetWORDString   0x00c71c    program     extern D:\git\testing79m\App\WebUI\HTTPPrint.c
           GetDWORDString   0x00c7aa    program     extern D:\git\testing79m\App\WebUI\HTTPPrint.c
HTTPPrint_converterarffreq   0x00c9a6    program     extern D:\git\testing79m\App\WebUI\HTTPPrint.c
HTTPPrint_converterbrffreq   0x00c9de    program     extern D:\git\testing79m\App\WebUI\HTTPPrint.c
HTTPPrint_converteraatten   0x00ca16    program     extern D:\git\testing79m\App\WebUI\HTTPPrint.c
HTTPPrint_converterbatten   0x00ca4e    program     extern D:\git\testing79m\App\WebUI\HTTPPrint.c
         HTTPPrint_swmode   0x00ca86    program     extern D:\git\testing79m\App\WebUI\HTTPPrint.c
   HTTPPrint_converteralo   0x00ca88    program     extern D:\git\testing79m\App\WebUI\HTTPPrint.c
   HTTPPrint_outputpowera   0x00caa8    program     extern D:\git\testing79m\App\WebUI\HTTPPrint.c
      HTTPPrint_setpowera   0x00cac8    program     extern D:\git\testing79m\App\WebUI\HTTPPrint.c
           HTTPPrint_ALCa   0x00cae8    program     extern D:\git\testing79m\App\WebUI\HTTPPrint.c
          HTTPPrint_Mutea   0x00caf6    program     extern D:\git\testing79m\App\WebUI\HTTPPrint.c
   HTTPPrint_converterblo   0x00cb14    program     extern D:\git\testing79m\App\WebUI\HTTPPrint.c
   HTTPPrint_outputpowerb   0x00cb32    program     extern D:\git\testing79m\App\WebUI\HTTPPrint.c
      HTTPPrint_setpowerb   0x00cb50    program     extern D:\git\testing79m\App\WebUI\HTTPPrint.c
           HTTPPrint_ALCb   0x00cb6e    program     extern D:\git\testing79m\App\WebUI\HTTPPrint.c
          HTTPPrint_Muteb   0x00cb7c    program     extern D:\git\testing79m\App\WebUI\HTTPPrint.c
        HTTPPrint_24Vctrl   0x00cb9a    program     extern D:\git\testing79m\App\WebUI\HTTPPrint.c
        HTTPPrint_18Vctrl   0x00cba8    program     extern D:\git\testing79m\App\WebUI\HTTPPrint.c
HTTPPrint_config_dhcpchecked   0x00cbb6    program     extern D:\git\testing79m\App\WebUI\HTTPPrint.c
   HTTPPrint_ALCaSelected   0x00cbdc    program     extern D:\git\testing79m\App\WebUI\HTTPPrint.c
  HTTPPrint_MuteaSelected   0x00cbf4    program     extern D:\git\testing79m\App\WebUI\HTTPPrint.c
   HTTPPrint_ALCbSelected   0x00cc0c    program     extern D:\git\testing79m\App\WebUI\HTTPPrint.c
  HTTPPrint_MutebSelected   0x00cc24    program     extern D:\git\testing79m\App\WebUI\HTTPPrint.c
  HTTPPrint_DC18VSelected   0x00cc3c    program     extern D:\git\testing79m\App\WebUI\HTTPPrint.c
  HTTPPrint_DC24VSelected   0x00cc54    program     extern D:\git\testing79m\App\WebUI\HTTPPrint.c
 HTTPPrint_LNBREFSelected   0x00cc6c    program     extern D:\git\testing79m\App\WebUI\HTTPPrint.c
 HTTPPrint_BUCREFSelected   0x00cc84    program     extern D:\git\testing79m\App\WebUI\HTTPPrint.c
         HTTPPrint_BUCREF   0x00cc9c    program     extern D:\git\testing79m\App\WebUI\HTTPPrint.c
         HTTPPrint_LNBREF   0x00ccaa    program     extern D:\git\testing79m\App\WebUI\HTTPPrint.c
         HTTPPrint_EXTREF   0x00ccb8    program     extern D:\git\testing79m\App\WebUI\HTTPPrint.c
     HTTPPrint_BUCCurrent   0x00ccd6    program     extern D:\git\testing79m\App\WebUI\HTTPPrint.c
     HTTPPrint_LNBCurrent   0x00cd00    program     extern D:\git\testing79m\App\WebUI\HTTPPrint.c
      HTTPPrint_rdi2cdata   0x00cd2a    program     extern D:\git\testing79m\App\WebUI\HTTPPrint.c
      HTTPPrint_wri2cdata   0x00cd5a    program     extern D:\git\testing79m\App\WebUI\HTTPPrint.c
   HTTPPrint_setpasscolor   0x00cd8a    program     extern D:\git\testing79m\App\WebUI\HTTPPrint.c
        HTTPPrint_setpass   0x00cdca    program     extern D:\git\testing79m\App\WebUI\HTTPPrint.c
HTTPPrint_converteraalarm   0x00ce66    program     extern D:\git\testing79m\App\WebUI\HTTPPrint.c
HTTPPrint_converterbalarm   0x00ce7c    program     extern D:\git\testing79m\App\WebUI\HTTPPrint.c
        HTTPPrint_BUCIAlm   0x00ce92    program     extern D:\git\testing79m\App\WebUI\HTTPPrint.c
        HTTPPrint_LNBIAlm   0x00ceb0    program     extern D:\git\testing79m\App\WebUI\HTTPPrint.c
   HTTPPrint_ClearBUCIAlm   0x00cece    program     extern D:\git\testing79m\App\WebUI\HTTPPrint.c
   HTTPPrint_ClearLNBIAlm   0x00ced4    program     extern D:\git\testing79m\App\WebUI\HTTPPrint.c
            HTTPPrint_led   0x00ceda    program     extern D:\git\testing79m\App\WebUI\HTTPPrint.c
            HTTPPrint_ned   0x00cf3e    program     extern D:\git\testing79m\App\WebUI\HTTPPrint.c
            HTTPPrint_maf   0x00cfa2    program     extern D:\git\testing79m\App\WebUI\HTTPPrint.c
            HTTPPrint_mas   0x00cfbc    program     extern D:\git\testing79m\App\WebUI\HTTPPrint.c
     HTTPPrint_config_mac   0x00cfd6    program     extern D:\git\testing79m\App\WebUI\HTTPPrint.c
      HTTPPrint_read_comm   0x00d032    program     extern D:\git\testing79m\App\WebUI\HTTPPrint.c
     HTTPPrint_write_comm   0x00d036    program     extern D:\git\testing79m\App\WebUI\HTTPPrint.c
                   __pa_0   0x00d03a    program     static D:\git\testing79m\App\WebUI\HTTPPrint.c
                   __pa_1   0x00d058    program     static D:\git\testing79m\App\WebUI\HTTPPrint.c
                   __pa_2   0x00d060    program     static D:\git\testing79m\App\WebUI\HTTPPrint.c
                   __pa_3   0x00d07a    program     static D:\git\testing79m\App\WebUI\HTTPPrint.c
                   __pa_4   0x00d086    program     static D:\git\testing79m\App\WebUI\HTTPPrint.c
                   __pa_5   0x00d096    program     static D:\git\testing79m\App\WebUI\HTTPPrint.c
                   __pa_6   0x00d0a6    program     static D:\git\testing79m\App\WebUI\HTTPPrint.c
              __tmplbl_60   0x00d0b0    program     static                          
              __tmplbl_68   0x00d0b0    program     static                          
                   __pa_7   0x00d0b0    program     static D:\git\testing79m\App\WebUI\HTTPPrint.c
              __tmplbl_67   0x00d0b0    program     static                          
                   __pa_8   0x00d0bc    program     static D:\git\testing79m\App\WebUI\HTTPPrint.c
                   __pa_9   0x00d0c2    program     static D:\git\testing79m\App\WebUI\HTTPPrint.c
                  __pa_10   0x00d0d8    program     static D:\git\testing79m\App\WebUI\HTTPPrint.c
                  __pa_11   0x00d0e4    program     static D:\git\testing79m\App\WebUI\HTTPPrint.c
                  __pa_12   0x00d0f6    program     static D:\git\testing79m\App\WebUI\HTTPPrint.c
                  __pa_13   0x00d108    program     static D:\git\testing79m\App\WebUI\HTTPPrint.c
                  __pa_14   0x00d112    program     static D:\git\testing79m\App\WebUI\HTTPPrint.c
                  __pa_15   0x00d11a    program     static D:\git\testing79m\App\WebUI\HTTPPrint.c
                  __pa_16   0x00d130    program     static D:\git\testing79m\App\WebUI\HTTPPrint.c
                  __pa_17   0x00d148    program     static D:\git\testing79m\App\WebUI\HTTPPrint.c
                  __pa_18   0x00d14e    program     static D:\git\testing79m\App\WebUI\HTTPPrint.c
              __tmplbl_66   0x00d15e    program     static                          
                  __pa_19   0x00d15e    program     static D:\git\testing79m\App\WebUI\HTTPPrint.c
              __tmplbl_61   0x00d15e    program     static                          
              __tmplbl_63   0x00d15e    program     static                          
              __tmplbl_64   0x00d15e    program     static                          
              __tmplbl_65   0x00d15e    program     static                          
                  __pa_20   0x00d164    program     static D:\git\testing79m\App\WebUI\HTTPPrint.c
                  __pa_21   0x00d172    program     static D:\git\testing79m\App\WebUI\HTTPPrint.c
                  __pa_22   0x00d17e    program     static D:\git\testing79m\App\WebUI\HTTPPrint.c
                  __pa_23   0x00d18a    program     static D:\git\testing79m\App\WebUI\HTTPPrint.c
                  __pa_24   0x00d1a4    program     static D:\git\testing79m\App\WebUI\HTTPPrint.c
                  __pa_25   0x00d1b0    program     static D:\git\testing79m\App\WebUI\HTTPPrint.c
                  __pa_26   0x00d1bc    program     static D:\git\testing79m\App\WebUI\HTTPPrint.c
                  __pa_27   0x00d1c6    program     static D:\git\testing79m\App\WebUI\HTTPPrint.c
                  __pa_28   0x00d1d2    program     static D:\git\testing79m\App\WebUI\HTTPPrint.c
                  __pa_29   0x00d1d8    program     static D:\git\testing79m\App\WebUI\HTTPPrint.c
                  __pa_30   0x00d1e6    program     static D:\git\testing79m\App\WebUI\HTTPPrint.c
                  __pa_31   0x00d1fa    program     static D:\git\testing79m\App\WebUI\HTTPPrint.c
                  __pa_32   0x00d20c    program     static D:\git\testing79m\App\WebUI\HTTPPrint.c
                  __pa_33   0x00d21e    program     static D:\git\testing79m\App\WebUI\HTTPPrint.c
                  __pa_34   0x00d230    program     static D:\git\testing79m\App\WebUI\HTTPPrint.c
                  __pa_35   0x00d242    program     static D:\git\testing79m\App\WebUI\HTTPPrint.c
                  __pa_36   0x00d24e    program     static D:\git\testing79m\App\WebUI\HTTPPrint.c
                  __pa_37   0x00d258    program     static D:\git\testing79m\App\WebUI\HTTPPrint.c
                  __pa_38   0x00d25e    program     static D:\git\testing79m\App\WebUI\HTTPPrint.c
                  __pa_39   0x00d26e    program     static D:\git\testing79m\App\WebUI\HTTPPrint.c
                  __pa_40   0x00d27e    program     static D:\git\testing79m\App\WebUI\HTTPPrint.c
                  __pa_41   0x00d28e    program     static D:\git\testing79m\App\WebUI\HTTPPrint.c
                  __pa_42   0x00d29e    program     static D:\git\testing79m\App\WebUI\HTTPPrint.c
                  __pa_43   0x00d2ac    program     static D:\git\testing79m\App\WebUI\HTTPPrint.c
                  __pa_44   0x00d2c0    program     static D:\git\testing79m\App\WebUI\HTTPPrint.c
                  __pa_45   0x00d2ce    program     static D:\git\testing79m\App\WebUI\HTTPPrint.c
              __tmplbl_69   0x00d2d2    program     static                          
              __tmplbl_58   0x00d2d2    program     static                          
                  __pa_46   0x00d2d2    program     static D:\git\testing79m\App\WebUI\HTTPPrint.c
                  __pa_47   0x00d2d6    program     static D:\git\testing79m\App\WebUI\HTTPPrint.c
                  __pa_48   0x00d2da    program     static D:\git\testing79m\App\WebUI\HTTPPrint.c
                  __pa_49   0x00d2e2    program     static D:\git\testing79m\App\WebUI\HTTPPrint.c
                  __pa_50   0x00d2f4    program     static D:\git\testing79m\App\WebUI\HTTPPrint.c
                  __pa_51   0x00d2fa    program     static D:\git\testing79m\App\WebUI\HTTPPrint.c
                  __pa_52   0x00d304    program     static D:\git\testing79m\App\WebUI\HTTPPrint.c
                  __pa_53   0x00d312    program     static D:\git\testing79m\App\WebUI\HTTPPrint.c
                  __pa_54   0x00d320    program     static D:\git\testing79m\App\WebUI\HTTPPrint.c
                  __pa_55   0x00d330    program     static D:\git\testing79m\App\WebUI\HTTPPrint.c
                  __pa_56   0x00d336    program     static D:\git\testing79m\App\WebUI\HTTPPrint.c
                  __pa_57   0x00d346    program     static D:\git\testing79m\App\WebUI\HTTPPrint.c
                  __pa_58   0x00d354    program     static D:\git\testing79m\App\WebUI\HTTPPrint.c
                  __pa_59   0x00d362    program     static D:\git\testing79m\App\WebUI\HTTPPrint.c
                  __pa_60   0x00d36a    program     static D:\git\testing79m\App\WebUI\HTTPPrint.c
                  __pa_61   0x00d370    program     static D:\git\testing79m\App\WebUI\HTTPPrint.c
                  __pa_62   0x00d380    program     static D:\git\testing79m\App\WebUI\HTTPPrint.c
                  __pa_63   0x00d390    program     static D:\git\testing79m\App\WebUI\HTTPPrint.c
                  __pa_64   0x00d39a    program     static D:\git\testing79m\App\WebUI\HTTPPrint.c
                  __pa_65   0x00d3a2    program     static D:\git\testing79m\App\WebUI\HTTPPrint.c
                  __pa_66   0x00d3ae    program     static D:\git\testing79m\App\WebUI\HTTPPrint.c
                  __pa_67   0x00d3b8    program     static D:\git\testing79m\App\WebUI\HTTPPrint.c
                  __pa_68   0x00d3c2    program     static D:\git\testing79m\App\WebUI\HTTPPrint.c
                  __pa_69   0x00d3cc    program     static D:\git\testing79m\App\WebUI\HTTPPrint.c
                  __pa_70   0x00d3e4    program     static D:\git\testing79m\App\WebUI\HTTPPrint.c
              __tmplbl_56   0x00d3fa    program     static                          
              __tmplbl_55   0x00d3fa    program     static                          
                  __pa_71   0x00d3fa    program     static D:\git\testing79m\App\WebUI\HTTPPrint.c
                  __pa_72   0x00d400    program     static D:\git\testing79m\App\WebUI\HTTPPrint.c
                  __pa_73   0x00d408    program     static D:\git\testing79m\App\WebUI\HTTPPrint.c
                  __pa_74   0x00d412    program     static D:\git\testing79m\App\WebUI\HTTPPrint.c
                  __pa_75   0x00d41a    program     static D:\git\testing79m\App\WebUI\HTTPPrint.c
                  __pa_76   0x00d422    program     static D:\git\testing79m\App\WebUI\HTTPPrint.c
                  __pa_77   0x00d434    program     static D:\git\testing79m\App\WebUI\HTTPPrint.c
                  __pa_78   0x00d446    program     static D:\git\testing79m\App\WebUI\HTTPPrint.c
                  __pa_79   0x00d450    program     static D:\git\testing79m\App\WebUI\HTTPPrint.c
                  __pa_80   0x00d456    program     static D:\git\testing79m\App\WebUI\HTTPPrint.c
                  __pa_81   0x00d464    program     static D:\git\testing79m\App\WebUI\HTTPPrint.c
                  __pa_82   0x00d470    program     static D:\git\testing79m\App\WebUI\HTTPPrint.c
                  __pa_83   0x00d476    program     static D:\git\testing79m\App\WebUI\HTTPPrint.c
      GenerateRandomDWORD   0x00d480    program     extern D:\git\testing79m\Microchip\TCPIP Stack\Helpers.c
              __tmplbl_39   0x00d4f8    program     static                          
        ___while_lbl00001   0x00d510    program     static                          
        ___while_lbl00003   0x00d518    program     static                          
        ___while_lbl00004   0x00d51c    program     static                          
               __tmplbl_0   0x00d580    program     static                          
              __tmplbl_40   0x00d59c    program     static                          
              __tmplbl_41   0x00d5dc    program     static                          
              __tmplbl_42   0x00d640    program     static                          
           ___if_lbl00005   0x00d682    program     static                          
           ___if_lbl00006   0x00d6a0    program     static                          
           ___if_lbl00007   0x00d73a    program     static                          
           ___if_lbl00008   0x00d740    program     static                          
        ___while_lbl00002   0x00d742    program     static                          
       ___return_lbl00000   0x00d78a    program     static                          
        StringToIPAddress   0x00d7a2    program     extern D:\git\testing79m\Microchip\TCPIP Stack\Helpers.c
     ROMStringToIPAddress   0x00d872    program     extern D:\git\testing79m\Microchip\TCPIP Stack\Helpers.c
             Base64Decode   0x00d954    program     extern D:\git\testing79m\Microchip\TCPIP Stack\Helpers.c
                    uitoa   0x00dac4    program     extern D:\git\testing79m\Microchip\TCPIP Stack\Helpers.c
                  hexatob   0x00dbba    program     extern D:\git\testing79m\Microchip\TCPIP Stack\Helpers.c
             btohexa_high   0x00dc04    program     extern D:\git\testing79m\Microchip\TCPIP Stack\Helpers.c
              btohexa_low   0x00dc2c    program     extern D:\git\testing79m\Microchip\TCPIP Stack\Helpers.c
           stricmppgm2ram   0x00dc50    program     extern D:\git\testing79m\Microchip\TCPIP Stack\Helpers.c
                    swaps   0x00dd00    program     extern D:\git\testing79m\Microchip\TCPIP Stack\Helpers.c
                    swapl   0x00dd3e    program     extern D:\git\testing79m\Microchip\TCPIP Stack\Helpers.c
           CalcIPChecksum   0x00dd8c    program     extern D:\git\testing79m\Microchip\TCPIP Stack\Helpers.c
          leftRotateDWORD   0x00dea8    program     extern D:\git\testing79m\Microchip\TCPIP Stack\Helpers.c
          ___for_lbl00124   0x00deda    program     static                          
          ___for_lbl00122   0x00def8    program     static                          
          ___for_lbl00123   0x00defe    program     static                          
          ___for_lbl00127   0x00defe    program     static                          
          ___for_lbl00125   0x00df12    program     static                          
          ___for_lbl00126   0x00df16    program     static                          
       ___return_lbl00121   0x00df28    program     static                          
        FormatNetBIOSName   0x00df38    program     extern D:\git\testing79m\Microchip\TCPIP Stack\Helpers.c
                  strnchr   0x00df80    program     extern D:\git\testing79m\Microchip\TCPIP Stack\Helpers.c
                   __pa_0   0x00dfc0    program     static D:\git\testing79m\Microchip\TCPIP Stack\Helpers.c
                   __pa_1   0x00dfd2    program     static D:\git\testing79m\Microchip\TCPIP Stack\Helpers.c
                   __pa_2   0x00dfee    program     static D:\git\testing79m\Microchip\TCPIP Stack\Helpers.c
                   __pa_3   0x00dffa    program     static D:\git\testing79m\Microchip\TCPIP Stack\Helpers.c
                   __pa_4   0x00e01c    program     static D:\git\testing79m\Microchip\TCPIP Stack\Helpers.c
                   __pa_5   0x00e02a    program     static D:\git\testing79m\Microchip\TCPIP Stack\Helpers.c
                   __pa_6   0x00e050    program     static D:\git\testing79m\Microchip\TCPIP Stack\Helpers.c
                   __pa_7   0x00e072    program     static D:\git\testing79m\Microchip\TCPIP Stack\Helpers.c
                   __pa_8   0x00e084    program     static D:\git\testing79m\Microchip\TCPIP Stack\Helpers.c
                   __pa_9   0x00e08e    program     static D:\git\testing79m\Microchip\TCPIP Stack\Helpers.c
                  __pa_10   0x00e0a8    program     static D:\git\testing79m\Microchip\TCPIP Stack\Helpers.c
                  __pa_11   0x00e0c2    program     static D:\git\testing79m\Microchip\TCPIP Stack\Helpers.c
                  __pa_12   0x00e0d2    program     static D:\git\testing79m\Microchip\TCPIP Stack\Helpers.c
                  __pa_13   0x00e0e2    program     static D:\git\testing79m\Microchip\TCPIP Stack\Helpers.c
                  __pa_14   0x00e0fa    program     static D:\git\testing79m\Microchip\TCPIP Stack\Helpers.c
                  __pa_15   0x00e110    program     static D:\git\testing79m\Microchip\TCPIP Stack\Helpers.c
                  __pa_16   0x00e11a    program     static D:\git\testing79m\Microchip\TCPIP Stack\Helpers.c
                  __pa_17   0x00e12c    program     static D:\git\testing79m\Microchip\TCPIP Stack\Helpers.c
                  __pa_18   0x00e13c    program     static D:\git\testing79m\Microchip\TCPIP Stack\Helpers.c
                  __pa_19   0x00e14c    program     static D:\git\testing79m\Microchip\TCPIP Stack\Helpers.c
                  __pa_20   0x00e15c    program     static D:\git\testing79m\Microchip\TCPIP Stack\Helpers.c
                  __pa_21   0x00e164    program     static D:\git\testing79m\Microchip\TCPIP Stack\Helpers.c
                  __pa_22   0x00e172    program     static D:\git\testing79m\Microchip\TCPIP Stack\Helpers.c
                  __pa_23   0x00e180    program     static D:\git\testing79m\Microchip\TCPIP Stack\Helpers.c
                  __pa_24   0x00e194    program     static D:\git\testing79m\Microchip\TCPIP Stack\Helpers.c
                  __pa_25   0x00e19e    program     static D:\git\testing79m\Microchip\TCPIP Stack\Helpers.c
                  __pa_26   0x00e1ac    program     static D:\git\testing79m\Microchip\TCPIP Stack\Helpers.c
                  __pa_27   0x00e1ba    program     static D:\git\testing79m\Microchip\TCPIP Stack\Helpers.c
                  __pa_28   0x00e1ca    program     static D:\git\testing79m\Microchip\TCPIP Stack\Helpers.c
                  __pa_29   0x00e1d8    program     static D:\git\testing79m\Microchip\TCPIP Stack\Helpers.c
                  __pa_30   0x00e1e2    program     static D:\git\testing79m\Microchip\TCPIP Stack\Helpers.c
                  __pa_31   0x00e1ea    program     static D:\git\testing79m\Microchip\TCPIP Stack\Helpers.c
            s_put_n_chars   0x00e1f8    program     static C:\Program Files\mcc18\src\traditional\stdclib\vfprintf.c
                 vfprintf   0x00e224    program     extern C:\Program Files\mcc18\src\traditional\stdclib\vfprintf.c
              __tmplbl_85   0x00e24e    program     static                          
              __tmplbl_44   0x00eafc    program     static                          
              __tmplbl_43   0x00eb16    program     static                          
                   __pa_0   0x00eb38    program     static C:\Program Files\mcc18\src\traditional\stdclib\vfprintf.c
                   __pa_1   0x00eb40    program     static C:\Program Files\mcc18\src\traditional\stdclib\vfprintf.c
                   __pa_2   0x00eb4a    program     static C:\Program Files\mcc18\src\traditional\stdclib\vfprintf.c
                   __pa_3   0x00eb54    program     static C:\Program Files\mcc18\src\traditional\stdclib\vfprintf.c
                   __pa_4   0x00eb6c    program     static C:\Program Files\mcc18\src\traditional\stdclib\vfprintf.c
                   __pa_5   0x00eb80    program     static C:\Program Files\mcc18\src\traditional\stdclib\vfprintf.c
                   __pa_6   0x00eb9c    program     static C:\Program Files\mcc18\src\traditional\stdclib\vfprintf.c
                   __pa_7   0x00eba6    program     static C:\Program Files\mcc18\src\traditional\stdclib\vfprintf.c
                   __pa_8   0x00ebb2    program     static C:\Program Files\mcc18\src\traditional\stdclib\vfprintf.c
                   __pa_9   0x00ebd4    program     static C:\Program Files\mcc18\src\traditional\stdclib\vfprintf.c
                  __pa_10   0x00ebf4    program     static C:\Program Files\mcc18\src\traditional\stdclib\vfprintf.c
                  __pa_11   0x00ec02    program     static C:\Program Files\mcc18\src\traditional\stdclib\vfprintf.c
                  __pa_12   0x00ec18    program     static C:\Program Files\mcc18\src\traditional\stdclib\vfprintf.c
                  __pa_13   0x00ec32    program     static C:\Program Files\mcc18\src\traditional\stdclib\vfprintf.c
                  __pa_14   0x00ec4a    program     static C:\Program Files\mcc18\src\traditional\stdclib\vfprintf.c
                  __pa_15   0x00ec5a    program     static C:\Program Files\mcc18\src\traditional\stdclib\vfprintf.c
                  __pa_16   0x00ec70    program     static C:\Program Files\mcc18\src\traditional\stdclib\vfprintf.c
                  __pa_17   0x00ec82    program     static C:\Program Files\mcc18\src\traditional\stdclib\vfprintf.c
                  __pa_18   0x00ec94    program     static C:\Program Files\mcc18\src\traditional\stdclib\vfprintf.c
                  __pa_19   0x00ec9e    program     static C:\Program Files\mcc18\src\traditional\stdclib\vfprintf.c
                  __pa_20   0x00ecae    program     static C:\Program Files\mcc18\src\traditional\stdclib\vfprintf.c
                  __pa_21   0x00ecbe    program     static C:\Program Files\mcc18\src\traditional\stdclib\vfprintf.c
                  __pa_22   0x00ecce    program     static C:\Program Files\mcc18\src\traditional\stdclib\vfprintf.c
              __tmplbl_42   0x00ecce    program     static                          
                  __pa_23   0x00ecda    program     static C:\Program Files\mcc18\src\traditional\stdclib\vfprintf.c
                  __pa_24   0x00ece8    program     static C:\Program Files\mcc18\src\traditional\stdclib\vfprintf.c
                  __pa_25   0x00ecf0    program     static C:\Program Files\mcc18\src\traditional\stdclib\vfprintf.c
                  __pa_26   0x00ecfa    program     static C:\Program Files\mcc18\src\traditional\stdclib\vfprintf.c
                  __pa_27   0x00ed04    program     static C:\Program Files\mcc18\src\traditional\stdclib\vfprintf.c
                  __pa_28   0x00ed0c    program     static C:\Program Files\mcc18\src\traditional\stdclib\vfprintf.c
                  __pa_29   0x00ed1a    program     static C:\Program Files\mcc18\src\traditional\stdclib\vfprintf.c
                  __pa_30   0x00ed36    program     static C:\Program Files\mcc18\src\traditional\stdclib\vfprintf.c
                  __pa_31   0x00ed50    program     static C:\Program Files\mcc18\src\traditional\stdclib\vfprintf.c
                  __pa_32   0x00ed6a    program     static C:\Program Files\mcc18\src\traditional\stdclib\vfprintf.c
                  __pa_33   0x00ed82    program     static C:\Program Files\mcc18\src\traditional\stdclib\vfprintf.c
                  __pa_34   0x00ed8c    program     static C:\Program Files\mcc18\src\traditional\stdclib\vfprintf.c
                  __pa_35   0x00ed9a    program     static C:\Program Files\mcc18\src\traditional\stdclib\vfprintf.c
                  __pa_36   0x00eda2    program     static C:\Program Files\mcc18\src\traditional\stdclib\vfprintf.c
                  __pa_37   0x00edac    program     static C:\Program Files\mcc18\src\traditional\stdclib\vfprintf.c
                  __pa_38   0x00edbc    program     static C:\Program Files\mcc18\src\traditional\stdclib\vfprintf.c
                  __pa_39   0x00edca    program     static C:\Program Files\mcc18\src\traditional\stdclib\vfprintf.c
                  __pa_40   0x00edd6    program     static C:\Program Files\mcc18\src\traditional\stdclib\vfprintf.c
                  __pa_41   0x00ede2    program     static C:\Program Files\mcc18\src\traditional\stdclib\vfprintf.c
                  __pa_42   0x00edea    program     static C:\Program Files\mcc18\src\traditional\stdclib\vfprintf.c
                  __pa_43   0x00edf4    program     static C:\Program Files\mcc18\src\traditional\stdclib\vfprintf.c
                  __pa_44   0x00edfa    program     static C:\Program Files\mcc18\src\traditional\stdclib\vfprintf.c
                  __pa_45   0x00ee04    program     static C:\Program Files\mcc18\src\traditional\stdclib\vfprintf.c
                  __pa_46   0x00ee10    program     static C:\Program Files\mcc18\src\traditional\stdclib\vfprintf.c
               __string_1   0x00ee1a    program     static D:\git\testing79m\Bootstrap\Initialization.c
               __string_0   0x00ee24    program     static D:\git\testing79m\Bootstrap\Initialization.c
              __string_53   0x00ee2a    program     static D:\git\testing79m\Microchip\TCPIP Stack\HTTP2.c
              __string_52   0x00ee35    program     static D:\git\testing79m\Microchip\TCPIP Stack\HTTP2.c
              __string_51   0x00ee3a    program     static D:\git\testing79m\Microchip\TCPIP Stack\HTTP2.c
              __string_50   0x00ee3e    program     static D:\git\testing79m\Microchip\TCPIP Stack\HTTP2.c
              __string_49   0x00ee47    program     static D:\git\testing79m\Microchip\TCPIP Stack\HTTP2.c
              __string_48   0x00ee50    program     static D:\git\testing79m\Microchip\TCPIP Stack\HTTP2.c
              __string_47   0x00ee60    program     static D:\git\testing79m\Microchip\TCPIP Stack\HTTP2.c
              __string_46   0x00ee79    program     static D:\git\testing79m\Microchip\TCPIP Stack\HTTP2.c
              __string_45   0x00ee88    program     static D:\git\testing79m\Microchip\TCPIP Stack\HTTP2.c
              __string_44   0x00ee9b    program     static D:\git\testing79m\Microchip\TCPIP Stack\HTTP2.c
              __string_43   0x00eea5    program     static D:\git\testing79m\Microchip\TCPIP Stack\HTTP2.c
              __string_42   0x00eeb0    program     static D:\git\testing79m\Microchip\TCPIP Stack\HTTP2.c
              __string_41   0x00eeb5    program     static D:\git\testing79m\Microchip\TCPIP Stack\HTTP2.c
              __string_40   0x00eeb9    program     static D:\git\testing79m\Microchip\TCPIP Stack\HTTP2.c
              __string_39   0x00eec9    program     static D:\git\testing79m\Microchip\TCPIP Stack\HTTP2.c
              __string_38   0x00eed8    program     static D:\git\testing79m\Microchip\TCPIP Stack\HTTP2.c
              __string_37   0x00eee0    program     static D:\git\testing79m\Microchip\TCPIP Stack\HTTP2.c
              __string_36   0x00ef37    program     static D:\git\testing79m\Microchip\TCPIP Stack\HTTP2.c
              __string_35   0x00ef69    program     static D:\git\testing79m\Microchip\TCPIP Stack\HTTP2.c
              __string_34   0x00f03c    program     static D:\git\testing79m\Microchip\TCPIP Stack\HTTP2.c
              __string_33   0x00f0e9    program     static D:\git\testing79m\Microchip\TCPIP Stack\HTTP2.c
              __string_32   0x00f209    program     static D:\git\testing79m\Microchip\TCPIP Stack\HTTP2.c
              __string_31   0x00f26f    program     static D:\git\testing79m\Microchip\TCPIP Stack\HTTP2.c
              __string_30   0x00f2df    program     static D:\git\testing79m\Microchip\TCPIP Stack\HTTP2.c
              __string_29   0x00f34c    program     static D:\git\testing79m\Microchip\TCPIP Stack\HTTP2.c
              __string_28   0x00f3ea    program     static D:\git\testing79m\Microchip\TCPIP Stack\HTTP2.c
              __string_27   0x00f46b    program     static D:\git\testing79m\Microchip\TCPIP Stack\HTTP2.c
              __string_26   0x00f4c9    program     static D:\git\testing79m\Microchip\TCPIP Stack\HTTP2.c
              __string_25   0x00f4ee    program     static D:\git\testing79m\Microchip\TCPIP Stack\HTTP2.c
              __string_24   0x00f4ef    program     static D:\git\testing79m\Microchip\TCPIP Stack\HTTP2.c
              __string_23   0x00f4fc    program     static D:\git\testing79m\Microchip\TCPIP Stack\HTTP2.c
              __string_22   0x00f510    program     static D:\git\testing79m\Microchip\TCPIP Stack\HTTP2.c
              __string_21   0x00f51b    program     static D:\git\testing79m\Microchip\TCPIP Stack\HTTP2.c
              __string_20   0x00f525    program     static D:\git\testing79m\Microchip\TCPIP Stack\HTTP2.c
              __string_19   0x00f52f    program     static D:\git\testing79m\Microchip\TCPIP Stack\HTTP2.c
              __string_18   0x00f538    program     static D:\git\testing79m\Microchip\TCPIP Stack\HTTP2.c
              __string_17   0x00f541    program     static D:\git\testing79m\Microchip\TCPIP Stack\HTTP2.c
              __string_16   0x00f54b    program     static D:\git\testing79m\Microchip\TCPIP Stack\HTTP2.c
              __string_15   0x00f556    program     static D:\git\testing79m\Microchip\TCPIP Stack\HTTP2.c
              __string_14   0x00f55a    program     static D:\git\testing79m\Microchip\TCPIP Stack\HTTP2.c
              __string_13   0x00f55e    program     static D:\git\testing79m\Microchip\TCPIP Stack\HTTP2.c
              __string_12   0x00f562    program     static D:\git\testing79m\Microchip\TCPIP Stack\HTTP2.c
              __string_11   0x00f566    program     static D:\git\testing79m\Microchip\TCPIP Stack\HTTP2.c
              __string_10   0x00f56a    program     static D:\git\testing79m\Microchip\TCPIP Stack\HTTP2.c
               __string_9   0x00f56e    program     static D:\git\testing79m\Microchip\TCPIP Stack\HTTP2.c
               __string_8   0x00f572    program     static D:\git\testing79m\Microchip\TCPIP Stack\HTTP2.c
               __string_7   0x00f576    program     static D:\git\testing79m\Microchip\TCPIP Stack\HTTP2.c
               __string_6   0x00f57a    program     static D:\git\testing79m\Microchip\TCPIP Stack\HTTP2.c
               __string_5   0x00f57f    program     static D:\git\testing79m\Microchip\TCPIP Stack\HTTP2.c
               __string_4   0x00f583    program     static D:\git\testing79m\Microchip\TCPIP Stack\HTTP2.c
               __string_2   0x00f587    program     static D:\git\testing79m\Microchip\TCPIP Stack\HTTP2.c
               __string_1   0x00f58c    program     static D:\git\testing79m\Microchip\TCPIP Stack\HTTP2.c
               __string_0   0x00f597    program     static D:\git\testing79m\Microchip\TCPIP Stack\HTTP2.c
               __string_0   0x00f5a2    program     static D:\git\testing79m\Microchip\TCPIP Stack\MPFS2.c
               __string_0   0x00f5a9    program     static D:\git\testing79m\SysLib\util.c
              __string_16   0x00f5af    program     static D:\git\testing79m\App\WebUI\HTTPApp.c
              __string_15   0x00f5c3    program     static D:\git\testing79m\App\WebUI\HTTPApp.c
              __string_14   0x00f5d8    program     static D:\git\testing79m\App\WebUI\HTTPApp.c
              __string_13   0x00f5dd    program     static D:\git\testing79m\App\WebUI\HTTPApp.c
              __string_12   0x00f5e2    program     static D:\git\testing79m\App\WebUI\HTTPApp.c
              __string_11   0x00f5e6    program     static D:\git\testing79m\App\WebUI\HTTPApp.c
              __string_10   0x00f5eb    program     static D:\git\testing79m\App\WebUI\HTTPApp.c
               __string_9   0x00f5f0    program     static D:\git\testing79m\App\WebUI\HTTPApp.c
               __string_8   0x00f5f4    program     static D:\git\testing79m\App\WebUI\HTTPApp.c
               __string_7   0x00f5f7    program     static D:\git\testing79m\App\WebUI\HTTPApp.c
               __string_6   0x00f5fa    program     static D:\git\testing79m\App\WebUI\HTTPApp.c
               __string_5   0x00f603    program     static D:\git\testing79m\App\WebUI\HTTPApp.c
               __string_4   0x00f607    program     static D:\git\testing79m\App\WebUI\HTTPApp.c
               __string_3   0x00f617    program     static D:\git\testing79m\App\WebUI\HTTPApp.c
               __string_2   0x00f62a    program     static D:\git\testing79m\App\WebUI\HTTPApp.c
               __string_1   0x00f630    program     static D:\git\testing79m\App\WebUI\HTTPApp.c
               __string_0   0x00f635    program     static D:\git\testing79m\App\WebUI\HTTPApp.c
               __string_8   0x00f63d    program     static D:\git\testing79m\Singcom\Devices\MainControl_c1.c
               __string_7   0x00f642    program     static D:\git\testing79m\Singcom\Devices\MainControl_c1.c
               __string_6   0x00f646    program     static D:\git\testing79m\Singcom\Devices\MainControl_c1.c
               __string_5   0x00f64f    program     static D:\git\testing79m\Singcom\Devices\MainControl_c1.c
               __string_4   0x00f658    program     static D:\git\testing79m\Singcom\Devices\MainControl_c1.c
               __string_3   0x00f65f    program     static D:\git\testing79m\Singcom\Devices\MainControl_c1.c
               __string_2   0x00f666    program     static D:\git\testing79m\Singcom\Devices\MainControl_c1.c
               __string_1   0x00f66b    program     static D:\git\testing79m\Singcom\Devices\MainControl_c1.c
               __string_0   0x00f672    program     static D:\git\testing79m\Singcom\Devices\MainControl_c1.c
               __string_1   0x00f676    program     static D:\git\testing79m\Singcom\Devices\UpConverter_c1.c
               __string_0   0x00f67f    program     static D:\git\testing79m\Singcom\Devices\UpConverter_c1.c
              __string_43   0x00f688    program     static D:\git\testing79m\App\WebUI\HTTPGetDevInfo.c
              __string_42   0x00f68c    program     static D:\git\testing79m\App\WebUI\HTTPGetDevInfo.c
              __string_41   0x00f691    program     static D:\git\testing79m\App\WebUI\HTTPGetDevInfo.c
              __string_40   0x00f696    program     static D:\git\testing79m\App\WebUI\HTTPGetDevInfo.c
              __string_39   0x00f6a3    program     static D:\git\testing79m\App\WebUI\HTTPGetDevInfo.c
              __string_38   0x00f6ad    program     static D:\git\testing79m\App\WebUI\HTTPGetDevInfo.c
              __string_37   0x00f6b7    program     static D:\git\testing79m\App\WebUI\HTTPGetDevInfo.c
              __string_36   0x00f6bd    program     static D:\git\testing79m\App\WebUI\HTTPGetDevInfo.c
              __string_35   0x00f6c2    program     static D:\git\testing79m\App\WebUI\HTTPGetDevInfo.c
              __string_34   0x00f6c7    program     static D:\git\testing79m\App\WebUI\HTTPGetDevInfo.c
              __string_33   0x00f6d7    program     static D:\git\testing79m\App\WebUI\HTTPGetDevInfo.c
              __string_32   0x00f6db    program     static D:\git\testing79m\App\WebUI\HTTPGetDevInfo.c
              __string_31   0x00f6ef    program     static D:\git\testing79m\App\WebUI\HTTPGetDevInfo.c
              __string_30   0x00f702    program     static D:\git\testing79m\App\WebUI\HTTPGetDevInfo.c
              __string_29   0x00f70f    program     static D:\git\testing79m\App\WebUI\HTTPGetDevInfo.c
              __string_28   0x00f71c    program     static D:\git\testing79m\App\WebUI\HTTPGetDevInfo.c
              __string_27   0x00f723    program     static D:\git\testing79m\App\WebUI\HTTPGetDevInfo.c
              __string_26   0x00f72a    program     static D:\git\testing79m\App\WebUI\HTTPGetDevInfo.c
              __string_25   0x00f732    program     static D:\git\testing79m\App\WebUI\HTTPGetDevInfo.c
              __string_24   0x00f73a    program     static D:\git\testing79m\App\WebUI\HTTPGetDevInfo.c
              __string_23   0x00f740    program     static D:\git\testing79m\App\WebUI\HTTPGetDevInfo.c
              __string_22   0x00f749    program     static D:\git\testing79m\App\WebUI\HTTPGetDevInfo.c
              __string_21   0x00f752    program     static D:\git\testing79m\App\WebUI\HTTPGetDevInfo.c
              __string_20   0x00f758    program     static D:\git\testing79m\App\WebUI\HTTPGetDevInfo.c
              __string_19   0x00f75d    program     static D:\git\testing79m\App\WebUI\HTTPGetDevInfo.c
              __string_18   0x00f761    program     static D:\git\testing79m\App\WebUI\HTTPGetDevInfo.c
              __string_17   0x00f765    program     static D:\git\testing79m\App\WebUI\HTTPGetDevInfo.c
              __string_16   0x00f76a    program     static D:\git\testing79m\App\WebUI\HTTPGetDevInfo.c
              __string_15   0x00f774    program     static D:\git\testing79m\App\WebUI\HTTPGetDevInfo.c
              __string_14   0x00f781    program     static D:\git\testing79m\App\WebUI\HTTPGetDevInfo.c
              __string_13   0x00f78f    program     static D:\git\testing79m\App\WebUI\HTTPGetDevInfo.c
              __string_12   0x00f79d    program     static D:\git\testing79m\App\WebUI\HTTPGetDevInfo.c
              __string_11   0x00f7a7    program     static D:\git\testing79m\App\WebUI\HTTPGetDevInfo.c
              __string_10   0x00f7b1    program     static D:\git\testing79m\App\WebUI\HTTPGetDevInfo.c
               __string_9   0x00f7bb    program     static D:\git\testing79m\App\WebUI\HTTPGetDevInfo.c
               __string_8   0x00f7c8    program     static D:\git\testing79m\App\WebUI\HTTPGetDevInfo.c
               __string_7   0x00f7d8    program     static D:\git\testing79m\App\WebUI\HTTPGetDevInfo.c
               __string_6   0x00f7e8    program     static D:\git\testing79m\App\WebUI\HTTPGetDevInfo.c
               __string_5   0x00f7f9    program     static D:\git\testing79m\App\WebUI\HTTPGetDevInfo.c
               __string_4   0x00f80a    program     static D:\git\testing79m\App\WebUI\HTTPGetDevInfo.c
               __string_3   0x00f811    program     static D:\git\testing79m\App\WebUI\HTTPGetDevInfo.c
               __string_2   0x00f819    program     static D:\git\testing79m\App\WebUI\HTTPGetDevInfo.c
               __string_1   0x00f81d    program     static D:\git\testing79m\App\WebUI\HTTPGetDevInfo.c
               __string_0   0x00f824    program     static D:\git\testing79m\App\WebUI\HTTPGetDevInfo.c
              __string_22   0x00f827    program     static D:\git\testing79m\App\WebUI\HTTPPrint.c
              __string_21   0x00f82c    program     static D:\git\testing79m\App\WebUI\HTTPPrint.c
              __string_20   0x00f84a    program     static D:\git\testing79m\App\WebUI\HTTPPrint.c
              __string_19   0x00f85e    program     static D:\git\testing79m\App\WebUI\HTTPPrint.c
              __string_18   0x00f871    program     static D:\git\testing79m\App\WebUI\HTTPPrint.c
              __string_17   0x00f88e    program     static D:\git\testing79m\App\WebUI\HTTPPrint.c
              __string_16   0x00f89e    program     static D:\git\testing79m\App\WebUI\HTTPPrint.c
              __string_15   0x00f8a4    program     static D:\git\testing79m\App\WebUI\HTTPPrint.c
              __string_14   0x00f8a8    program     static D:\git\testing79m\App\WebUI\HTTPPrint.c
              __string_13   0x00f8ab    program     static D:\git\testing79m\App\WebUI\HTTPPrint.c
              __string_12   0x00f8b4    program     static D:\git\testing79m\App\WebUI\HTTPPrint.c
              __string_11   0x00f8bd    program     static D:\git\testing79m\App\WebUI\HTTPPrint.c
              __string_10   0x00f8c6    program     static D:\git\testing79m\App\WebUI\HTTPPrint.c
               __string_9   0x00f8d0    program     static D:\git\testing79m\App\WebUI\HTTPPrint.c
               __string_8   0x00f8d8    program     static D:\git\testing79m\App\WebUI\HTTPPrint.c
               __string_7   0x00f8df    program     static D:\git\testing79m\App\WebUI\HTTPPrint.c
               __string_6   0x00f8e8    program     static D:\git\testing79m\App\WebUI\HTTPPrint.c
               __string_5   0x00f8f1    program     static D:\git\testing79m\App\WebUI\HTTPPrint.c
               __string_4   0x00f8f5    program     static D:\git\testing79m\App\WebUI\HTTPPrint.c
               __string_3   0x00f8f8    program     static D:\git\testing79m\App\WebUI\HTTPPrint.c
               __string_2   0x00f8ff    program     static D:\git\testing79m\App\WebUI\HTTPPrint.c
               __string_1   0x00f904    program     static D:\git\testing79m\App\WebUI\HTTPPrint.c
               __string_0   0x00f90d    program     static D:\git\testing79m\App\WebUI\HTTPPrint.c
              __string_58   0x00f915    program     static D:\git\testing79m\Singcom\Drivers\lcd.c
              __string_57   0x00f93e    program     static D:\git\testing79m\Singcom\Drivers\lcd.c
              __string_56   0x00f967    program     static D:\git\testing79m\Singcom\Drivers\lcd.c
              __string_55   0x00f990    program     static D:\git\testing79m\Singcom\Drivers\lcd.c
              __string_54   0x00f993    program     static D:\git\testing79m\Singcom\Drivers\lcd.c
              __string_53   0x00f997    program     static D:\git\testing79m\Singcom\Drivers\lcd.c
              __string_52   0x00f99c    program     static D:\git\testing79m\Singcom\Drivers\lcd.c
              __string_51   0x00f9a5    program     static D:\git\testing79m\Singcom\Drivers\lcd.c
              __string_50   0x00f9af    program     static D:\git\testing79m\Singcom\Drivers\lcd.c
              __string_49   0x00f9bd    program     static D:\git\testing79m\Singcom\Drivers\lcd.c
              __string_48   0x00f9c9    program     static D:\git\testing79m\Singcom\Drivers\lcd.c
              __string_47   0x00f9d8    program     static D:\git\testing79m\Singcom\Drivers\lcd.c
              __string_46   0x00f9e1    program     static D:\git\testing79m\Singcom\Drivers\lcd.c
              __string_45   0x00f9e5    program     static D:\git\testing79m\Singcom\Drivers\lcd.c
              __string_31   0x00f9e9    program     static D:\git\testing79m\Singcom\Drivers\lcd.c
                  MACInit   0x00f9f4    program     extern D:\git\testing79m\Microchip\TCPIP Stack\ETH97J60.c
        ___while_lbl00001   0x00fa0e    program     static                          
        ___while_lbl00002   0x00fa14    program     static                          
       ___return_lbl00000   0x00fafc    program     static                          
              MACIsLinked   0x00fb0a    program     extern D:\git\testing79m\Microchip\TCPIP Stack\ETH97J60.c
             MACIsTxReady   0x00fb1e    program     extern D:\git\testing79m\Microchip\TCPIP Stack\ETH97J60.c
             MACDiscardRx   0x00fb46    program     extern D:\git\testing79m\Microchip\TCPIP Stack\ETH97J60.c
         MACGetFreeRxSize   0x00fba6    program     extern D:\git\testing79m\Microchip\TCPIP Stack\ETH97J60.c
             MACGetHeader   0x00fc6e    program     extern D:\git\testing79m\Microchip\TCPIP Stack\ETH97J60.c
           ___if_lbl00020   0x00fc94    program     static                          
           ___if_lbl00021   0x00fca0    program     static                          
              __tmplbl_11   0x00fd06    program     static                          
              __tmplbl_10   0x00fd08    program     static                          
               __tmplbl_9   0x00fd16    program     static                          
               __tmplbl_8   0x00fd2e    program     static                          
               __tmplbl_7   0x00fd44    program     static                          
               __tmplbl_6   0x00fd5c    program     static                          
               __tmplbl_5   0x00fd72    program     static                          
           ___if_lbl00027   0x00fd74    program     static                          
              __tmplbl_13   0x00fdd4    program     static                          
              __tmplbl_14   0x00fdda    program     static                          
              __tmplbl_12   0x00fde2    program     static                          
           ___if_lbl00030   0x00fdf4    program     static                          
       ___return_lbl00019   0x00fdfc    program     static                          
             MACPutHeader   0x00fe18    program     extern D:\git\testing79m\Microchip\TCPIP Stack\ETH97J60.c
                 MACFlush   0x00fe7c    program     extern D:\git\testing79m\Microchip\TCPIP Stack\ETH97J60.c
        MACSetReadPtrInRx   0x00fea4    program     extern D:\git\testing79m\Microchip\TCPIP Stack\ETH97J60.c
           MACSetWritePtr   0x00febc    program     extern D:\git\testing79m\Microchip\TCPIP Stack\ETH97J60.c
            MACSetReadPtr   0x00fed0    program     extern D:\git\testing79m\Microchip\TCPIP Stack\ETH97J60.c
        MACCalcRxChecksum   0x00fee8    program     extern D:\git\testing79m\Microchip\TCPIP Stack\ETH97J60.c
     CalcIPBufferChecksum   0x00ff34    program     extern D:\git\testing79m\Microchip\TCPIP Stack\ETH97J60.c
          MACMemCopyAsync   0x0100a4    program     extern D:\git\testing79m\Microchip\TCPIP Stack\ETH97J60.c
         MACIsMemCopyDone   0x0101f2    program     extern D:\git\testing79m\Microchip\TCPIP Stack\ETH97J60.c
                   MACGet   0x0101fe    program     extern D:\git\testing79m\Microchip\TCPIP Stack\ETH97J60.c
              MACGetArray   0x010202    program     extern D:\git\testing79m\Microchip\TCPIP Stack\ETH97J60.c
                   MACPut   0x01025c    program     extern D:\git\testing79m\Microchip\TCPIP Stack\ETH97J60.c
       ___return_lbl00079   0x010276    program     static                          
              MACPutArray   0x010282    program     extern D:\git\testing79m\Microchip\TCPIP Stack\ETH97J60.c
        ___while_lbl00081   0x010292    program     static                          
       ___return_lbl00080   0x0102c6    program     static                          
        ___while_lbl00082   0x0102c6    program     static                          
           MACPutROMArray   0x0102d2    program     extern D:\git\testing79m\Microchip\TCPIP Stack\ETH97J60.c
        ___while_lbl00084   0x0102e2    program     static                          
       ___return_lbl00083   0x010328    program     static                          
        ___while_lbl00085   0x010328    program     static                          
               ReadPHYReg   0x010334    program     extern D:\git\testing79m\Microchip\TCPIP Stack\ETH97J60.c
        ___while_lbl00087   0x010358    program     static                          
        ___while_lbl00088   0x01035e    program     static                          
       ___return_lbl00086   0x010382    program     static                          
              WritePHYReg   0x010392    program     extern D:\git\testing79m\Microchip\TCPIP Stack\ETH97J60.c
        ___while_lbl00090   0x0103ce    program     static                          
        ___while_lbl00091   0x0103d4    program     static                          
       ___return_lbl00089   0x0103d4    program     static                          
             MACPowerDown   0x0103e2    program     extern D:\git\testing79m\Microchip\TCPIP Stack\ETH97J60.c
               MACPowerUp   0x0103f4    program     extern D:\git\testing79m\Microchip\TCPIP Stack\ETH97J60.c
                   __pa_0   0x010402    program     static D:\git\testing79m\Microchip\TCPIP Stack\ETH97J60.c
                   __pa_1   0x010414    program     static D:\git\testing79m\Microchip\TCPIP Stack\ETH97J60.c
              __tmplbl_25   0x010414    program     static                          
                   __pa_2   0x010420    program     static D:\git\testing79m\Microchip\TCPIP Stack\ETH97J60.c
                   __pa_3   0x01043e    program     static D:\git\testing79m\Microchip\TCPIP Stack\ETH97J60.c
                   __pa_4   0x010456    program     static D:\git\testing79m\Microchip\TCPIP Stack\ETH97J60.c
                   __pa_5   0x010460    program     static D:\git\testing79m\Microchip\TCPIP Stack\ETH97J60.c
                   __pa_6   0x010464    program     static D:\git\testing79m\Microchip\TCPIP Stack\ETH97J60.c
                   __pa_7   0x01046a    program     static D:\git\testing79m\Microchip\TCPIP Stack\ETH97J60.c
                   __pa_8   0x010474    program     static D:\git\testing79m\Microchip\TCPIP Stack\ETH97J60.c
                   __pa_9   0x010482    program     static D:\git\testing79m\Microchip\TCPIP Stack\ETH97J60.c
                  __pa_10   0x010494    program     static D:\git\testing79m\Microchip\TCPIP Stack\ETH97J60.c
                  __pa_11   0x0104a4    program     static D:\git\testing79m\Microchip\TCPIP Stack\ETH97J60.c
                  __pa_12   0x0104b0    program     static D:\git\testing79m\Microchip\TCPIP Stack\ETH97J60.c
                  __pa_13   0x0104be    program     static D:\git\testing79m\Microchip\TCPIP Stack\ETH97J60.c
                  __pa_14   0x0104cc    program     static D:\git\testing79m\Microchip\TCPIP Stack\ETH97J60.c
                  __pa_15   0x0104da    program     static D:\git\testing79m\Microchip\TCPIP Stack\ETH97J60.c
                  __pa_16   0x0104e8    program     static D:\git\testing79m\Microchip\TCPIP Stack\ETH97J60.c
                  __pa_17   0x0104f6    program     static D:\git\testing79m\Microchip\TCPIP Stack\ETH97J60.c
                  __pa_18   0x0104fe    program     static D:\git\testing79m\Microchip\TCPIP Stack\ETH97J60.c
                  __pa_19   0x010508    program     static D:\git\testing79m\Microchip\TCPIP Stack\ETH97J60.c
                  __pa_20   0x010512    program     static D:\git\testing79m\Microchip\TCPIP Stack\ETH97J60.c
                  __pa_21   0x01052a    program     static D:\git\testing79m\Microchip\TCPIP Stack\ETH97J60.c
                  __pa_22   0x010532    program     static D:\git\testing79m\Microchip\TCPIP Stack\ETH97J60.c
                  __pa_23   0x010540    program     static D:\git\testing79m\Microchip\TCPIP Stack\ETH97J60.c
                  __pa_24   0x010548    program     static D:\git\testing79m\Microchip\TCPIP Stack\ETH97J60.c
                  __pa_25   0x010558    program     static D:\git\testing79m\Microchip\TCPIP Stack\ETH97J60.c
                  __pa_26   0x010564    program     static D:\git\testing79m\Microchip\TCPIP Stack\ETH97J60.c
                  __pa_27   0x010572    program     static D:\git\testing79m\Microchip\TCPIP Stack\ETH97J60.c
                  __pa_28   0x010582    program     static D:\git\testing79m\Microchip\TCPIP Stack\ETH97J60.c
                  __pa_29   0x01058c    program     static D:\git\testing79m\Microchip\TCPIP Stack\ETH97J60.c
                  __pa_30   0x010596    program     static D:\git\testing79m\Microchip\TCPIP Stack\ETH97J60.c
                  __pa_31   0x01059e    program     static D:\git\testing79m\Microchip\TCPIP Stack\ETH97J60.c
            HTTPNeedsAuth   0x0105a6    program     extern D:\git\testing79m\App\WebUI\HTTPApp.c
            HTTPCheckAuth   0x0105e8    program     extern D:\git\testing79m\App\WebUI\HTTPApp.c
           HTTPExecuteGet   0x010630    program     extern D:\git\testing79m\App\WebUI\HTTPApp.c
          HTTPExecutePost   0x010634    program     extern D:\git\testing79m\App\WebUI\HTTPApp.c
              HTTPPostlut   0x0106b2    program     static D:\git\testing79m\App\WebUI\HTTPApp.c
           HTTPPostConfig   0x01074a    program     static D:\git\testing79m\App\WebUI\HTTPApp.c
                   __pa_0   0x010b62    program     static D:\git\testing79m\App\WebUI\HTTPApp.c
                   __pa_1   0x010b72    program     static D:\git\testing79m\App\WebUI\HTTPApp.c
                   __pa_2   0x010b7e    program     static D:\git\testing79m\App\WebUI\HTTPApp.c
                   __pa_3   0x010b8c    program     static D:\git\testing79m\App\WebUI\HTTPApp.c
                   __pa_4   0x010baa    program     static D:\git\testing79m\App\WebUI\HTTPApp.c
                   __pa_5   0x010bb6    program     static D:\git\testing79m\App\WebUI\HTTPApp.c
                   __pa_6   0x010bc6    program     static D:\git\testing79m\App\WebUI\HTTPApp.c
                   __pa_7   0x010bd2    program     static D:\git\testing79m\App\WebUI\HTTPApp.c
                   __pa_8   0x010bde    program     static D:\git\testing79m\App\WebUI\HTTPApp.c
                   __pa_9   0x010be6    program     static D:\git\testing79m\App\WebUI\HTTPApp.c
                  __pa_10   0x010bea    program     static D:\git\testing79m\App\WebUI\HTTPApp.c
                  __pa_11   0x010bf8    program     static D:\git\testing79m\App\WebUI\HTTPApp.c
                  __pa_12   0x010bfe    program     static D:\git\testing79m\App\WebUI\HTTPApp.c
                  __pa_13   0x010c0c    program     static D:\git\testing79m\App\WebUI\HTTPApp.c
                  __pa_14   0x010c14    program     static D:\git\testing79m\App\WebUI\HTTPApp.c
                  __pa_15   0x010c1c    program     static D:\git\testing79m\App\WebUI\HTTPApp.c
                  __pa_16   0x010c24    program     static D:\git\testing79m\App\WebUI\HTTPApp.c
                  __pa_17   0x010c32    program     static D:\git\testing79m\App\WebUI\HTTPApp.c
                  __pa_18   0x010c3c    program     static D:\git\testing79m\App\WebUI\HTTPApp.c
                  __pa_19   0x010c46    program     static D:\git\testing79m\App\WebUI\HTTPApp.c
                  __pa_20   0x010c50    program     static D:\git\testing79m\App\WebUI\HTTPApp.c
                  __pa_21   0x010c60    program     static D:\git\testing79m\App\WebUI\HTTPApp.c
                  __pa_22   0x010c6c    program     static D:\git\testing79m\App\WebUI\HTTPApp.c
                  __pa_23   0x010c76    program     static D:\git\testing79m\App\WebUI\HTTPApp.c
                  __pa_24   0x010c7c    program     static D:\git\testing79m\App\WebUI\HTTPApp.c
                 FLO0832U   0x010c88    program     extern C:\Program Files\mcc18\src\traditional\math\cast08FP.asm
                 FLO0832S   0x010c8c    program     extern C:\Program Files\mcc18\src\traditional\math\cast08FP.asm
                jI2F08Beg   0x010c96    program     static C:\Program Files\mcc18\src\traditional\math\cast08FP.asm
                 FLO1632U   0x010caa    program     extern C:\Program Files\mcc18\src\traditional\math\cast16FP.asm
                 FLO1632S   0x010cae    program     extern C:\Program Files\mcc18\src\traditional\math\cast16FP.asm
                jI2F16Beg   0x010cbe    program     static C:\Program Files\mcc18\src\traditional\math\cast16FP.asm
                    FPS32   0x010cd4    program     extern C:\Program Files\mcc18\src\traditional\math\addFP.asm
                    FPA32   0x010cd6    program     extern C:\Program Files\mcc18\src\traditional\math\addFP.asm
                jBANotInf   0x010cf4    program     static C:\Program Files\mcc18\src\traditional\math\addFP.asm
                 jANotInf   0x010cfe    program     static C:\Program Files\mcc18\src\traditional\math\addFP.asm
                 jBNotInf   0x010d0c    program     static C:\Program Files\mcc18\src\traditional\math\addFP.asm
            jDifOrPosSign   0x010d20    program     static C:\Program Files\mcc18\src\traditional\math\addFP.asm
             jNotBothZero   0x010d24    program     static C:\Program Files\mcc18\src\traditional\math\addFP.asm
                 jAltBexp   0x010d50    program     static C:\Program Files\mcc18\src\traditional\math\addFP.asm
              jAandWsetup   0x010d62    program     static C:\Program Files\mcc18\src\traditional\math\addFP.asm
                 jANotNeg   0x010d92    program     static C:\Program Files\mcc18\src\traditional\math\addFP.asm
                 jWNotNeg   0x010da6    program     static C:\Program Files\mcc18\src\traditional\math\addFP.asm
               jShiftLoop   0x010dac    program     static C:\Program Files\mcc18\src\traditional\math\addFP.asm
               jShiftDone   0x010dba    program     static C:\Program Files\mcc18\src\traditional\math\addFP.asm
                jSignDone   0x010dea    program     static C:\Program Files\mcc18\src\traditional\math\addFP.asm
               jFinalSign   0x010dfa    program     static C:\Program Files\mcc18\src\traditional\math\addFP.asm
                    FPD32   0x010e02    program     extern C:\Program Files\mcc18\src\traditional\math\divFP.asm
                 jANotInf   0x010e20    program     static C:\Program Files\mcc18\src\traditional\math\divFP.asm
              jSignedZero   0x010e2a    program     static C:\Program Files\mcc18\src\traditional\math\divFP.asm
                jANotZero   0x010e34    program     static C:\Program Files\mcc18\src\traditional\math\divFP.asm
                    jLoop   0x010e5c    program     static C:\Program Files\mcc18\src\traditional\math\divFP.asm
                jNoAdjust   0x010e80    program     static C:\Program Files\mcc18\src\traditional\math\divFP.asm
                    jNext   0x010e82    program     static C:\Program Files\mcc18\src\traditional\math\divFP.asm
                    FPM32   0x010ea8    program     extern C:\Program Files\mcc18\src\traditional\math\mulFP.asm
                 jANotInf   0x010ec6    program     static C:\Program Files\mcc18\src\traditional\math\mulFP.asm
              jBothFinite   0x010ed4    program     static C:\Program Files\mcc18\src\traditional\math\mulFP.asm
                jHaveZero   0x010edc    program     static C:\Program Files\mcc18\src\traditional\math\mulFP.asm
             jBothNotZero   0x010ee0    program     static C:\Program Files\mcc18\src\traditional\math\mulFP.asm
                 FXD1616S   0x010f82    program     extern C:\Program Files\mcc18\src\traditional\math\fxd1616s.asm
                  DA1616S   0x010f94    program     static C:\Program Files\mcc18\src\traditional\math\fxd1616s.asm
                   D1616S   0x010fa4    program     static C:\Program Files\mcc18\src\traditional\math\fxd1616s.asm
                 D1616SOK   0x010fae    program     static C:\Program Files\mcc18\src\traditional\math\fxd1616s.asm
                D1616SNEG   0x010fb2    program     static C:\Program Files\mcc18\src\traditional\math\fxd1616s.asm
                  D1616SX   0x010fc4    program     static C:\Program Files\mcc18\src\traditional\math\fxd1616s.asm
                 FXM1616S   0x010fce    program     extern C:\Program Files\mcc18\src\traditional\math\fxm1616s.asm
               TSIGN1616A   0x01101a    program     static C:\Program Files\mcc18\src\traditional\math\fxm1616s.asm
                 FXM1616U   0x011028    program     extern C:\Program Files\mcc18\src\traditional\math\fxm1616u.asm
                 FXM2424U   0x011064    program     extern C:\Program Files\mcc18\src\traditional\math\fxm2424u.asm
                  INT3216   0x0110f6    program     extern C:\Program Files\mcc18\src\traditional\math\castFP16.asm
                     jMax   0x011106    program     static C:\Program Files\mcc18\src\traditional\math\castFP16.asm
                  jMaxPos   0x01110a    program     static C:\Program Files\mcc18\src\traditional\math\castFP16.asm
                  jMaxNeg   0x011114    program     static C:\Program Files\mcc18\src\traditional\math\castFP16.asm
                    jZero   0x01111c    program     static C:\Program Files\mcc18\src\traditional\math\castFP16.asm
                  jNotInf   0x011122    program     static C:\Program Files\mcc18\src\traditional\math\castFP16.asm
                    jLoop   0x011132    program     static C:\Program Files\mcc18\src\traditional\math\castFP16.asm
                jLoopExit   0x011142    program     static C:\Program Files\mcc18\src\traditional\math\castFP16.asm
                    jExit   0x011152    program     static C:\Program Files\mcc18\src\traditional\math\castFP16.asm
            __FpReturnNaN   0x011154    program     extern C:\Program Files\mcc18\src\traditional\math\packFP.asm
                 __FpExit   0x011160    program     extern C:\Program Files\mcc18\src\traditional\math\packFP.asm
        __FpReturnSignInf   0x011162    program     extern C:\Program Files\mcc18\src\traditional\math\packFP.asm
         __FpReturnNegInf   0x011166    program     extern C:\Program Files\mcc18\src\traditional\math\packFP.asm
         __FpReturnPosInf   0x01116c    program     extern C:\Program Files\mcc18\src\traditional\math\packFP.asm
           jReturnPosInf0   0x011170    program     static C:\Program Files\mcc18\src\traditional\math\packFP.asm
               jZero1and2   0x011174    program     static C:\Program Files\mcc18\src\traditional\math\packFP.asm
       __FpReturnSignZero   0x01117a    program     extern C:\Program Files\mcc18\src\traditional\math\packFP.asm
        __FpReturnNegZero   0x01117e    program     extern C:\Program Files\mcc18\src\traditional\math\packFP.asm
        __FpReturnPosZero   0x011186    program     extern C:\Program Files\mcc18\src\traditional\math\packFP.asm
                 __FpPack   0x01118c    program     extern C:\Program Files\mcc18\src\traditional\math\packFP.asm
                  jPkLoop   0x01119a    program     static C:\Program Files\mcc18\src\traditional\math\packFP.asm
             jPkShiftDone   0x0111b6    program     static C:\Program Files\mcc18\src\traditional\math\packFP.asm
               jPkRoundIt   0x0111cc    program     static C:\Program Files\mcc18\src\traditional\math\packFP.asm
              __FpReturnW   0x0111e4    program     extern C:\Program Files\mcc18\src\traditional\math\packFP.asm
             jPkRoundDone   0x0111e4    program     static C:\Program Files\mcc18\src\traditional\math\packFP.asm
              __FpUnPackA   0x011204    program     extern C:\Program Files\mcc18\src\traditional\math\UnpackFP.asm
                  jUnpkA1   0x01120e    program     static C:\Program Files\mcc18\src\traditional\math\UnpackFP.asm
                 jUnpkANZ   0x01121c    program     static C:\Program Files\mcc18\src\traditional\math\UnpackFP.asm
                  jUnpkA2   0x011226    program     static C:\Program Files\mcc18\src\traditional\math\UnpackFP.asm
                 jUnpkNaN   0x011230    program     static C:\Program Files\mcc18\src\traditional\math\UnpackFP.asm
              __FpUnPackB   0x011234    program     extern C:\Program Files\mcc18\src\traditional\math\UnpackFP.asm
                  jUnpkB1   0x01123e    program     static C:\Program Files\mcc18\src\traditional\math\UnpackFP.asm
                 jUnpkBNZ   0x01124c    program     static C:\Program Files\mcc18\src\traditional\math\UnpackFP.asm
                  jUnpkB2   0x011256    program     static C:\Program Files\mcc18\src\traditional\math\UnpackFP.asm
              MenuDisplay   0x011260    program     extern D:\git\testing79m\Singcom\Drivers\lcd.c
                   ARPPut   0x0117d8    program     static D:\git\testing79m\Microchip\TCPIP Stack\ARP.c
                  ARPInit   0x0118a0    program     extern D:\git\testing79m\Microchip\TCPIP Stack\ARP.c
               ARPProcess   0x0118b8    program     extern D:\git\testing79m\Microchip\TCPIP Stack\ARP.c
               ARPResolve   0x011a4e    program     extern D:\git\testing79m\Microchip\TCPIP Stack\ARP.c
            ARPIsResolved   0x011af8    program     extern D:\git\testing79m\Microchip\TCPIP Stack\ARP.c
            SwapARPPacket   0x011b9a    program     extern D:\git\testing79m\Microchip\TCPIP Stack\ARP.c
                   __pa_0   0x011bc2    program     static D:\git\testing79m\Microchip\TCPIP Stack\ARP.c
                   __pa_1   0x011bd0    program     static D:\git\testing79m\Microchip\TCPIP Stack\ARP.c
                   __pa_2   0x011bdc    program     static D:\git\testing79m\Microchip\TCPIP Stack\ARP.c
                   __pa_3   0x011be8    program     static D:\git\testing79m\Microchip\TCPIP Stack\ARP.c
                   __pa_4   0x011bfc    program     static D:\git\testing79m\Microchip\TCPIP Stack\ARP.c
                   __pa_5   0x011c06    program     static D:\git\testing79m\Microchip\TCPIP Stack\ARP.c
                   __pa_6   0x011c16    program     static D:\git\testing79m\Microchip\TCPIP Stack\ARP.c
                   __pa_7   0x011c22    program     static D:\git\testing79m\Microchip\TCPIP Stack\ARP.c
                   __pa_8   0x011c30    program     static D:\git\testing79m\Microchip\TCPIP Stack\ARP.c
                   __pa_9   0x011c3e    program     static D:\git\testing79m\Microchip\TCPIP Stack\ARP.c
                  __pa_10   0x011c5a    program     static D:\git\testing79m\Microchip\TCPIP Stack\ARP.c
                  __pa_11   0x011c62    program     static D:\git\testing79m\Microchip\TCPIP Stack\ARP.c
                   memchr   0x011c6c    program     extern C:\Program Files\mcc18\src\traditional\stdclib\memchr.asm
                    jLoop   0x011c78    program     static C:\Program Files\mcc18\src\traditional\stdclib\memchr.asm
              _2jContinue   0x011c84    program     static C:\Program Files\mcc18\src\traditional\stdclib\memchr.asm
                   _3jEnd   0x011c8e    program     static C:\Program Files\mcc18\src\traditional\stdclib\memchr.asm
                 jNoMatch   0x011ca2    program     static C:\Program Files\mcc18\src\traditional\stdclib\memchr.asm
                     jEnd   0x011ca6    program     static C:\Program Files\mcc18\src\traditional\stdclib\memchr.asm
            memcmppgm2ram   0x011ca8    program     extern C:\Program Files\mcc18\src\traditional\stdclib\mcmpp2r.asm
                    jLoop   0x011cc6    program     static C:\Program Files\mcc18\src\traditional\stdclib\mcmpp2r.asm
              _3jContinue   0x011cd2    program     static C:\Program Files\mcc18\src\traditional\stdclib\mcmpp2r.asm
                   _4jEnd   0x011cdc    program     static C:\Program Files\mcc18\src\traditional\stdclib\mcmpp2r.asm
                     jEnd   0x011ce4    program     static C:\Program Files\mcc18\src\traditional\stdclib\mcmpp2r.asm
                   memcpy   0x011ce6    program     extern C:\Program Files\mcc18\src\traditional\stdclib\memcpy.asm
                    jLoop   0x011d0e    program     static C:\Program Files\mcc18\src\traditional\stdclib\memcpy.asm
              _4jContinue   0x011d1a    program     static C:\Program Files\mcc18\src\traditional\stdclib\memcpy.asm
                   _5jEnd   0x011d24    program     static C:\Program Files\mcc18\src\traditional\stdclib\memcpy.asm
                     jEnd   0x011d2a    program     static C:\Program Files\mcc18\src\traditional\stdclib\memcpy.asm
            memcpypgm2ram   0x011d3c    program     extern C:\Program Files\mcc18\src\traditional\stdclib\mcpyp2r.asm
                    jLoop   0x011d62    program     static C:\Program Files\mcc18\src\traditional\stdclib\mcpyp2r.asm
              _3jContinue   0x011d6e    program     static C:\Program Files\mcc18\src\traditional\stdclib\mcpyp2r.asm
                   _4jEnd   0x011d78    program     static C:\Program Files\mcc18\src\traditional\stdclib\mcpyp2r.asm
                     jEnd   0x011d80    program     static C:\Program Files\mcc18\src\traditional\stdclib\mcpyp2r.asm
                   memset   0x011d82    program     extern C:\Program Files\mcc18\src\traditional\stdclib\memset.asm
                    jLoop   0x011d96    program     static C:\Program Files\mcc18\src\traditional\stdclib\memset.asm
              _2jContinue   0x011da2    program     static C:\Program Files\mcc18\src\traditional\stdclib\memset.asm
                   _3jEnd   0x011dac    program     static C:\Program Files\mcc18\src\traditional\stdclib\memset.asm
                     jEnd   0x011db4    program     static C:\Program Files\mcc18\src\traditional\stdclib\memset.asm
                   strcat   0x011db6    program     extern C:\Program Files\mcc18\src\traditional\stdclib\strcat.asm
                jNullLoop   0x011dde    program     static C:\Program Files\mcc18\src\traditional\stdclib\strcat.asm
                    jLoop   0x011de4    program     static C:\Program Files\mcc18\src\traditional\stdclib\strcat.asm
            strcatpgm2ram   0x011dfe    program     extern C:\Program Files\mcc18\src\traditional\stdclib\scatp2r.asm
                jNullLoop   0x011e24    program     static C:\Program Files\mcc18\src\traditional\stdclib\scatp2r.asm
                    jLoop   0x011e2a    program     static C:\Program Files\mcc18\src\traditional\stdclib\scatp2r.asm
                     jEnd   0x011e34    program     static C:\Program Files\mcc18\src\traditional\stdclib\scatp2r.asm
                   strchr   0x011e36    program     extern C:\Program Files\mcc18\src\traditional\stdclib\strchr.asm
                    jLoop   0x011e42    program     static C:\Program Files\mcc18\src\traditional\stdclib\strchr.asm
                   jMatch   0x011e54    program     static C:\Program Files\mcc18\src\traditional\stdclib\strchr.asm
                     jEnd   0x011e5c    program     static C:\Program Files\mcc18\src\traditional\stdclib\strchr.asm
                   strcmp   0x011e5e    program     extern C:\Program Files\mcc18\src\traditional\stdclib\strcmp.asm
                    jLoop   0x011e7e    program     static C:\Program Files\mcc18\src\traditional\stdclib\strcmp.asm
                     jEnd   0x011e88    program     static C:\Program Files\mcc18\src\traditional\stdclib\strcmp.asm
            strcmppgm2ram   0x011e9e    program     extern C:\Program Files\mcc18\src\traditional\stdclib\scmpp2r.asm
                    jLoop   0x011ebc    program     static C:\Program Files\mcc18\src\traditional\stdclib\scmpp2r.asm
                     jEnd   0x011ec8    program     static C:\Program Files\mcc18\src\traditional\stdclib\scmpp2r.asm
                   strcpy   0x011eca    program     extern C:\Program Files\mcc18\src\traditional\stdclib\strcpy.asm
                    jLoop   0x011ef2    program     static C:\Program Files\mcc18\src\traditional\stdclib\strcpy.asm
            strcpypgm2ram   0x011f0c    program     extern C:\Program Files\mcc18\src\traditional\stdclib\scpyp2r.asm
                    jLoop   0x011f32    program     static C:\Program Files\mcc18\src\traditional\stdclib\scpyp2r.asm
                     jEnd   0x011f3c    program     static C:\Program Files\mcc18\src\traditional\stdclib\scpyp2r.asm
                   strlen   0x011f3e    program     extern C:\Program Files\mcc18\src\traditional\stdclib\strlen.asm
                    jLoop   0x011f4e    program     static C:\Program Files\mcc18\src\traditional\stdclib\strlen.asm
                     jEnd   0x011f58    program     static C:\Program Files\mcc18\src\traditional\stdclib\strlen.asm
                strlenpgm   0x011f5a    program     extern C:\Program Files\mcc18\src\traditional\stdclib\slenpgm.asm
                    jLoop   0x011f78    program     static C:\Program Files\mcc18\src\traditional\stdclib\slenpgm.asm
                   _2jEnd   0x011f8e    program     static C:\Program Files\mcc18\src\traditional\stdclib\slenpgm.asm
                     jEnd   0x011f90    program     static C:\Program Files\mcc18\src\traditional\stdclib\slenpgm.asm
                  strncat   0x011fa4    program     extern C:\Program Files\mcc18\src\traditional\stdclib\strncat.asm
                jNullLoop   0x011fcc    program     static C:\Program Files\mcc18\src\traditional\stdclib\strncat.asm
                    jLoop   0x011fd2    program     static C:\Program Files\mcc18\src\traditional\stdclib\strncat.asm
              _4jContinue   0x011fde    program     static C:\Program Files\mcc18\src\traditional\stdclib\strncat.asm
                   _5jEnd   0x011fe8    program     static C:\Program Files\mcc18\src\traditional\stdclib\strncat.asm
                    jTerm   0x011ff2    program     static C:\Program Files\mcc18\src\traditional\stdclib\strncat.asm
                     jEnd   0x011ff4    program     static C:\Program Files\mcc18\src\traditional\stdclib\strncat.asm
                  strncpy   0x012006    program     extern C:\Program Files\mcc18\src\traditional\stdclib\strncpy.asm
                    jLoop   0x01202e    program     static C:\Program Files\mcc18\src\traditional\stdclib\strncpy.asm
              _4jContinue   0x01203a    program     static C:\Program Files\mcc18\src\traditional\stdclib\strncpy.asm
                   _5jEnd   0x012044    program     static C:\Program Files\mcc18\src\traditional\stdclib\strncpy.asm
                     jEnd   0x012050    program     static C:\Program Files\mcc18\src\traditional\stdclib\strncpy.asm
           strncpypgm2ram   0x012062    program     extern C:\Program Files\mcc18\src\traditional\stdclib\sncpyp2r.asm
                    jLoop   0x012088    program     static C:\Program Files\mcc18\src\traditional\stdclib\sncpyp2r.asm
              _3jContinue   0x012094    program     static C:\Program Files\mcc18\src\traditional\stdclib\sncpyp2r.asm
                   _4jEnd   0x01209e    program     static C:\Program Files\mcc18\src\traditional\stdclib\sncpyp2r.asm
                     jEnd   0x0120ac    program     static C:\Program Files\mcc18\src\traditional\stdclib\sncpyp2r.asm
                   strupr   0x0120ae    program     extern C:\Program Files\mcc18\src\traditional\stdclib\strupr.asm
                    jLoop   0x0120c2    program     static C:\Program Files\mcc18\src\traditional\stdclib\strupr.asm
                    jSkip   0x0120d2    program     static C:\Program Files\mcc18\src\traditional\stdclib\strupr.asm
                     jEnd   0x0120d6    program     static C:\Program Files\mcc18\src\traditional\stdclib\strupr.asm
   Main_vPrintUpConverter   0x0120d8    program     extern D:\git\testing79m\Singcom\Devices\MainControl_c1.c
 Main_vPrintDownConverter   0x01213e    program     extern D:\git\testing79m\Singcom\Devices\MainControl_c1.c
       Main_vPrintVolCtrl   0x0121a4    program     extern D:\git\testing79m\Singcom\Devices\MainControl_c1.c
    Main_vPrintDeviceInfo   0x0121e8    program     extern D:\git\testing79m\Singcom\Devices\MainControl_c1.c
            Main_vPrintIP   0x0122d8    program     extern D:\git\testing79m\Singcom\Devices\MainControl_c1.c
       Main_vPrintModelNo   0x0122f2    program     extern D:\git\testing79m\Singcom\Devices\MainControl_c1.c
      Main_vPrintSerialNo   0x012302    program     extern D:\git\testing79m\Singcom\Devices\MainControl_c1.c
              Main_vSetIP   0x01231c    program     extern D:\git\testing79m\Singcom\Devices\MainControl_c1.c
              Main_vLEDLO   0x012382    program     extern D:\git\testing79m\Singcom\Devices\MainControl_c1.c
              Main_vLEDTX   0x012396    program     extern D:\git\testing79m\Singcom\Devices\MainControl_c1.c
              Main_vLEDRX   0x0123aa    program     extern D:\git\testing79m\Singcom\Devices\MainControl_c1.c
            Main_vLEDInit   0x0123be    program     extern D:\git\testing79m\Singcom\Devices\MainControl_c1.c
                   __pa_0   0x0123c6    program     static D:\git\testing79m\Singcom\Devices\MainControl_c1.c
                   __pa_1   0x0123d2    program     static D:\git\testing79m\Singcom\Devices\MainControl_c1.c
                   __pa_2   0x0123de    program     static D:\git\testing79m\Singcom\Devices\MainControl_c1.c
                   __pa_3   0x0123ea    program     static D:\git\testing79m\Singcom\Devices\MainControl_c1.c
                   __pa_4   0x0123f6    program     static D:\git\testing79m\Singcom\Devices\MainControl_c1.c
                   __pa_5   0x012402    program     static D:\git\testing79m\Singcom\Devices\MainControl_c1.c
                   __pa_6   0x01240e    program     static D:\git\testing79m\Singcom\Devices\MainControl_c1.c
                   __pa_7   0x01241a    program     static D:\git\testing79m\Singcom\Devices\MainControl_c1.c
                   __pa_8   0x012426    program     static D:\git\testing79m\Singcom\Devices\MainControl_c1.c
                   __pa_9   0x012432    program     static D:\git\testing79m\Singcom\Devices\MainControl_c1.c
                  __pa_10   0x01243c    program     static D:\git\testing79m\Singcom\Devices\MainControl_c1.c
                  __pa_11   0x012442    program     static D:\git\testing79m\Singcom\Devices\MainControl_c1.c
                  __pa_12   0x012448    program     static D:\git\testing79m\Singcom\Devices\MainControl_c1.c
                  __pa_13   0x012452    program     static D:\git\testing79m\Singcom\Devices\MainControl_c1.c
                  __pa_14   0x012460    program     static D:\git\testing79m\Singcom\Devices\MainControl_c1.c
                  __pa_15   0x012466    program     static D:\git\testing79m\Singcom\Devices\MainControl_c1.c
                  __pa_16   0x012470    program     static D:\git\testing79m\Singcom\Devices\MainControl_c1.c
                  __pa_17   0x012478    program     static D:\git\testing79m\Singcom\Devices\MainControl_c1.c
                  __pa_18   0x01248a    program     static D:\git\testing79m\Singcom\Devices\MainControl_c1.c
                  __pa_19   0x01249c    program     static D:\git\testing79m\Singcom\Devices\MainControl_c1.c
                  __pa_20   0x0124ac    program     static D:\git\testing79m\Singcom\Devices\MainControl_c1.c
                  __pa_21   0x0124ba    program     static D:\git\testing79m\Singcom\Devices\MainControl_c1.c
                  __pa_22   0x0124c8    program     static D:\git\testing79m\Singcom\Devices\MainControl_c1.c
                 InitData   0x0124ce    program     extern D:\git\testing79m\Bootstrap\Initialization.c
          InitializeBoard   0x0125c6    program     extern D:\git\testing79m\Bootstrap\Initialization.c
            InitAppConfig   0x01260e    program     extern D:\git\testing79m\Bootstrap\Initialization.c
          SetDefaultValue   0x0126c6    program     extern D:\git\testing79m\Bootstrap\Initialization.c
                   __pa_0   0x012748    program     static D:\git\testing79m\Bootstrap\Initialization.c
                   __pa_1   0x012768    program     static D:\git\testing79m\Bootstrap\Initialization.c
                   __pa_2   0x0127c0    program     static D:\git\testing79m\Bootstrap\Initialization.c
                   __pa_3   0x0127d0    program     static D:\git\testing79m\Bootstrap\Initialization.c
                   __pa_4   0x0127fa    program     static D:\git\testing79m\Bootstrap\Initialization.c
                   __pa_5   0x012808    program     static D:\git\testing79m\Bootstrap\Initialization.c
                   __pa_6   0x012816    program     static D:\git\testing79m\Bootstrap\Initialization.c
                   __pa_7   0x012820    program     static D:\git\testing79m\Bootstrap\Initialization.c
                   __pa_8   0x01282e    program     static D:\git\testing79m\Bootstrap\Initialization.c
                   __pa_9   0x01283a    program     static D:\git\testing79m\Bootstrap\Initialization.c
                  __pa_10   0x012844    program     static D:\git\testing79m\Bootstrap\Initialization.c
              IPGetHeader   0x012850    program     extern D:\git\testing79m\Microchip\TCPIP Stack\IP.c
              IPPutHeader   0x01298c    program     extern D:\git\testing79m\Microchip\TCPIP Stack\IP.c
            IPSetRxBuffer   0x012a92    program     extern D:\git\testing79m\Microchip\TCPIP Stack\IP.c
             SwapIPHeader   0x012ac0    program     static D:\git\testing79m\Microchip\TCPIP Stack\IP.c
                   __pa_0   0x012ade    program     static D:\git\testing79m\Microchip\TCPIP Stack\IP.c
                   __pa_1   0x012b00    program     static D:\git\testing79m\Microchip\TCPIP Stack\IP.c
                   __pa_2   0x012b0c    program     static D:\git\testing79m\Microchip\TCPIP Stack\IP.c
                   __pa_3   0x012b18    program     static D:\git\testing79m\Microchip\TCPIP Stack\IP.c
                   __pa_4   0x012b1e    program     static D:\git\testing79m\Microchip\TCPIP Stack\IP.c
                   __pa_5   0x012b34    program     static D:\git\testing79m\Microchip\TCPIP Stack\IP.c
                   __pa_6   0x012b3e    program     static D:\git\testing79m\Microchip\TCPIP Stack\IP.c
                   __pa_7   0x012b48    program     static D:\git\testing79m\Microchip\TCPIP Stack\IP.c
                   __pa_8   0x012b56    program     static D:\git\testing79m\Microchip\TCPIP Stack\IP.c
                   __pa_9   0x012b64    program     static D:\git\testing79m\Microchip\TCPIP Stack\IP.c
                  __pa_10   0x012b74    program     static D:\git\testing79m\Microchip\TCPIP Stack\IP.c
                  XEEInit   0x012b7e    program     extern D:\git\testing79m\Microchip\TCPIP Stack\SPIEEPROM.c
             XEEBeginRead   0x012b94    program     extern D:\git\testing79m\Microchip\TCPIP Stack\SPIEEPROM.c
                  XEERead   0x012ba0    program     extern D:\git\testing79m\Microchip\TCPIP Stack\SPIEEPROM.c
               XEEEndRead   0x012bf6    program     extern D:\git\testing79m\Microchip\TCPIP Stack\SPIEEPROM.c
             XEEReadArray   0x012bf8    program     extern D:\git\testing79m\Microchip\TCPIP Stack\SPIEEPROM.c
            XEEBeginWrite   0x012c8c    program     extern D:\git\testing79m\Microchip\TCPIP Stack\SPIEEPROM.c
                 XEEWrite   0x012c98    program     extern D:\git\testing79m\Microchip\TCPIP Stack\SPIEEPROM.c
            XEEWriteArray   0x012cc6    program     extern D:\git\testing79m\Microchip\TCPIP Stack\SPIEEPROM.c
              XEEEndWrite   0x012d00    program     extern D:\git\testing79m\Microchip\TCPIP Stack\SPIEEPROM.c
                  DoWrite   0x012d0a    program     static D:\git\testing79m\Microchip\TCPIP Stack\SPIEEPROM.c
                XEEIsBusy   0x012db2    program     extern D:\git\testing79m\Microchip\TCPIP Stack\SPIEEPROM.c
                   __pa_0   0x012df0    program     static D:\git\testing79m\Microchip\TCPIP Stack\SPIEEPROM.c
                   __pa_1   0x012e02    program     static D:\git\testing79m\Microchip\TCPIP Stack\SPIEEPROM.c
                   __pa_2   0x012e0e    program     static D:\git\testing79m\Microchip\TCPIP Stack\SPIEEPROM.c
                   __pa_3   0x012e28    program     static D:\git\testing79m\Microchip\TCPIP Stack\SPIEEPROM.c
                   __pa_4   0x012e38    program     static D:\git\testing79m\Microchip\TCPIP Stack\SPIEEPROM.c
                   __pa_5   0x012e42    program     static D:\git\testing79m\Microchip\TCPIP Stack\SPIEEPROM.c
                   __pa_6   0x012e54    program     static D:\git\testing79m\Microchip\TCPIP Stack\SPIEEPROM.c
                   __pa_7   0x012e60    program     static D:\git\testing79m\Microchip\TCPIP Stack\SPIEEPROM.c
                   __pa_8   0x012e70    program     static D:\git\testing79m\Microchip\TCPIP Stack\SPIEEPROM.c
                 I2C_Send   0x012e78    program     extern D:\git\testing79m\Singcom\Drivers\i2c_c1.c
                 I2C_Read   0x012ea4    program     extern D:\git\testing79m\Singcom\Drivers\i2c_c1.c
              i2csendbyte   0x012ee0    program     extern D:\git\testing79m\Singcom\Drivers\i2c_c1.c
               i2cgetbyte   0x012f12    program     extern D:\git\testing79m\Singcom\Drivers\i2c_c1.c
                 i2cstart   0x012f4a    program     extern D:\git\testing79m\Singcom\Drivers\i2c_c1.c
                  i2cstop   0x012f5e    program     extern D:\git\testing79m\Singcom\Drivers\i2c_c1.c
                 i2cclock   0x012f70    program     extern D:\git\testing79m\Singcom\Drivers\i2c_c1.c
               i2creadbit   0x012f7c    program     extern D:\git\testing79m\Singcom\Drivers\i2c_c1.c
                i2cgetack   0x012f9c    program     extern D:\git\testing79m\Singcom\Drivers\i2c_c1.c
               i2csendack   0x012fb6    program     extern D:\git\testing79m\Singcom\Drivers\i2c_c1.c
              i2csendnack   0x012fba    program     extern D:\git\testing79m\Singcom\Drivers\i2c_c1.c
                 i2cdelay   0x012fbe    program     extern D:\git\testing79m\Singcom\Drivers\i2c_c1.c
                   SetI2C   0x013006    program     extern D:\git\testing79m\Singcom\Drivers\i2c_c1.c
                   __pa_0   0x0130a4    program     static D:\git\testing79m\Singcom\Drivers\i2c_c1.c
                   __pa_1   0x0130ac    program     static D:\git\testing79m\Singcom\Drivers\i2c_c1.c
                   __pa_2   0x0130be    program     static D:\git\testing79m\Singcom\Drivers\i2c_c1.c
                   __pa_3   0x0130de    program     static D:\git\testing79m\Singcom\Drivers\i2c_c1.c
                   __pa_4   0x0130ea    program     static D:\git\testing79m\Singcom\Drivers\i2c_c1.c
                   __pa_5   0x013104    program     static D:\git\testing79m\Singcom\Drivers\i2c_c1.c
                   __pa_6   0x013110    program     static D:\git\testing79m\Singcom\Drivers\i2c_c1.c
                   __pa_7   0x01311e    program     static D:\git\testing79m\Singcom\Drivers\i2c_c1.c
                   __pa_8   0x01312c    program     static D:\git\testing79m\Singcom\Drivers\i2c_c1.c
                   __pa_9   0x013136    program     static D:\git\testing79m\Singcom\Drivers\i2c_c1.c
                  __pa_10   0x013140    program     static D:\git\testing79m\Singcom\Drivers\i2c_c1.c
                  __pa_11   0x013150    program     static D:\git\testing79m\Singcom\Drivers\i2c_c1.c
                  __pa_12   0x01315e    program     static D:\git\testing79m\Singcom\Drivers\i2c_c1.c
                  __pa_13   0x013168    program     static D:\git\testing79m\Singcom\Drivers\i2c_c1.c
           OLED_vSetKepad   0x01316e    program     extern D:\git\testing79m\Singcom\Drivers\oled_c1.c
                CheckBusy   0x013180    program     extern D:\git\testing79m\Singcom\Drivers\oled_c1.c
           ___do_lbl00004   0x01319a    program     static                          
           ___do_lbl00002   0x0131aa    program     static                          
           ___do_lbl00003   0x0131ae    program     static                          
       ___return_lbl00001   0x0131b0    program     static                          
                 WriteIns   0x0131be    program     extern D:\git\testing79m\Singcom\Drivers\oled_c1.c
       ___return_lbl00005   0x0131e0    program     static                          
                WriteData   0x0131ec    program     extern D:\git\testing79m\Singcom\Drivers\oled_c1.c
       ___return_lbl00006   0x013212    program     static                          
                 ReadData   0x01321e    program     extern D:\git\testing79m\Singcom\Drivers\oled_c1.c
       ___return_lbl00007   0x013248    program     static                          
              WriteString   0x013256    program     extern D:\git\testing79m\Singcom\Drivers\oled_c1.c
           LCDWriteString   0x013286    program     extern D:\git\testing79m\Singcom\Drivers\oled_c1.c
          DRI_vPrintCGRAM   0x0132be    program     extern D:\git\testing79m\Singcom\Drivers\oled_c1.c
            DRI_vLCDClear   0x013334    program     extern D:\git\testing79m\Singcom\Drivers\oled_c1.c
       DRI_vLCDReturnhome   0x01333a    program     extern D:\git\testing79m\Singcom\Drivers\oled_c1.c
        DRI_vLCDEntryMode   0x013340    program     extern D:\git\testing79m\Singcom\Drivers\oled_c1.c
          DRI_vLCDDisplay   0x013346    program     extern D:\git\testing79m\Singcom\Drivers\oled_c1.c
          PrintCompanyLCD   0x013370    program     extern D:\git\testing79m\Singcom\Drivers\oled_c1.c
                   __pa_0   0x0133d2    program     static D:\git\testing79m\Singcom\Drivers\oled_c1.c
                   __pa_1   0x0133e6    program     static D:\git\testing79m\Singcom\Drivers\oled_c1.c
                   __pa_2   0x013400    program     static D:\git\testing79m\Singcom\Drivers\oled_c1.c
                   __pa_3   0x01340e    program     static D:\git\testing79m\Singcom\Drivers\oled_c1.c
                   __pa_4   0x013426    program     static D:\git\testing79m\Singcom\Drivers\oled_c1.c
                   __pa_5   0x01343e    program     static D:\git\testing79m\Singcom\Drivers\oled_c1.c
                   __pa_6   0x013446    program     static D:\git\testing79m\Singcom\Drivers\oled_c1.c
        DRI__vHitWatchDog   0x013452    program     static D:\git\testing79m\Main\Main.c
       ___return_lbl00000   0x013454    program     static                          
    DRI__vEnableGlobalInt   0x013456    program     static D:\git\testing79m\Main\Main.c
          DRI__vConfigSPI   0x013460    program     static D:\git\testing79m\Main\Main.c
         SYS__vStatusTask   0x013470    program     static D:\git\testing79m\Main\Main.c
      SYS__vLcdKeyPadTask   0x0134ba    program     static D:\git\testing79m\Main\Main.c
   HTTP_vClearWebPassword   0x0134e6    program     static D:\git\testing79m\Main\Main.c
          SYS__u8InitData   0x01353c    program     static D:\git\testing79m\Main\Main.c
                     main   0x0135f4    program     extern D:\git\testing79m\Main\Main.c
               UpdateData   0x0136c8    program     extern D:\git\testing79m\Main\Main.c
        UpdateDataUartSys   0x0136d6    program     extern D:\git\testing79m\Main\Main.c
         UpdateDataLEDSys   0x0136d8    program     extern D:\git\testing79m\Main\Main.c
                  AD_init   0x0136da    program     extern D:\git\testing79m\Drivers\MCU-Internal\internalADC.c
                 Read_ADC   0x01370c    program     extern D:\git\testing79m\Drivers\MCU-Internal\internalADC.c
        ___while_lbl00002   0x0137ca    program     static                          
        ___while_lbl00003   0x0137d2    program     static                          
       ___return_lbl00001   0x0137e6    program     static                          
                ADC_Value   0x0137f2    program     extern D:\git\testing79m\Drivers\MCU-Internal\internalADC.c
       ___return_lbl00004   0x0138be    program     static                          
                GetOneADC   0x0138d6    program     extern D:\git\testing79m\Drivers\MCU-Internal\internalADC.c
                StackInit   0x01392c    program     extern D:\git\testing79m\Microchip\TCPIP Stack\StackTsk.c
                StackTask   0x01395c    program     extern D:\git\testing79m\Microchip\TCPIP Stack\StackTsk.c
        StackApplications   0x013ae8    program     extern D:\git\testing79m\Microchip\TCPIP Stack\StackTsk.c
                   __pa_0   0x013aec    program     static D:\git\testing79m\Microchip\TCPIP Stack\StackTsk.c
                   __pa_1   0x013afa    program     static D:\git\testing79m\Microchip\TCPIP Stack\StackTsk.c
                   __pa_2   0x013b06    program     static D:\git\testing79m\Microchip\TCPIP Stack\StackTsk.c
             GetOneCHADC0   0x013b10    program     extern D:\git\testing79m\Drivers\External-Peripherals\devadc.c
       GetOneCHADC012Bits   0x013b46    program     extern D:\git\testing79m\Drivers\External-Peripherals\devadc.c
             GetOneCHADC1   0x013b64    program     extern D:\git\testing79m\Drivers\External-Peripherals\devadc.c
       GetOneCHADC112Bits   0x013b9a    program     extern D:\git\testing79m\Drivers\External-Peripherals\devadc.c
   GetCurrentFromHexValue   0x013bb6    program     extern D:\git\testing79m\Drivers\External-Peripherals\devadc.c
                   __pa_0   0x013c28    program     static D:\git\testing79m\Drivers\External-Peripherals\devadc.c
                   __pa_1   0x013c6e    program     static D:\git\testing79m\Drivers\External-Peripherals\devadc.c
                   __pa_2   0x013c76    program     static D:\git\testing79m\Drivers\External-Peripherals\devadc.c
                   __pa_3   0x013c82    program     static D:\git\testing79m\Drivers\External-Peripherals\devadc.c
                   __pa_4   0x013c9c    program     static D:\git\testing79m\Drivers\External-Peripherals\devadc.c
                   __pa_5   0x013caa    program     static D:\git\testing79m\Drivers\External-Peripherals\devadc.c
                   __pa_6   0x013cbc    program     static D:\git\testing79m\Drivers\External-Peripherals\devadc.c
                   __pa_7   0x013cce    program     static D:\git\testing79m\Drivers\External-Peripherals\devadc.c
                   __pa_8   0x013ce0    program     static D:\git\testing79m\Drivers\External-Peripherals\devadc.c
                   LowISR   0x013cee    program     extern D:\git\testing79m\Drivers\MCU-Internal\ISR.c
                  HighISR   0x013dd8    program     extern D:\git\testing79m\Drivers\MCU-Internal\ISR.c
                   __pa_0   0x013e28    program     static D:\git\testing79m\Drivers\MCU-Internal\ISR.c
                   __pa_1   0x013e52    program     static D:\git\testing79m\Drivers\MCU-Internal\ISR.c
                   __pa_2   0x013e7c    program     static D:\git\testing79m\Drivers\MCU-Internal\ISR.c
                   __pa_3   0x013e94    program     static D:\git\testing79m\Drivers\MCU-Internal\ISR.c
                     atol   0x013ea6    program     extern C:\Program Files\mcc18\src\traditional\stdclib\atol.asm
                  jSkipWS   0x013edc    program     static C:\Program Files\mcc18\src\traditional\stdclib\atol.asm
                 jSkipWS1   0x013eee    program     static C:\Program Files\mcc18\src\traditional\stdclib\atol.asm
                 jTstSign   0x013ef2    program     static C:\Program Files\mcc18\src\traditional\stdclib\atol.asm
                jTstSign1   0x013efe    program     static C:\Program Files\mcc18\src\traditional\stdclib\atol.asm
                jTstSign2   0x013f04    program     static C:\Program Files\mcc18\src\traditional\stdclib\atol.asm
                    jLoop   0x013f06    program     static C:\Program Files\mcc18\src\traditional\stdclib\atol.asm
                jTstSign3   0x013f06    program     static C:\Program Files\mcc18\src\traditional\stdclib\atol.asm
                 jEndLoop   0x013f94    program     static C:\Program Files\mcc18\src\traditional\stdclib\atol.asm
                  _14jEnd   0x013fc4    program     static C:\Program Files\mcc18\src\traditional\stdclib\atol.asm
                     jEnd   0x013fc4    program     static C:\Program Files\mcc18\src\traditional\stdclib\atol.asm
                    srand   0x013ffc    program     extern C:\Program Files\mcc18\src\traditional\stdclib\rand.asm
                     rand   0x01400a    program     extern C:\Program Files\mcc18\src\traditional\stdclib\rand.asm
         UpCvt_vPrintFreq   0x014038    program     extern D:\git\testing79m\Singcom\Devices\UpConverter_c1.c
        UpCvt_vPrintPower   0x014052    program     extern D:\git\testing79m\Singcom\Devices\UpConverter_c1.c
        UpCvt_vPrintStPwr   0x01406c    program     extern D:\git\testing79m\Singcom\Devices\UpConverter_c1.c
           UpCvt_vPrintLo   0x014086    program     extern D:\git\testing79m\Singcom\Devices\UpConverter_c1.c
         UpCvt_vPrintAttn   0x0140b8    program     extern D:\git\testing79m\Singcom\Devices\UpConverter_c1.c
          UpCvt_vPrintALC   0x0140d2    program     extern D:\git\testing79m\Singcom\Devices\UpConverter_c1.c
         UpCvt_vPrintMute   0x0140ec    program     extern D:\git\testing79m\Singcom\Devices\UpConverter_c1.c
           UpCvt_vSendI2C   0x01413e    program     extern D:\git\testing79m\Singcom\Devices\UpConverter_c1.c
           UpCvt_vSetFreq   0x01414e    program     extern D:\git\testing79m\Singcom\Devices\UpConverter_c1.c
           UpCvt_vSetAttn   0x014150    program     extern D:\git\testing79m\Singcom\Devices\UpConverter_c1.c
          UpCvt_vSetPower   0x014152    program     extern D:\git\testing79m\Singcom\Devices\UpConverter_c1.c
          UpCvt_vSetStPwr   0x014154    program     extern D:\git\testing79m\Singcom\Devices\UpConverter_c1.c
            UpCvt_vSetALC   0x014156    program     extern D:\git\testing79m\Singcom\Devices\UpConverter_c1.c
           UpCvt_vSetMute   0x014158    program     extern D:\git\testing79m\Singcom\Devices\UpConverter_c1.c
                   __pa_0   0x01415a    program     static D:\git\testing79m\Singcom\Devices\UpConverter_c1.c
                   __pa_1   0x014170    program     static D:\git\testing79m\Singcom\Devices\UpConverter_c1.c
              ICMPProcess   0x014186    program     extern D:\git\testing79m\Microchip\TCPIP Stack\ICMP.c
                   __pa_0   0x0142a8    program     static D:\git\testing79m\Microchip\TCPIP Stack\ICMP.c
                   __pa_1   0x0142b8    program     static D:\git\testing79m\Microchip\TCPIP Stack\ICMP.c
                   __pa_2   0x0142c6    program     static D:\git\testing79m\Microchip\TCPIP Stack\ICMP.c
                 TickInit   0x0142d0    program     extern D:\git\testing79m\Microchip\TCPIP Stack\Tick.c
           ___do_lbl00004   0x0142e0    program     static                          
              GetTickCopy   0x0142e0    program     static D:\git\testing79m\Microchip\TCPIP Stack\Tick.c
           ___do_lbl00002   0x0142fe    program     static                          
           ___do_lbl00003   0x014302    program     static                          
       ___return_lbl00001   0x014304    program     static                          
                  TickGet   0x014306    program     extern D:\git\testing79m\Microchip\TCPIP Stack\Tick.c
            TickGetDiv256   0x01431a    program     extern D:\git\testing79m\Microchip\TCPIP Stack\Tick.c
            TickGetDiv64K   0x01433e    program     extern D:\git\testing79m\Microchip\TCPIP Stack\Tick.c
TickConvertToMilliseconds   0x014362    program     extern D:\git\testing79m\Microchip\TCPIP Stack\Tick.c
               TickUpdate   0x014398    program     extern D:\git\testing79m\Microchip\TCPIP Stack\Tick.c
                   __pa_0   0x0143ac    program     static D:\git\testing79m\Microchip\TCPIP Stack\Tick.c
                   __pa_1   0x0143ba    program     static D:\git\testing79m\Microchip\TCPIP Stack\Tick.c
                   __pa_2   0x0143d4    program     static D:\git\testing79m\Microchip\TCPIP Stack\Tick.c
                   __pa_3   0x0143e0    program     static D:\git\testing79m\Microchip\TCPIP Stack\Tick.c
                BusyUSART   0x0143f2    program     extern D:\git\testing79m\Microchip\TCPIP Stack\UART.c
               CloseUSART   0x0143fe    program     extern D:\git\testing79m\Microchip\TCPIP Stack\UART.c
             DataRdyUSART   0x01440a    program     extern D:\git\testing79m\Microchip\TCPIP Stack\UART.c
                ReadUSART   0x01441c    program     extern D:\git\testing79m\Microchip\TCPIP Stack\UART.c
               WriteUSART   0x014420    program     extern D:\git\testing79m\Microchip\TCPIP Stack\UART.c
                putsUSART   0x01442a    program     extern D:\git\testing79m\Microchip\TCPIP Stack\UART.c
               ReadUSART2   0x014446    program     extern D:\git\testing79m\Microchip\TCPIP Stack\UART.c
               BusyUSART2   0x01444a    program     extern D:\git\testing79m\Microchip\TCPIP Stack\UART.c
              CloseUSART2   0x014456    program     extern D:\git\testing79m\Microchip\TCPIP Stack\UART.c
            DataRdyUSART2   0x014462    program     extern D:\git\testing79m\Microchip\TCPIP Stack\UART.c
              WriteUSART2   0x014474    program     extern D:\git\testing79m\Microchip\TCPIP Stack\UART.c
               putsUSART2   0x01447e    program     extern D:\git\testing79m\Microchip\TCPIP Stack\UART.c
                   __pa_0   0x01449a    program     static D:\git\testing79m\Microchip\TCPIP Stack\UART.c
                   __pa_1   0x0144ac    program     static D:\git\testing79m\Microchip\TCPIP Stack\UART.c
                   __pa_2   0x0144b8    program     static D:\git\testing79m\Microchip\TCPIP Stack\UART.c
                   __pa_3   0x0144c8    program     static D:\git\testing79m\Microchip\TCPIP Stack\UART.c
                  sprintf   0x0144d8    program     extern C:\Program Files\mcc18\src\traditional\stdclib\sprintf.c
                _do_cinit   0x014584    program     extern C:\Program Files\mcc18\src\traditional\startup\c018iz.c
                     test   0x01459e    program     static                          
                copy_loop   0x0145f6    program     static                          
            copy_one_byte   0x0145fc    program     static                          
             done_copying   0x01460a    program     static                          
       ___return_lbl00002   0x014620    program     static                          
                     done   0x014620    program     static                          
                  SPIInit   0x014622    program     extern D:\git\testing79m\Drivers\MCU-Internal\devspi.c
            ReadWriteSPI2   0x01463a    program     extern D:\git\testing79m\Drivers\MCU-Internal\devspi.c
                     putc   0x0146a8    program     extern C:\Program Files\mcc18\src\traditional\stdclib\putc.c
                HTTP_CRLF   0x01472c    program     static D:\git\testing79m\Microchip\TCPIP Stack\HTTP2.c
       httpFileExtensions   0x01472f    program     static D:\git\testing79m\Microchip\TCPIP Stack\HTTP2.c
         httpContentTypes   0x014753    program     static D:\git\testing79m\Microchip\TCPIP Stack\HTTP2.c
      HTTPResponseHeaders   0x014777    program     static D:\git\testing79m\Microchip\TCPIP Stack\HTTP2.c
       HTTPRequestHeaders   0x0147a1    program     static D:\git\testing79m\Microchip\TCPIP Stack\HTTP2.c
                  FXM3232   0x0147aa    program     extern C:\Program Files\mcc18\src\traditional\math\fxm3232.c
       ___return_lbl00000   0x014818    program     static                          
                  OpenADC   0x01481a    program     extern C:\MCC18\src\pmc_common\ADC\adcopen.c
                 FXD3232U   0x014888    program     extern C:\Program Files\mcc18\src\traditional\math\fxd3232u.c
                     loop   0x014896    program     static                          
                   _false   0x0148ca    program     static                          
       ___return_lbl00000   0x0148ce    program     static                          
                 FXD1616U   0x0148d0    program     extern C:\Program Files\mcc18\src\traditional\math\fxd1616u.c
                     loop   0x0148da    program     static                          
                  endloop   0x0148f6    program     static                          
       ___return_lbl00000   0x0148fa    program     static                          
                  isdigit   0x0148fc    program     extern C:\Program Files\mcc18\src\traditional\stdclib\isdigit.asm
                   jMatch   0x01491c    program     static C:\Program Files\mcc18\src\traditional\stdclib\isdigit.asm
                 jNoMatch   0x01491e    program     static C:\Program Files\mcc18\src\traditional\stdclib\isdigit.asm
     TCPSocketInitializer   0x014920    program     extern D:\git\testing79m\Port\TCPIPConfig.h
                 _startup   0x014944    program     extern C:\Program Files\mcc18\src\traditional\startup\c018iz.c
                     loop   0x014958    program     static                          
       ___return_lbl00001   0x014962    program     static                          
              Delay1KTCYx   0x014964    program     extern C:\Program Files\mcc18\src\traditional\delays\d1ktcyx.asm
                     D1Kx   0x01496e    program     static C:\Program Files\mcc18\src\traditional\delays\d1ktcyx.asm
                    D1K_1   0x014970    program     static C:\Program Files\mcc18\src\traditional\delays\d1ktcyx.asm
        _D1KTCYXCODE_0010   0x014974    program     static C:\Program Files\mcc18\src\traditional\delays\d1ktcyx.asm
        _D1KTCYXCODE_0016   0x01497a    program     static C:\Program Files\mcc18\src\traditional\delays\d1ktcyx.asm
                 UART2ISR   0x014984    program     extern D:\git\testing79m\Microchip\TCPIP Stack\UART2TCPBridge.c
              _usart_putc   0x0149a2    program     extern C:\MCC18\src\pmc_common\USART\_usartpc.asm
                     loop   0x0149b2    program     static C:\MCC18\src\pmc_common\USART\_usartpc.asm
                 FXD0808U   0x0149be    program     extern C:\Program Files\mcc18\src\traditional\math\fxd0808u.c
                     loop   0x0149c6    program     static                          
                  endloop   0x0149d4    program     static                          
       ___return_lbl00000   0x0149d8    program     static                          
              Delay10TCYx   0x0149da    program     extern C:\Program Files\mcc18\src\traditional\delays\d10tcyx.asm
                     D10x   0x0149e2    program     static C:\Program Files\mcc18\src\traditional\delays\d10tcyx.asm
        _D10TCYXCODE_000A   0x0149e4    program     static C:\Program Files\mcc18\src\traditional\delays\d10tcyx.asm
        _D10TCYXCODE_000C   0x0149e6    program     static C:\Program Files\mcc18\src\traditional\delays\d10tcyx.asm
        _D10TCYXCODE_000E   0x0149e8    program     static C:\Program Files\mcc18\src\traditional\delays\d10tcyx.asm
                    D10_1   0x0149ea    program     static C:\Program Files\mcc18\src\traditional\delays\d10tcyx.asm
         DownCvt_vSendI2C   0x0149f0    program     extern D:\git\testing79m\Singcom\Devices\DownConverter_c1.c
         VOLCTRL_vSendI2C   0x014a02    program     extern D:\git\testing79m\Singcom\Devices\DownConverter_c1.c
                 s_digits   0x014a04    program     static C:\Program Files\mcc18\src\traditional\stdclib\vfprintf.c
                    CGRAM   0x014a15    program     extern D:\git\testing79m\Singcom\Drivers\oled_c1.c
            __zero_memory   0x014a26    program     extern C:\MCC18\src\traditional\proc\p18F97J60.asm
               clear_loop   0x014a2c    program     static C:\MCC18\src\traditional\proc\p18F97J60.asm
     SerializedMACAddress   0x014a34    program     static D:\git\testing79m\Bootstrap\Initialization.c
                 CloseADC   0x014a3a    program     extern C:\MCC18\src\pmc_common\ADC\adcclose.c
               _user_putc   0x014a40    program     extern C:\Program Files\mcc18\src\traditional\stdclib\_user_putc.c
                   __init   0x014a42    program     extern C:\Program Files\mcc18\src\traditional\stdclib\__init.c
               __config_0   0x01fff8    program     static D:\git\testing79m\Main\Main.c
               __config_1   0x01fffa    program     static D:\git\testing79m\Main\Main.c
               __config_2   0x01fffd    program     static D:\git\testing79m\Main\Main.c
                  __tmp_0   0x000000       data     static D:\git\testing79m\Microchip\TCPIP Stack\MPFS2.c
                  __tmp_0   0x000000       data     static D:\git\testing79m\Microchip\TCPIP Stack\ICMP.c
                  __tmp_0   0x000000       data     static D:\git\testing79m\Microchip\TCPIP Stack\Helpers.c
                  __tmp_0   0x000000       data     static D:\git\testing79m\Singcom\Drivers\lcd.c
                  __tmp_0   0x000000       data     static D:\git\testing79m\Singcom\Drivers\oled_c1.c
                  __tmp_0   0x000000       data     static D:\git\testing79m\Singcom\Drivers\i2c_c1.c
                  __tmp_0   0x000000       data     static D:\git\testing79m\Microchip\TCPIP Stack\IP.c
                  __tmp_0   0x000000       data     static D:\git\testing79m\Microchip\TCPIP Stack\ETH97J60.c
                  __tmp_0   0x000000       data     static D:\git\testing79m\Microchip\TCPIP Stack\ARP.c
                  __tmp_0   0x000000       data     static D:\git\testing79m\Microchip\TCPIP Stack\TCP.c
                  __tmp_0   0x000000       data     static D:\git\testing79m\App\WebUI\HTTPApp.c
                  __tmp_0   0x000000       data     static D:\git\testing79m\Microchip\TCPIP Stack\SPIEEPROM.c
                  __tmp_0   0x000000       data     static D:\git\testing79m\Drivers\MCU-Internal\internalADC.c
                  __tmp_0   0x000000       data     static D:\git\testing79m\Drivers\External-Peripherals\devadc.c
                  __tmp_0   0x000000       data     static D:\git\testing79m\Drivers\MCU-Internal\devspi.c
                  __tmp_0   0x000000       data     static D:\git\testing79m\SysLib\util.c
                  __tmp_0   0x000000       data     static D:\git\testing79m\Bootstrap\Initialization.c
                  __tmp_0   0x000000       data     static D:\git\testing79m\Microchip\TCPIP Stack\StackTsk.c
                  __tmp_0   0x000000       data     static C:\MCC18\src\pmc_common\ADC\adcopen.c
                  __tmp_0   0x000000       data     static C:\Program Files\mcc18\src\traditional\stdclib\sprintf.c
                  __tmp_0   0x000000       data     static C:\Program Files\mcc18\src\traditional\stdclib\vfprintf.c
                  __tmp_0   0x000000       data     static C:\Program Files\mcc18\src\traditional\stdclib\putc.c
                  __tmp_0   0x000000       data     static D:\git\testing79m\Microchip\TCPIP Stack\HTTP2.c
                  __tmp_0   0x000000       data     static D:\git\testing79m\App\WebUI\HTTPPrint.c
                  __tmp_0   0x000000       data     static D:\git\testing79m\App\WebUI\HTTPGetDevInfo.c
                  __tmp_0   0x000000       data     static D:\git\testing79m\Main\Main.c
                  __tmp_0   0x000000       data     static D:\git\testing79m\Singcom\Devices\UpConverter_c1.c
                  __tmp_0   0x000000       data     static D:\git\testing79m\Singcom\Devices\MainControl_c1.c
                     SIGN   0x000018       data     extern C:\Program Files\mcc18\src\traditional\math\cmath18.asm
            __FPFLAGSbits   0x000019       data     extern C:\Program Files\mcc18\src\traditional\math\cmath18.asm
                __FPFLAGS   0x000019       data     extern C:\Program Files\mcc18\src\traditional\math\cmath18.asm
                 __AARGB7   0x00001a       data     extern C:\Program Files\mcc18\src\traditional\math\aarg.asm
                  __REMB3   0x00001a       data     extern C:\Program Files\mcc18\src\traditional\math\aarg.asm
                  __REMB2   0x00001b       data     extern C:\Program Files\mcc18\src\traditional\math\aarg.asm
                 __AARGB6   0x00001b       data     extern C:\Program Files\mcc18\src\traditional\math\aarg.asm
                  __REMB1   0x00001c       data     extern C:\Program Files\mcc18\src\traditional\math\aarg.asm
                 __AARGB5   0x00001c       data     extern C:\Program Files\mcc18\src\traditional\math\aarg.asm
                  __REMB0   0x00001d       data     extern C:\Program Files\mcc18\src\traditional\math\aarg.asm
                 __AARGB4   0x00001d       data     extern C:\Program Files\mcc18\src\traditional\math\aarg.asm
                 __AARGB3   0x00001e       data     extern C:\Program Files\mcc18\src\traditional\math\aarg.asm
                 __AARGB2   0x00001f       data     extern C:\Program Files\mcc18\src\traditional\math\aarg.asm
                 __AARGB1   0x000020       data     extern C:\Program Files\mcc18\src\traditional\math\aarg.asm
                 __AARGB0   0x000021       data     extern C:\Program Files\mcc18\src\traditional\math\aarg.asm
                   __AEXP   0x000022       data     extern C:\Program Files\mcc18\src\traditional\math\aarg.asm
                 __BARGB3   0x000023       data     extern C:\Program Files\mcc18\src\traditional\math\barg.asm
                 __BARGB2   0x000024       data     extern C:\Program Files\mcc18\src\traditional\math\barg.asm
                 __BARGB1   0x000025       data     extern C:\Program Files\mcc18\src\traditional\math\barg.asm
                 __BARGB0   0x000026       data     extern C:\Program Files\mcc18\src\traditional\math\barg.asm
                   __BEXP   0x000027       data     extern C:\Program Files\mcc18\src\traditional\math\barg.asm
                 __TEMPB3   0x000028       data     extern C:\Program Files\mcc18\src\traditional\math\temparg.asm
                 __TEMPB2   0x000029       data     extern C:\Program Files\mcc18\src\traditional\math\temparg.asm
                 __TEMPB1   0x00002a       data     extern C:\Program Files\mcc18\src\traditional\math\temparg.asm
                 __TEMPB0   0x00002b       data     extern C:\Program Files\mcc18\src\traditional\math\temparg.asm
                   __TEMP   0x00002b       data     extern C:\Program Files\mcc18\src\traditional\math\temparg.asm
            DelayCounter1   0x00002c       data     extern C:\Program Files\mcc18\src\traditional\delays\delayd1.asm
                  curHTTP   0x000060       data     extern D:\git\testing79m\Microchip\TCPIP Stack\HTTP2.c
                httpStubs   0x0000df       data     extern D:\git\testing79m\Microchip\TCPIP Stack\HTTP2.c
                curHTTPID   0x0000e3       data     extern D:\git\testing79m\Microchip\TCPIP Stack\HTTP2.c
          FirmwareVersion   0x0000e4       data     extern D:\git\testing79m\Main\Main.c
            SecondCounter   0x0000e8       data     extern D:\git\testing79m\Main\Main.c
            MinuteCounter   0x0000e9       data     extern D:\git\testing79m\Main\Main.c
              HardwareWDT   0x0000ea       data     extern D:\git\testing79m\Main\Main.c
              webPass_tmr   0x0000eb       data     static D:\git\testing79m\Main\Main.c
                lcd_timer   0x0000ef       data     static D:\git\testing79m\Main\Main.c
               keypad_tmr   0x0000f3       data     static D:\git\testing79m\Main\Main.c
                RXHeadPtr   0x0000f7       data     static D:\git\testing79m\Microchip\TCPIP Stack\UART2TCPBridge.c
                RXTailPtr   0x0000f9       data     static D:\git\testing79m\Microchip\TCPIP Stack\UART2TCPBridge.c
                TXHeadPtr   0x0000fb       data     static D:\git\testing79m\Microchip\TCPIP Stack\UART2TCPBridge.c
                TXTailPtr   0x0000fd       data     static D:\git\testing79m\Microchip\TCPIP Stack\UART2TCPBridge.c
              IPHeaderLen   0x0000ff       data     static D:\git\testing79m\Microchip\TCPIP Stack\IP.c
                 TCBStubs   0x000100       data     static D:\git\testing79m\Microchip\TCPIP Stack\TCP.c
              stConverter   0x0001a8       data     extern D:\git\testing79m\Main\Main.c
           MyStaticIPAddr   0x0001f0       data     extern D:\git\testing79m\Main\Main.c
                   ostart   0x0001f4       data     extern D:\git\testing79m\Main\Main.c
                     oend   0x0001f5       data     extern D:\git\testing79m\Main\Main.c
                    ctemp   0x0001f6       data     extern D:\git\testing79m\Main\Main.c
                    Read2   0x0001f7       data     extern D:\git\testing79m\Main\Main.c
            Timer2Counter   0x0001ff       data     extern D:\git\testing79m\Drivers\MCU-Internal\ISR.c
           LCDPrintBuffer   0x000200       data     extern D:\git\testing79m\Singcom\Drivers\lcd.c
                 NextPort   0x000250       data     static D:\git\testing79m\Microchip\TCPIP Stack\TCP.c
                    MyTCB   0x000252       data     static D:\git\testing79m\Microchip\TCPIP Stack\TCP.c
                MyTCBStub   0x000277       data     static D:\git\testing79m\Microchip\TCPIP Stack\TCP.c
               RemoteInfo   0x000293       data     static D:\git\testing79m\Microchip\TCPIP Stack\TCP.c
              systeminfo2   0x00029f       data     extern D:\git\testing79m\Main\Main.c
                  smStack   0x0002df       data     static D:\git\testing79m\Microchip\TCPIP Stack\StackTsk.c
               remoteNode   0x0002e0       data     extern D:\git\testing79m\Microchip\TCPIP Stack\StackTsk.c
                 ADCInfo1   0x0002ea       data     extern D:\git\testing79m\Drivers\MCU-Internal\internalADC.c
               ADC_result   0x0002f2       data     extern D:\git\testing79m\Drivers\MCU-Internal\internalADC.c
                     prom   0x0002f4       data     static C:\Program Files\mcc18\src\traditional\startup\c018iz.c
                curr_byte   0x0002f7       data     static C:\Program Files\mcc18\src\traditional\startup\c018iz.c
               curr_entry   0x0002f9       data     static C:\Program Files\mcc18\src\traditional\startup\c018iz.c
                 data_ptr   0x0002fb       data     static C:\Program Files\mcc18\src\traditional\startup\c018iz.c
                     Seed   0x0002fe       data     static C:\Program Files\mcc18\src\traditional\stdclib\rand.asm
              systeminfo1   0x000300       data     extern D:\git\testing79m\Main\Main.c
                 SYNQueue   0x000340       data     static D:\git\testing79m\Microchip\TCPIP Stack\TCP.c
                     oldp   0x00037c       data     extern D:\git\testing79m\App\WebUI\HTTPGetDevInfo.c
                     newp   0x000386       data     extern D:\git\testing79m\App\WebUI\HTTPGetDevInfo.c
                      rep   0x000390       data     extern D:\git\testing79m\App\WebUI\HTTPGetDevInfo.c
              RdI2CBuffer   0x00039a       data     extern D:\git\testing79m\App\WebUI\HTTPGetDevInfo.c
                AppConfig   0x0003b8       data     extern D:\git\testing79m\Main\Main.c
                    Cache   0x0003eb       data     static D:\git\testing79m\Microchip\TCPIP Stack\ARP.c
                   Target   0x0003f5       data     static D:\git\testing79m\Microchip\TCPIP Stack\ARP.c
                    smARP   0x0003ff       data     static D:\git\testing79m\Microchip\TCPIP Stack\ARP.c
            EEPROMAddress   0x000400       data     static D:\git\testing79m\Microchip\TCPIP Stack\SPIEEPROM.c
             EEPROMBuffer   0x000404       data     static D:\git\testing79m\Microchip\TCPIP Stack\SPIEEPROM.c
           vBytesInBuffer   0x000424       data     static D:\git\testing79m\Microchip\TCPIP Stack\SPIEEPROM.c
               stI2CUCMsg   0x000425       data     extern D:\git\testing79m\Singcom\Devices\DownConverter_c1.c
               stI2CDCMsg   0x000431       data     extern D:\git\testing79m\Singcom\Devices\DownConverter_c1.c
              stI2CREFMsg   0x00043d       data     extern D:\git\testing79m\Singcom\Devices\DownConverter_c1.c
       NextPacketLocation   0x000447       data     static D:\git\testing79m\Microchip\TCPIP Stack\ETH97J60.c
    CurrentPacketLocation   0x000449       data     static D:\git\testing79m\Microchip\TCPIP Stack\ETH97J60.c
             WasDiscarded   0x00044b       data     static D:\git\testing79m\Microchip\TCPIP Stack\ETH97J60.c
              wTXWatchdog   0x00044c       data     static D:\git\testing79m\Microchip\TCPIP Stack\ETH97J60.c
             vTickReading   0x00044e       data     static D:\git\testing79m\Microchip\TCPIP Stack\Tick.c
                    myRef   0x000454       data     extern D:\git\testing79m\App\SNMP\SNMPLLiBUCDevInfo.c
                  TEMP_IP   0x000455       data     extern D:\git\testing79m\App\SNMP\SNMPLLiBUCDevInfo.c
               Manager_IP   0x000459       data     extern D:\git\testing79m\Bootstrap\Initialization.c
                 toRotate   0x00045d       data     extern D:\git\testing79m\Microchip\TCPIP Stack\Helpers.c
                 dwLastIP   0x000461       data     extern D:\git\testing79m\SysLib\util.c
          dwInternalTicks   0x000465       data     static D:\git\testing79m\Microchip\TCPIP Stack\Tick.c
        LCDBufferPosition   0x000469       data     extern D:\git\testing79m\Main\Global.c
              hCurrentTCP   0x00046b       data     static D:\git\testing79m\Microchip\TCPIP Stack\TCP.c
                 hLastTCB   0x00046c       data     static D:\git\testing79m\Microchip\TCPIP Stack\TCP.c
              _Identifier   0x00046d       data     static D:\git\testing79m\Microchip\TCPIP Stack\IP.c
          I2CSlaveAddress   0x00046f       data     extern D:\git\testing79m\App\WebUI\HTTPGetDevInfo.c
      WebpageWriteI2CFlag   0x000470       data     extern D:\git\testing79m\App\WebUI\HTTPGetDevInfo.c
              lastSuccess   0x000471       data     extern D:\git\testing79m\App\WebUI\HTTPApp.c
              lastFailure   0x000472       data     extern D:\git\testing79m\App\WebUI\HTTPApp.c
              CurrentMenu   0x000800       data     static D:\git\testing79m\Singcom\Drivers\lcd.c
                 LastMenu   0x000801       data     static D:\git\testing79m\Singcom\Drivers\lcd.c
             LeftMostMenu   0x000802       data     static D:\git\testing79m\Singcom\Drivers\lcd.c
                 EditMode   0x000803       data     extern D:\git\testing79m\Singcom\Drivers\lcd.c
             EditPosition   0x000804       data     extern D:\git\testing79m\Singcom\Drivers\lcd.c
                    zeros   0x000805       data     extern D:\git\testing79m\Singcom\Drivers\lcd.c
              RefreshFlag   0x000810       data     extern D:\git\testing79m\Singcom\Drivers\lcd.c
           EditUpdateFlag   0x000811       data     extern D:\git\testing79m\Singcom\Drivers\lcd.c
          ValueUpdateFlag   0x000812       data     extern D:\git\testing79m\Singcom\Drivers\lcd.c
           LCDRefreshFlag   0x000813       data     extern D:\git\testing79m\Singcom\Drivers\lcd.c
       LCDDigitUpdateFlag   0x000814       data     extern D:\git\testing79m\Singcom\Drivers\lcd.c
                MenuValue   0x000815       data     extern D:\git\testing79m\Singcom\Drivers\lcd.c
                 readflag   0x00092d       data     extern D:\git\testing79m\Singcom\Drivers\lcd.c
                  u8Index   0x00092e       data     static D:\git\testing79m\Singcom\Drivers\lcd.c
                  u8Index   0x00092f       data     static D:\git\testing79m\Singcom\Drivers\lcd.c
             BlinkingFlag   0x000930       data     static D:\git\testing79m\Singcom\Drivers\lcd.c
            tiDisplay_tmr   0x000931       data     static D:\git\testing79m\Singcom\Drivers\lcd.c
          LOStatusString1   0x000935       data     extern D:\git\testing79m\Main\Global.c
          LOStatusString2   0x00093e       data     extern D:\git\testing79m\Main\Global.c
            RFFreqString1   0x000947       data     extern D:\git\testing79m\Main\Global.c
            RFFreqString2   0x000953       data     extern D:\git\testing79m\Main\Global.c
             AttenString1   0x00095f       data     extern D:\git\testing79m\Main\Global.c
             AttenString2   0x000967       data     extern D:\git\testing79m\Main\Global.c
                 IPString   0x00096f       data     extern D:\git\testing79m\Main\Global.c
                 MNString   0x00097f       data     extern D:\git\testing79m\Main\Global.c
                 SNString   0x000991       data     extern D:\git\testing79m\Main\Global.c
                   s18VDC   0x00099a       data     extern D:\git\testing79m\Main\Global.c
                   s24VDC   0x00099e       data     extern D:\git\testing79m\Main\Global.c
                  sLNBREF   0x0009a2       data     extern D:\git\testing79m\Main\Global.c
                  sBUCREF   0x0009a6       data     extern D:\git\testing79m\Main\Global.c
                 sUCPower   0x0009aa       data     extern D:\git\testing79m\Main\Global.c
                 sDCPower   0x0009b4       data     extern D:\git\testing79m\Main\Global.c
               sUPC_StPwr   0x0009be       data     extern D:\git\testing79m\Main\Global.c
               sDNC_StPwr   0x0009c8       data     extern D:\git\testing79m\Main\Global.c
                    sALCa   0x0009d2       data     extern D:\git\testing79m\Main\Global.c
                    sALCb   0x0009d6       data     extern D:\git\testing79m\Main\Global.c
                   sMutea   0x0009da       data     extern D:\git\testing79m\Main\Global.c
                   sMuteb   0x0009e3       data     extern D:\git\testing79m\Main\Global.c
           KeyPressedFlag   0x0009ec       data     extern D:\git\testing79m\Main\Global.c
               PressedKey   0x0009ed       data     extern D:\git\testing79m\Main\Global.c
         global_char_temp   0x0009ee       data     extern D:\git\testing79m\App\WebUI\HTTPPrint.c
                        L   0x0009fd       data     extern D:\git\testing79m\SysLib\util.c
                tempvalue   0x0009fe       data     extern D:\git\testing79m\SysLib\util.c
                   hMPFS1   0x0009ff       data     extern D:\git\testing79m\SysLib\util.c
                MPFSStubs   0x000e00       data     static D:\git\testing79m\Microchip\TCPIP Stack\MPFS2.c
             isMPFSLocked   0x000e50       data     static D:\git\testing79m\Microchip\TCPIP Stack\MPFS2.c
                 fatCache   0x000e51       data     static D:\git\testing79m\Microchip\TCPIP Stack\MPFS2.c
               fatCacheID   0x000e67       data     static D:\git\testing79m\Microchip\TCPIP Stack\MPFS2.c
                 numFiles   0x000e69       data     static D:\git\testing79m\Microchip\TCPIP Stack\MPFS2.c
                 lastRead   0x000e6b       data     extern D:\git\testing79m\Microchip\TCPIP Stack\MPFS2.c
         I2CReceiveBuffer   0x000e6f       data     extern D:\git\testing79m\Singcom\Drivers\i2c_c1.c
                   MAADR5   0x000e80       data     extern C:\MCC18\src\traditional\proc\p18F97J60.asm
                   MAADR6   0x000e81       data     extern C:\MCC18\src\traditional\proc\p18F97J60.asm
                   MAADR3   0x000e82       data     extern C:\MCC18\src\traditional\proc\p18F97J60.asm
                   MAADR4   0x000e83       data     extern C:\MCC18\src\traditional\proc\p18F97J60.asm
                   MAADR1   0x000e84       data     extern C:\MCC18\src\traditional\proc\p18F97J60.asm
                   MAADR2   0x000e85       data     extern C:\MCC18\src\traditional\proc\p18F97J60.asm
                   MISTAT   0x000e8a       data     extern C:\MCC18\src\traditional\proc\p18F97J60.asm
               MISTATbits   0x000e8a       data     extern C:\MCC18\src\traditional\proc\p18F97J60.asm
              EFLOCONbits   0x000e97       data     extern C:\MCC18\src\traditional\proc\p18F97J60.asm
                  EFLOCON   0x000e97       data     extern C:\MCC18\src\traditional\proc\p18F97J60.asm
                    EPAUS   0x000e98       data     extern C:\MCC18\src\traditional\proc\p18F97J60.asm
                   EPAUSL   0x000e98       data     extern C:\MCC18\src\traditional\proc\p18F97J60.asm
                   EPAUSH   0x000e99       data     extern C:\MCC18\src\traditional\proc\p18F97J60.asm
               MACON1bits   0x000ea0       data     extern C:\MCC18\src\traditional\proc\p18F97J60.asm
                   MACON1   0x000ea0       data     extern C:\MCC18\src\traditional\proc\p18F97J60.asm
                   MACON3   0x000ea2       data     extern C:\MCC18\src\traditional\proc\p18F97J60.asm
               MACON3bits   0x000ea2       data     extern C:\MCC18\src\traditional\proc\p18F97J60.asm
                   MACON4   0x000ea3       data     extern C:\MCC18\src\traditional\proc\p18F97J60.asm
               MACON4bits   0x000ea3       data     extern C:\MCC18\src\traditional\proc\p18F97J60.asm
                  MABBIPG   0x000ea4       data     extern C:\MCC18\src\traditional\proc\p18F97J60.asm
                    MAIPG   0x000ea6       data     extern C:\MCC18\src\traditional\proc\p18F97J60.asm
                   MAIPGL   0x000ea6       data     extern C:\MCC18\src\traditional\proc\p18F97J60.asm
                   MAIPGH   0x000ea7       data     extern C:\MCC18\src\traditional\proc\p18F97J60.asm
                   MAMXFL   0x000eaa       data     extern C:\MCC18\src\traditional\proc\p18F97J60.asm
                  MAMXFLL   0x000eaa       data     extern C:\MCC18\src\traditional\proc\p18F97J60.asm
                  MAMXFLH   0x000eab       data     extern C:\MCC18\src\traditional\proc\p18F97J60.asm
                MICMDbits   0x000eb2       data     extern C:\MCC18\src\traditional\proc\p18F97J60.asm
                    MICMD   0x000eb2       data     extern C:\MCC18\src\traditional\proc\p18F97J60.asm
                 MIREGADR   0x000eb4       data     extern C:\MCC18\src\traditional\proc\p18F97J60.asm
                    MIWRL   0x000eb6       data     extern C:\MCC18\src\traditional\proc\p18F97J60.asm
                     MIWR   0x000eb6       data     extern C:\MCC18\src\traditional\proc\p18F97J60.asm
                    MIWRH   0x000eb7       data     extern C:\MCC18\src\traditional\proc\p18F97J60.asm
                    MIRDL   0x000eb8       data     extern C:\MCC18\src\traditional\proc\p18F97J60.asm
                     MIRD   0x000eb8       data     extern C:\MCC18\src\traditional\proc\p18F97J60.asm
                    MIRDH   0x000eb9       data     extern C:\MCC18\src\traditional\proc\p18F97J60.asm
                     EHT0   0x000ec0       data     extern C:\MCC18\src\traditional\proc\p18F97J60.asm
                     EHT1   0x000ec1       data     extern C:\MCC18\src\traditional\proc\p18F97J60.asm
                     EHT2   0x000ec2       data     extern C:\MCC18\src\traditional\proc\p18F97J60.asm
                     EHT3   0x000ec3       data     extern C:\MCC18\src\traditional\proc\p18F97J60.asm
                     EHT4   0x000ec4       data     extern C:\MCC18\src\traditional\proc\p18F97J60.asm
                     EHT5   0x000ec5       data     extern C:\MCC18\src\traditional\proc\p18F97J60.asm
                     EHT6   0x000ec6       data     extern C:\MCC18\src\traditional\proc\p18F97J60.asm
                     EHT7   0x000ec7       data     extern C:\MCC18\src\traditional\proc\p18F97J60.asm
                    EPMM0   0x000ec8       data     extern C:\MCC18\src\traditional\proc\p18F97J60.asm
                    EPMM1   0x000ec9       data     extern C:\MCC18\src\traditional\proc\p18F97J60.asm
                    EPMM2   0x000eca       data     extern C:\MCC18\src\traditional\proc\p18F97J60.asm
                    EPMM3   0x000ecb       data     extern C:\MCC18\src\traditional\proc\p18F97J60.asm
                    EPMM4   0x000ecc       data     extern C:\MCC18\src\traditional\proc\p18F97J60.asm
                    EPMM5   0x000ecd       data     extern C:\MCC18\src\traditional\proc\p18F97J60.asm
                    EPMM6   0x000ece       data     extern C:\MCC18\src\traditional\proc\p18F97J60.asm
                    EPMM7   0x000ecf       data     extern C:\MCC18\src\traditional\proc\p18F97J60.asm
                    EPMCS   0x000ed0       data     extern C:\MCC18\src\traditional\proc\p18F97J60.asm
                   EPMCSL   0x000ed0       data     extern C:\MCC18\src\traditional\proc\p18F97J60.asm
                   EPMCSH   0x000ed1       data     extern C:\MCC18\src\traditional\proc\p18F97J60.asm
                     EPMO   0x000ed4       data     extern C:\MCC18\src\traditional\proc\p18F97J60.asm
                    EPMOL   0x000ed4       data     extern C:\MCC18\src\traditional\proc\p18F97J60.asm
                    EPMOH   0x000ed5       data     extern C:\MCC18\src\traditional\proc\p18F97J60.asm
              ERXFCONbits   0x000ed8       data     extern C:\MCC18\src\traditional\proc\p18F97J60.asm
                  ERXFCON   0x000ed8       data     extern C:\MCC18\src\traditional\proc\p18F97J60.asm
                  EPKTCNT   0x000ed9       data     extern C:\MCC18\src\traditional\proc\p18F97J60.asm
                    EWRPT   0x000ee2       data     extern C:\MCC18\src\traditional\proc\p18F97J60.asm
                   EWRPTL   0x000ee2       data     extern C:\MCC18\src\traditional\proc\p18F97J60.asm
                   EWRPTH   0x000ee3       data     extern C:\MCC18\src\traditional\proc\p18F97J60.asm
                   ETXSTL   0x000ee4       data     extern C:\MCC18\src\traditional\proc\p18F97J60.asm
                    ETXST   0x000ee4       data     extern C:\MCC18\src\traditional\proc\p18F97J60.asm
                   ETXSTH   0x000ee5       data     extern C:\MCC18\src\traditional\proc\p18F97J60.asm
                    ETXND   0x000ee6       data     extern C:\MCC18\src\traditional\proc\p18F97J60.asm
                   ETXNDL   0x000ee6       data     extern C:\MCC18\src\traditional\proc\p18F97J60.asm
                   ETXNDH   0x000ee7       data     extern C:\MCC18\src\traditional\proc\p18F97J60.asm
                    ERXST   0x000ee8       data     extern C:\MCC18\src\traditional\proc\p18F97J60.asm
                   ERXSTL   0x000ee8       data     extern C:\MCC18\src\traditional\proc\p18F97J60.asm
                   ERXSTH   0x000ee9       data     extern C:\MCC18\src\traditional\proc\p18F97J60.asm
                   ERXNDL   0x000eea       data     extern C:\MCC18\src\traditional\proc\p18F97J60.asm
                    ERXND   0x000eea       data     extern C:\MCC18\src\traditional\proc\p18F97J60.asm
                   ERXNDH   0x000eeb       data     extern C:\MCC18\src\traditional\proc\p18F97J60.asm
                  ERXRDPT   0x000eec       data     extern C:\MCC18\src\traditional\proc\p18F97J60.asm
                 ERXRDPTL   0x000eec       data     extern C:\MCC18\src\traditional\proc\p18F97J60.asm
                 ERXRDPTH   0x000eed       data     extern C:\MCC18\src\traditional\proc\p18F97J60.asm
                  ERXWRPT   0x000eee       data     extern C:\MCC18\src\traditional\proc\p18F97J60.asm
                 ERXWRPTL   0x000eee       data     extern C:\MCC18\src\traditional\proc\p18F97J60.asm
                 ERXWRPTH   0x000eef       data     extern C:\MCC18\src\traditional\proc\p18F97J60.asm
                  EDMASTL   0x000ef0       data     extern C:\MCC18\src\traditional\proc\p18F97J60.asm
                   EDMAST   0x000ef0       data     extern C:\MCC18\src\traditional\proc\p18F97J60.asm
                  EDMASTH   0x000ef1       data     extern C:\MCC18\src\traditional\proc\p18F97J60.asm
                  EDMANDL   0x000ef2       data     extern C:\MCC18\src\traditional\proc\p18F97J60.asm
                   EDMAND   0x000ef2       data     extern C:\MCC18\src\traditional\proc\p18F97J60.asm
                  EDMANDH   0x000ef3       data     extern C:\MCC18\src\traditional\proc\p18F97J60.asm
                 EDMADSTL   0x000ef4       data     extern C:\MCC18\src\traditional\proc\p18F97J60.asm
                  EDMADST   0x000ef4       data     extern C:\MCC18\src\traditional\proc\p18F97J60.asm
                 EDMADSTH   0x000ef5       data     extern C:\MCC18\src\traditional\proc\p18F97J60.asm
                   EDMACS   0x000ef6       data     extern C:\MCC18\src\traditional\proc\p18F97J60.asm
                  EDMACSL   0x000ef6       data     extern C:\MCC18\src\traditional\proc\p18F97J60.asm
                  EDMACSH   0x000ef7       data     extern C:\MCC18\src\traditional\proc\p18F97J60.asm
                  EIEbits   0x000efb       data     extern C:\MCC18\src\traditional\proc\p18F97J60.asm
                      EIE   0x000efb       data     extern C:\MCC18\src\traditional\proc\p18F97J60.asm
                ESTATbits   0x000efd       data     extern C:\MCC18\src\traditional\proc\p18F97J60.asm
                    ESTAT   0x000efd       data     extern C:\MCC18\src\traditional\proc\p18F97J60.asm
                    ECON2   0x000efe       data     extern C:\MCC18\src\traditional\proc\p18F97J60.asm
                ECON2bits   0x000efe       data     extern C:\MCC18\src\traditional\proc\p18F97J60.asm
              vUARTRXFIFO   0x000f00       data     static D:\git\testing79m\Microchip\TCPIP Stack\UART2TCPBridge.c
              vUARTTXFIFO   0x000f41       data     static D:\git\testing79m\Microchip\TCPIP Stack\UART2TCPBridge.c
              webpassinfo   0x000f52       data     extern D:\git\testing79m\App\WebUI\HTTPApp.c
                  EIRbits   0x000f60       data     extern C:\MCC18\src\traditional\proc\p18F97J60.asm
                      EIR   0x000f60       data     extern C:\MCC18\src\traditional\proc\p18F97J60.asm
                    EDATA   0x000f61       data     extern C:\MCC18\src\traditional\proc\p18F97J60.asm
                EDATAbits   0x000f61       data     extern C:\MCC18\src\traditional\proc\p18F97J60.asm
                 SSP2CON2   0x000f62       data     extern C:\MCC18\src\traditional\proc\p18F97J60.asm
             SSP2CON2bits   0x000f62       data     extern C:\MCC18\src\traditional\proc\p18F97J60.asm
             SSP2CON1bits   0x000f63       data     extern C:\MCC18\src\traditional\proc\p18F97J60.asm
                 SSP2CON1   0x000f63       data     extern C:\MCC18\src\traditional\proc\p18F97J60.asm
                 SSP2STAT   0x000f64       data     extern C:\MCC18\src\traditional\proc\p18F97J60.asm
             SSP2STATbits   0x000f64       data     extern C:\MCC18\src\traditional\proc\p18F97J60.asm
                  SSP2ADD   0x000f65       data     extern C:\MCC18\src\traditional\proc\p18F97J60.asm
                  SSP2BUF   0x000f66       data     extern C:\MCC18\src\traditional\proc\p18F97J60.asm
                 ECCP2DEL   0x000f67       data     extern C:\MCC18\src\traditional\proc\p18F97J60.asm
             ECCP2DELbits   0x000f67       data     extern C:\MCC18\src\traditional\proc\p18F97J60.asm
              ECCP2ASbits   0x000f68       data     extern C:\MCC18\src\traditional\proc\p18F97J60.asm
                  ECCP2AS   0x000f68       data     extern C:\MCC18\src\traditional\proc\p18F97J60.asm
             ECCP3DELbits   0x000f69       data     extern C:\MCC18\src\traditional\proc\p18F97J60.asm
                 ECCP3DEL   0x000f69       data     extern C:\MCC18\src\traditional\proc\p18F97J60.asm
              ECCP3ASbits   0x000f6a       data     extern C:\MCC18\src\traditional\proc\p18F97J60.asm
                  ECCP3AS   0x000f6a       data     extern C:\MCC18\src\traditional\proc\p18F97J60.asm
                   RCSTA2   0x000f6b       data     extern C:\MCC18\src\traditional\proc\p18F97J60.asm
               RCSTA2bits   0x000f6b       data     extern C:\MCC18\src\traditional\proc\p18F97J60.asm
               TXSTA2bits   0x000f6c       data     extern C:\MCC18\src\traditional\proc\p18F97J60.asm
                   TXSTA2   0x000f6c       data     extern C:\MCC18\src\traditional\proc\p18F97J60.asm
                   TXREG2   0x000f6d       data     extern C:\MCC18\src\traditional\proc\p18F97J60.asm
                   RCREG2   0x000f6e       data     extern C:\MCC18\src\traditional\proc\p18F97J60.asm
                   SPBRG2   0x000f6f       data     extern C:\MCC18\src\traditional\proc\p18F97J60.asm
                  CCP5CON   0x000f70       data     extern C:\MCC18\src\traditional\proc\p18F97J60.asm
              CCP5CONbits   0x000f70       data     extern C:\MCC18\src\traditional\proc\p18F97J60.asm
                   CCPR5L   0x000f71       data     extern C:\MCC18\src\traditional\proc\p18F97J60.asm
                    CCPR5   0x000f71       data     extern C:\MCC18\src\traditional\proc\p18F97J60.asm
                   CCPR5H   0x000f72       data     extern C:\MCC18\src\traditional\proc\p18F97J60.asm
                  CCP4CON   0x000f73       data     extern C:\MCC18\src\traditional\proc\p18F97J60.asm
              CCP4CONbits   0x000f73       data     extern C:\MCC18\src\traditional\proc\p18F97J60.asm
                   CCPR4L   0x000f74       data     extern C:\MCC18\src\traditional\proc\p18F97J60.asm
                    CCPR4   0x000f74       data     extern C:\MCC18\src\traditional\proc\p18F97J60.asm
                   CCPR4H   0x000f75       data     extern C:\MCC18\src\traditional\proc\p18F97J60.asm
                    T4CON   0x000f76       data     extern C:\MCC18\src\traditional\proc\p18F97J60.asm
                T4CONbits   0x000f76       data     extern C:\MCC18\src\traditional\proc\p18F97J60.asm
                      PR4   0x000f77       data     extern C:\MCC18\src\traditional\proc\p18F97J60.asm
                     TMR4   0x000f78       data     extern C:\MCC18\src\traditional\proc\p18F97J60.asm
                 ECCP1DEL   0x000f79       data     extern C:\MCC18\src\traditional\proc\p18F97J60.asm
             ECCP1DELbits   0x000f79       data     extern C:\MCC18\src\traditional\proc\p18F97J60.asm
                   ERDPTL   0x000f7a       data     extern C:\MCC18\src\traditional\proc\p18F97J60.asm
                    ERDPT   0x000f7a       data     extern C:\MCC18\src\traditional\proc\p18F97J60.asm
                   ERDPTH   0x000f7b       data     extern C:\MCC18\src\traditional\proc\p18F97J60.asm
                 BAUDCON2   0x000f7c       data     extern C:\MCC18\src\traditional\proc\p18F97J60.asm
             BAUDCON2bits   0x000f7c       data     extern C:\MCC18\src\traditional\proc\p18F97J60.asm
             BAUDCTL2bits   0x000f7c       data     extern C:\MCC18\src\traditional\proc\p18F97J60.asm
                 BAUDCTL2   0x000f7c       data     extern C:\MCC18\src\traditional\proc\p18F97J60.asm
                  SPBRGH2   0x000f7d       data     extern C:\MCC18\src\traditional\proc\p18F97J60.asm
                  BAUDCON   0x000f7e       data     extern C:\MCC18\src\traditional\proc\p18F97J60.asm
             BAUDCON1bits   0x000f7e       data     extern C:\MCC18\src\traditional\proc\p18F97J60.asm
                 BAUDCON1   0x000f7e       data     extern C:\MCC18\src\traditional\proc\p18F97J60.asm
              BAUDCONbits   0x000f7e       data     extern C:\MCC18\src\traditional\proc\p18F97J60.asm
                  BAUDCTL   0x000f7e       data     extern C:\MCC18\src\traditional\proc\p18F97J60.asm
                 BAUDCTL1   0x000f7e       data     extern C:\MCC18\src\traditional\proc\p18F97J60.asm
             BAUDCTL1bits   0x000f7e       data     extern C:\MCC18\src\traditional\proc\p18F97J60.asm
              BAUDCTLbits   0x000f7e       data     extern C:\MCC18\src\traditional\proc\p18F97J60.asm
                   SPBRGH   0x000f7f       data     extern C:\MCC18\src\traditional\proc\p18F97J60.asm
                  SPBRGH1   0x000f7f       data     extern C:\MCC18\src\traditional\proc\p18F97J60.asm
                    PORTA   0x000f80       data     extern C:\MCC18\src\traditional\proc\p18F97J60.asm
                PORTAbits   0x000f80       data     extern C:\MCC18\src\traditional\proc\p18F97J60.asm
                    PORTB   0x000f81       data     extern C:\MCC18\src\traditional\proc\p18F97J60.asm
                PORTBbits   0x000f81       data     extern C:\MCC18\src\traditional\proc\p18F97J60.asm
                    PORTC   0x000f82       data     extern C:\MCC18\src\traditional\proc\p18F97J60.asm
                PORTCbits   0x000f82       data     extern C:\MCC18\src\traditional\proc\p18F97J60.asm
                    PORTD   0x000f83       data     extern C:\MCC18\src\traditional\proc\p18F97J60.asm
                PORTDbits   0x000f83       data     extern C:\MCC18\src\traditional\proc\p18F97J60.asm
                PORTEbits   0x000f84       data     extern C:\MCC18\src\traditional\proc\p18F97J60.asm
                    PORTE   0x000f84       data     extern C:\MCC18\src\traditional\proc\p18F97J60.asm
                PORTFbits   0x000f85       data     extern C:\MCC18\src\traditional\proc\p18F97J60.asm
                    PORTF   0x000f85       data     extern C:\MCC18\src\traditional\proc\p18F97J60.asm
                PORTGbits   0x000f86       data     extern C:\MCC18\src\traditional\proc\p18F97J60.asm
                    PORTG   0x000f86       data     extern C:\MCC18\src\traditional\proc\p18F97J60.asm
                PORTHbits   0x000f87       data     extern C:\MCC18\src\traditional\proc\p18F97J60.asm
                    PORTH   0x000f87       data     extern C:\MCC18\src\traditional\proc\p18F97J60.asm
                PORTJbits   0x000f88       data     extern C:\MCC18\src\traditional\proc\p18F97J60.asm
                    PORTJ   0x000f88       data     extern C:\MCC18\src\traditional\proc\p18F97J60.asm
                 LATAbits   0x000f89       data     extern C:\MCC18\src\traditional\proc\p18F97J60.asm
                     LATA   0x000f89       data     extern C:\MCC18\src\traditional\proc\p18F97J60.asm
                 LATBbits   0x000f8a       data     extern C:\MCC18\src\traditional\proc\p18F97J60.asm
                     LATB   0x000f8a       data     extern C:\MCC18\src\traditional\proc\p18F97J60.asm
                 LATCbits   0x000f8b       data     extern C:\MCC18\src\traditional\proc\p18F97J60.asm
                     LATC   0x000f8b       data     extern C:\MCC18\src\traditional\proc\p18F97J60.asm
                     LATD   0x000f8c       data     extern C:\MCC18\src\traditional\proc\p18F97J60.asm
                 LATDbits   0x000f8c       data     extern C:\MCC18\src\traditional\proc\p18F97J60.asm
                     LATE   0x000f8d       data     extern C:\MCC18\src\traditional\proc\p18F97J60.asm
                 LATEbits   0x000f8d       data     extern C:\MCC18\src\traditional\proc\p18F97J60.asm
                     LATF   0x000f8e       data     extern C:\MCC18\src\traditional\proc\p18F97J60.asm
                 LATFbits   0x000f8e       data     extern C:\MCC18\src\traditional\proc\p18F97J60.asm
                     LATG   0x000f8f       data     extern C:\MCC18\src\traditional\proc\p18F97J60.asm
                 LATGbits   0x000f8f       data     extern C:\MCC18\src\traditional\proc\p18F97J60.asm
                 LATHbits   0x000f90       data     extern C:\MCC18\src\traditional\proc\p18F97J60.asm
                     LATH   0x000f90       data     extern C:\MCC18\src\traditional\proc\p18F97J60.asm
                     LATJ   0x000f91       data     extern C:\MCC18\src\traditional\proc\p18F97J60.asm
                 LATJbits   0x000f91       data     extern C:\MCC18\src\traditional\proc\p18F97J60.asm
                     DDRA   0x000f92       data     extern C:\MCC18\src\traditional\proc\p18F97J60.asm
                 DDRAbits   0x000f92       data     extern C:\MCC18\src\traditional\proc\p18F97J60.asm
                    TRISA   0x000f92       data     extern C:\MCC18\src\traditional\proc\p18F97J60.asm
                TRISAbits   0x000f92       data     extern C:\MCC18\src\traditional\proc\p18F97J60.asm
                     DDRB   0x000f93       data     extern C:\MCC18\src\traditional\proc\p18F97J60.asm
                    TRISB   0x000f93       data     extern C:\MCC18\src\traditional\proc\p18F97J60.asm
                TRISBbits   0x000f93       data     extern C:\MCC18\src\traditional\proc\p18F97J60.asm
                 DDRBbits   0x000f93       data     extern C:\MCC18\src\traditional\proc\p18F97J60.asm
                 DDRCbits   0x000f94       data     extern C:\MCC18\src\traditional\proc\p18F97J60.asm
                     DDRC   0x000f94       data     extern C:\MCC18\src\traditional\proc\p18F97J60.asm
                    TRISC   0x000f94       data     extern C:\MCC18\src\traditional\proc\p18F97J60.asm
                TRISCbits   0x000f94       data     extern C:\MCC18\src\traditional\proc\p18F97J60.asm
                 DDRDbits   0x000f95       data     extern C:\MCC18\src\traditional\proc\p18F97J60.asm
                     DDRD   0x000f95       data     extern C:\MCC18\src\traditional\proc\p18F97J60.asm
                    TRISD   0x000f95       data     extern C:\MCC18\src\traditional\proc\p18F97J60.asm
                TRISDbits   0x000f95       data     extern C:\MCC18\src\traditional\proc\p18F97J60.asm
                 DDREbits   0x000f96       data     extern C:\MCC18\src\traditional\proc\p18F97J60.asm
                     DDRE   0x000f96       data     extern C:\MCC18\src\traditional\proc\p18F97J60.asm
                    TRISE   0x000f96       data     extern C:\MCC18\src\traditional\proc\p18F97J60.asm
                TRISEbits   0x000f96       data     extern C:\MCC18\src\traditional\proc\p18F97J60.asm
                    TRISF   0x000f97       data     extern C:\MCC18\src\traditional\proc\p18F97J60.asm
                TRISFbits   0x000f97       data     extern C:\MCC18\src\traditional\proc\p18F97J60.asm
                     DDRF   0x000f97       data     extern C:\MCC18\src\traditional\proc\p18F97J60.asm
                 DDRFbits   0x000f97       data     extern C:\MCC18\src\traditional\proc\p18F97J60.asm
                    TRISG   0x000f98       data     extern C:\MCC18\src\traditional\proc\p18F97J60.asm
                     DDRG   0x000f98       data     extern C:\MCC18\src\traditional\proc\p18F97J60.asm
                 DDRGbits   0x000f98       data     extern C:\MCC18\src\traditional\proc\p18F97J60.asm
                TRISGbits   0x000f98       data     extern C:\MCC18\src\traditional\proc\p18F97J60.asm
                     DDRH   0x000f99       data     extern C:\MCC18\src\traditional\proc\p18F97J60.asm
                 DDRHbits   0x000f99       data     extern C:\MCC18\src\traditional\proc\p18F97J60.asm
                    TRISH   0x000f99       data     extern C:\MCC18\src\traditional\proc\p18F97J60.asm
                TRISHbits   0x000f99       data     extern C:\MCC18\src\traditional\proc\p18F97J60.asm
                    TRISJ   0x000f9a       data     extern C:\MCC18\src\traditional\proc\p18F97J60.asm
                TRISJbits   0x000f9a       data     extern C:\MCC18\src\traditional\proc\p18F97J60.asm
                 DDRJbits   0x000f9a       data     extern C:\MCC18\src\traditional\proc\p18F97J60.asm
                     DDRJ   0x000f9a       data     extern C:\MCC18\src\traditional\proc\p18F97J60.asm
              OSCTUNEbits   0x000f9b       data     extern C:\MCC18\src\traditional\proc\p18F97J60.asm
                  OSCTUNE   0x000f9b       data     extern C:\MCC18\src\traditional\proc\p18F97J60.asm
               MEMCONbits   0x000f9c       data     extern C:\MCC18\src\traditional\proc\p18F97J60.asm
                   MEMCON   0x000f9c       data     extern C:\MCC18\src\traditional\proc\p18F97J60.asm
                 PIE1bits   0x000f9d       data     extern C:\MCC18\src\traditional\proc\p18F97J60.asm
                     PIE1   0x000f9d       data     extern C:\MCC18\src\traditional\proc\p18F97J60.asm
                     PIR1   0x000f9e       data     extern C:\MCC18\src\traditional\proc\p18F97J60.asm
                 PIR1bits   0x000f9e       data     extern C:\MCC18\src\traditional\proc\p18F97J60.asm
                 IPR1bits   0x000f9f       data     extern C:\MCC18\src\traditional\proc\p18F97J60.asm
                     IPR1   0x000f9f       data     extern C:\MCC18\src\traditional\proc\p18F97J60.asm
                     PIE2   0x000fa0       data     extern C:\MCC18\src\traditional\proc\p18F97J60.asm
                 PIE2bits   0x000fa0       data     extern C:\MCC18\src\traditional\proc\p18F97J60.asm
                     PIR2   0x000fa1       data     extern C:\MCC18\src\traditional\proc\p18F97J60.asm
                 PIR2bits   0x000fa1       data     extern C:\MCC18\src\traditional\proc\p18F97J60.asm
                     IPR2   0x000fa2       data     extern C:\MCC18\src\traditional\proc\p18F97J60.asm
                 IPR2bits   0x000fa2       data     extern C:\MCC18\src\traditional\proc\p18F97J60.asm
                     PIE3   0x000fa3       data     extern C:\MCC18\src\traditional\proc\p18F97J60.asm
                 PIE3bits   0x000fa3       data     extern C:\MCC18\src\traditional\proc\p18F97J60.asm
                     PIR3   0x000fa4       data     extern C:\MCC18\src\traditional\proc\p18F97J60.asm
                 PIR3bits   0x000fa4       data     extern C:\MCC18\src\traditional\proc\p18F97J60.asm
                     IPR3   0x000fa5       data     extern C:\MCC18\src\traditional\proc\p18F97J60.asm
                 IPR3bits   0x000fa5       data     extern C:\MCC18\src\traditional\proc\p18F97J60.asm
                   EECON1   0x000fa6       data     extern C:\MCC18\src\traditional\proc\p18F97J60.asm
               EECON1bits   0x000fa6       data     extern C:\MCC18\src\traditional\proc\p18F97J60.asm
                   EECON2   0x000fa7       data     extern C:\MCC18\src\traditional\proc\p18F97J60.asm
               RCSTA1bits   0x000fab       data     extern C:\MCC18\src\traditional\proc\p18F97J60.asm
                RCSTAbits   0x000fab       data     extern C:\MCC18\src\traditional\proc\p18F97J60.asm
                    RCSTA   0x000fab       data     extern C:\MCC18\src\traditional\proc\p18F97J60.asm
                   RCSTA1   0x000fab       data     extern C:\MCC18\src\traditional\proc\p18F97J60.asm
                    TXSTA   0x000fac       data     extern C:\MCC18\src\traditional\proc\p18F97J60.asm
                   TXSTA1   0x000fac       data     extern C:\MCC18\src\traditional\proc\p18F97J60.asm
               TXSTA1bits   0x000fac       data     extern C:\MCC18\src\traditional\proc\p18F97J60.asm
                TXSTAbits   0x000fac       data     extern C:\MCC18\src\traditional\proc\p18F97J60.asm
                    TXREG   0x000fad       data     extern C:\MCC18\src\traditional\proc\p18F97J60.asm
                   TXREG1   0x000fad       data     extern C:\MCC18\src\traditional\proc\p18F97J60.asm
                   RCREG1   0x000fae       data     extern C:\MCC18\src\traditional\proc\p18F97J60.asm
                    RCREG   0x000fae       data     extern C:\MCC18\src\traditional\proc\p18F97J60.asm
                   SPBRG1   0x000faf       data     extern C:\MCC18\src\traditional\proc\p18F97J60.asm
                    SPBRG   0x000faf       data     extern C:\MCC18\src\traditional\proc\p18F97J60.asm
                   PSPCON   0x000fb0       data     extern C:\MCC18\src\traditional\proc\p18F97J60.asm
               PSPCONbits   0x000fb0       data     extern C:\MCC18\src\traditional\proc\p18F97J60.asm
                T3CONbits   0x000fb1       data     extern C:\MCC18\src\traditional\proc\p18F97J60.asm
                    T3CON   0x000fb1       data     extern C:\MCC18\src\traditional\proc\p18F97J60.asm
                    TMR3L   0x000fb2       data     extern C:\MCC18\src\traditional\proc\p18F97J60.asm
                    TMR3H   0x000fb3       data     extern C:\MCC18\src\traditional\proc\p18F97J60.asm
                CMCONbits   0x000fb4       data     extern C:\MCC18\src\traditional\proc\p18F97J60.asm
                    CMCON   0x000fb4       data     extern C:\MCC18\src\traditional\proc\p18F97J60.asm
               CVRCONbits   0x000fb5       data     extern C:\MCC18\src\traditional\proc\p18F97J60.asm
                   CVRCON   0x000fb5       data     extern C:\MCC18\src\traditional\proc\p18F97J60.asm
                  ECCP1AS   0x000fb6       data     extern C:\MCC18\src\traditional\proc\p18F97J60.asm
              ECCP1ASbits   0x000fb6       data     extern C:\MCC18\src\traditional\proc\p18F97J60.asm
              CCP3CONbits   0x000fb7       data     extern C:\MCC18\src\traditional\proc\p18F97J60.asm
                  CCP3CON   0x000fb7       data     extern C:\MCC18\src\traditional\proc\p18F97J60.asm
             ECCP3CONbits   0x000fb7       data     extern C:\MCC18\src\traditional\proc\p18F97J60.asm
                 ECCP3CON   0x000fb7       data     extern C:\MCC18\src\traditional\proc\p18F97J60.asm
                    CCPR3   0x000fb8       data     extern C:\MCC18\src\traditional\proc\p18F97J60.asm
                   CCPR3L   0x000fb8       data     extern C:\MCC18\src\traditional\proc\p18F97J60.asm
                   CCPR3H   0x000fb9       data     extern C:\MCC18\src\traditional\proc\p18F97J60.asm
                 ECCP2CON   0x000fba       data     extern C:\MCC18\src\traditional\proc\p18F97J60.asm
             ECCP2CONbits   0x000fba       data     extern C:\MCC18\src\traditional\proc\p18F97J60.asm
                  CCP2CON   0x000fba       data     extern C:\MCC18\src\traditional\proc\p18F97J60.asm
              CCP2CONbits   0x000fba       data     extern C:\MCC18\src\traditional\proc\p18F97J60.asm
                   CCPR2L   0x000fbb       data     extern C:\MCC18\src\traditional\proc\p18F97J60.asm
                    CCPR2   0x000fbb       data     extern C:\MCC18\src\traditional\proc\p18F97J60.asm
                   CCPR2H   0x000fbc       data     extern C:\MCC18\src\traditional\proc\p18F97J60.asm
              CCP1CONbits   0x000fbd       data     extern C:\MCC18\src\traditional\proc\p18F97J60.asm
                  CCP1CON   0x000fbd       data     extern C:\MCC18\src\traditional\proc\p18F97J60.asm
             ECCP1CONbits   0x000fbd       data     extern C:\MCC18\src\traditional\proc\p18F97J60.asm
                 ECCP1CON   0x000fbd       data     extern C:\MCC18\src\traditional\proc\p18F97J60.asm
                   CCPR1L   0x000fbe       data     extern C:\MCC18\src\traditional\proc\p18F97J60.asm
                    CCPR1   0x000fbe       data     extern C:\MCC18\src\traditional\proc\p18F97J60.asm
                   CCPR1H   0x000fbf       data     extern C:\MCC18\src\traditional\proc\p18F97J60.asm
               ADCON2bits   0x000fc0       data     extern C:\MCC18\src\traditional\proc\p18F97J60.asm
                   ADCON2   0x000fc0       data     extern C:\MCC18\src\traditional\proc\p18F97J60.asm
               ADCON1bits   0x000fc1       data     extern C:\MCC18\src\traditional\proc\p18F97J60.asm
                   ADCON1   0x000fc1       data     extern C:\MCC18\src\traditional\proc\p18F97J60.asm
               ADCON0bits   0x000fc2       data     extern C:\MCC18\src\traditional\proc\p18F97J60.asm
                   ADCON0   0x000fc2       data     extern C:\MCC18\src\traditional\proc\p18F97J60.asm
                   ADRESL   0x000fc3       data     extern C:\MCC18\src\traditional\proc\p18F97J60.asm
                    ADRES   0x000fc3       data     extern C:\MCC18\src\traditional\proc\p18F97J60.asm
                   ADRESH   0x000fc4       data     extern C:\MCC18\src\traditional\proc\p18F97J60.asm
              SSPCON2bits   0x000fc5       data     extern C:\MCC18\src\traditional\proc\p18F97J60.asm
                  SSPCON2   0x000fc5       data     extern C:\MCC18\src\traditional\proc\p18F97J60.asm
                 SSP1CON2   0x000fc5       data     extern C:\MCC18\src\traditional\proc\p18F97J60.asm
             SSP1CON2bits   0x000fc5       data     extern C:\MCC18\src\traditional\proc\p18F97J60.asm
              SSPCON1bits   0x000fc6       data     extern C:\MCC18\src\traditional\proc\p18F97J60.asm
                  SSPCON1   0x000fc6       data     extern C:\MCC18\src\traditional\proc\p18F97J60.asm
             SSP1CON1bits   0x000fc6       data     extern C:\MCC18\src\traditional\proc\p18F97J60.asm
                 SSP1CON1   0x000fc6       data     extern C:\MCC18\src\traditional\proc\p18F97J60.asm
              SSPSTATbits   0x000fc7       data     extern C:\MCC18\src\traditional\proc\p18F97J60.asm
                  SSPSTAT   0x000fc7       data     extern C:\MCC18\src\traditional\proc\p18F97J60.asm
             SSP1STATbits   0x000fc7       data     extern C:\MCC18\src\traditional\proc\p18F97J60.asm
                 SSP1STAT   0x000fc7       data     extern C:\MCC18\src\traditional\proc\p18F97J60.asm
                  SSP1ADD   0x000fc8       data     extern C:\MCC18\src\traditional\proc\p18F97J60.asm
                   SSPADD   0x000fc8       data     extern C:\MCC18\src\traditional\proc\p18F97J60.asm
                  SSP1BUF   0x000fc9       data     extern C:\MCC18\src\traditional\proc\p18F97J60.asm
                   SSPBUF   0x000fc9       data     extern C:\MCC18\src\traditional\proc\p18F97J60.asm
                T2CONbits   0x000fca       data     extern C:\MCC18\src\traditional\proc\p18F97J60.asm
                    T2CON   0x000fca       data     extern C:\MCC18\src\traditional\proc\p18F97J60.asm
                      PR2   0x000fcb       data     extern C:\MCC18\src\traditional\proc\p18F97J60.asm
                     TMR2   0x000fcc       data     extern C:\MCC18\src\traditional\proc\p18F97J60.asm
                T1CONbits   0x000fcd       data     extern C:\MCC18\src\traditional\proc\p18F97J60.asm
                    T1CON   0x000fcd       data     extern C:\MCC18\src\traditional\proc\p18F97J60.asm
                    TMR1L   0x000fce       data     extern C:\MCC18\src\traditional\proc\p18F97J60.asm
                    TMR1H   0x000fcf       data     extern C:\MCC18\src\traditional\proc\p18F97J60.asm
                 RCONbits   0x000fd0       data     extern C:\MCC18\src\traditional\proc\p18F97J60.asm
                     RCON   0x000fd0       data     extern C:\MCC18\src\traditional\proc\p18F97J60.asm
                   WDTCON   0x000fd1       data     extern C:\MCC18\src\traditional\proc\p18F97J60.asm
               WDTCONbits   0x000fd1       data     extern C:\MCC18\src\traditional\proc\p18F97J60.asm
                    ECON1   0x000fd2       data     extern C:\MCC18\src\traditional\proc\p18F97J60.asm
                ECON1bits   0x000fd2       data     extern C:\MCC18\src\traditional\proc\p18F97J60.asm
                   OSCCON   0x000fd3       data     extern C:\MCC18\src\traditional\proc\p18F97J60.asm
               OSCCONbits   0x000fd3       data     extern C:\MCC18\src\traditional\proc\p18F97J60.asm
                    T0CON   0x000fd5       data     extern C:\MCC18\src\traditional\proc\p18F97J60.asm
                T0CONbits   0x000fd5       data     extern C:\MCC18\src\traditional\proc\p18F97J60.asm
                    TMR0L   0x000fd6       data     extern C:\MCC18\src\traditional\proc\p18F97J60.asm
                    TMR0H   0x000fd7       data     extern C:\MCC18\src\traditional\proc\p18F97J60.asm
               STATUSbits   0x000fd8       data     extern C:\MCC18\src\traditional\proc\p18F97J60.asm
                   STATUS   0x000fd8       data     extern C:\MCC18\src\traditional\proc\p18F97J60.asm
                     FSR2   0x000fd9       data     extern C:\MCC18\src\traditional\proc\p18F97J60.asm
                    FSR2L   0x000fd9       data     extern C:\MCC18\src\traditional\proc\p18F97J60.asm
                    FSR2H   0x000fda       data     extern C:\MCC18\src\traditional\proc\p18F97J60.asm
                   PLUSW2   0x000fdb       data     extern C:\MCC18\src\traditional\proc\p18F97J60.asm
                  PREINC2   0x000fdc       data     extern C:\MCC18\src\traditional\proc\p18F97J60.asm
                 POSTDEC2   0x000fdd       data     extern C:\MCC18\src\traditional\proc\p18F97J60.asm
                 POSTINC2   0x000fde       data     extern C:\MCC18\src\traditional\proc\p18F97J60.asm
                    INDF2   0x000fdf       data     extern C:\MCC18\src\traditional\proc\p18F97J60.asm
                      BSR   0x000fe0       data     extern C:\MCC18\src\traditional\proc\p18F97J60.asm
                     FSR1   0x000fe1       data     extern C:\MCC18\src\traditional\proc\p18F97J60.asm
                    FSR1L   0x000fe1       data     extern C:\MCC18\src\traditional\proc\p18F97J60.asm
                    FSR1H   0x000fe2       data     extern C:\MCC18\src\traditional\proc\p18F97J60.asm
                   PLUSW1   0x000fe3       data     extern C:\MCC18\src\traditional\proc\p18F97J60.asm
                  PREINC1   0x000fe4       data     extern C:\MCC18\src\traditional\proc\p18F97J60.asm
                 POSTDEC1   0x000fe5       data     extern C:\MCC18\src\traditional\proc\p18F97J60.asm
                 POSTINC1   0x000fe6       data     extern C:\MCC18\src\traditional\proc\p18F97J60.asm
                    INDF1   0x000fe7       data     extern C:\MCC18\src\traditional\proc\p18F97J60.asm
                     WREG   0x000fe8       data     extern C:\MCC18\src\traditional\proc\p18F97J60.asm
                    FSR0L   0x000fe9       data     extern C:\MCC18\src\traditional\proc\p18F97J60.asm
                     FSR0   0x000fe9       data     extern C:\MCC18\src\traditional\proc\p18F97J60.asm
                    FSR0H   0x000fea       data     extern C:\MCC18\src\traditional\proc\p18F97J60.asm
                   PLUSW0   0x000feb       data     extern C:\MCC18\src\traditional\proc\p18F97J60.asm
                  PREINC0   0x000fec       data     extern C:\MCC18\src\traditional\proc\p18F97J60.asm
                 POSTDEC0   0x000fed       data     extern C:\MCC18\src\traditional\proc\p18F97J60.asm
                 POSTINC0   0x000fee       data     extern C:\MCC18\src\traditional\proc\p18F97J60.asm
                    INDF0   0x000fef       data     extern C:\MCC18\src\traditional\proc\p18F97J60.asm
              INTCON3bits   0x000ff0       data     extern C:\MCC18\src\traditional\proc\p18F97J60.asm
                  INTCON3   0x000ff0       data     extern C:\MCC18\src\traditional\proc\p18F97J60.asm
              INTCON2bits   0x000ff1       data     extern C:\MCC18\src\traditional\proc\p18F97J60.asm
                  INTCON2   0x000ff1       data     extern C:\MCC18\src\traditional\proc\p18F97J60.asm
               INTCONbits   0x000ff2       data     extern C:\MCC18\src\traditional\proc\p18F97J60.asm
                   INTCON   0x000ff2       data     extern C:\MCC18\src\traditional\proc\p18F97J60.asm
                     PROD   0x000ff3       data     extern C:\MCC18\src\traditional\proc\p18F97J60.asm
                    PRODL   0x000ff3       data     extern C:\MCC18\src\traditional\proc\p18F97J60.asm
                    PRODH   0x000ff4       data     extern C:\MCC18\src\traditional\proc\p18F97J60.asm
                   TABLAT   0x000ff5       data     extern C:\MCC18\src\traditional\proc\p18F97J60.asm
                   TBLPTR   0x000ff6       data     extern C:\MCC18\src\traditional\proc\p18F97J60.asm
                  TBLPTRL   0x000ff6       data     extern C:\MCC18\src\traditional\proc\p18F97J60.asm
                  TBLPTRH   0x000ff7       data     extern C:\MCC18\src\traditional\proc\p18F97J60.asm
                  TBLPTRU   0x000ff8       data     extern C:\MCC18\src\traditional\proc\p18F97J60.asm
                       PC   0x000ff9       data     extern C:\MCC18\src\traditional\proc\p18F97J60.asm
                      PCL   0x000ff9       data     extern C:\MCC18\src\traditional\proc\p18F97J60.asm
                   PCLATH   0x000ffa       data     extern C:\MCC18\src\traditional\proc\p18F97J60.asm
                   PCLATU   0x000ffb       data     extern C:\MCC18\src\traditional\proc\p18F97J60.asm
                   STKPTR   0x000ffc       data     extern C:\MCC18\src\traditional\proc\p18F97J60.asm
               STKPTRbits   0x000ffc       data     extern C:\MCC18\src\traditional\proc\p18F97J60.asm
                     TOSL   0x000ffd       data     extern C:\MCC18\src\traditional\proc\p18F97J60.asm
                      TOS   0x000ffd       data     extern C:\MCC18\src\traditional\proc\p18F97J60.asm
                     TOSH   0x000ffe       data     extern C:\MCC18\src\traditional\proc\p18F97J60.asm
                     TOSU   0x000fff       data     extern C:\MCC18\src\traditional\proc\p18F97J60.asm


