MPLINK 4.22, Linker
Linker Map File - Created Thu Sep 12 20:54:46 2013

                                 Section Info
                  Section       Type    Address   Location Size(Bytes)
                ---------  ---------  ---------  ---------  ---------
               _entry_scn       code   0x000000    program   0x000006
               highVector       code   0x000008    program   0x000006
                lowVector       code   0x000018    program   0x000006
                   .cinit    romdata   0x00002a    program   0x00010a
              .code_TCP.o       code   0x000134    program   0x003d4e
             .code_SNMP.o       code   0x003e82    program   0x003a78
            .code_HTTP2.o       code   0x0078fa    program   0x00251e
        .code_RCUServer.o       code   0x009e18    program   0x0020b4
        .code_BUCClient.o       code   0x00becc    program   0x0015c6
    .code_AgilisSNMPApp.o       code   0x00d492    program   0x001338
          .code_UARTISR.o       code   0x00e7ca    program   0x000f40
  .code_AgilisHTTPPrint.o       code   0x00f70a    program   0x000f26
            .code_MPFS2.o       code   0x010630    program   0x000f12
          .code_Helpers.o       code   0x011542    program   0x000d78
              .code_UDP.o       code   0x0122ba    program   0x000d46
         .code_ETH97J60.o       code   0x013000    program   0x000bb2
             .stringtable    romdata   0x013bb2    program   0x000ac1
.romdata_AgilisHTTPPrint.o    romdata   0x014673    program   0x000000
.romdata_AgilisHTTPGetDevInfo.o    romdata   0x014673    program   0x000000
 .romdata_AgilisHTTPApp.o    romdata   0x014673    program   0x000000
.romdata_UART2TCPBridge.o    romdata   0x014673    program   0x000000
.romdata_AgilisConsoleInterface.o    romdata   0x014673    program   0x000000
.romdata_AgilisDualUART.o    romdata   0x014673    program   0x000000
.romdata_AgilisDeviceManager.o    romdata   0x014673    program   0x000000
   .romdata_internalADC.o    romdata   0x014673    program   0x000000
       .romdata_adcopen.o    romdata   0x014673    program   0x000000
   .idata_internalADC.o_i    romdata   0x014673    program   0x000000
        .romdata_c018iz.o    romdata   0x014673    program   0x000000
           .romdata_ISR.o    romdata   0x014673    program   0x000000
        .idata___init.o_i    romdata   0x014673    program   0x000000
       .romdata_UARTISR.o    romdata   0x014673    program   0x000000
        .romdata_devadc.o    romdata   0x014673    program   0x000000
        .idata_devadc.o_i    romdata   0x014673    program   0x000000
        .romdata_devspi.o    romdata   0x014673    program   0x000000
        .idata_devspi.o_i    romdata   0x014673    program   0x000000
    .romdata_AgilisUart.o    romdata   0x014673    program   0x000000
.romdata_AgilisDriverManager.o    romdata   0x014673    program   0x000000
.romdata_AgilisProtocol.o    romdata   0x014673    program   0x000000
      .romdata_SPIFlash.o    romdata   0x014673    program   0x000000
     .romdata_SPIEEPROM.o    romdata   0x014673    program   0x000000
        .romdata___init.o    romdata   0x014673    program   0x000000
          .romdata_ICMP.o    romdata   0x014673    program   0x000000
        .idata_c018iz.o_i    romdata   0x014673    program   0x000000
      .romdata_fxd3232u.o    romdata   0x014673    program   0x000000
      .idata_fxd3232u.o_i    romdata   0x014673    program   0x000000
      .romdata_fxd1616u.o    romdata   0x014673    program   0x000000
      .idata_fxd1616u.o_i    romdata   0x014673    program   0x000000
      .romdata_adcclose.o    romdata   0x014673    program   0x000000
      .idata_adcclose.o_i    romdata   0x014673    program   0x000000
.romdata_AgilisSNMPSysInfo.o    romdata   0x014673    program   0x000000
.romdata_AgilisSNMPLLRCUCmds.o    romdata   0x014673    program   0x000000
.romdata_AgilisSNMPLLBUCStatus.o    romdata   0x014673    program   0x000000
.romdata_AgilisSNMPLLBUCOp.o    romdata   0x014673    program   0x000000
.romdata_AgilisSNMPLLBucDevInfo.o    romdata   0x014673    program   0x000000
       .romdata_RCUTask.o    romdata   0x014673    program   0x000000
       .idata_fxm3232.o_i    romdata   0x014673    program   0x000000
     .romdata_BUCClient.o    romdata   0x014673    program   0x000000
       .romdata_fxm3232.o    romdata   0x014673    program   0x000000
     .romdata_RCUServer.o    romdata   0x014673    program   0x000000
        .idata_u1open.o_i    romdata   0x014673    program   0x000000
        .romdata_u1open.o    romdata   0x014673    program   0x000000
 .romdata_AgilisSNMPApp.o    romdata   0x014673    program   0x000000
 .romdata_AgilisAppUtil.o    romdata   0x014673    program   0x000000
        .idata_u2open.o_i    romdata   0x014673    program   0x000000
   .romdata_RCUHLAccess.o    romdata   0x014673    program   0x000000
   .romdata_RCULLAccess.o    romdata   0x014673    program   0x000000
        .romdata_u2open.o    romdata   0x014673    program   0x000000
.romdata_AgilisTaskManager.o    romdata   0x014673    program   0x000000
       .idata_adcopen.o_i    romdata   0x014673    program   0x000000
          .romdata_DHCP.o    romdata   0x014673    program   0x000000
          .romdata_Tick.o    romdata   0x014673    program   0x000000
          .romdata_UART.o    romdata   0x014673    program   0x000000
          .idata_UART.o_i    romdata   0x014673    program   0x000000
       .romdata_Helpers.o    romdata   0x014673    program   0x000000
         .romdata_Delay.o    romdata   0x014673    program   0x000000
         .romdata_DHCPs.o    romdata   0x014673    program   0x000000
            .romdata_IP.o    romdata   0x014673    program   0x000000
      .romdata_ETH97J60.o    romdata   0x014673    program   0x000000
           .romdata_ARP.o    romdata   0x014673    program   0x000000
           .romdata_UDP.o    romdata   0x014673    program   0x000000
      .romdata_StackTsk.o    romdata   0x014673    program   0x000000
      .idata_StackTsk.o_i    romdata   0x014673    program   0x000001
      .romdata_MPFSImg2.o    romdata   0x014673    program   0x000000
          .romdata_Main.o    romdata   0x014673    program   0x000000
          .romdata_util.o    romdata   0x014673    program   0x000000
          .romdata_list.o    romdata   0x014673    program   0x000000
          .idata_list.o_i    romdata   0x014673    program   0x000000
          .romdata_task.o    romdata   0x014673    program   0x000000
         .romdata_MPFS2.o    romdata   0x014673    program   0x000000
      .code_RCULLAccess.o       code   0x014674    program   0x000a84
             .code_DHCP.o       code   0x0150f8    program   0x00084a
    .code_AgilisHTTPApp.o       code   0x015942    program   0x0007fe
.code_AgilisHTTPGetDevInfo.o       code   0x016140    program   0x0007c0
             .code_util.o       code   0x016900    program   0x00074c
   .code_AgilisProtocol.o       code   0x01704c    program   0x000714
                     PROG       code   0x017760    program   0x00066c
.code_AgilisDeviceManager.o       code   0x017dcc    program   0x0005ea
   .code_Initialization.o       code   0x0183b6    program   0x0005d0
   .code_AgilisDualUART.o       code   0x018986    program   0x000504
              .code_ARP.o       code   0x018e8a    program   0x000494
                   STRING       code   0x01931e    program   0x00042c
.code_AgilisSNMPSysInfo.o       code   0x01974a    program   0x0003f6
.code_AgilisSNMPLLBUCStatus.o       code   0x019b40    program   0x0003ea
    .code_AgilisAppUtil.o       code   0x019f2a    program   0x0003d6
.code_AgilisSNMPLLRCUCmds.o       code   0x01a300    program   0x0003b6
       .code_AgilisUart.o       code   0x01a6b6    program   0x00035e
      .code_RCUHLAccess.o       code   0x01aa14    program   0x000358
               .code_IP.o       code   0x01ad6c    program   0x00032e
        .code_SPIEEPROM.o       code   0x01b09a    program   0x0002fa
         .code_StackTsk.o       code   0x01b394    program   0x00029c
             .code_task.o       code   0x01b630    program   0x00026c
.code_AgilisSNMPLLBUCOp.o       code   0x01b89c    program   0x000262
      .code_internalADC.o       code   0x01bafe    program   0x000252
           .code_devadc.o       code   0x01bd50    program   0x0001de
              .code_ISR.o       code   0x01bf2e    program   0x0001bc
.code_AgilisDriverManager.o       code   0x01c0ea    program   0x0001aa
                   STDLIB       code   0x01c294    program   0x000192
.code_AgilisTaskManager.o       code   0x01c426    program   0x000192
             .code_Main.o       code   0x01c5b8    program   0x000190
.code_AgilisSNMPLLBucDevInfo.o       code   0x01c748    program   0x000186
             .code_ICMP.o       code   0x01c8ce    program   0x00014a
             .code_Tick.o       code   0x01ca18    program   0x000122
             .code_UART.o       code   0x01cb3a    program   0x0000e6
               _cinit_scn       code   0x01cc20    program   0x00009e
          .code_RCUTask.o       code   0x01ccbe    program   0x00008e
           .code_u2open.o       code   0x01cd4c    program   0x00008a
             .code_list.o       code   0x01cdd6    program   0x000086
           .code_devspi.o       code   0x01ce5c    program   0x000086
           .code_u1open.o       code   0x01cee2    program   0x000084
         .romdata_HTTP2.o    romdata   0x01cf66    program   0x00007e
          .code_fxm3232.o       code   0x01cfe4    program   0x000070
          .code_adcopen.o       code   0x01d054    program   0x00006e
         .code_fxd3232u.o       code   0x01d0c2    program   0x000048
         .code_fxd1616u.o       code   0x01d10a    program   0x00002c
           .romdata_TCP.o    romdata   0x01d136    program   0x000024
             _startup_scn       code   0x01d15a    program   0x000020
              D1KTCYXCODE       code   0x01d17a    program   0x000020
   .code_UART2TCPBridge.o       code   0x01d19a    program   0x00001e
.romdata_Initialization.o    romdata   0x01d1b8    program   0x000018
              D10TCYXCODE       code   0x01d1d0    program   0x000016
          .romdata_SNMP.o    romdata   0x01d1e6    program   0x000014
                    .code       code   0x01d1fa    program   0x00000e
         .code_adcclose.o       code   0x01d208    program   0x000006
           .code___init.o       code   0x01d20e    program   0x000002
              SEED_DATA_i    romdata   0x01d210    program   0x000002
          .idata_util.o_i    romdata   0x01d212    program   0x000004
          .idata_task.o_i    romdata   0x01d216    program   0x000002
           .idata_UDP.o_i    romdata   0x01d218    program   0x000002
       .idata_UARTISR.o_i    romdata   0x01d21a    program   0x000003
.idata_UART2TCPBridge.o_i    romdata   0x01d21d    program   0x000008
          .idata_Tick.o_i    romdata   0x01d225    program   0x000004
           .idata_TCP.o_i    romdata   0x01d229    program   0x000002
      .idata_SPIFlash.o_i    romdata   0x01d22b    program   0x000000
          .idata_SNMP.o_i    romdata   0x01d22b    program   0x00002c
     .idata_SPIEEPROM.o_i    romdata   0x01d22b    program   0x000000
       .idata_RCUTask.o_i    romdata   0x01d257    program   0x000000
     .idata_RCUServer.o_i    romdata   0x01d257    program   0x0000d8
   .idata_RCULLAccess.o_i    romdata   0x01d32f    program   0x000004
   .idata_RCUHLAccess.o_i    romdata   0x01d333    program   0x000000
          .idata_Main.o_i    romdata   0x01d333    program   0x000005
.idata_Initialization.o_i    romdata   0x01d338    program   0x000000
            .idata_IP.o_i    romdata   0x01d338    program   0x000002
      .idata_MPFSImg2.o_i    romdata   0x01d338    program   0x000000
         .idata_MPFS2.o_i    romdata   0x01d338    program   0x000000
           .idata_ISR.o_i    romdata   0x01d338    program   0x000000
         .idata_Delay.o_i    romdata   0x01d33a    program   0x000000
       .idata_Helpers.o_i    romdata   0x01d33a    program   0x000000
         .idata_DHCPs.o_i    romdata   0x01d33a    program   0x000000
          .idata_ICMP.o_i    romdata   0x01d33a    program   0x000000
          .idata_DHCP.o_i    romdata   0x01d33a    program   0x000001
      .idata_ETH97J60.o_i    romdata   0x01d33a    program   0x000000
         .idata_HTTP2.o_i    romdata   0x01d33a    program   0x000000
     .idata_BUCClient.o_i    romdata   0x01d33b    program   0x000044
    .idata_AgilisUart.o_i    romdata   0x01d37f    program   0x00003c
.idata_AgilisSNMPLLBucDevInfo.o_i    romdata   0x01d3bb    program   0x000000
.idata_AgilisSNMPLLBUCOp.o_i    romdata   0x01d3bb    program   0x000000
.idata_AgilisTaskManager.o_i    romdata   0x01d3bb    program   0x000000
 .idata_AgilisSNMPApp.o_i    romdata   0x01d3bb    program   0x00016a
.idata_AgilisSNMPLLBUCStatus.o_i    romdata   0x01d3bb    program   0x000000
.idata_AgilisSNMPLLRCUCmds.o_i    romdata   0x01d3bb    program   0x000000
.idata_AgilisSNMPSysInfo.o_i    romdata   0x01d3bb    program   0x000000
.idata_AgilisHTTPPrint.o_i    romdata   0x01d525    program   0x000000
.idata_AgilisProtocol.o_i    romdata   0x01d525    program   0x000000
 .idata_AgilisHTTPApp.o_i    romdata   0x01d525    program   0x000002
.idata_AgilisHTTPGetDevInfo.o_i    romdata   0x01d525    program   0x000000
.idata_AgilisDriverManager.o_i    romdata   0x01d527    program   0x000001
.idata_AgilisDualUART.o_i    romdata   0x01d527    program   0x000000
.idata_AgilisDeviceManager.o_i    romdata   0x01d528    program   0x000004
 .idata_AgilisAppUtil.o_i    romdata   0x01d52c    program   0x000000
           .idata_ARP.o_i    romdata   0x01d52c    program   0x000001
.idata_AgilisConsoleInterface.o_i    romdata   0x01d52c    program   0x000000
         .code_MPFSImg2.o       code   0x01d52e    program   0x000000
            .code_Delay.o       code   0x01d52e    program   0x000000
           .code_c018iz.o       code   0x01d52e    program   0x000000
            .code_DHCPs.o       code   0x01d52e    program   0x000000
.code_AgilisConsoleInterface.o       code   0x01d52e    program   0x000000
         .code_SPIFlash.o       code   0x01d52e    program   0x000000
     .config_1fff8_Main.o    romdata   0x01fff8    program   0x000001
     .config_1fffa_Main.o    romdata   0x01fffa    program   0x000001
     .config_1fffd_Main.o    romdata   0x01fffd    program   0x000001
                 .tmpdata      udata   0x000000       data   0x00001a
                MATH_DATA      udata   0x00001a       data   0x000014
               LowISR_tmp      udata   0x00002e       data   0x000002
                DELAYDAT1      udata   0x000030       data   0x000001
.udata_AgilisDeviceManager.o      udata   0x000060       data   0x000088
.udata_AgilisSNMPSysInfo.o      udata   0x0000e8       data   0x000011
        .udata_ETH97J60.o      udata   0x0000f9       data   0x000007
             .udata_UDP.o      udata   0x000100       data   0x0000f2
 .udata_AgilisHTTPPrint.o      udata   0x0001f2       data   0x00000c
                SEED_DATA      idata   0x0001fe       data   0x000002
                     grp7      udata   0x000200       data   0x0000e3
       .udata_RCUServer.o      udata   0x0002e3       data   0x000010
.udata_AgilisTaskManager.o      udata   0x0002f3       data   0x00000d
       .idata_RCUServer.o      idata   0x000300       data   0x0000d8
            .udata_task.o      udata   0x0003d8       data   0x000027
              .udata_IP.o      udata   0x0003ff       data   0x000001
       .udata_BUCClient.o      udata   0x000400       data   0x0000c6
     .udata_RCUHLAccess.o      udata   0x0004c6       data   0x000035
            .idata_Main.o      idata   0x0004fb       data   0x000005
                 TCB_uRAM      udata   0x000500       data   0x0000a8
  .udata_UART2TCPBridge.o      udata   0x0005a8       data   0x000052
            .udata_Tick.o      udata   0x0005fa       data   0x000006
   HTTP_CONNECTION_STATES      udata   0x000600       data   0x000084
           .udata_MPFS2.o      udata   0x000684       data   0x00006f
   .udata_AgilisHTTPApp.o      udata   0x0006f3       data   0x00000d
             .udata_TCP.o      udata   0x000700       data   0x00004f
                     gpr8      udata   0x00074f       data   0x00004e
       .idata_BUCClient.o      idata   0x00079d       data   0x000044
     .udata_RCULLAccess.o      udata   0x0007e1       data   0x00001f
   .idata_AgilisSNMPApp.o      idata   0x000800       data   0x00016a
         .udata_UARTISR.o      udata   0x00096a       data   0x000090
  .udata_Initialization.o      udata   0x0009fa       data   0x000004
            .idata_task.o      idata   0x0009fe       data   0x000002
                    grp10      udata   0x000a00       data   0x000040
       SYN_QUEUE_RAM_SECT      udata   0x000a40       data   0x00003c
      .idata_AgilisUart.o      idata   0x000a7c       data   0x00003c
            .idata_SNMP.o      idata   0x000ab8       data   0x00002c
            .udata_DHCP.o      udata   0x000ae4       data   0x00001c
            .udata_SNMP.o      udata   0x000b00       data   0x00002b
       .udata_SPIEEPROM.o      udata   0x000b2b       data   0x000025
.udata_AgilisHTTPGetDevInfo.o      udata   0x000b50       data   0x00001f
            .udata_Main.o      udata   0x000b6f       data   0x00000f
.udata_AgilisDriverManager.o      udata   0x000b7e       data   0x00000c
        .udata_StackTsk.o      udata   0x000b8a       data   0x00000b
                    grp17      udata   0x000b95       data   0x00000a
          .udata_c018iz.o      udata   0x000b9f       data   0x00000a
  .idata_UART2TCPBridge.o      idata   0x000ba9       data   0x000008
         .udata_Helpers.o      udata   0x000bb1       data   0x000004
            .idata_util.o      idata   0x000bb5       data   0x000004
            .idata_Tick.o      idata   0x000bb9       data   0x000004
     .idata_RCULLAccess.o      idata   0x000bbd       data   0x000004
.idata_AgilisDeviceManager.o      idata   0x000bc1       data   0x000004
         .idata_UARTISR.o      idata   0x000bc5       data   0x000003
             .idata_UDP.o      idata   0x000bc8       data   0x000002
             .idata_TCP.o      idata   0x000bca       data   0x000002
              .idata_IP.o      idata   0x000bcc       data   0x000002
   .idata_AgilisHTTPApp.o      idata   0x000bce       data   0x000002
            .idata_DHCP.o      idata   0x000bd0       data   0x000001
.idata_AgilisDriverManager.o      idata   0x000bd1       data   0x000001
             .idata_ARP.o      idata   0x000bd2       data   0x000001
.udata_AgilisSNMPLLRCUCmds.o      udata   0x000bd3       data   0x000000
.idata_AgilisSNMPLLBUCStatus.o      idata   0x000bd3       data   0x000000
.udata_AgilisSNMPLLBUCStatus.o      udata   0x000bd3       data   0x000000
.idata_AgilisSNMPLLBUCOp.o      idata   0x000bd3       data   0x000000
.udata_AgilisSNMPLLBUCOp.o      udata   0x000bd3       data   0x000000
.idata_AgilisSNMPLLBucDevInfo.o      idata   0x000bd3       data   0x000000
.udata_AgilisSNMPLLBucDevInfo.o      udata   0x000bd3       data   0x000000
         .idata_RCUTask.o      idata   0x000bd3       data   0x000000
         .udata_RCUTask.o      udata   0x000bd3       data   0x000000
  .idata_Initialization.o      idata   0x000bd3       data   0x000000
        .udata_MPFSImg2.o      udata   0x000bd3       data   0x000000
        .idata_MPFSImg2.o      idata   0x000bd3       data   0x000000
   .udata_AgilisSNMPApp.o      udata   0x000bd3       data   0x000000
   .idata_AgilisAppUtil.o      idata   0x000bd3       data   0x000000
   .udata_AgilisAppUtil.o      udata   0x000bd3       data   0x000000
          .idata_c018iz.o      idata   0x000bd3       data   0x000000
          .idata___init.o      idata   0x000bd3       data   0x000000
          .udata___init.o      udata   0x000bd3       data   0x000000
         .idata_adcopen.o      idata   0x000bd3       data   0x000000
         .udata_adcopen.o      udata   0x000bd3       data   0x000000
          .idata_u2open.o      idata   0x000bd3       data   0x000000
          .udata_u2open.o      udata   0x000bd3       data   0x000000
          .idata_u1open.o      idata   0x000bd3       data   0x000000
          .udata_u1open.o      udata   0x000bd3       data   0x000000
         .idata_fxm3232.o      idata   0x000bd3       data   0x000000
         .udata_fxm3232.o      udata   0x000bd3       data   0x000000
        .idata_fxd3232u.o      idata   0x000bd3       data   0x000000
        .udata_fxd3232u.o      udata   0x000bd3       data   0x000000
        .idata_fxd1616u.o      idata   0x000bd3       data   0x000000
        .udata_fxd1616u.o      udata   0x000bd3       data   0x000000
            .udata_list.o      udata   0x000bd3       data   0x000000
        .idata_adcclose.o      idata   0x000bd3       data   0x000000
        .udata_adcclose.o      udata   0x000bd3       data   0x000000
.idata_AgilisSNMPSysInfo.o      idata   0x000bd3       data   0x000000
            .idata_list.o      idata   0x000bd3       data   0x000000
.idata_AgilisSNMPLLRCUCmds.o      idata   0x000bd3       data   0x000000
           .udata_DHCPs.o      udata   0x000bd3       data   0x000000
     .idata_internalADC.o      idata   0x000bd3       data   0x000000
     .udata_internalADC.o      udata   0x000bd3       data   0x000000
        .idata_SPIFlash.o      idata   0x000bd3       data   0x000000
  .udata_AgilisProtocol.o      udata   0x000bd3       data   0x000000
  .idata_AgilisProtocol.o      idata   0x000bd3       data   0x000000
            .udata_ICMP.o      udata   0x000bd3       data   0x000000
           .idata_MPFS2.o      idata   0x000bd3       data   0x000000
          .udata_devspi.o      udata   0x000bd3       data   0x000000
          .idata_devspi.o      idata   0x000bd3       data   0x000000
          .udata_devadc.o      udata   0x000bd3       data   0x000000
          .idata_devadc.o      idata   0x000bd3       data   0x000000
           .idata_HTTP2.o      idata   0x000bd3       data   0x000000
           .udata_HTTP2.o      udata   0x000bd3       data   0x000000
             .udata_ISR.o      udata   0x000bd3       data   0x000000
             .idata_ISR.o      idata   0x000bd3       data   0x000000
           .idata_DHCPs.o      idata   0x000bd3       data   0x000000
     .idata_RCUHLAccess.o      idata   0x000bd3       data   0x000000
            .idata_ICMP.o      idata   0x000bd3       data   0x000000
.idata_AgilisTaskManager.o      idata   0x000bd3       data   0x000000
        .idata_ETH97J60.o      idata   0x000bd3       data   0x000000
 .idata_AgilisHTTPPrint.o      idata   0x000bd3       data   0x000000
.idata_AgilisHTTPGetDevInfo.o      idata   0x000bd3       data   0x000000
       .idata_SPIEEPROM.o      idata   0x000bd3       data   0x000000
        .udata_SPIFlash.o      udata   0x000bd3       data   0x000000
           .udata_Delay.o      udata   0x000bd3       data   0x000000
           .idata_Delay.o      idata   0x000bd3       data   0x000000
         .idata_Helpers.o      idata   0x000bd3       data   0x000000
            .udata_UART.o      udata   0x000bd3       data   0x000000
.idata_AgilisConsoleInterface.o      idata   0x000bd3       data   0x000000
.udata_AgilisConsoleInterface.o      udata   0x000bd3       data   0x000000
  .idata_AgilisDualUART.o      idata   0x000bd3       data   0x000000
  .udata_AgilisDualUART.o      udata   0x000bd3       data   0x000000
            .idata_UART.o      idata   0x000bd3       data   0x000000
                   .stack      udata   0x000c00       data   0x000200
                     grp5      udata   0x000e00       data   0x000069
             .udata_ARP.o      udata   0x000e69       data   0x000014
            .udata_util.o      udata   0x000e7d       data   0x000003
              SFR_BANKED0      udata   0x000e80       data   0x000006
              SFR_BANKED1      udata   0x000e8a       data   0x000001
              SFR_BANKED2      udata   0x000e97       data   0x000003
              SFR_BANKED3      udata   0x000ea0       data   0x000001
              SFR_BANKED4      udata   0x000ea2       data   0x000003
              SFR_BANKED5      udata   0x000ea6       data   0x000002
              SFR_BANKED6      udata   0x000eaa       data   0x000002
              SFR_BANKED7      udata   0x000eb2       data   0x000001
              SFR_BANKED8      udata   0x000eb4       data   0x000001
              SFR_BANKED9      udata   0x000eb6       data   0x000004
             SFR_BANKED10      udata   0x000ec0       data   0x000012
             SFR_BANKED11      udata   0x000ed4       data   0x000002
             SFR_BANKED12      udata   0x000ed8       data   0x000002
             SFR_BANKED13      udata   0x000ee2       data   0x000016
             SFR_BANKED14      udata   0x000efb       data   0x000001
             SFR_BANKED15      udata   0x000efd       data   0x000002
      .udata_AgilisUart.o      udata   0x000f00       data   0x00005f
        .idata_StackTsk.o      idata   0x000f5f       data   0x000001
            SFR_UNBANKED0      udata   0x000f60       data   0x0000a0



                              Program Memory Usage 
                               Start         End      
                           ---------   ---------      
                            0x000000    0x000005      
                            0x000008    0x00000d      
                            0x000018    0x00001d      
                            0x00002a    0x01d52c      
                            0x01fff8    0x01fff8      
                            0x01fffa    0x01fffa      
                            0x01fffd    0x01fffd      
            120088 out of 131072 program addresses used, program memory utilization is 91%



                              Symbols - Sorted by Name
                     Name    Address   Location    Storage File                     
                ---------  ---------  ---------  --------- ---------                
                ADC_Value   0x01bc16    program     extern C:\pavan\1+1RCUTx\1-1-RCU-T-NewArch_svn_web_changes\Drivers\MCU-Internal\internalADC.c
                  AD_init   0x01bafe    program     extern C:\pavan\1+1RCUTx\1-1-RCU-T-NewArch_svn_web_changes\Drivers\MCU-Internal\internalADC.c
                  ARPInit   0x018f52    program     extern C:\pavan\1+1RCUTx\1-1-RCU-T-NewArch_svn_web_changes\Microchip\TCPIP Stack\ARP.c
            ARPIsResolved   0x0191aa    program     extern C:\pavan\1+1RCUTx\1-1-RCU-T-NewArch_svn_web_changes\Microchip\TCPIP Stack\ARP.c
               ARPProcess   0x018f6a    program     extern C:\pavan\1+1RCUTx\1-1-RCU-T-NewArch_svn_web_changes\Microchip\TCPIP Stack\ARP.c
                   ARPPut   0x018e8a    program     static C:\pavan\1+1RCUTx\1-1-RCU-T-NewArch_svn_web_changes\Microchip\TCPIP Stack\ARP.c
               ARPResolve   0x019100    program     extern C:\pavan\1+1RCUTx\1-1-RCU-T-NewArch_svn_web_changes\Microchip\TCPIP Stack\ARP.c
                ASC2toHEX   0x016900    program     extern C:\pavan\1+1RCUTx\1-1-RCU-T-NewArch_svn_web_changes\Agilis-SysLib\util.c
 AgilisAppUtil_dword_swap   0x019f5e    program     extern C:\pavan\1+1RCUTx\1-1-RCU-T-NewArch_svn_web_changes\App\Util\AgilisAppUtil.c
AgilisAppUtil_validate_attenuation   0x019f2a    program     extern C:\pavan\1+1RCUTx\1-1-RCU-T-NewArch_svn_web_changes\App\Util\AgilisAppUtil.c
AgilisDeviceManagerClientPoll   0x0181c2    program     extern C:\pavan\1+1RCUTx\1-1-RCU-T-NewArch_svn_web_changes\AgilisDevices\AgilisDeviceManager.c
AgilisDeviceManagerClientRespond   0x018236    program     extern C:\pavan\1+1RCUTx\1-1-RCU-T-NewArch_svn_web_changes\AgilisDevices\AgilisDeviceManager.c
AgilisDeviceManagerGetBUCClient   0x017e5e    program     extern C:\pavan\1+1RCUTx\1-1-RCU-T-NewArch_svn_web_changes\AgilisDevices\AgilisDeviceManager.c
AgilisDeviceManagerHandler   0x0182aa    program     extern C:\pavan\1+1RCUTx\1-1-RCU-T-NewArch_svn_web_changes\AgilisDevices\AgilisDeviceManager.c
  AgilisDeviceManagerInit   0x017dcc    program     extern C:\pavan\1+1RCUTx\1-1-RCU-T-NewArch_svn_web_changes\AgilisDevices\AgilisDeviceManager.c
AgilisDeviceManagerRegisterClient   0x017e0a    program     extern C:\pavan\1+1RCUTx\1-1-RCU-T-NewArch_svn_web_changes\AgilisDevices\AgilisDeviceManager.c
AgilisDeviceManagerRegisterServer   0x017e34    program     extern C:\pavan\1+1RCUTx\1-1-RCU-T-NewArch_svn_web_changes\AgilisDevices\AgilisDeviceManager.c
AgilisDeviceManagerServerRespond   0x018154    program     extern C:\pavan\1+1RCUTx\1-1-RCU-T-NewArch_svn_web_changes\AgilisDevices\AgilisDeviceManager.c
AgilisDeviceManagerStdClientRespond   0x017e9e    program     extern C:\pavan\1+1RCUTx\1-1-RCU-T-NewArch_svn_web_changes\AgilisDevices\AgilisDeviceManager.c
  AgilisDriverManagerInit   0x01c0ea    program     extern C:\pavan\1+1RCUTx\1-1-RCU-T-NewArch_svn_web_changes\Drivers\AgilisDriverManager.c
  AgilisDriverManagerOpen   0x01c114    program     extern C:\pavan\1+1RCUTx\1-1-RCU-T-NewArch_svn_web_changes\Drivers\AgilisDriverManager.c
AgilisDriverManagerRegister   0x01c220    program     extern C:\pavan\1+1RCUTx\1-1-RCU-T-NewArch_svn_web_changes\Drivers\AgilisDriverManager.c
AgilisProtocolCalcChecksum   0x01704c    program     extern C:\pavan\1+1RCUTx\1-1-RCU-T-NewArch_svn_web_changes\App\SerialIntf\AgilisProtocol\AgilisProtocol.c
  AgilisProtocolCmdLookUp   0x017432    program     extern C:\pavan\1+1RCUTx\1-1-RCU-T-NewArch_svn_web_changes\App\SerialIntf\AgilisProtocol\AgilisProtocol.c
AgilisProtocolGCmdPackRequestPgm   0x017282    program     extern C:\pavan\1+1RCUTx\1-1-RCU-T-NewArch_svn_web_changes\App\SerialIntf\AgilisProtocol\AgilisProtocol.c
AgilisProtocolGCmdPackResponse   0x017392    program     extern C:\pavan\1+1RCUTx\1-1-RCU-T-NewArch_svn_web_changes\App\SerialIntf\AgilisProtocol\AgilisProtocol.c
AgilisProtocolGCmdReqCheck   0x017218    program     extern C:\pavan\1+1RCUTx\1-1-RCU-T-NewArch_svn_web_changes\App\SerialIntf\AgilisProtocol\AgilisProtocol.c
AgilisProtocolGCmdRespCheck   0x017264    program     extern C:\pavan\1+1RCUTx\1-1-RCU-T-NewArch_svn_web_changes\App\SerialIntf\AgilisProtocol\AgilisProtocol.c
AgilisProtocolGetCmdPacketStartPos   0x0174ec    program     extern C:\pavan\1+1RCUTx\1-1-RCU-T-NewArch_svn_web_changes\App\SerialIntf\AgilisProtocol\AgilisProtocol.c
AgilisProtocolPackChecksum   0x017084    program     extern C:\pavan\1+1RCUTx\1-1-RCU-T-NewArch_svn_web_changes\App\SerialIntf\AgilisProtocol\AgilisProtocol.c
AgilisProtocolVerifyChecksum   0x0170ce    program     extern C:\pavan\1+1RCUTx\1-1-RCU-T-NewArch_svn_web_changes\App\SerialIntf\AgilisProtocol\AgilisProtocol.c
AgilisProtocolZCmdPackResponse   0x0173e2    program     extern C:\pavan\1+1RCUTx\1-1-RCU-T-NewArch_svn_web_changes\App\SerialIntf\AgilisProtocol\AgilisProtocol.c
AgilisProtocolZCmdReqCheck   0x017176    program     extern C:\pavan\1+1RCUTx\1-1-RCU-T-NewArch_svn_web_changes\App\SerialIntf\AgilisProtocol\AgilisProtocol.c
 AgilisTaskManagerHandler   0x01c4b0    program     extern C:\pavan\1+1RCUTx\1-1-RCU-T-NewArch_svn_web_changes\App\Task\AgilisTaskManager.c
    AgilisTaskManagerInit   0x01c426    program     extern C:\pavan\1+1RCUTx\1-1-RCU-T-NewArch_svn_web_changes\App\Task\AgilisTaskManager.c
AgilisTaskManagerRegisterTask   0x01c450    program     extern C:\pavan\1+1RCUTx\1-1-RCU-T-NewArch_svn_web_changes\App\Task\AgilisTaskManager.c
          AgilisUart0Init   0x01a6b6    program     extern C:\pavan\1+1RCUTx\1-1-RCU-T-NewArch_svn_web_changes\Drivers\AgilisUart.c
          AgilisUart0Open   0x01a6de    program     extern C:\pavan\1+1RCUTx\1-1-RCU-T-NewArch_svn_web_changes\Drivers\AgilisUart.c
          AgilisUart0Read   0x01a6e8    program     extern C:\pavan\1+1RCUTx\1-1-RCU-T-NewArch_svn_web_changes\Drivers\AgilisUart.c
         AgilisUart0Write   0x01a70e    program     extern C:\pavan\1+1RCUTx\1-1-RCU-T-NewArch_svn_web_changes\Drivers\AgilisUart.c
          AgilisUart1Init   0x01a73e    program     extern C:\pavan\1+1RCUTx\1-1-RCU-T-NewArch_svn_web_changes\Drivers\AgilisUart.c
          AgilisUart1Open   0x01a766    program     extern C:\pavan\1+1RCUTx\1-1-RCU-T-NewArch_svn_web_changes\Drivers\AgilisUart.c
          AgilisUart1Read   0x01a770    program     extern C:\pavan\1+1RCUTx\1-1-RCU-T-NewArch_svn_web_changes\Drivers\AgilisUart.c
         AgilisUart1Write   0x01a796    program     extern C:\pavan\1+1RCUTx\1-1-RCU-T-NewArch_svn_web_changes\Drivers\AgilisUart.c
          AgilisUart2Init   0x01a7c6    program     extern C:\pavan\1+1RCUTx\1-1-RCU-T-NewArch_svn_web_changes\Drivers\AgilisUart.c
          AgilisUart2Open   0x01a7ee    program     extern C:\pavan\1+1RCUTx\1-1-RCU-T-NewArch_svn_web_changes\Drivers\AgilisUart.c
          AgilisUart2Read   0x01a7f8    program     extern C:\pavan\1+1RCUTx\1-1-RCU-T-NewArch_svn_web_changes\Drivers\AgilisUart.c
         AgilisUart2Write   0x01a816    program     extern C:\pavan\1+1RCUTx\1-1-RCU-T-NewArch_svn_web_changes\Drivers\AgilisUart.c
          AgilisUart3Init   0x01a846    program     extern C:\pavan\1+1RCUTx\1-1-RCU-T-NewArch_svn_web_changes\Drivers\AgilisUart.c
          AgilisUart3Open   0x01a86e    program     extern C:\pavan\1+1RCUTx\1-1-RCU-T-NewArch_svn_web_changes\Drivers\AgilisUart.c
          AgilisUart3Read   0x01a878    program     extern C:\pavan\1+1RCUTx\1-1-RCU-T-NewArch_svn_web_changes\Drivers\AgilisUart.c
         AgilisUart3Write   0x01a896    program     extern C:\pavan\1+1RCUTx\1-1-RCU-T-NewArch_svn_web_changes\Drivers\AgilisUart.c
          AgilisUart4Init   0x01a8c6    program     extern C:\pavan\1+1RCUTx\1-1-RCU-T-NewArch_svn_web_changes\Drivers\AgilisUart.c
          AgilisUart4Open   0x01a8ee    program     extern C:\pavan\1+1RCUTx\1-1-RCU-T-NewArch_svn_web_changes\Drivers\AgilisUart.c
          AgilisUart4Read   0x01a8f8    program     extern C:\pavan\1+1RCUTx\1-1-RCU-T-NewArch_svn_web_changes\Drivers\AgilisUart.c
         AgilisUart4Write   0x01a916    program     extern C:\pavan\1+1RCUTx\1-1-RCU-T-NewArch_svn_web_changes\Drivers\AgilisUart.c
Agilis_util_convert_ascii   0x01a056    program     extern C:\pavan\1+1RCUTx\1-1-RCU-T-NewArch_svn_web_changes\App\Util\AgilisAppUtil.c
   Agilis_util_parse_attn   0x01a152    program     extern C:\pavan\1+1RCUTx\1-1-RCU-T-NewArch_svn_web_changes\App\Util\AgilisAppUtil.c
 Agilissnmp_getSYS_Params   0x019810    program     extern C:\pavan\1+1RCUTx\1-1-RCU-T-NewArch_svn_web_changes\App\SNMP\AgilisSNMPSysInfo.c
 Agilissnmp_get_trap_resp   0x019d3a    program     extern C:\pavan\1+1RCUTx\1-1-RCU-T-NewArch_svn_web_changes\App\SNMP\AgilisSNMPLLBUCStatus.c
 Agilissnmp_setSYS_Params   0x01974a    program     extern C:\pavan\1+1RCUTx\1-1-RCU-T-NewArch_svn_web_changes\App\SNMP\AgilisSNMPSysInfo.c
Agilissnmpll_SetBUCrfOperation   0x01b8a6    program     extern C:\pavan\1+1RCUTx\1-1-RCU-T-NewArch_svn_web_changes\App\SNMP\AgilisSNMPLLBUCOp.c
Agilissnmpll_alarmBUC_TempLevel   0x019cfe    program     extern C:\pavan\1+1RCUTx\1-1-RCU-T-NewArch_svn_web_changes\App\SNMP\AgilisSNMPLLBUCStatus.c
Agilissnmpll_alarmBUC_fetBias   0x019d1a    program     extern C:\pavan\1+1RCUTx\1-1-RCU-T-NewArch_svn_web_changes\App\SNMP\AgilisSNMPLLBUCStatus.c
Agilissnmpll_alarmBUC_lolock   0x019cc4    program     extern C:\pavan\1+1RCUTx\1-1-RCU-T-NewArch_svn_web_changes\App\SNMP\AgilisSNMPLLBUCStatus.c
Agilissnmpll_alarmBUC_powerAmp   0x019ce2    program     extern C:\pavan\1+1RCUTx\1-1-RCU-T-NewArch_svn_web_changes\App\SNMP\AgilisSNMPLLBUCStatus.c
Agilissnmpll_alarmBUC_reserved   0x019d38    program     extern C:\pavan\1+1RCUTx\1-1-RCU-T-NewArch_svn_web_changes\App\SNMP\AgilisSNMPLLBUCStatus.c
Agilissnmpll_alarmBUC_rfLow   0x019d1c    program     extern C:\pavan\1+1RCUTx\1-1-RCU-T-NewArch_svn_web_changes\App\SNMP\AgilisSNMPLLBUCStatus.c
Agilissnmpll_check_BUC_COM_status   0x01a5ac    program     extern C:\pavan\1+1RCUTx\1-1-RCU-T-NewArch_svn_web_changes\App\SNMP\AgilisSNMPLLRCUCmds.c
  Agilissnmpll_getBUCAttn   0x01b8ce    program     extern C:\pavan\1+1RCUTx\1-1-RCU-T-NewArch_svn_web_changes\App\SNMP\AgilisSNMPLLBUCOp.c
Agilissnmpll_getBUCPartNo   0x01c7ca    program     extern C:\pavan\1+1RCUTx\1-1-RCU-T-NewArch_svn_web_changes\App\SNMP\AgilisSNMPLLBucDevInfo.c
Agilissnmpll_getBUCdeviceID   0x01c748    program     extern C:\pavan\1+1RCUTx\1-1-RCU-T-NewArch_svn_web_changes\App\SNMP\AgilisSNMPLLBucDevInfo.c
Agilissnmpll_getBUCfirmwareVersion   0x01c806    program     extern C:\pavan\1+1RCUTx\1-1-RCU-T-NewArch_svn_web_changes\App\SNMP\AgilisSNMPLLBucDevInfo.c
Agilissnmpll_getBUCinpower   0x019b40    program     extern C:\pavan\1+1RCUTx\1-1-RCU-T-NewArch_svn_web_changes\App\SNMP\AgilisSNMPLLBUCStatus.c
Agilissnmpll_getBUCoutpower   0x019b60    program     extern C:\pavan\1+1RCUTx\1-1-RCU-T-NewArch_svn_web_changes\App\SNMP\AgilisSNMPLLBUCStatus.c
Agilissnmpll_getBUCreflectpower   0x019bfe    program     extern C:\pavan\1+1RCUTx\1-1-RCU-T-NewArch_svn_web_changes\App\SNMP\AgilisSNMPLLBUCStatus.c
Agilissnmpll_getBUCrfOperation   0x01b89c    program     extern C:\pavan\1+1RCUTx\1-1-RCU-T-NewArch_svn_web_changes\App\SNMP\AgilisSNMPLLBUCOp.c
Agilissnmpll_getBUCserialNo   0x01c7e8    program     extern C:\pavan\1+1RCUTx\1-1-RCU-T-NewArch_svn_web_changes\App\SNMP\AgilisSNMPLLBucDevInfo.c
  Agilissnmpll_getBUCtemp   0x019c1e    program     extern C:\pavan\1+1RCUTx\1-1-RCU-T-NewArch_svn_web_changes\App\SNMP\AgilisSNMPLLBUCStatus.c
Agilissnmpll_getRCUDeviceID   0x01a3c0    program     extern C:\pavan\1+1RCUTx\1-1-RCU-T-NewArch_svn_web_changes\App\SNMP\AgilisSNMPLLRCUCmds.c
Agilissnmpll_getRCUDeviceip   0x01a326    program     extern C:\pavan\1+1RCUTx\1-1-RCU-T-NewArch_svn_web_changes\App\SNMP\AgilisSNMPLLRCUCmds.c
Agilissnmpll_getRCUDeviceipGateway   0x01a372    program     extern C:\pavan\1+1RCUTx\1-1-RCU-T-NewArch_svn_web_changes\App\SNMP\AgilisSNMPLLRCUCmds.c
Agilissnmpll_getRCUDeviceipMask   0x01a34c    program     extern C:\pavan\1+1RCUTx\1-1-RCU-T-NewArch_svn_web_changes\App\SNMP\AgilisSNMPLLRCUCmds.c
 Agilissnmpll_getRCUFwVer   0x01a410    program     extern C:\pavan\1+1RCUTx\1-1-RCU-T-NewArch_svn_web_changes\App\SNMP\AgilisSNMPLLRCUCmds.c
Agilissnmpll_getRCUManagerip   0x01a300    program     extern C:\pavan\1+1RCUTx\1-1-RCU-T-NewArch_svn_web_changes\App\SNMP\AgilisSNMPLLRCUCmds.c
Agilissnmpll_getRCUPartNumber   0x01a3e8    program     extern C:\pavan\1+1RCUTx\1-1-RCU-T-NewArch_svn_web_changes\App\SNMP\AgilisSNMPLLRCUCmds.c
Agilissnmpll_getRCUSerialNumber   0x01a398    program     extern C:\pavan\1+1RCUTx\1-1-RCU-T-NewArch_svn_web_changes\App\SNMP\AgilisSNMPLLRCUCmds.c
Agilissnmpll_getRCUTxMode   0x01a444    program     extern C:\pavan\1+1RCUTx\1-1-RCU-T-NewArch_svn_web_changes\App\SNMP\AgilisSNMPLLRCUCmds.c
Agilissnmpll_getRCUTxState   0x01a454    program     extern C:\pavan\1+1RCUTx\1-1-RCU-T-NewArch_svn_web_changes\App\SNMP\AgilisSNMPLLRCUCmds.c
Agilissnmpll_getRCUTxSwitch   0x01a450    program     extern C:\pavan\1+1RCUTx\1-1-RCU-T-NewArch_svn_web_changes\App\SNMP\AgilisSNMPLLRCUCmds.c
Agilissnmpll_getRCU_ALARM_status   0x01a46c    program     extern C:\pavan\1+1RCUTx\1-1-RCU-T-NewArch_svn_web_changes\App\SNMP\AgilisSNMPLLRCUCmds.c
Agilissnmpll_getRCUopMode   0x01a438    program     extern C:\pavan\1+1RCUTx\1-1-RCU-T-NewArch_svn_web_changes\App\SNMP\AgilisSNMPLLRCUCmds.c
Agilissnmpll_get_BUC_ALARM_status   0x01a528    program     extern C:\pavan\1+1RCUTx\1-1-RCU-T-NewArch_svn_web_changes\App\SNMP\AgilisSNMPLLRCUCmds.c
Agilissnmpll_get_RCU_ALARM_status   0x01a4ee    program     extern C:\pavan\1+1RCUTx\1-1-RCU-T-NewArch_svn_web_changes\App\SNMP\AgilisSNMPLLRCUCmds.c
  Agilissnmpll_setBUCAttn   0x01b98a    program     extern C:\pavan\1+1RCUTx\1-1-RCU-T-NewArch_svn_web_changes\App\SNMP\AgilisSNMPLLBUCOp.c
Agilissnmpll_setRCUTxMode   0x01a462    program     extern C:\pavan\1+1RCUTx\1-1-RCU-T-NewArch_svn_web_changes\App\SNMP\AgilisSNMPLLRCUCmds.c
Agilissnmpll_setRCUTxSwitch   0x01a458    program     extern C:\pavan\1+1RCUTx\1-1-RCU-T-NewArch_svn_web_changes\App\SNMP\AgilisSNMPLLRCUCmds.c
      BUCClientDecodeResp   0x00c0a0    program     extern C:\pavan\1+1RCUTx\1-1-RCU-T-NewArch_svn_web_changes\AgilisDevices\BUCClient.c
            BUCClientInit   0x00caa8    program     extern C:\pavan\1+1RCUTx\1-1-RCU-T-NewArch_svn_web_changes\AgilisDevices\BUCClient.c
BUCClientIsBUCServerConnected   0x00cf26    program     extern C:\pavan\1+1RCUTx\1-1-RCU-T-NewArch_svn_web_changes\AgilisDevices\BUCClient.c
            BUCClientPoll   0x00becc    program     extern C:\pavan\1+1RCUTx\1-1-RCU-T-NewArch_svn_web_changes\AgilisDevices\BUCClient.c
 BUCClientResetServerInfo   0x00c93a    program     extern C:\pavan\1+1RCUTx\1-1-RCU-T-NewArch_svn_web_changes\AgilisDevices\BUCClient.c
        BUCClientSendData   0x00cb84    program     extern C:\pavan\1+1RCUTx\1-1-RCU-T-NewArch_svn_web_changes\AgilisDevices\BUCClient.c
      BUCClientSetBUCAttn   0x00ce10    program     extern C:\pavan\1+1RCUTx\1-1-RCU-T-NewArch_svn_web_changes\AgilisDevices\BUCClient.c
   BUCClientSetBUCRFOnOff   0x00cd24    program     extern C:\pavan\1+1RCUTx\1-1-RCU-T-NewArch_svn_web_changes\AgilisDevices\BUCClient.c
             Base64Decode   0x011a16    program     extern C:\pavan\1+1RCUTx\1-1-RCU-T-NewArch_svn_web_changes\Microchip\TCPIP Stack\Helpers.c
                BusyUSART   0x01cb3a    program     extern C:\pavan\1+1RCUTx\1-1-RCU-T-NewArch_svn_web_changes\Microchip\TCPIP Stack\UART.c
               BusyUSART2   0x01cb92    program     extern C:\pavan\1+1RCUTx\1-1-RCU-T-NewArch_svn_web_changes\Microchip\TCPIP Stack\UART.c
     CalcIPBufferChecksum   0x013540    program     extern C:\pavan\1+1RCUTx\1-1-RCU-T-NewArch_svn_web_changes\Microchip\TCPIP Stack\ETH97J60.c
           CalcIPChecksum   0x011e4e    program     extern C:\pavan\1+1RCUTx\1-1-RCU-T-NewArch_svn_web_changes\Microchip\TCPIP Stack\Helpers.c
                 CloseADC   0x01d208    program     extern C:\MCC18\src\pmc_common\ADC\adcclose.c
              CloseSocket   0x001f90    program     static C:\pavan\1+1RCUTx\1-1-RCU-T-NewArch_svn_web_changes\Microchip\TCPIP Stack\TCP.c
               CloseUSART   0x01cb46    program     extern C:\pavan\1+1RCUTx\1-1-RCU-T-NewArch_svn_web_changes\Microchip\TCPIP Stack\UART.c
              CloseUSART2   0x01cb9e    program     extern C:\pavan\1+1RCUTx\1-1-RCU-T-NewArch_svn_web_changes\Microchip\TCPIP Stack\UART.c
             Comm0Mode232   0x00f4c6    program     extern C:\pavan\1+1RCUTx\1-1-RCU-T-NewArch_svn_web_changes\Drivers\UARTISR.c
             Comm0Mode422   0x00f4e6    program     extern C:\pavan\1+1RCUTx\1-1-RCU-T-NewArch_svn_web_changes\Drivers\UARTISR.c
           Comm0Mode485Rx   0x00f4da    program     extern C:\pavan\1+1RCUTx\1-1-RCU-T-NewArch_svn_web_changes\Drivers\UARTISR.c
           Comm0Mode485Tx   0x00f4ce    program     extern C:\pavan\1+1RCUTx\1-1-RCU-T-NewArch_svn_web_changes\Drivers\UARTISR.c
             Comm1Mode232   0x00f50a    program     extern C:\pavan\1+1RCUTx\1-1-RCU-T-NewArch_svn_web_changes\Drivers\UARTISR.c
           Comm1Mode422Rx   0x00f4f2    program     extern C:\pavan\1+1RCUTx\1-1-RCU-T-NewArch_svn_web_changes\Drivers\UARTISR.c
           Comm1Mode422Tx   0x00f4fc    program     extern C:\pavan\1+1RCUTx\1-1-RCU-T-NewArch_svn_web_changes\Drivers\UARTISR.c
           Comm1Mode485Rx   0x00f526    program     extern C:\pavan\1+1RCUTx\1-1-RCU-T-NewArch_svn_web_changes\Drivers\UARTISR.c
           Comm1Mode485Tx   0x00f518    program     extern C:\pavan\1+1RCUTx\1-1-RCU-T-NewArch_svn_web_changes\Drivers\UARTISR.c
             Comm2Mode232   0x00f54c    program     extern C:\pavan\1+1RCUTx\1-1-RCU-T-NewArch_svn_web_changes\Drivers\UARTISR.c
           Comm2Mode485Rx   0x00f568    program     extern C:\pavan\1+1RCUTx\1-1-RCU-T-NewArch_svn_web_changes\Drivers\UARTISR.c
           Comm2Mode485Tx   0x00f550    program     extern C:\pavan\1+1RCUTx\1-1-RCU-T-NewArch_svn_web_changes\Drivers\UARTISR.c
             Comm3Mode232   0x00f534    program     extern C:\pavan\1+1RCUTx\1-1-RCU-T-NewArch_svn_web_changes\Drivers\UARTISR.c
           Comm3Mode485Rx   0x00f544    program     extern C:\pavan\1+1RCUTx\1-1-RCU-T-NewArch_svn_web_changes\Drivers\UARTISR.c
           Comm3Mode485Tx   0x00f53c    program     extern C:\pavan\1+1RCUTx\1-1-RCU-T-NewArch_svn_web_changes\Drivers\UARTISR.c
             Comm4Mode232   0x00f56e    program     extern C:\pavan\1+1RCUTx\1-1-RCU-T-NewArch_svn_web_changes\Drivers\UARTISR.c
           Comm4Mode485Rx   0x00f57e    program     extern C:\pavan\1+1RCUTx\1-1-RCU-T-NewArch_svn_web_changes\Drivers\UARTISR.c
           Comm4Mode485Tx   0x00f576    program     extern C:\pavan\1+1RCUTx\1-1-RCU-T-NewArch_svn_web_changes\Drivers\UARTISR.c
     ConfigureUartChannel   0x018c3c    program     extern C:\pavan\1+1RCUTx\1-1-RCU-T-NewArch_svn_web_changes\Drivers\External-Peripherals\AgilisDualUART.c
                    D10_1   0x01d1e0    program     static C:\Program Files\mcc18\src\traditional\delays\d10tcyx.asm
                     D10x   0x01d1d8    program     static C:\Program Files\mcc18\src\traditional\delays\d10tcyx.asm
                    D1K_1   0x01d186    program     static C:\Program Files\mcc18\src\traditional\delays\d1ktcyx.asm
                     D1Kx   0x01d184    program     static C:\Program Files\mcc18\src\traditional\delays\d1ktcyx.asm
              DHCPDisable   0x01512e    program     extern C:\pavan\1+1RCUTx\1-1-RCU-T-NewArch_svn_web_changes\Microchip\TCPIP Stack\DHCP.c
               DHCPEnable   0x01513e    program     extern C:\pavan\1+1RCUTx\1-1-RCU-T-NewArch_svn_web_changes\Microchip\TCPIP Stack\DHCP.c
                 DHCPInit   0x0150f8    program     extern C:\pavan\1+1RCUTx\1-1-RCU-T-NewArch_svn_web_changes\Microchip\TCPIP Stack\DHCP.c
              DHCPIsBound   0x015156    program     extern C:\pavan\1+1RCUTx\1-1-RCU-T-NewArch_svn_web_changes\Microchip\TCPIP Stack\DHCP.c
            DHCPIsEnabled   0x01514a    program     extern C:\pavan\1+1RCUTx\1-1-RCU-T-NewArch_svn_web_changes\Microchip\TCPIP Stack\DHCP.c
     DHCPIsServerDetected   0x01516e    program     extern C:\pavan\1+1RCUTx\1-1-RCU-T-NewArch_svn_web_changes\Microchip\TCPIP Stack\DHCP.c
         DHCPStateChanged   0x01515e    program     extern C:\pavan\1+1RCUTx\1-1-RCU-T-NewArch_svn_web_changes\Microchip\TCPIP Stack\DHCP.c
                 DHCPTask   0x01517a    program     extern C:\pavan\1+1RCUTx\1-1-RCU-T-NewArch_svn_web_changes\Microchip\TCPIP Stack\DHCP.c
             DataRdyUSART   0x01cb52    program     extern C:\pavan\1+1RCUTx\1-1-RCU-T-NewArch_svn_web_changes\Microchip\TCPIP Stack\UART.c
            DataRdyUSART2   0x01cbaa    program     extern C:\pavan\1+1RCUTx\1-1-RCU-T-NewArch_svn_web_changes\Microchip\TCPIP Stack\UART.c
              Delay10TCYx   0x01d1d0    program     extern C:\Program Files\mcc18\src\traditional\delays\d10tcyx.asm
              Delay1KTCYx   0x01d17a    program     extern C:\Program Files\mcc18\src\traditional\delays\d1ktcyx.asm
                DelayKill   0x01b7da    program     extern C:\pavan\1+1RCUTx\1-1-RCU-T-NewArch_svn_web_changes\Agilis-SysLib\task.c
                  DelayMS   0x0169be    program     extern C:\pavan\1+1RCUTx\1-1-RCU-T-NewArch_svn_web_changes\Agilis-SysLib\util.c
           DisplayIPValue   0x016d98    program     extern C:\pavan\1+1RCUTx\1-1-RCU-T-NewArch_svn_web_changes\Agilis-SysLib\util.c
                  DoWrite   0x01b226    program     static C:\pavan\1+1RCUTx\1-1-RCU-T-NewArch_svn_web_changes\Microchip\TCPIP Stack\SPIEEPROM.c
                 FLO0832S   0x017764    program     extern C:\Program Files\mcc18\src\traditional\math\cast08FP.asm
                 FLO0832U   0x017760    program     extern C:\Program Files\mcc18\src\traditional\math\cast08FP.asm
                 FLO1632S   0x017786    program     extern C:\Program Files\mcc18\src\traditional\math\cast16FP.asm
                 FLO1632U   0x017782    program     extern C:\Program Files\mcc18\src\traditional\math\cast16FP.asm
                    FPA32   0x0177ae    program     extern C:\Program Files\mcc18\src\traditional\math\addFP.asm
                    FPD32   0x0178da    program     extern C:\Program Files\mcc18\src\traditional\math\divFP.asm
                    FPM32   0x017980    program     extern C:\Program Files\mcc18\src\traditional\math\mulFP.asm
                    FPS32   0x0177ac    program     extern C:\Program Files\mcc18\src\traditional\math\addFP.asm
                 FXD1616U   0x01d10a    program     extern C:\Program Files\mcc18\src\traditional\math\fxd1616u.c
                 FXD3232U   0x01d0c2    program     extern C:\Program Files\mcc18\src\traditional\math\fxd3232u.c
                 FXM1616U   0x017a5a    program     extern C:\Program Files\mcc18\src\traditional\math\fxm1616u.asm
                 FXM2424U   0x017a96    program     extern C:\Program Files\mcc18\src\traditional\math\fxm2424u.asm
                  FXM3232   0x01cfe4    program     extern C:\Program Files\mcc18\src\traditional\math\fxm3232.c
       FindMatchingSocket   0x001c76    program     static C:\pavan\1+1RCUTx\1-1-RCU-T-NewArch_svn_web_changes\Microchip\TCPIP Stack\TCP.c
       FindMatchingSocket   0x012bd8    program     static C:\pavan\1+1RCUTx\1-1-RCU-T-NewArch_svn_web_changes\Microchip\TCPIP Stack\UDP.c
        FindOIDsInRequest   0x006034    program     static C:\pavan\1+1RCUTx\1-1-RCU-T-NewArch_svn_web_changes\Microchip\TCPIP Stack\SNMP.c
        FormatNetBIOSName   0x011ffa    program     extern C:\pavan\1+1RCUTx\1-1-RCU-T-NewArch_svn_web_changes\Microchip\TCPIP Stack\Helpers.c
      GenerateRandomDWORD   0x011542    program     extern C:\pavan\1+1RCUTx\1-1-RCU-T-NewArch_svn_web_changes\Microchip\TCPIP Stack\Helpers.c
   GetCurrentFromHexValue   0x01bdf6    program     extern C:\pavan\1+1RCUTx\1-1-RCU-T-NewArch_svn_web_changes\Drivers\External-Peripherals\devadc.c
          GetDataTypeInfo   0x0041b0    program     extern C:\pavan\1+1RCUTx\1-1-RCU-T-NewArch_svn_web_changes\Microchip\TCPIP Stack\SNMP.c
              GetNextLeaf   0x005d42    program     extern C:\pavan\1+1RCUTx\1-1-RCU-T-NewArch_svn_web_changes\Microchip\TCPIP Stack\SNMP.c
       GetOIDStringByAddr   0x004b32    program     extern C:\pavan\1+1RCUTx\1-1-RCU-T-NewArch_svn_web_changes\Microchip\TCPIP Stack\SNMP.c
         GetOIDStringByID   0x004a66    program     extern C:\pavan\1+1RCUTx\1-1-RCU-T-NewArch_svn_web_changes\Microchip\TCPIP Stack\SNMP.c
                GetOneADC   0x01bcfa    program     extern C:\pavan\1+1RCUTx\1-1-RCU-T-NewArch_svn_web_changes\Drivers\MCU-Internal\internalADC.c
             GetOneCHADC0   0x01bd50    program     extern C:\pavan\1+1RCUTx\1-1-RCU-T-NewArch_svn_web_changes\Drivers\External-Peripherals\devadc.c
       GetOneCHADC012Bits   0x01bd86    program     extern C:\pavan\1+1RCUTx\1-1-RCU-T-NewArch_svn_web_changes\Drivers\External-Peripherals\devadc.c
             GetOneCHADC1   0x01bda4    program     extern C:\pavan\1+1RCUTx\1-1-RCU-T-NewArch_svn_web_changes\Drivers\External-Peripherals\devadc.c
       GetOneCHADC112Bits   0x01bdda    program     extern C:\pavan\1+1RCUTx\1-1-RCU-T-NewArch_svn_web_changes\Drivers\External-Peripherals\devadc.c
              GetTickCopy   0x01ca28    program     static C:\pavan\1+1RCUTx\1-1-RCU-T-NewArch_svn_web_changes\Microchip\TCPIP Stack\Tick.c
                HEXto2ASC   0x016976    program     extern C:\pavan\1+1RCUTx\1-1-RCU-T-NewArch_svn_web_changes\Agilis-SysLib\util.c
            HTTPCheckAuth   0x015988    program     extern C:\pavan\1+1RCUTx\1-1-RCU-T-NewArch_svn_web_changes\App\WebUI\AgilisHTTPApp.c
   HTTPExe_get_deviceinfo   0x016140    program     extern C:\pavan\1+1RCUTx\1-1-RCU-T-NewArch_svn_web_changes\App\WebUI\AgilisHTTPGetDevInfo.c
           HTTPExecuteGet   0x0159d0    program     extern C:\pavan\1+1RCUTx\1-1-RCU-T-NewArch_svn_web_changes\App\WebUI\AgilisHTTPApp.c
          HTTPExecutePost   0x0159d4    program     extern C:\pavan\1+1RCUTx\1-1-RCU-T-NewArch_svn_web_changes\App\WebUI\AgilisHTTPApp.c
               HTTPGetArg   0x009096    program     extern C:\pavan\1+1RCUTx\1-1-RCU-T-NewArch_svn_web_changes\Microchip\TCPIP Stack\HTTP2.c
            HTTPGetROMArg   0x0090dc    program     extern C:\pavan\1+1RCUTx\1-1-RCU-T-NewArch_svn_web_changes\Microchip\TCPIP Stack\HTTP2.c
HTTPHeaderParseAuthorization   0x008da8    program     static C:\pavan\1+1RCUTx\1-1-RCU-T-NewArch_svn_web_changes\Microchip\TCPIP Stack\HTTP2.c
HTTPHeaderParseContentLength   0x008ed4    program     static C:\pavan\1+1RCUTx\1-1-RCU-T-NewArch_svn_web_changes\Microchip\TCPIP Stack\HTTP2.c
    HTTPHeaderParseLookup   0x008d8c    program     static C:\pavan\1+1RCUTx\1-1-RCU-T-NewArch_svn_web_changes\Microchip\TCPIP Stack\HTTP2.c
              HTTPIncFile   0x00959a    program     extern C:\pavan\1+1RCUTx\1-1-RCU-T-NewArch_svn_web_changes\Microchip\TCPIP Stack\HTTP2.c
                 HTTPInit   0x008176    program     extern C:\pavan\1+1RCUTx\1-1-RCU-T-NewArch_svn_web_changes\Microchip\TCPIP Stack\HTTP2.c
             HTTPLoadConn   0x00825a    program     static C:\pavan\1+1RCUTx\1-1-RCU-T-NewArch_svn_web_changes\Microchip\TCPIP Stack\HTTP2.c
           HTTPMPFSUpload   0x00936a    program     static C:\pavan\1+1RCUTx\1-1-RCU-T-NewArch_svn_web_changes\Microchip\TCPIP Stack\HTTP2.c
            HTTPNeedsAuth   0x015942    program     extern C:\pavan\1+1RCUTx\1-1-RCU-T-NewArch_svn_web_changes\App\WebUI\AgilisHTTPApp.c
           HTTPPostConfig   0x015b0e    program     static C:\pavan\1+1RCUTx\1-1-RCU-T-NewArch_svn_web_changes\App\WebUI\AgilisHTTPApp.c
    HTTPPostSNMPCommunity   0x015f1e    program     static C:\pavan\1+1RCUTx\1-1-RCU-T-NewArch_svn_web_changes\App\WebUI\AgilisHTTPApp.c
              HTTPPostlut   0x015a72    program     static C:\pavan\1+1RCUTx\1-1-RCU-T-NewArch_svn_web_changes\App\WebUI\AgilisHTTPApp.c
                HTTPPrint   0x0078fa    program     extern C:\pavan\1+1RCUTx\1-1-RCU-T-NewArch_svn_web_changes\Microchip\Include\TCPIP Stack\HTTPPrint.h
              HTTPPrintIP   0x00f77c    program     extern C:\pavan\1+1RCUTx\1-1-RCU-T-NewArch_svn_web_changes\App\WebUI\AgilisHTTPPrint.c
               HTTPPrint_   0x008164    program     extern C:\pavan\1+1RCUTx\1-1-RCU-T-NewArch_svn_web_changes\Microchip\Include\TCPIP Stack\HTTPPrint.h
             HTTPPrint_ID   0x00f70a    program     extern C:\pavan\1+1RCUTx\1-1-RCU-T-NewArch_svn_web_changes\App\WebUI\AgilisHTTPPrint.c
            HTTPPrint_MIP   0x00f7da    program     extern C:\pavan\1+1RCUTx\1-1-RCU-T-NewArch_svn_web_changes\App\WebUI\AgilisHTTPPrint.c
     HTTPPrint_OCXO1alarm   0x00ff1e    program     extern C:\pavan\1+1RCUTx\1-1-RCU-T-NewArch_svn_web_changes\App\WebUI\AgilisHTTPPrint.c
     HTTPPrint_OCXO2alarm   0x00ff48    program     extern C:\pavan\1+1RCUTx\1-1-RCU-T-NewArch_svn_web_changes\App\WebUI\AgilisHTTPPrint.c
           HTTPPrint_Oend   0x010204    program     extern C:\pavan\1+1RCUTx\1-1-RCU-T-NewArch_svn_web_changes\App\WebUI\AgilisHTTPPrint.c
         HTTPPrint_Ostart   0x010202    program     extern C:\pavan\1+1RCUTx\1-1-RCU-T-NewArch_svn_web_changes\App\WebUI\AgilisHTTPPrint.c
       HTTPPrint_PS1alarm   0x00feca    program     extern C:\pavan\1+1RCUTx\1-1-RCU-T-NewArch_svn_web_changes\App\WebUI\AgilisHTTPPrint.c
       HTTPPrint_PS2alarm   0x00fef4    program     extern C:\pavan\1+1RCUTx\1-1-RCU-T-NewArch_svn_web_changes\App\WebUI\AgilisHTTPPrint.c
       HTTPPrint_RCUModel   0x00f740    program     extern C:\pavan\1+1RCUTx\1-1-RCU-T-NewArch_svn_web_changes\App\WebUI\AgilisHTTPPrint.c
      HTTPPrint_RCUSerial   0x00f74a    program     extern C:\pavan\1+1RCUTx\1-1-RCU-T-NewArch_svn_web_changes\App\WebUI\AgilisHTTPPrint.c
       HTTPPrint_RCUfwver   0x00f83e    program     extern C:\pavan\1+1RCUTx\1-1-RCU-T-NewArch_svn_web_changes\App\WebUI\AgilisHTTPPrint.c
      HTTPPrint_buc1Atten   0x00fad0    program     extern C:\pavan\1+1RCUTx\1-1-RCU-T-NewArch_svn_web_changes\App\WebUI\AgilisHTTPPrint.c
   HTTPPrint_buc1Comalarm   0x00ff72    program     extern C:\pavan\1+1RCUTx\1-1-RCU-T-NewArch_svn_web_changes\App\WebUI\AgilisHTTPPrint.c
      HTTPPrint_buc1Model   0x00f8c6    program     extern C:\pavan\1+1RCUTx\1-1-RCU-T-NewArch_svn_web_changes\App\WebUI\AgilisHTTPPrint.c
   HTTPPrint_buc1Outpower   0x00f9de    program     extern C:\pavan\1+1RCUTx\1-1-RCU-T-NewArch_svn_web_changes\App\WebUI\AgilisHTTPPrint.c
     HTTPPrint_buc1Serial   0x00f8d0    program     extern C:\pavan\1+1RCUTx\1-1-RCU-T-NewArch_svn_web_changes\App\WebUI\AgilisHTTPPrint.c
      HTTPPrint_buc1fwver   0x00f8da    program     extern C:\pavan\1+1RCUTx\1-1-RCU-T-NewArch_svn_web_changes\App\WebUI\AgilisHTTPPrint.c
         HTTPPrint_buc1id   0x00f88a    program     extern C:\pavan\1+1RCUTx\1-1-RCU-T-NewArch_svn_web_changes\App\WebUI\AgilisHTTPPrint.c
 HTTPPrint_buc1rfSelected   0x00fd40    program     extern C:\pavan\1+1RCUTx\1-1-RCU-T-NewArch_svn_web_changes\App\WebUI\AgilisHTTPPrint.c
       HTTPPrint_buc1rfop   0x00fb0a    program     extern C:\pavan\1+1RCUTx\1-1-RCU-T-NewArch_svn_web_changes\App\WebUI\AgilisHTTPPrint.c
       HTTPPrint_buc1temp   0x00fb62    program     extern C:\pavan\1+1RCUTx\1-1-RCU-T-NewArch_svn_web_changes\App\WebUI\AgilisHTTPPrint.c
      HTTPPrint_buc2Atten   0x00fc38    program     extern C:\pavan\1+1RCUTx\1-1-RCU-T-NewArch_svn_web_changes\App\WebUI\AgilisHTTPPrint.c
   HTTPPrint_buc2Comalarm   0x00ff9e    program     extern C:\pavan\1+1RCUTx\1-1-RCU-T-NewArch_svn_web_changes\App\WebUI\AgilisHTTPPrint.c
      HTTPPrint_buc2Model   0x00f938    program     extern C:\pavan\1+1RCUTx\1-1-RCU-T-NewArch_svn_web_changes\App\WebUI\AgilisHTTPPrint.c
   HTTPPrint_buc2Outpower   0x00fbbe    program     extern C:\pavan\1+1RCUTx\1-1-RCU-T-NewArch_svn_web_changes\App\WebUI\AgilisHTTPPrint.c
     HTTPPrint_buc2Serial   0x00f942    program     extern C:\pavan\1+1RCUTx\1-1-RCU-T-NewArch_svn_web_changes\App\WebUI\AgilisHTTPPrint.c
      HTTPPrint_buc2fwver   0x00f94c    program     extern C:\pavan\1+1RCUTx\1-1-RCU-T-NewArch_svn_web_changes\App\WebUI\AgilisHTTPPrint.c
         HTTPPrint_buc2id   0x00f8fc    program     extern C:\pavan\1+1RCUTx\1-1-RCU-T-NewArch_svn_web_changes\App\WebUI\AgilisHTTPPrint.c
 HTTPPrint_buc2rfSelected   0x00fd5a    program     extern C:\pavan\1+1RCUTx\1-1-RCU-T-NewArch_svn_web_changes\App\WebUI\AgilisHTTPPrint.c
       HTTPPrint_buc2rfop   0x00fb36    program     extern C:\pavan\1+1RCUTx\1-1-RCU-T-NewArch_svn_web_changes\App\WebUI\AgilisHTTPPrint.c
       HTTPPrint_buc2temp   0x00fc6e    program     extern C:\pavan\1+1RCUTx\1-1-RCU-T-NewArch_svn_web_changes\App\WebUI\AgilisHTTPPrint.c
        HTTPPrint_comMode   0x00f860    program     extern C:\pavan\1+1RCUTx\1-1-RCU-T-NewArch_svn_web_changes\App\WebUI\AgilisHTTPPrint.c
HTTPPrint_comModeSelected   0x00fcc6    program     extern C:\pavan\1+1RCUTx\1-1-RCU-T-NewArch_svn_web_changes\App\WebUI\AgilisHTTPPrint.c
HTTPPrint_config_dhcpchecked   0x00fce2    program     extern C:\pavan\1+1RCUTx\1-1-RCU-T-NewArch_svn_web_changes\App\WebUI\AgilisHTTPPrint.c
      HTTPPrint_config_gw   0x00f82a    program     extern C:\pavan\1+1RCUTx\1-1-RCU-T-NewArch_svn_web_changes\App\WebUI\AgilisHTTPPrint.c
      HTTPPrint_config_ip   0x00f80e    program     extern C:\pavan\1+1RCUTx\1-1-RCU-T-NewArch_svn_web_changes\App\WebUI\AgilisHTTPPrint.c
     HTTPPrint_config_mac   0x010208    program     extern C:\pavan\1+1RCUTx\1-1-RCU-T-NewArch_svn_web_changes\App\WebUI\AgilisHTTPPrint.c
  HTTPPrint_config_subnet   0x00f816    program     extern C:\pavan\1+1RCUTx\1-1-RCU-T-NewArch_svn_web_changes\App\WebUI\AgilisHTTPPrint.c
          HTTPPrint_ctemp   0x010206    program     extern C:\pavan\1+1RCUTx\1-1-RCU-T-NewArch_svn_web_changes\App\WebUI\AgilisHTTPPrint.c
    HTTPPrint_dhcp_status   0x00f754    program     extern C:\pavan\1+1RCUTx\1-1-RCU-T-NewArch_svn_web_changes\App\WebUI\AgilisHTTPPrint.c
            HTTPPrint_led   0x00ffca    program     extern C:\pavan\1+1RCUTx\1-1-RCU-T-NewArch_svn_web_changes\App\WebUI\AgilisHTTPPrint.c
            HTTPPrint_maf   0x0101d2    program     extern C:\pavan\1+1RCUTx\1-1-RCU-T-NewArch_svn_web_changes\App\WebUI\AgilisHTTPPrint.c
            HTTPPrint_mas   0x0101ea    program     extern C:\pavan\1+1RCUTx\1-1-RCU-T-NewArch_svn_web_changes\App\WebUI\AgilisHTTPPrint.c
        HTTPPrint_maxattn   0x00fa5a    program     extern C:\pavan\1+1RCUTx\1-1-RCU-T-NewArch_svn_web_changes\App\WebUI\AgilisHTTPPrint.c
            HTTPPrint_ned   0x0100ce    program     extern C:\pavan\1+1RCUTx\1-1-RCU-T-NewArch_svn_web_changes\App\WebUI\AgilisHTTPPrint.c
     HTTPPrint_pathAalarm   0x00fe60    program     extern C:\pavan\1+1RCUTx\1-1-RCU-T-NewArch_svn_web_changes\App\WebUI\AgilisHTTPPrint.c
     HTTPPrint_pathBalarm   0x00fea0    program     extern C:\pavan\1+1RCUTx\1-1-RCU-T-NewArch_svn_web_changes\App\WebUI\AgilisHTTPPrint.c
   HTTPPrint_pathSelected   0x00fd24    program     extern C:\pavan\1+1RCUTx\1-1-RCU-T-NewArch_svn_web_changes\App\WebUI\AgilisHTTPPrint.c
     HTTPPrint_pathselect   0x00f96e    program     extern C:\pavan\1+1RCUTx\1-1-RCU-T-NewArch_svn_web_changes\App\WebUI\AgilisHTTPPrint.c
      HTTPPrint_read_comm   0x010264    program     extern C:\pavan\1+1RCUTx\1-1-RCU-T-NewArch_svn_web_changes\App\WebUI\AgilisHTTPPrint.c
        HTTPPrint_setpass   0x00fdb8    program     extern C:\pavan\1+1RCUTx\1-1-RCU-T-NewArch_svn_web_changes\App\WebUI\AgilisHTTPPrint.c
   HTTPPrint_setpasscolor   0x00fd74    program     extern C:\pavan\1+1RCUTx\1-1-RCU-T-NewArch_svn_web_changes\App\WebUI\AgilisHTTPPrint.c
      HTTPPrint_static_ip   0x00f7ee    program     extern C:\pavan\1+1RCUTx\1-1-RCU-T-NewArch_svn_web_changes\App\WebUI\AgilisHTTPPrint.c
         HTTPPrint_swmode   0x00f99a    program     extern C:\pavan\1+1RCUTx\1-1-RCU-T-NewArch_svn_web_changes\App\WebUI\AgilisHTTPPrint.c
 HTTPPrint_swmodeSelected   0x00fd08    program     extern C:\pavan\1+1RCUTx\1-1-RCU-T-NewArch_svn_web_changes\App\WebUI\AgilisHTTPPrint.c
     HTTPPrint_write_comm   0x010276    program     extern C:\pavan\1+1RCUTx\1-1-RCU-T-NewArch_svn_web_changes\App\WebUI\AgilisHTTPPrint.c
              HTTPProcess   0x0082a2    program     static C:\pavan\1+1RCUTx\1-1-RCU-T-NewArch_svn_web_changes\Microchip\TCPIP Stack\HTTP2.c
         HTTPReadPostName   0x00913e    program     extern C:\pavan\1+1RCUTx\1-1-RCU-T-NewArch_svn_web_changes\Microchip\TCPIP Stack\HTTP2.c
        HTTPReadPostValue   0x00916e    program     extern C:\pavan\1+1RCUTx\1-1-RCU-T-NewArch_svn_web_changes\Microchip\TCPIP Stack\HTTP2.c
               HTTPReadTo   0x0091de    program     static C:\pavan\1+1RCUTx\1-1-RCU-T-NewArch_svn_web_changes\Microchip\TCPIP Stack\HTTP2.c
       HTTPRequestHeaders   0x01cfdb    program     static C:\pavan\1+1RCUTx\1-1-RCU-T-NewArch_svn_web_changes\Microchip\TCPIP Stack\HTTP2.c
      HTTPResponseHeaders   0x01cfb1    program     static C:\pavan\1+1RCUTx\1-1-RCU-T-NewArch_svn_web_changes\Microchip\TCPIP Stack\HTTP2.c
             HTTPSendFile   0x008c14    program     static C:\pavan\1+1RCUTx\1-1-RCU-T-NewArch_svn_web_changes\Microchip\TCPIP Stack\HTTP2.c
               HTTPServer   0x0081d8    program     extern C:\pavan\1+1RCUTx\1-1-RCU-T-NewArch_svn_web_changes\Microchip\TCPIP Stack\HTTP2.c
            HTTPURLDecode   0x008f5c    program     extern C:\pavan\1+1RCUTx\1-1-RCU-T-NewArch_svn_web_changes\Microchip\TCPIP Stack\HTTP2.c
                HTTP_CRLF   0x01cf66    program     static C:\pavan\1+1RCUTx\1-1-RCU-T-NewArch_svn_web_changes\Microchip\TCPIP Stack\HTTP2.c
             HandleTCPSeg   0x00200e    program     static C:\pavan\1+1RCUTx\1-1-RCU-T-NewArch_svn_web_changes\Microchip\TCPIP Stack\TCP.c
                  Hex2Int   0x0169f4    program     extern C:\pavan\1+1RCUTx\1-1-RCU-T-NewArch_svn_web_changes\Agilis-SysLib\util.c
                  HighISR   0x01bff8    program     extern C:\pavan\1+1RCUTx\1-1-RCU-T-NewArch_svn_web_changes\Drivers\MCU-Internal\ISR.c
               HighVector   0x000008    program     extern C:\pavan\1+1RCUTx\1-1-RCU-T-NewArch_svn_web_changes\Drivers\MCU-Internal\ISR.c
              HitWatchDog   0x01c5b8    program     extern C:\pavan\1+1RCUTx\1-1-RCU-T-NewArch_svn_web_changes\Main\Main.c
              ICMPProcess   0x01c8ce    program     extern C:\pavan\1+1RCUTx\1-1-RCU-T-NewArch_svn_web_changes\Microchip\TCPIP Stack\ICMP.c
                  INT3208   0x017b28    program     extern C:\Program Files\mcc18\src\traditional\math\castFP08.asm
                  INT3232   0x017b76    program     extern C:\Program Files\mcc18\src\traditional\math\castFP32.asm
              IPGetHeader   0x01ad6c    program     extern C:\pavan\1+1RCUTx\1-1-RCU-T-NewArch_svn_web_changes\Microchip\TCPIP Stack\IP.c
              IPPutHeader   0x01aea8    program     extern C:\pavan\1+1RCUTx\1-1-RCU-T-NewArch_svn_web_changes\Microchip\TCPIP Stack\IP.c
            IPSetRxBuffer   0x01afae    program     extern C:\pavan\1+1RCUTx\1-1-RCU-T-NewArch_svn_web_changes\Microchip\TCPIP Stack\IP.c
            InitAppConfig   0x018612    program     extern C:\pavan\1+1RCUTx\1-1-RCU-T-NewArch_svn_web_changes\Bootstrap\Initialization.c
                 InitData   0x0183b6    program     extern C:\pavan\1+1RCUTx\1-1-RCU-T-NewArch_svn_web_changes\Bootstrap\Initialization.c
                InitFifo0   0x00eb2c    program     extern C:\pavan\1+1RCUTx\1-1-RCU-T-NewArch_svn_web_changes\Drivers\UARTISR.c
                InitFifo1   0x00eb62    program     extern C:\pavan\1+1RCUTx\1-1-RCU-T-NewArch_svn_web_changes\Drivers\UARTISR.c
                InitFifo2   0x00eb98    program     extern C:\pavan\1+1RCUTx\1-1-RCU-T-NewArch_svn_web_changes\Drivers\UARTISR.c
                InitFifo3   0x00ebce    program     extern C:\pavan\1+1RCUTx\1-1-RCU-T-NewArch_svn_web_changes\Drivers\UARTISR.c
                InitFifo4   0x00ec04    program     extern C:\pavan\1+1RCUTx\1-1-RCU-T-NewArch_svn_web_changes\Drivers\UARTISR.c
                 InitTask   0x01b630    program     extern C:\pavan\1+1RCUTx\1-1-RCU-T-NewArch_svn_web_changes\Agilis-SysLib\task.c
       InitialiseDualUart   0x018c9c    program     extern C:\pavan\1+1RCUTx\1-1-RCU-T-NewArch_svn_web_changes\Drivers\External-Peripherals\AgilisDualUART.c
          InitializeBoard   0x0185c6    program     extern C:\pavan\1+1RCUTx\1-1-RCU-T-NewArch_svn_web_changes\Bootstrap\Initialization.c
                  Int2Hex   0x016a44    program     extern C:\pavan\1+1RCUTx\1-1-RCU-T-NewArch_svn_web_changes\Agilis-SysLib\util.c
                IsASNNull   0x004064    program     static C:\pavan\1+1RCUTx\1-1-RCU-T-NewArch_svn_web_changes\Microchip\TCPIP Stack\SNMP.c
         IsValidCommunity   0x003f3a    program     static C:\pavan\1+1RCUTx\1-1-RCU-T-NewArch_svn_web_changes\Microchip\TCPIP Stack\SNMP.c
               IsValidInt   0x003f92    program     extern C:\pavan\1+1RCUTx\1-1-RCU-T-NewArch_svn_web_changes\Microchip\TCPIP Stack\SNMP.c
            IsValidLength   0x003ebc    program     extern C:\pavan\1+1RCUTx\1-1-RCU-T-NewArch_svn_web_changes\Microchip\TCPIP Stack\SNMP.c
               IsValidOID   0x004084    program     static C:\pavan\1+1RCUTx\1-1-RCU-T-NewArch_svn_web_changes\Microchip\TCPIP Stack\SNMP.c
               IsValidPDU   0x004024    program     static C:\pavan\1+1RCUTx\1-1-RCU-T-NewArch_svn_web_changes\Microchip\TCPIP Stack\SNMP.c
         IsValidStructure   0x0040e8    program     extern C:\pavan\1+1RCUTx\1-1-RCU-T-NewArch_svn_web_changes\Microchip\TCPIP Stack\SNMP.c
               ListDelete   0x01ce02    program     extern C:\pavan\1+1RCUTx\1-1-RCU-T-NewArch_svn_web_changes\Agilis-SysLib\list.c
           ListInitialize   0x01cdd6    program     extern C:\pavan\1+1RCUTx\1-1-RCU-T-NewArch_svn_web_changes\Agilis-SysLib\list.c
               ListInsert   0x01cdde    program     extern C:\pavan\1+1RCUTx\1-1-RCU-T-NewArch_svn_web_changes\Agilis-SysLib\list.c
              Load_config   0x016c2e    program     extern C:\pavan\1+1RCUTx\1-1-RCU-T-NewArch_svn_web_changes\Agilis-SysLib\util.c
                   LowISR   0x01bf2e    program     extern C:\pavan\1+1RCUTx\1-1-RCU-T-NewArch_svn_web_changes\Drivers\MCU-Internal\ISR.c
                LowVector   0x000018    program     extern C:\pavan\1+1RCUTx\1-1-RCU-T-NewArch_svn_web_changes\Drivers\MCU-Internal\ISR.c
        MACCalcRxChecksum   0x0134f4    program     extern C:\pavan\1+1RCUTx\1-1-RCU-T-NewArch_svn_web_changes\Microchip\TCPIP Stack\ETH97J60.c
             MACDiscardRx   0x013152    program     extern C:\pavan\1+1RCUTx\1-1-RCU-T-NewArch_svn_web_changes\Microchip\TCPIP Stack\ETH97J60.c
                 MACFlush   0x013488    program     extern C:\pavan\1+1RCUTx\1-1-RCU-T-NewArch_svn_web_changes\Microchip\TCPIP Stack\ETH97J60.c
                   MACGet   0x01380a    program     extern C:\pavan\1+1RCUTx\1-1-RCU-T-NewArch_svn_web_changes\Microchip\TCPIP Stack\ETH97J60.c
              MACGetArray   0x01380e    program     extern C:\pavan\1+1RCUTx\1-1-RCU-T-NewArch_svn_web_changes\Microchip\TCPIP Stack\ETH97J60.c
         MACGetFreeRxSize   0x0131b2    program     extern C:\pavan\1+1RCUTx\1-1-RCU-T-NewArch_svn_web_changes\Microchip\TCPIP Stack\ETH97J60.c
             MACGetHeader   0x01327a    program     extern C:\pavan\1+1RCUTx\1-1-RCU-T-NewArch_svn_web_changes\Microchip\TCPIP Stack\ETH97J60.c
                  MACInit   0x013000    program     extern C:\pavan\1+1RCUTx\1-1-RCU-T-NewArch_svn_web_changes\Microchip\TCPIP Stack\ETH97J60.c
              MACIsLinked   0x013116    program     extern C:\pavan\1+1RCUTx\1-1-RCU-T-NewArch_svn_web_changes\Microchip\TCPIP Stack\ETH97J60.c
         MACIsMemCopyDone   0x0137fe    program     extern C:\pavan\1+1RCUTx\1-1-RCU-T-NewArch_svn_web_changes\Microchip\TCPIP Stack\ETH97J60.c
             MACIsTxReady   0x01312a    program     extern C:\pavan\1+1RCUTx\1-1-RCU-T-NewArch_svn_web_changes\Microchip\TCPIP Stack\ETH97J60.c
          MACMemCopyAsync   0x0136b0    program     extern C:\pavan\1+1RCUTx\1-1-RCU-T-NewArch_svn_web_changes\Microchip\TCPIP Stack\ETH97J60.c
             MACPowerDown   0x0139ee    program     extern C:\pavan\1+1RCUTx\1-1-RCU-T-NewArch_svn_web_changes\Microchip\TCPIP Stack\ETH97J60.c
               MACPowerUp   0x013a00    program     extern C:\pavan\1+1RCUTx\1-1-RCU-T-NewArch_svn_web_changes\Microchip\TCPIP Stack\ETH97J60.c
                   MACPut   0x013868    program     extern C:\pavan\1+1RCUTx\1-1-RCU-T-NewArch_svn_web_changes\Microchip\TCPIP Stack\ETH97J60.c
              MACPutArray   0x01388e    program     extern C:\pavan\1+1RCUTx\1-1-RCU-T-NewArch_svn_web_changes\Microchip\TCPIP Stack\ETH97J60.c
             MACPutHeader   0x013424    program     extern C:\pavan\1+1RCUTx\1-1-RCU-T-NewArch_svn_web_changes\Microchip\TCPIP Stack\ETH97J60.c
           MACPutROMArray   0x0138de    program     extern C:\pavan\1+1RCUTx\1-1-RCU-T-NewArch_svn_web_changes\Microchip\TCPIP Stack\ETH97J60.c
            MACSetReadPtr   0x0134dc    program     extern C:\pavan\1+1RCUTx\1-1-RCU-T-NewArch_svn_web_changes\Microchip\TCPIP Stack\ETH97J60.c
        MACSetReadPtrInRx   0x0134b0    program     extern C:\pavan\1+1RCUTx\1-1-RCU-T-NewArch_svn_web_changes\Microchip\TCPIP Stack\ETH97J60.c
           MACSetWritePtr   0x0134c8    program     extern C:\pavan\1+1RCUTx\1-1-RCU-T-NewArch_svn_web_changes\Microchip\TCPIP Stack\ETH97J60.c
                MPFSClose   0x010976    program     extern C:\pavan\1+1RCUTx\1-1-RCU-T-NewArch_svn_web_changes\Microchip\TCPIP Stack\MPFS2.c
               MPFSFormat   0x010c22    program     extern C:\pavan\1+1RCUTx\1-1-RCU-T-NewArch_svn_web_changes\Microchip\TCPIP Stack\MPFS2.c
                  MPFSGet   0x01098e    program     extern C:\pavan\1+1RCUTx\1-1-RCU-T-NewArch_svn_web_changes\Microchip\TCPIP Stack\MPFS2.c
             MPFSGetArray   0x010a34    program     extern C:\pavan\1+1RCUTx\1-1-RCU-T-NewArch_svn_web_changes\Microchip\TCPIP Stack\MPFS2.c
          MPFSGetBytesRem   0x010e94    program     extern C:\pavan\1+1RCUTx\1-1-RCU-T-NewArch_svn_web_changes\Microchip\TCPIP Stack\MPFS2.c
           MPFSGetEndAddr   0x010efa    program     extern C:\pavan\1+1RCUTx\1-1-RCU-T-NewArch_svn_web_changes\Microchip\TCPIP Stack\MPFS2.c
          MPFSGetFilename   0x010f48    program     extern C:\pavan\1+1RCUTx\1-1-RCU-T-NewArch_svn_web_changes\Microchip\TCPIP Stack\MPFS2.c
             MPFSGetFlags   0x010e36    program     extern C:\pavan\1+1RCUTx\1-1-RCU-T-NewArch_svn_web_changes\Microchip\TCPIP Stack\MPFS2.c
                MPFSGetID   0x011000    program     extern C:\pavan\1+1RCUTx\1-1-RCU-T-NewArch_svn_web_changes\Microchip\TCPIP Stack\MPFS2.c
              MPFSGetLong   0x010ac4    program     extern C:\pavan\1+1RCUTx\1-1-RCU-T-NewArch_svn_web_changes\Microchip\TCPIP Stack\MPFS2.c
         MPFSGetMicrotime   0x010e04    program     extern C:\pavan\1+1RCUTx\1-1-RCU-T-NewArch_svn_web_changes\Microchip\TCPIP Stack\MPFS2.c
          MPFSGetPosition   0x010fce    program     extern C:\pavan\1+1RCUTx\1-1-RCU-T-NewArch_svn_web_changes\Microchip\TCPIP Stack\MPFS2.c
              MPFSGetSize   0x010e62    program     extern C:\pavan\1+1RCUTx\1-1-RCU-T-NewArch_svn_web_changes\Microchip\TCPIP Stack\MPFS2.c
         MPFSGetStartAddr   0x010ebe    program     extern C:\pavan\1+1RCUTx\1-1-RCU-T-NewArch_svn_web_changes\Microchip\TCPIP Stack\MPFS2.c
         MPFSGetTimestamp   0x010dd2    program     extern C:\pavan\1+1RCUTx\1-1-RCU-T-NewArch_svn_web_changes\Microchip\TCPIP Stack\MPFS2.c
                 MPFSInit   0x010630    program     extern C:\pavan\1+1RCUTx\1-1-RCU-T-NewArch_svn_web_changes\Microchip\TCPIP Stack\MPFS2.c
                 MPFSOpen   0x010666    program     extern C:\pavan\1+1RCUTx\1-1-RCU-T-NewArch_svn_web_changes\Microchip\TCPIP Stack\MPFS2.c
               MPFSOpenID   0x0108f8    program     extern C:\pavan\1+1RCUTx\1-1-RCU-T-NewArch_svn_web_changes\Microchip\TCPIP Stack\MPFS2.c
              MPFSOpenROM   0x0107b4    program     extern C:\pavan\1+1RCUTx\1-1-RCU-T-NewArch_svn_web_changes\Microchip\TCPIP Stack\MPFS2.c
             MPFSPutArray   0x010ca4    program     extern C:\pavan\1+1RCUTx\1-1-RCU-T-NewArch_svn_web_changes\Microchip\TCPIP Stack\MPFS2.c
               MPFSPutEnd   0x010d2a    program     extern C:\pavan\1+1RCUTx\1-1-RCU-T-NewArch_svn_web_changes\Microchip\TCPIP Stack\MPFS2.c
                 MPFSSeek   0x010b04    program     extern C:\pavan\1+1RCUTx\1-1-RCU-T-NewArch_svn_web_changes\Microchip\TCPIP Stack\MPFS2.c
                OIDLookup   0x005976    program     extern C:\pavan\1+1RCUTx\1-1-RCU-T-NewArch_svn_web_changes\Microchip\TCPIP Stack\SNMP.c
               Open1USART   0x01cee2    program     extern C:\MCC18\src\pmc_common\USART\u1open.c
               Open2USART   0x01cd4c    program     extern C:\MCC18\src\pmc_common\USART\u2open.c
                  OpenADC   0x01d054    program     extern C:\MCC18\src\pmc_common\ADC\adcopen.c
        ProcessGetBulkVar   0x0055c2    program     extern C:\pavan\1+1RCUTx\1-1-RCU-T-NewArch_svn_web_changes\Microchip\TCPIP Stack\SNMP.c
        ProcessGetNextVar   0x0052c4    program     extern C:\pavan\1+1RCUTx\1-1-RCU-T-NewArch_svn_web_changes\Microchip\TCPIP Stack\SNMP.c
      ProcessGetSetHeader   0x004e52    program     static C:\pavan\1+1RCUTx\1-1-RCU-T-NewArch_svn_web_changes\Microchip\TCPIP Stack\SNMP.c
            ProcessGetVar   0x00514c    program     extern C:\pavan\1+1RCUTx\1-1-RCU-T-NewArch_svn_web_changes\Microchip\TCPIP Stack\SNMP.c
            ProcessHeader   0x004cae    program     static C:\pavan\1+1RCUTx\1-1-RCU-T-NewArch_svn_web_changes\Microchip\TCPIP Stack\SNMP.c
            ProcessSetVar   0x004eca    program     extern C:\pavan\1+1RCUTx\1-1-RCU-T-NewArch_svn_web_changes\Microchip\TCPIP Stack\SNMP.c
         ProcessVariables   0x006172    program     static C:\pavan\1+1RCUTx\1-1-RCU-T-NewArch_svn_web_changes\Microchip\TCPIP Stack\SNMP.c
      RCUHLGetAlarmStatus   0x01ac0e    program     extern C:\pavan\1+1RCUTx\1-1-RCU-T-NewArch_svn_web_changes\AgilisDevices\RCUHLAccess.c
                RCUHLInit   0x01aa14    program     extern C:\pavan\1+1RCUTx\1-1-RCU-T-NewArch_svn_web_changes\AgilisDevices\RCUHLAccess.c
          RCUHLSetBUCAttn   0x01abce    program     extern C:\pavan\1+1RCUTx\1-1-RCU-T-NewArch_svn_web_changes\AgilisDevices\RCUHLAccess.c
         RCUHLSetBUCOnOff   0x01abb0    program     extern C:\pavan\1+1RCUTx\1-1-RCU-T-NewArch_svn_web_changes\AgilisDevices\RCUHLAccess.c
          RCUHLSetComMode   0x01aac8    program     extern C:\pavan\1+1RCUTx\1-1-RCU-T-NewArch_svn_web_changes\AgilisDevices\RCUHLAccess.c
         RCUHLSetDeviceID   0x01ab8c    program     extern C:\pavan\1+1RCUTx\1-1-RCU-T-NewArch_svn_web_changes\AgilisDevices\RCUHLAccess.c
             RCUHLSetMode   0x01aa8a    program     extern C:\pavan\1+1RCUTx\1-1-RCU-T-NewArch_svn_web_changes\AgilisDevices\RCUHLAccess.c
      RCUHLSetModelNumber   0x01aadc    program     extern C:\pavan\1+1RCUTx\1-1-RCU-T-NewArch_svn_web_changes\AgilisDevices\RCUHLAccess.c
             RCUHLSetPath   0x01aa9c    program     extern C:\pavan\1+1RCUTx\1-1-RCU-T-NewArch_svn_web_changes\AgilisDevices\RCUHLAccess.c
     RCUHLSetSerialNumber   0x01ab34    program     extern C:\pavan\1+1RCUTx\1-1-RCU-T-NewArch_svn_web_changes\AgilisDevices\RCUHLAccess.c
         RCULLGetDeviceID   0x014b8e    program     extern C:\pavan\1+1RCUTx\1-1-RCU-T-NewArch_svn_web_changes\AgilisDevices\RCULLAccess.c
       RCULLGetPartNumber   0x014bd6    program     extern C:\pavan\1+1RCUTx\1-1-RCU-T-NewArch_svn_web_changes\AgilisDevices\RCULLAccess.c
   RCULLGetRCUAlarmStatus   0x014a7e    program     extern C:\pavan\1+1RCUTx\1-1-RCU-T-NewArch_svn_web_changes\AgilisDevices\RCULLAccess.c
     RCULLGetSerialNumber   0x014cce    program     extern C:\pavan\1+1RCUTx\1-1-RCU-T-NewArch_svn_web_changes\AgilisDevices\RCULLAccess.c
                RCULLInit   0x014848    program     extern C:\pavan\1+1RCUTx\1-1-RCU-T-NewArch_svn_web_changes\AgilisDevices\RCULLAccess.c
      RCULLSelectAutoMode   0x014992    program     extern C:\pavan\1+1RCUTx\1-1-RCU-T-NewArch_svn_web_changes\AgilisDevices\RCULLAccess.c
    RCULLSelectManualMode   0x01499c    program     extern C:\pavan\1+1RCUTx\1-1-RCU-T-NewArch_svn_web_changes\AgilisDevices\RCULLAccess.c
          RCULLSetComMode   0x014a48    program     extern C:\pavan\1+1RCUTx\1-1-RCU-T-NewArch_svn_web_changes\AgilisDevices\RCULLAccess.c
     RCULLSetDefaultValue   0x014db8    program     extern C:\pavan\1+1RCUTx\1-1-RCU-T-NewArch_svn_web_changes\AgilisDevices\RCULLAccess.c
         RCULLSetDeviceID   0x014bbe    program     extern C:\pavan\1+1RCUTx\1-1-RCU-T-NewArch_svn_web_changes\AgilisDevices\RCULLAccess.c
             RCULLSetMode   0x0149e0    program     extern C:\pavan\1+1RCUTx\1-1-RCU-T-NewArch_svn_web_changes\AgilisDevices\RCULLAccess.c
       RCULLSetPartNumber   0x014c44    program     extern C:\pavan\1+1RCUTx\1-1-RCU-T-NewArch_svn_web_changes\AgilisDevices\RCULLAccess.c
             RCULLSetPath   0x014a0c    program     extern C:\pavan\1+1RCUTx\1-1-RCU-T-NewArch_svn_web_changes\AgilisDevices\RCULLAccess.c
     RCULLSetSerialNumber   0x014d2c    program     extern C:\pavan\1+1RCUTx\1-1-RCU-T-NewArch_svn_web_changes\AgilisDevices\RCULLAccess.c
       RCUServerCmdLookUp   0x00b47a    program     extern C:\pavan\1+1RCUTx\1-1-RCU-T-NewArch_svn_web_changes\AgilisDevices\RCUServer.c
  RCUServerDecodeFMBUCReq   0x00a6da    program     extern C:\pavan\1+1RCUTx\1-1-RCU-T-NewArch_svn_web_changes\AgilisDevices\RCUServer.c
    RCUServerDecodeRCUReq   0x009e18    program     extern C:\pavan\1+1RCUTx\1-1-RCU-T-NewArch_svn_web_changes\AgilisDevices\RCUServer.c
      RCUServerForwardCmd   0x00aea0    program     extern C:\pavan\1+1RCUTx\1-1-RCU-T-NewArch_svn_web_changes\AgilisDevices\RCUServer.c
            RCUServerInit   0x00b77c    program     extern C:\pavan\1+1RCUTx\1-1-RCU-T-NewArch_svn_web_changes\AgilisDevices\RCUServer.c
         RCUServerRespond   0x00b532    program     extern C:\pavan\1+1RCUTx\1-1-RCU-T-NewArch_svn_web_changes\AgilisDevices\RCUServer.c
              RCUTaskIdle   0x01ccbe    program     extern C:\pavan\1+1RCUTx\1-1-RCU-T-NewArch_svn_web_changes\App\Task\RCUTask.c
              RCUTaskInit   0x01cce2    program     extern C:\pavan\1+1RCUTx\1-1-RCU-T-NewArch_svn_web_changes\App\Task\RCUTask.c
           RCUTaskPolling   0x01ccd8    program     extern C:\pavan\1+1RCUTx\1-1-RCU-T-NewArch_svn_web_changes\App\Task\RCUTask.c
      RCUTaskStatusUpdate   0x01ccc6    program     extern C:\pavan\1+1RCUTx\1-1-RCU-T-NewArch_svn_web_changes\App\Task\RCUTask.c
     ROMStringToIPAddress   0x011934    program     extern C:\pavan\1+1RCUTx\1-1-RCU-T-NewArch_svn_web_changes\Microchip\TCPIP Stack\Helpers.c
         ReadDataFromUart   0x018ae4    program     extern C:\pavan\1+1RCUTx\1-1-RCU-T-NewArch_svn_web_changes\Drivers\External-Peripherals\AgilisDualUART.c
      ReadDataFromUartISR   0x018b3e    program     extern C:\pavan\1+1RCUTx\1-1-RCU-T-NewArch_svn_web_changes\Drivers\External-Peripherals\AgilisDualUART.c
         ReadDualUartConf   0x018a20    program     extern C:\pavan\1+1RCUTx\1-1-RCU-T-NewArch_svn_web_changes\Drivers\External-Peripherals\AgilisDualUART.c
            ReadMIBRecord   0x005eaa    program     static C:\pavan\1+1RCUTx\1-1-RCU-T-NewArch_svn_web_changes\Microchip\TCPIP Stack\SNMP.c
               ReadPHYReg   0x013940    program     extern C:\pavan\1+1RCUTx\1-1-RCU-T-NewArch_svn_web_changes\Microchip\TCPIP Stack\ETH97J60.c
                ReadUSART   0x01cb64    program     extern C:\pavan\1+1RCUTx\1-1-RCU-T-NewArch_svn_web_changes\Microchip\TCPIP Stack\UART.c
               ReadUSART2   0x01cb8e    program     extern C:\pavan\1+1RCUTx\1-1-RCU-T-NewArch_svn_web_changes\Microchip\TCPIP Stack\UART.c
            ReadWriteSPI2   0x01ce74    program     extern C:\pavan\1+1RCUTx\1-1-RCU-T-NewArch_svn_web_changes\Drivers\MCU-Internal\devspi.c
                 Read_ADC   0x01bb30    program     extern C:\pavan\1+1RCUTx\1-1-RCU-T-NewArch_svn_web_changes\Drivers\MCU-Internal\internalADC.c
            ResetDualUart   0x018986    program     extern C:\pavan\1+1RCUTx\1-1-RCU-T-NewArch_svn_web_changes\Drivers\External-Peripherals\AgilisDualUART.c
              RxAActivate   0x0149ce    program     extern C:\pavan\1+1RCUTx\1-1-RCU-T-NewArch_svn_web_changes\AgilisDevices\RCULLAccess.c
              RxBActivate   0x0149d8    program     extern C:\pavan\1+1RCUTx\1-1-RCU-T-NewArch_svn_web_changes\AgilisDevices\RCULLAccess.c
SNMPCheckIfPvtMibObjRequested   0x0060f4    program     static C:\pavan\1+1RCUTx\1-1-RCU-T-NewArch_svn_web_changes\Microchip\TCPIP Stack\SNMP.c
        SNMPGetExactIndex   0x00dd3c    program     extern C:\pavan\1+1RCUTx\1-1-RCU-T-NewArch_svn_web_changes\App\SNMP\AgilisSNMPApp.c
         SNMPGetNextIndex   0x00dd72    program     extern C:\pavan\1+1RCUTx\1-1-RCU-T-NewArch_svn_web_changes\App\SNMP\AgilisSNMPApp.c
         SNMPGetTimeStamp   0x00e28e    program     static C:\pavan\1+1RCUTx\1-1-RCU-T-NewArch_svn_web_changes\App\SNMP\AgilisSNMPApp.c
               SNMPGetVar   0x00e028    program     extern C:\pavan\1+1RCUTx\1-1-RCU-T-NewArch_svn_web_changes\App\SNMP\AgilisSNMPApp.c
    SNMPIdRecrdValidation   0x00ddea    program     extern C:\pavan\1+1RCUTx\1-1-RCU-T-NewArch_svn_web_changes\App\SNMP\AgilisSNMPApp.c
                 SNMPInit   0x00417c    program     extern C:\pavan\1+1RCUTx\1-1-RCU-T-NewArch_svn_web_changes\Microchip\TCPIP Stack\SNMP.c
        SNMPIsNotifyReady   0x004368    program     extern C:\pavan\1+1RCUTx\1-1-RCU-T-NewArch_svn_web_changes\Microchip\TCPIP Stack\SNMP.c
        SNMPIsValidSetLen   0x00db20    program     extern C:\pavan\1+1RCUTx\1-1-RCU-T-NewArch_svn_web_changes\App\SNMP\AgilisSNMPApp.c
               SNMPNotify   0x004460    program     extern C:\pavan\1+1RCUTx\1-1-RCU-T-NewArch_svn_web_changes\Microchip\TCPIP Stack\SNMP.c
        SNMPNotifyPrepare   0x00430a    program     extern C:\pavan\1+1RCUTx\1-1-RCU-T-NewArch_svn_web_changes\Microchip\TCPIP Stack\SNMP.c
               SNMPSetVar   0x00dbc4    program     extern C:\pavan\1+1RCUTx\1-1-RCU-T-NewArch_svn_web_changes\App\SNMP\AgilisSNMPApp.c
                 SNMPTask   0x004220    program     extern C:\pavan\1+1RCUTx\1-1-RCU-T-NewArch_svn_web_changes\Microchip\TCPIP Stack\SNMP.c
           SNMPV2TrapDemo   0x00d546    program     extern C:\pavan\1+1RCUTx\1-1-RCU-T-NewArch_svn_web_changes\App\SNMP\AgilisSNMPApp.c
    SNMPValidateCommunity   0x00da74    program     extern C:\pavan\1+1RCUTx\1-1-RCU-T-NewArch_svn_web_changes\App\SNMP\AgilisSNMPApp.c
                  SPIInit   0x01ce5c    program     extern C:\pavan\1+1RCUTx\1-1-RCU-T-NewArch_svn_web_changes\Drivers\MCU-Internal\devspi.c
            SaveAppConfig   0x016d4c    program     extern C:\pavan\1+1RCUTx\1-1-RCU-T-NewArch_svn_web_changes\Agilis-SysLib\util.c
              SaveSetting   0x016d70    program     extern C:\pavan\1+1RCUTx\1-1-RCU-T-NewArch_svn_web_changes\Agilis-SysLib\util.c
           SendDataToUart   0x018bd4    program     extern C:\pavan\1+1RCUTx\1-1-RCU-T-NewArch_svn_web_changes\Drivers\External-Peripherals\AgilisDualUART.c
         SendNotification   0x00d492    program     static C:\pavan\1+1RCUTx\1-1-RCU-T-NewArch_svn_web_changes\App\SNMP\AgilisSNMPApp.c
                  SendTCP   0x001710    program     static C:\pavan\1+1RCUTx\1-1-RCU-T-NewArch_svn_web_changes\Microchip\TCPIP Stack\TCP.c
     SerializedMACAddress   0x01d1b8    program     static C:\pavan\1+1RCUTx\1-1-RCU-T-NewArch_svn_web_changes\Bootstrap\Initialization.c
              SetCPLDGPIO   0x014674    program     extern C:\pavan\1+1RCUTx\1-1-RCU-T-NewArch_svn_web_changes\AgilisDevices\RCULLAccess.c
     SetDualUartInterrupt   0x018db8    program     extern C:\pavan\1+1RCUTx\1-1-RCU-T-NewArch_svn_web_changes\Drivers\External-Peripherals\AgilisDualUART.c
           SetErrorStatus   0x005ff0    program     extern C:\pavan\1+1RCUTx\1-1-RCU-T-NewArch_svn_web_changes\Microchip\TCPIP Stack\SNMP.c
        StackApplications   0x01b5f4    program     extern C:\pavan\1+1RCUTx\1-1-RCU-T-NewArch_svn_web_changes\Microchip\TCPIP Stack\StackTsk.c
                StackInit   0x01b394    program     extern C:\pavan\1+1RCUTx\1-1-RCU-T-NewArch_svn_web_changes\Microchip\TCPIP Stack\StackTsk.c
                StackTask   0x01b3e8    program     extern C:\pavan\1+1RCUTx\1-1-RCU-T-NewArch_svn_web_changes\Microchip\TCPIP Stack\StackTsk.c
        StringToIPAddress   0x011864    program     extern C:\pavan\1+1RCUTx\1-1-RCU-T-NewArch_svn_web_changes\Microchip\TCPIP Stack\Helpers.c
            SwapARPPacket   0x01924c    program     extern C:\pavan\1+1RCUTx\1-1-RCU-T-NewArch_svn_web_changes\Microchip\TCPIP Stack\ARP.c
             SwapIPHeader   0x01afdc    program     static C:\pavan\1+1RCUTx\1-1-RCU-T-NewArch_svn_web_changes\Microchip\TCPIP Stack\IP.c
            SwapTCPHeader   0x001f14    program     static C:\pavan\1+1RCUTx\1-1-RCU-T-NewArch_svn_web_changes\Microchip\TCPIP Stack\TCP.c
                  SyncTCB   0x00019e    program     static C:\pavan\1+1RCUTx\1-1-RCU-T-NewArch_svn_web_changes\Microchip\TCPIP Stack\TCP.c
              SyncTCBStub   0x000134    program     static C:\pavan\1+1RCUTx\1-1-RCU-T-NewArch_svn_web_changes\Microchip\TCPIP Stack\TCP.c
                  TAEQB32   0x017be4    program     extern C:\Program Files\mcc18\src\traditional\math\eqFP.asm
                  TAGTB32   0x017bf2    program     extern C:\Program Files\mcc18\src\traditional\math\gtFP.asm
                  TALTB32   0x017c04    program     extern C:\Program Files\mcc18\src\traditional\math\ltFP.asm
        TCPAdjustFIFOSize   0x002aa4    program     extern C:\pavan\1+1RCUTx\1-1-RCU-T-NewArch_svn_web_changes\Microchip\TCPIP Stack\TCP.c
                 TCPClose   0x0005a8    program     extern C:\pavan\1+1RCUTx\1-1-RCU-T-NewArch_svn_web_changes\Microchip\TCPIP Stack\TCP.c
               TCPDiscard   0x00094e    program     extern C:\pavan\1+1RCUTx\1-1-RCU-T-NewArch_svn_web_changes\Microchip\TCPIP Stack\TCP.c
            TCPDisconnect   0x00052c    program     extern C:\pavan\1+1RCUTx\1-1-RCU-T-NewArch_svn_web_changes\Microchip\TCPIP Stack\TCP.c
           TCPFindArrayEx   0x000cde    program     extern C:\pavan\1+1RCUTx\1-1-RCU-T-NewArch_svn_web_changes\Microchip\TCPIP Stack\TCP.c
                TCPFindEx   0x0011ac    program     extern C:\pavan\1+1RCUTx\1-1-RCU-T-NewArch_svn_web_changes\Microchip\TCPIP Stack\TCP.c
        TCPFindROMArrayEx   0x000f5c    program     extern C:\pavan\1+1RCUTx\1-1-RCU-T-NewArch_svn_web_changes\Microchip\TCPIP Stack\TCP.c
                 TCPFlush   0x0005f6    program     extern C:\pavan\1+1RCUTx\1-1-RCU-T-NewArch_svn_web_changes\Microchip\TCPIP Stack\TCP.c
                   TCPGet   0x0009b6    program     extern C:\pavan\1+1RCUTx\1-1-RCU-T-NewArch_svn_web_changes\Microchip\TCPIP Stack\TCP.c
              TCPGetArray   0x000a22    program     extern C:\pavan\1+1RCUTx\1-1-RCU-T-NewArch_svn_web_changes\Microchip\TCPIP Stack\TCP.c
         TCPGetRemoteInfo   0x0005bc    program     extern C:\pavan\1+1RCUTx\1-1-RCU-T-NewArch_svn_web_changes\Microchip\TCPIP Stack\TCP.c
         TCPGetRxFIFOFree   0x000b5a    program     extern C:\pavan\1+1RCUTx\1-1-RCU-T-NewArch_svn_web_changes\Microchip\TCPIP Stack\TCP.c
         TCPGetTxFIFOFull   0x000926    program     extern C:\pavan\1+1RCUTx\1-1-RCU-T-NewArch_svn_web_changes\Microchip\TCPIP Stack\TCP.c
                  TCPInit   0x00021c    program     extern C:\pavan\1+1RCUTx\1-1-RCU-T-NewArch_svn_web_changes\Microchip\TCPIP Stack\TCP.c
           TCPIsConnected   0x000516    program     extern C:\pavan\1+1RCUTx\1-1-RCU-T-NewArch_svn_web_changes\Microchip\TCPIP Stack\TCP.c
            TCPIsGetReady   0x000970    program     extern C:\pavan\1+1RCUTx\1-1-RCU-T-NewArch_svn_web_changes\Microchip\TCPIP Stack\TCP.c
            TCPIsPutReady   0x000612    program     extern C:\pavan\1+1RCUTx\1-1-RCU-T-NewArch_svn_web_changes\Microchip\TCPIP Stack\TCP.c
                  TCPOpen   0x0003cc    program     extern C:\pavan\1+1RCUTx\1-1-RCU-T-NewArch_svn_web_changes\Microchip\TCPIP Stack\TCP.c
                  TCPPeek   0x000cb2    program     extern C:\pavan\1+1RCUTx\1-1-RCU-T-NewArch_svn_web_changes\Microchip\TCPIP Stack\TCP.c
             TCPPeekArray   0x000b82    program     extern C:\pavan\1+1RCUTx\1-1-RCU-T-NewArch_svn_web_changes\Microchip\TCPIP Stack\TCP.c
               TCPProcess   0x0015b6    program     extern C:\pavan\1+1RCUTx\1-1-RCU-T-NewArch_svn_web_changes\Microchip\TCPIP Stack\TCP.c
                   TCPPut   0x000678    program     extern C:\pavan\1+1RCUTx\1-1-RCU-T-NewArch_svn_web_changes\Microchip\TCPIP Stack\TCP.c
              TCPPutArray   0x000706    program     extern C:\pavan\1+1RCUTx\1-1-RCU-T-NewArch_svn_web_changes\Microchip\TCPIP Stack\TCP.c
           TCPPutROMArray   0x0007aa    program     extern C:\pavan\1+1RCUTx\1-1-RCU-T-NewArch_svn_web_changes\Microchip\TCPIP Stack\TCP.c
          TCPPutROMString   0x0008bc    program     extern C:\pavan\1+1RCUTx\1-1-RCU-T-NewArch_svn_web_changes\Microchip\TCPIP Stack\TCP.c
             TCPPutString   0x00085c    program     extern C:\pavan\1+1RCUTx\1-1-RCU-T-NewArch_svn_web_changes\Microchip\TCPIP Stack\TCP.c
               TCPRAMCopy   0x002c5e    program     static C:\pavan\1+1RCUTx\1-1-RCU-T-NewArch_svn_web_changes\Microchip\TCPIP Stack\TCP.c
            TCPRAMCopyROM   0x002cec    program     static C:\pavan\1+1RCUTx\1-1-RCU-T-NewArch_svn_web_changes\Microchip\TCPIP Stack\TCP.c
     TCPSocketInitializer   0x01d136    program     extern C:\pavan\1+1RCUTx\1-1-RCU-T-NewArch_svn_web_changes\Port\TCPIPConfig.h
                  TCPTick   0x0011e2    program     extern C:\pavan\1+1RCUTx\1-1-RCU-T-NewArch_svn_web_changes\Microchip\TCPIP Stack\TCP.c
              TCPWasReset   0x000500    program     extern C:\pavan\1+1RCUTx\1-1-RCU-T-NewArch_svn_web_changes\Microchip\TCPIP Stack\TCP.c
                TaskDelay   0x01b758    program     extern C:\pavan\1+1RCUTx\1-1-RCU-T-NewArch_svn_web_changes\Agilis-SysLib\task.c
                 TaskKill   0x01b792    program     extern C:\pavan\1+1RCUTx\1-1-RCU-T-NewArch_svn_web_changes\Agilis-SysLib\task.c
                TaskQueue   0x01b6ce    program     extern C:\pavan\1+1RCUTx\1-1-RCU-T-NewArch_svn_web_changes\Agilis-SysLib\task.c
TickConvertToMilliseconds   0x01caaa    program     extern C:\pavan\1+1RCUTx\1-1-RCU-T-NewArch_svn_web_changes\Microchip\TCPIP Stack\Tick.c
                  TickGet   0x01ca4e    program     extern C:\pavan\1+1RCUTx\1-1-RCU-T-NewArch_svn_web_changes\Microchip\TCPIP Stack\Tick.c
            TickGetDiv256   0x01ca62    program     extern C:\pavan\1+1RCUTx\1-1-RCU-T-NewArch_svn_web_changes\Microchip\TCPIP Stack\Tick.c
            TickGetDiv64K   0x01ca86    program     extern C:\pavan\1+1RCUTx\1-1-RCU-T-NewArch_svn_web_changes\Microchip\TCPIP Stack\Tick.c
                 TickInit   0x01ca18    program     extern C:\pavan\1+1RCUTx\1-1-RCU-T-NewArch_svn_web_changes\Microchip\TCPIP Stack\Tick.c
               TickUpdate   0x01cae0    program     extern C:\pavan\1+1RCUTx\1-1-RCU-T-NewArch_svn_web_changes\Microchip\TCPIP Stack\Tick.c
              TxAActivate   0x0149bc    program     extern C:\pavan\1+1RCUTx\1-1-RCU-T-NewArch_svn_web_changes\AgilisDevices\RCULLAccess.c
              TxBActivate   0x0149c6    program     extern C:\pavan\1+1RCUTx\1-1-RCU-T-NewArch_svn_web_changes\AgilisDevices\RCULLAccess.c
               UART0write   0x00efe0    program     extern C:\pavan\1+1RCUTx\1-1-RCU-T-NewArch_svn_web_changes\Drivers\UARTISR.c
               UART1write   0x00effe    program     extern C:\pavan\1+1RCUTx\1-1-RCU-T-NewArch_svn_web_changes\Drivers\UARTISR.c
                 UART2ISR   0x01d19a    program     extern C:\pavan\1+1RCUTx\1-1-RCU-T-NewArch_svn_web_changes\Microchip\TCPIP Stack\UART2TCPBridge.c
               UART2write   0x00f030    program     extern C:\pavan\1+1RCUTx\1-1-RCU-T-NewArch_svn_web_changes\Drivers\UARTISR.c
               UART3write   0x00f142    program     extern C:\pavan\1+1RCUTx\1-1-RCU-T-NewArch_svn_web_changes\Drivers\UARTISR.c
               UART4write   0x00f258    program     extern C:\pavan\1+1RCUTx\1-1-RCU-T-NewArch_svn_web_changes\Drivers\UARTISR.c
           UARTBufferTask   0x00f36e    program     extern C:\pavan\1+1RCUTx\1-1-RCU-T-NewArch_svn_web_changes\Drivers\UARTISR.c
                 UARTISR0   0x00ec3a    program     extern C:\pavan\1+1RCUTx\1-1-RCU-T-NewArch_svn_web_changes\Drivers\UARTISR.c
                 UARTISR1   0x00ecbe    program     extern C:\pavan\1+1RCUTx\1-1-RCU-T-NewArch_svn_web_changes\Drivers\UARTISR.c
                 UARTISR2   0x00ed42    program     extern C:\pavan\1+1RCUTx\1-1-RCU-T-NewArch_svn_web_changes\Drivers\UARTISR.c
                 UARTISR3   0x00ee26    program     extern C:\pavan\1+1RCUTx\1-1-RCU-T-NewArch_svn_web_changes\Drivers\UARTISR.c
                 UARTISR4   0x00ef04    program     extern C:\pavan\1+1RCUTx\1-1-RCU-T-NewArch_svn_web_changes\Drivers\UARTISR.c
                 UDPClose   0x01256c    program     extern C:\pavan\1+1RCUTx\1-1-RCU-T-NewArch_svn_web_changes\Microchip\TCPIP Stack\UDP.c
               UDPDiscard   0x012a4c    program     extern C:\pavan\1+1RCUTx\1-1-RCU-T-NewArch_svn_web_changes\Microchip\TCPIP Stack\UDP.c
                 UDPFlush   0x0127f0    program     extern C:\pavan\1+1RCUTx\1-1-RCU-T-NewArch_svn_web_changes\Microchip\TCPIP Stack\UDP.c
                   UDPGet   0x0129b8    program     extern C:\pavan\1+1RCUTx\1-1-RCU-T-NewArch_svn_web_changes\Microchip\TCPIP Stack\UDP.c
              UDPGetArray   0x0129ec    program     extern C:\pavan\1+1RCUTx\1-1-RCU-T-NewArch_svn_web_changes\Microchip\TCPIP Stack\UDP.c
                  UDPInit   0x0122ba    program     extern C:\pavan\1+1RCUTx\1-1-RCU-T-NewArch_svn_web_changes\Microchip\TCPIP Stack\UDP.c
            UDPIsGetReady   0x012984    program     extern C:\pavan\1+1RCUTx\1-1-RCU-T-NewArch_svn_web_changes\Microchip\TCPIP Stack\UDP.c
              UDPIsOpened   0x012554    program     extern C:\pavan\1+1RCUTx\1-1-RCU-T-NewArch_svn_web_changes\Microchip\TCPIP Stack\UDP.c
            UDPIsPutReady   0x012618    program     extern C:\pavan\1+1RCUTx\1-1-RCU-T-NewArch_svn_web_changes\Microchip\TCPIP Stack\UDP.c
                UDPOpenEx   0x0122de    program     extern C:\pavan\1+1RCUTx\1-1-RCU-T-NewArch_svn_web_changes\Microchip\TCPIP Stack\UDP.c
               UDPProcess   0x012a66    program     extern C:\pavan\1+1RCUTx\1-1-RCU-T-NewArch_svn_web_changes\Microchip\TCPIP Stack\UDP.c
                   UDPPut   0x01266e    program     extern C:\pavan\1+1RCUTx\1-1-RCU-T-NewArch_svn_web_changes\Microchip\TCPIP Stack\UDP.c
              UDPPutArray   0x0126b8    program     extern C:\pavan\1+1RCUTx\1-1-RCU-T-NewArch_svn_web_changes\Microchip\TCPIP Stack\UDP.c
           UDPPutROMArray   0x0126de    program     extern C:\pavan\1+1RCUTx\1-1-RCU-T-NewArch_svn_web_changes\Microchip\TCPIP Stack\UDP.c
          UDPPutROMString   0x01278a    program     extern C:\pavan\1+1RCUTx\1-1-RCU-T-NewArch_svn_web_changes\Microchip\TCPIP Stack\UDP.c
             UDPPutString   0x01274a    program     extern C:\pavan\1+1RCUTx\1-1-RCU-T-NewArch_svn_web_changes\Microchip\TCPIP Stack\UDP.c
           UDPSetRxBuffer   0x0125f6    program     extern C:\pavan\1+1RCUTx\1-1-RCU-T-NewArch_svn_web_changes\Microchip\TCPIP Stack\UDP.c
           UDPSetTxBuffer   0x0125a8    program     extern C:\pavan\1+1RCUTx\1-1-RCU-T-NewArch_svn_web_changes\Microchip\TCPIP Stack\UDP.c
                  UDPTask   0x012448    program     extern C:\pavan\1+1RCUTx\1-1-RCU-T-NewArch_svn_web_changes\Microchip\TCPIP Stack\UDP.c
                 WaitKill   0x01b7e0    program     extern C:\pavan\1+1RCUTx\1-1-RCU-T-NewArch_svn_web_changes\Agilis-SysLib\task.c
        WriteDualUartConf   0x018992    program     extern C:\pavan\1+1RCUTx\1-1-RCU-T-NewArch_svn_web_changes\Drivers\External-Peripherals\AgilisDualUART.c
              WritePHYReg   0x01399e    program     extern C:\pavan\1+1RCUTx\1-1-RCU-T-NewArch_svn_web_changes\Microchip\TCPIP Stack\ETH97J60.c
               WriteUSART   0x01cb68    program     extern C:\pavan\1+1RCUTx\1-1-RCU-T-NewArch_svn_web_changes\Microchip\TCPIP Stack\UART.c
              WriteUSART2   0x01cbbc    program     extern C:\pavan\1+1RCUTx\1-1-RCU-T-NewArch_svn_web_changes\Microchip\TCPIP Stack\UART.c
             XEEBeginRead   0x01b0b0    program     extern C:\pavan\1+1RCUTx\1-1-RCU-T-NewArch_svn_web_changes\Microchip\TCPIP Stack\SPIEEPROM.c
            XEEBeginWrite   0x01b1a8    program     extern C:\pavan\1+1RCUTx\1-1-RCU-T-NewArch_svn_web_changes\Microchip\TCPIP Stack\SPIEEPROM.c
               XEEEndRead   0x01b112    program     extern C:\pavan\1+1RCUTx\1-1-RCU-T-NewArch_svn_web_changes\Microchip\TCPIP Stack\SPIEEPROM.c
              XEEEndWrite   0x01b21c    program     extern C:\pavan\1+1RCUTx\1-1-RCU-T-NewArch_svn_web_changes\Microchip\TCPIP Stack\SPIEEPROM.c
                  XEEInit   0x01b09a    program     extern C:\pavan\1+1RCUTx\1-1-RCU-T-NewArch_svn_web_changes\Microchip\TCPIP Stack\SPIEEPROM.c
                XEEIsBusy   0x01b2ce    program     extern C:\pavan\1+1RCUTx\1-1-RCU-T-NewArch_svn_web_changes\Microchip\TCPIP Stack\SPIEEPROM.c
                  XEERead   0x01b0bc    program     extern C:\pavan\1+1RCUTx\1-1-RCU-T-NewArch_svn_web_changes\Microchip\TCPIP Stack\SPIEEPROM.c
             XEEReadArray   0x01b114    program     extern C:\pavan\1+1RCUTx\1-1-RCU-T-NewArch_svn_web_changes\Microchip\TCPIP Stack\SPIEEPROM.c
                 XEEWrite   0x01b1b4    program     extern C:\pavan\1+1RCUTx\1-1-RCU-T-NewArch_svn_web_changes\Microchip\TCPIP Stack\SPIEEPROM.c
            XEEWriteArray   0x01b1e2    program     extern C:\pavan\1+1RCUTx\1-1-RCU-T-NewArch_svn_web_changes\Microchip\TCPIP Stack\SPIEEPROM.c
                  _14jEnd   0x01c3b2    program     static C:\Program Files\mcc18\src\traditional\stdclib\atol.asm
              _1jContinue   0x019382    program     static C:\Program Files\mcc18\src\traditional\stdclib\mcmpp2p.asm
              _2jContinue   0x0194dc    program     static C:\Program Files\mcc18\src\traditional\stdclib\memset.asm
                   _2jEnd   0x019658    program     static C:\Program Files\mcc18\src\traditional\stdclib\slenpgm.asm
                   _2jEnd   0x019392    program     static C:\Program Files\mcc18\src\traditional\stdclib\mcmpp2p.asm
              _3jContinue   0x0194a8    program     static C:\Program Files\mcc18\src\traditional\stdclib\mcpyp2r.asm
              _3jContinue   0x01940c    program     static C:\Program Files\mcc18\src\traditional\stdclib\mcmpp2r.asm
                   _3jEnd   0x0194e6    program     static C:\Program Files\mcc18\src\traditional\stdclib\memset.asm
              _4jContinue   0x01934a    program     static C:\Program Files\mcc18\src\traditional\stdclib\memcmp.asm
              _4jContinue   0x019454    program     static C:\Program Files\mcc18\src\traditional\stdclib\memcpy.asm
              _4jContinue   0x0196f8    program     static C:\Program Files\mcc18\src\traditional\stdclib\strncpy.asm
              _4jContinue   0x01969a    program     static C:\Program Files\mcc18\src\traditional\stdclib\strncmp.asm
                   _4jEnd   0x0194b2    program     static C:\Program Files\mcc18\src\traditional\stdclib\mcpyp2r.asm
                   _4jEnd   0x019416    program     static C:\Program Files\mcc18\src\traditional\stdclib\mcmpp2r.asm
                   _5jEnd   0x019354    program     static C:\Program Files\mcc18\src\traditional\stdclib\memcmp.asm
                   _5jEnd   0x0193c8    program     static C:\Program Files\mcc18\src\traditional\stdclib\mcmpp2p.asm
                   _5jEnd   0x019702    program     static C:\Program Files\mcc18\src\traditional\stdclib\strncpy.asm
                   _5jEnd   0x0196a4    program     static C:\Program Files\mcc18\src\traditional\stdclib\strncmp.asm
                   _5jEnd   0x01945e    program     static C:\Program Files\mcc18\src\traditional\stdclib\memcpy.asm
                   _6jEnd   0x0193d8    program     static C:\Program Files\mcc18\src\traditional\stdclib\mcmpp2p.asm
        _D10TCYXCODE_000A   0x01d1da    program     static C:\Program Files\mcc18\src\traditional\delays\d10tcyx.asm
        _D10TCYXCODE_000C   0x01d1dc    program     static C:\Program Files\mcc18\src\traditional\delays\d10tcyx.asm
        _D10TCYXCODE_000E   0x01d1de    program     static C:\Program Files\mcc18\src\traditional\delays\d10tcyx.asm
        _D1KTCYXCODE_0010   0x01d18a    program     static C:\Program Files\mcc18\src\traditional\delays\d1ktcyx.asm
        _D1KTCYXCODE_0016   0x01d190    program     static C:\Program Files\mcc18\src\traditional\delays\d1ktcyx.asm
             _DHCPReceive   0x015370    program     static C:\pavan\1+1RCUTx\1-1-RCU-T-NewArch_svn_web_changes\Microchip\TCPIP Stack\DHCP.c
                _DHCPSend   0x0155d4    program     static C:\pavan\1+1RCUTx\1-1-RCU-T-NewArch_svn_web_changes\Microchip\TCPIP Stack\DHCP.c
           _LoadFATRecord   0x010d46    program     static C:\pavan\1+1RCUTx\1-1-RCU-T-NewArch_svn_web_changes\Microchip\TCPIP Stack\MPFS2.c
          _SNMPDuplexInit   0x00412e    program     extern C:\pavan\1+1RCUTx\1-1-RCU-T-NewArch_svn_web_changes\Microchip\TCPIP Stack\SNMP.c
                 _SNMPGet   0x003e82    program     extern C:\pavan\1+1RCUTx\1-1-RCU-T-NewArch_svn_web_changes\Microchip\TCPIP Stack\SNMP.c
                 _SNMPPut   0x004150    program     extern C:\pavan\1+1RCUTx\1-1-RCU-T-NewArch_svn_web_changes\Microchip\TCPIP Stack\SNMP.c
                _Validate   0x011012    program     static C:\pavan\1+1RCUTx\1-1-RCU-T-NewArch_svn_web_changes\Microchip\TCPIP Stack\MPFS2.c
              __FpCompare   0x017c16    program     extern C:\Program Files\mcc18\src\traditional\math\compFP.asm
                 __FpExit   0x017ccc    program     extern C:\Program Files\mcc18\src\traditional\math\packFP.asm
                 __FpPack   0x017cf8    program     extern C:\Program Files\mcc18\src\traditional\math\packFP.asm
            __FpReturnNaN   0x017cc0    program     extern C:\Program Files\mcc18\src\traditional\math\packFP.asm
         __FpReturnNegInf   0x017cd2    program     extern C:\Program Files\mcc18\src\traditional\math\packFP.asm
        __FpReturnNegZero   0x017cea    program     extern C:\Program Files\mcc18\src\traditional\math\packFP.asm
         __FpReturnPosInf   0x017cd8    program     extern C:\Program Files\mcc18\src\traditional\math\packFP.asm
        __FpReturnPosZero   0x017cf2    program     extern C:\Program Files\mcc18\src\traditional\math\packFP.asm
        __FpReturnSignInf   0x017cce    program     extern C:\Program Files\mcc18\src\traditional\math\packFP.asm
       __FpReturnSignZero   0x017ce6    program     extern C:\Program Files\mcc18\src\traditional\math\packFP.asm
              __FpReturnW   0x017d50    program     extern C:\Program Files\mcc18\src\traditional\math\packFP.asm
              __FpUnPackA   0x017d70    program     extern C:\Program Files\mcc18\src\traditional\math\UnpackFP.asm
              __FpUnPackB   0x017da0    program     extern C:\Program Files\mcc18\src\traditional\math\UnpackFP.asm
           ___?:_lbl00011   0x018a52    program     static                          
           ___?:_lbl00012   0x018a50    program     static                          
           ___?:_lbl00013   0x018a68    program     static                          
           ___?:_lbl00014   0x018a66    program     static                          
           ___do_lbl00002   0x01ca46    program     static                          
           ___do_lbl00003   0x01ca4a    program     static                          
           ___do_lbl00004   0x01ca28    program     static                          
         ___else_lbl00002   0x01c5c8    program     static                          
         ___else_lbl00015   0x00e8ee    program     static                          
         ___else_lbl00017   0x00e8e2    program     static                          
         ___else_lbl00017   0x018aa6    program     static                          
         ___else_lbl00019   0x018a94    program     static                          
         ___else_lbl00021   0x018a82    program     static                          
         ___else_lbl00021   0x00e9c2    program     static                          
         ___else_lbl00023   0x00e9b6    program     static                          
         ___else_lbl00024   0x018b0e    program     static                          
         ___else_lbl00027   0x00ea98    program     static                          
         ___else_lbl00028   0x018b94    program     static                          
         ___else_lbl00029   0x00ea8c    program     static                          
         ___else_lbl00030   0x018b82    program     static                          
         ___else_lbl00032   0x018b70    program     static                          
          ___for_lbl00122   0x011fba    program     static                          
          ___for_lbl00123   0x011fc0    program     static                          
          ___for_lbl00124   0x011f9c    program     static                          
          ___for_lbl00125   0x011fd4    program     static                          
          ___for_lbl00126   0x011fd8    program     static                          
          ___for_lbl00127   0x011fc0    program     static                          
           ___if_lbl00001   0x01c5d0    program     static                          
           ___if_lbl00005   0x011744    program     static                          
           ___if_lbl00006   0x011762    program     static                          
           ___if_lbl00007   0x0117fc    program     static                          
           ___if_lbl00008   0x011802    program     static                          
           ___if_lbl00013   0x00e8f8    program     static                          
           ___if_lbl00014   0x00e8f8    program     static                          
           ___if_lbl00015   0x018ab6    program     static                          
           ___if_lbl00016   0x00e8f8    program     static                          
           ___if_lbl00016   0x018ab6    program     static                          
           ___if_lbl00018   0x018ab6    program     static                          
           ___if_lbl00019   0x00e9cc    program     static                          
           ___if_lbl00020   0x0132a0    program     static                          
           ___if_lbl00020   0x00e9cc    program     static                          
           ___if_lbl00020   0x018ab6    program     static                          
           ___if_lbl00021   0x0132ac    program     static                          
           ___if_lbl00022   0x00e9cc    program     static                          
           ___if_lbl00023   0x018b12    program     static                          
           ___if_lbl00025   0x00eaa2    program     static                          
           ___if_lbl00026   0x018ba4    program     static                          
           ___if_lbl00026   0x00eaa2    program     static                          
           ___if_lbl00027   0x018ba4    program     static                          
           ___if_lbl00027   0x013380    program     static                          
           ___if_lbl00028   0x00eaa2    program     static                          
           ___if_lbl00029   0x018ba4    program     static                          
           ___if_lbl00030   0x013400    program     static                          
           ___if_lbl00031   0x018ba4    program     static                          
           ___if_lbl00122   0x00f050    program     static                          
           ___if_lbl00129   0x00f118    program     static                          
           ___if_lbl00130   0x00f12a    program     static                          
           ___if_lbl00132   0x00f162    program     static                          
           ___if_lbl00139   0x00f22e    program     static                          
           ___if_lbl00140   0x00f240    program     static                          
           ___if_lbl00142   0x00f278    program     static                          
           ___if_lbl00149   0x00f344    program     static                          
           ___if_lbl00150   0x00f356    program     static                          
       ___return_lbl00000   0x000004    program     static                          
       ___return_lbl00000   0x01d134    program     static                          
       ___return_lbl00000   0x01184c    program     static                          
       ___return_lbl00000   0x01d108    program     static                          
       ___return_lbl00000   0x01ccc4    program     static                          
       ___return_lbl00000   0x013108    program     static                          
       ___return_lbl00000   0x01d052    program     static                          
       ___return_lbl00000   0x01c5d0    program     static                          
       ___return_lbl00001   0x01d178    program     static                          
       ___return_lbl00001   0x01bc0a    program     static                          
       ___return_lbl00001   0x01ca4c    program     static                          
       ___return_lbl00002   0x01ccbc    program     static                          
       ___return_lbl00004   0x01bce2    program     static                          
       ___return_lbl00007   0x00001c    program     static                          
       ___return_lbl00008   0x00000c    program     static                          
       ___return_lbl00010   0x018ad6    program     static                          
       ___return_lbl00012   0x00e974    program     static                          
       ___return_lbl00018   0x00ea4a    program     static                          
       ___return_lbl00019   0x013408    program     static                          
       ___return_lbl00022   0x018b30    program     static                          
       ___return_lbl00024   0x00eb20    program     static                          
       ___return_lbl00025   0x018bc6    program     static                          
       ___return_lbl00079   0x013882    program     static                          
       ___return_lbl00080   0x0138d2    program     static                          
       ___return_lbl00083   0x013934    program     static                          
       ___return_lbl00086   0x01398e    program     static                          
       ___return_lbl00089   0x0139e0    program     static                          
       ___return_lbl00121   0x011fea    program     static                          
       ___return_lbl00121   0x00f12a    program     static                          
       ___return_lbl00131   0x00f240    program     static                          
       ___return_lbl00141   0x00f356    program     static                          
        ___while_lbl00001   0x01301a    program     static                          
        ___while_lbl00001   0x0115d2    program     static                          
        ___while_lbl00002   0x013020    program     static                          
        ___while_lbl00002   0x011804    program     static                          
        ___while_lbl00002   0x01bbee    program     static                          
        ___while_lbl00003   0x0115da    program     static                          
        ___while_lbl00003   0x01bbf6    program     static                          
        ___while_lbl00004   0x0115de    program     static                          
        ___while_lbl00081   0x01389e    program     static                          
        ___while_lbl00082   0x0138d2    program     static                          
        ___while_lbl00084   0x0138ee    program     static                          
        ___while_lbl00085   0x013934    program     static                          
        ___while_lbl00087   0x013964    program     static                          
        ___while_lbl00088   0x01396a    program     static                          
        ___while_lbl00090   0x0139da    program     static                          
        ___while_lbl00091   0x0139e0    program     static                          
        ___while_lbl00123   0x00f074    program     static                          
        ___while_lbl00124   0x00f0ec    program     static                          
        ___while_lbl00126   0x00f0ca    program     static                          
        ___while_lbl00127   0x00f0ea    program     static                          
        ___while_lbl00133   0x00f186    program     static                          
        ___while_lbl00134   0x00f202    program     static                          
        ___while_lbl00136   0x00f1e0    program     static                          
        ___while_lbl00137   0x00f200    program     static                          
        ___while_lbl00143   0x00f29c    program     static                          
        ___while_lbl00144   0x00f318    program     static                          
        ___while_lbl00146   0x00f2f6    program     static                          
        ___while_lbl00147   0x00f316    program     static                          
               __config_0   0x01fff8    program     static C:\pavan\1+1RCUTx\1-1-RCU-T-NewArch_svn_web_changes\Main\Main.c
               __config_1   0x01fffa    program     static C:\pavan\1+1RCUTx\1-1-RCU-T-NewArch_svn_web_changes\Main\Main.c
               __config_2   0x01fffd    program     static C:\pavan\1+1RCUTx\1-1-RCU-T-NewArch_svn_web_changes\Main\Main.c
                   __init   0x01d20e    program     extern C:\Program Files\mcc18\src\traditional\stdclib\__init.c
                   __pa_0   0x01a946    program     static C:\pavan\1+1RCUTx\1-1-RCU-T-NewArch_svn_web_changes\Drivers\AgilisUart.c
                   __pa_0   0x01be68    program     static C:\pavan\1+1RCUTx\1-1-RCU-T-NewArch_svn_web_changes\Drivers\External-Peripherals\devadc.c
                   __pa_0   0x0166de    program     static C:\pavan\1+1RCUTx\1-1-RCU-T-NewArch_svn_web_changes\App\WebUI\AgilisHTTPGetDevInfo.c
                   __pa_0   0x012cca    program     static C:\pavan\1+1RCUTx\1-1-RCU-T-NewArch_svn_web_changes\Microchip\TCPIP Stack\UDP.c
                   __pa_0   0x01b7e6    program     static C:\pavan\1+1RCUTx\1-1-RCU-T-NewArch_svn_web_changes\Agilis-SysLib\task.c
                   __pa_0   0x01600a    program     static C:\pavan\1+1RCUTx\1-1-RCU-T-NewArch_svn_web_changes\App\WebUI\AgilisHTTPApp.c
                   __pa_0   0x015754    program     static C:\pavan\1+1RCUTx\1-1-RCU-T-NewArch_svn_web_changes\Microchip\TCPIP Stack\DHCP.c
                   __pa_0   0x00f586    program     static C:\pavan\1+1RCUTx\1-1-RCU-T-NewArch_svn_web_changes\Drivers\UARTISR.c
                   __pa_0   0x01a5c8    program     static C:\pavan\1+1RCUTx\1-1-RCU-T-NewArch_svn_web_changes\App\SNMP\AgilisSNMPLLRCUCmds.c
                   __pa_0   0x019274    program     static C:\pavan\1+1RCUTx\1-1-RCU-T-NewArch_svn_web_changes\Microchip\TCPIP Stack\ARP.c
                   __pa_0   0x002dcc    program     static C:\pavan\1+1RCUTx\1-1-RCU-T-NewArch_svn_web_changes\Microchip\TCPIP Stack\TCP.c
                   __pa_0   0x012082    program     static C:\pavan\1+1RCUTx\1-1-RCU-T-NewArch_svn_web_changes\Microchip\TCPIP Stack\Helpers.c
                   __pa_0   0x010288    program     static C:\pavan\1+1RCUTx\1-1-RCU-T-NewArch_svn_web_changes\App\WebUI\AgilisHTTPPrint.c
                   __pa_0   0x01caf4    program     static C:\pavan\1+1RCUTx\1-1-RCU-T-NewArch_svn_web_changes\Microchip\TCPIP Stack\Tick.c
                   __pa_0   0x01b5fc    program     static C:\pavan\1+1RCUTx\1-1-RCU-T-NewArch_svn_web_changes\Microchip\TCPIP Stack\StackTsk.c
                   __pa_0   0x0187a0    program     static C:\pavan\1+1RCUTx\1-1-RCU-T-NewArch_svn_web_changes\Bootstrap\Initialization.c
                   __pa_0   0x014eb4    program     static C:\pavan\1+1RCUTx\1-1-RCU-T-NewArch_svn_web_changes\AgilisDevices\RCULLAccess.c
                   __pa_0   0x01cbe2    program     static C:\pavan\1+1RCUTx\1-1-RCU-T-NewArch_svn_web_changes\Microchip\TCPIP Stack\UART.c
                   __pa_0   0x00b83c    program     static C:\pavan\1+1RCUTx\1-1-RCU-T-NewArch_svn_web_changes\AgilisDevices\RCUServer.c
                   __pa_0   0x01c824    program     static C:\pavan\1+1RCUTx\1-1-RCU-T-NewArch_svn_web_changes\App\SNMP\AgilisSNMPLLBucDevInfo.c
                   __pa_0   0x01c566    program     static C:\pavan\1+1RCUTx\1-1-RCU-T-NewArch_svn_web_changes\App\Task\AgilisTaskManager.c
                   __pa_0   0x0096ac    program     static C:\pavan\1+1RCUTx\1-1-RCU-T-NewArch_svn_web_changes\Microchip\TCPIP Stack\HTTP2.c
                   __pa_0   0x01ba0e    program     static C:\pavan\1+1RCUTx\1-1-RCU-T-NewArch_svn_web_changes\App\SNMP\AgilisSNMPLLBUCOp.c
                   __pa_0   0x01cd18    program     static C:\pavan\1+1RCUTx\1-1-RCU-T-NewArch_svn_web_changes\App\Task\RCUTask.c
                   __pa_0   0x01c71e    program     static C:\pavan\1+1RCUTx\1-1-RCU-T-NewArch_svn_web_changes\Main\Main.c
                   __pa_0   0x01c054    program     static C:\pavan\1+1RCUTx\1-1-RCU-T-NewArch_svn_web_changes\Drivers\MCU-Internal\ISR.c
                   __pa_0   0x01108a    program     static C:\pavan\1+1RCUTx\1-1-RCU-T-NewArch_svn_web_changes\Microchip\TCPIP Stack\MPFS2.c
                   __pa_0   0x01ac7c    program     static C:\pavan\1+1RCUTx\1-1-RCU-T-NewArch_svn_web_changes\AgilisDevices\RCUHLAccess.c
                   __pa_0   0x018dd4    program     static C:\pavan\1+1RCUTx\1-1-RCU-T-NewArch_svn_web_changes\Drivers\External-Peripherals\AgilisDualUART.c
                   __pa_0   0x01c9f0    program     static C:\pavan\1+1RCUTx\1-1-RCU-T-NewArch_svn_web_changes\Microchip\TCPIP Stack\ICMP.c
                   __pa_0   0x013a0e    program     static C:\pavan\1+1RCUTx\1-1-RCU-T-NewArch_svn_web_changes\Microchip\TCPIP Stack\ETH97J60.c
                   __pa_0   0x019a7a    program     static C:\pavan\1+1RCUTx\1-1-RCU-T-NewArch_svn_web_changes\App\SNMP\AgilisSNMPSysInfo.c
                   __pa_0   0x016e20    program     static C:\pavan\1+1RCUTx\1-1-RCU-T-NewArch_svn_web_changes\Agilis-SysLib\util.c
                   __pa_0   0x01b30c    program     static C:\pavan\1+1RCUTx\1-1-RCU-T-NewArch_svn_web_changes\Microchip\TCPIP Stack\SPIEEPROM.c
                   __pa_0   0x01ce20    program     static C:\pavan\1+1RCUTx\1-1-RCU-T-NewArch_svn_web_changes\Agilis-SysLib\list.c
                   __pa_0   0x017518    program     static C:\pavan\1+1RCUTx\1-1-RCU-T-NewArch_svn_web_changes\App\SerialIntf\AgilisProtocol\AgilisProtocol.c
                   __pa_0   0x00e47a    program     static C:\pavan\1+1RCUTx\1-1-RCU-T-NewArch_svn_web_changes\App\SNMP\AgilisSNMPApp.c
                   __pa_0   0x019db4    program     static C:\pavan\1+1RCUTx\1-1-RCU-T-NewArch_svn_web_changes\App\SNMP\AgilisSNMPLLBUCStatus.c
                   __pa_0   0x01c248    program     static C:\pavan\1+1RCUTx\1-1-RCU-T-NewArch_svn_web_changes\Drivers\AgilisDriverManager.c
                   __pa_0   0x01affa    program     static C:\pavan\1+1RCUTx\1-1-RCU-T-NewArch_svn_web_changes\Microchip\TCPIP Stack\IP.c
                   __pa_0   0x006d84    program     static C:\pavan\1+1RCUTx\1-1-RCU-T-NewArch_svn_web_changes\Microchip\TCPIP Stack\SNMP.c
                   __pa_0   0x018344    program     static C:\pavan\1+1RCUTx\1-1-RCU-T-NewArch_svn_web_changes\AgilisDevices\AgilisDeviceManager.c
                   __pa_0   0x01a214    program     static C:\pavan\1+1RCUTx\1-1-RCU-T-NewArch_svn_web_changes\App\Util\AgilisAppUtil.c
                   __pa_0   0x00cf48    program     static C:\pavan\1+1RCUTx\1-1-RCU-T-NewArch_svn_web_changes\AgilisDevices\BUCClient.c
                   __pa_1   0x006d92    program     static C:\pavan\1+1RCUTx\1-1-RCU-T-NewArch_svn_web_changes\Microchip\TCPIP Stack\SNMP.c
                   __pa_1   0x016700    program     static C:\pavan\1+1RCUTx\1-1-RCU-T-NewArch_svn_web_changes\App\WebUI\AgilisHTTPGetDevInfo.c
                   __pa_1   0x01c07e    program     static C:\pavan\1+1RCUTx\1-1-RCU-T-NewArch_svn_web_changes\Drivers\MCU-Internal\ISR.c
                   __pa_1   0x01c83c    program     static C:\pavan\1+1RCUTx\1-1-RCU-T-NewArch_svn_web_changes\App\SNMP\AgilisSNMPLLBucDevInfo.c
                   __pa_1   0x0096b6    program     static C:\pavan\1+1RCUTx\1-1-RCU-T-NewArch_svn_web_changes\Microchip\TCPIP Stack\HTTP2.c
                   __pa_1   0x01ba2e    program     static C:\pavan\1+1RCUTx\1-1-RCU-T-NewArch_svn_web_changes\App\SNMP\AgilisSNMPLLBUCOp.c
                   __pa_1   0x01cd2a    program     static C:\pavan\1+1RCUTx\1-1-RCU-T-NewArch_svn_web_changes\App\Task\RCUTask.c
                   __pa_1   0x01c738    program     static C:\pavan\1+1RCUTx\1-1-RCU-T-NewArch_svn_web_changes\Main\Main.c
                   __pa_1   0x018dde    program     static C:\pavan\1+1RCUTx\1-1-RCU-T-NewArch_svn_web_changes\Drivers\External-Peripherals\AgilisDualUART.c
                   __pa_1   0x011090    program     static C:\pavan\1+1RCUTx\1-1-RCU-T-NewArch_svn_web_changes\Microchip\TCPIP Stack\MPFS2.c
                   __pa_1   0x01ca00    program     static C:\pavan\1+1RCUTx\1-1-RCU-T-NewArch_svn_web_changes\Microchip\TCPIP Stack\ICMP.c
                   __pa_1   0x01b31e    program     static C:\pavan\1+1RCUTx\1-1-RCU-T-NewArch_svn_web_changes\Microchip\TCPIP Stack\SPIEEPROM.c
                   __pa_1   0x017538    program     static C:\pavan\1+1RCUTx\1-1-RCU-T-NewArch_svn_web_changes\App\SerialIntf\AgilisProtocol\AgilisProtocol.c
                   __pa_1   0x0187b6    program     static C:\pavan\1+1RCUTx\1-1-RCU-T-NewArch_svn_web_changes\Bootstrap\Initialization.c
                   __pa_1   0x00e496    program     static C:\pavan\1+1RCUTx\1-1-RCU-T-NewArch_svn_web_changes\App\SNMP\AgilisSNMPApp.c
                   __pa_1   0x019dcc    program     static C:\pavan\1+1RCUTx\1-1-RCU-T-NewArch_svn_web_changes\App\SNMP\AgilisSNMPLLBUCStatus.c
                   __pa_1   0x01c260    program     static C:\pavan\1+1RCUTx\1-1-RCU-T-NewArch_svn_web_changes\Drivers\AgilisDriverManager.c
                   __pa_1   0x018356    program     static C:\pavan\1+1RCUTx\1-1-RCU-T-NewArch_svn_web_changes\AgilisDevices\AgilisDeviceManager.c
                   __pa_1   0x00cf5e    program     static C:\pavan\1+1RCUTx\1-1-RCU-T-NewArch_svn_web_changes\AgilisDevices\BUCClient.c
                   __pa_1   0x01a95a    program     static C:\pavan\1+1RCUTx\1-1-RCU-T-NewArch_svn_web_changes\Drivers\AgilisUart.c
                   __pa_1   0x01beae    program     static C:\pavan\1+1RCUTx\1-1-RCU-T-NewArch_svn_web_changes\Drivers\External-Peripherals\devadc.c
                   __pa_1   0x016018    program     static C:\pavan\1+1RCUTx\1-1-RCU-T-NewArch_svn_web_changes\App\WebUI\AgilisHTTPApp.c
                   __pa_1   0x01575a    program     static C:\pavan\1+1RCUTx\1-1-RCU-T-NewArch_svn_web_changes\Microchip\TCPIP Stack\DHCP.c
                   __pa_1   0x00f598    program     static C:\pavan\1+1RCUTx\1-1-RCU-T-NewArch_svn_web_changes\Drivers\UARTISR.c
                   __pa_1   0x01cb02    program     static C:\pavan\1+1RCUTx\1-1-RCU-T-NewArch_svn_web_changes\Microchip\TCPIP Stack\Tick.c
                   __pa_1   0x01cbf4    program     static C:\pavan\1+1RCUTx\1-1-RCU-T-NewArch_svn_web_changes\Microchip\TCPIP Stack\UART.c
                   __pa_1   0x019a8e    program     static C:\pavan\1+1RCUTx\1-1-RCU-T-NewArch_svn_web_changes\App\SNMP\AgilisSNMPSysInfo.c
                   __pa_1   0x016e26    program     static C:\pavan\1+1RCUTx\1-1-RCU-T-NewArch_svn_web_changes\Agilis-SysLib\util.c
                   __pa_1   0x01b7fa    program     static C:\pavan\1+1RCUTx\1-1-RCU-T-NewArch_svn_web_changes\Agilis-SysLib\task.c
                   __pa_1   0x01b01c    program     static C:\pavan\1+1RCUTx\1-1-RCU-T-NewArch_svn_web_changes\Microchip\TCPIP Stack\IP.c
                   __pa_1   0x01ac8e    program     static C:\pavan\1+1RCUTx\1-1-RCU-T-NewArch_svn_web_changes\AgilisDevices\RCUHLAccess.c
                   __pa_1   0x019282    program     static C:\pavan\1+1RCUTx\1-1-RCU-T-NewArch_svn_web_changes\Microchip\TCPIP Stack\ARP.c
                   __pa_1   0x01a5da    program     static C:\pavan\1+1RCUTx\1-1-RCU-T-NewArch_svn_web_changes\App\SNMP\AgilisSNMPLLRCUCmds.c
                   __pa_1   0x012cde    program     static C:\pavan\1+1RCUTx\1-1-RCU-T-NewArch_svn_web_changes\Microchip\TCPIP Stack\UDP.c
                   __pa_1   0x01a25c    program     static C:\pavan\1+1RCUTx\1-1-RCU-T-NewArch_svn_web_changes\App\Util\AgilisAppUtil.c
                   __pa_1   0x0102a6    program     static C:\pavan\1+1RCUTx\1-1-RCU-T-NewArch_svn_web_changes\App\WebUI\AgilisHTTPPrint.c
                   __pa_1   0x002df4    program     static C:\pavan\1+1RCUTx\1-1-RCU-T-NewArch_svn_web_changes\Microchip\TCPIP Stack\TCP.c
                   __pa_1   0x01b60c    program     static C:\pavan\1+1RCUTx\1-1-RCU-T-NewArch_svn_web_changes\Microchip\TCPIP Stack\StackTsk.c
                   __pa_1   0x014ec0    program     static C:\pavan\1+1RCUTx\1-1-RCU-T-NewArch_svn_web_changes\AgilisDevices\RCULLAccess.c
                   __pa_1   0x00b842    program     static C:\pavan\1+1RCUTx\1-1-RCU-T-NewArch_svn_web_changes\AgilisDevices\RCUServer.c
                   __pa_1   0x01ce34    program     static C:\pavan\1+1RCUTx\1-1-RCU-T-NewArch_svn_web_changes\Agilis-SysLib\list.c
                   __pa_1   0x012094    program     static C:\pavan\1+1RCUTx\1-1-RCU-T-NewArch_svn_web_changes\Microchip\TCPIP Stack\Helpers.c
                   __pa_1   0x01c57c    program     static C:\pavan\1+1RCUTx\1-1-RCU-T-NewArch_svn_web_changes\App\Task\AgilisTaskManager.c
                   __pa_1   0x013a20    program     static C:\pavan\1+1RCUTx\1-1-RCU-T-NewArch_svn_web_changes\Microchip\TCPIP Stack\ETH97J60.c
                  __pa_10   0x01b090    program     static C:\pavan\1+1RCUTx\1-1-RCU-T-NewArch_svn_web_changes\Microchip\TCPIP Stack\IP.c
                  __pa_10   0x0175cc    program     static C:\pavan\1+1RCUTx\1-1-RCU-T-NewArch_svn_web_changes\App\SerialIntf\AgilisProtocol\AgilisProtocol.c
                  __pa_10   0x013aa0    program     static C:\pavan\1+1RCUTx\1-1-RCU-T-NewArch_svn_web_changes\Microchip\TCPIP Stack\ETH97J60.c
                  __pa_10   0x018e52    program     static C:\pavan\1+1RCUTx\1-1-RCU-T-NewArch_svn_web_changes\Drivers\External-Peripherals\AgilisDualUART.c
                  __pa_10   0x01609e    program     static C:\pavan\1+1RCUTx\1-1-RCU-T-NewArch_svn_web_changes\App\WebUI\AgilisHTTPApp.c
                  __pa_10   0x00979c    program     static C:\pavan\1+1RCUTx\1-1-RCU-T-NewArch_svn_web_changes\Microchip\TCPIP Stack\HTTP2.c
                  __pa_10   0x011136    program     static C:\pavan\1+1RCUTx\1-1-RCU-T-NewArch_svn_web_changes\Microchip\TCPIP Stack\MPFS2.c
                  __pa_10   0x01c8ae    program     static C:\pavan\1+1RCUTx\1-1-RCU-T-NewArch_svn_web_changes\App\SNMP\AgilisSNMPLLBucDevInfo.c
                  __pa_10   0x01a2da    program     static C:\pavan\1+1RCUTx\1-1-RCU-T-NewArch_svn_web_changes\App\Util\AgilisAppUtil.c
                  __pa_10   0x0188bc    program     static C:\pavan\1+1RCUTx\1-1-RCU-T-NewArch_svn_web_changes\Bootstrap\Initialization.c
                  __pa_10   0x01bad8    program     static C:\pavan\1+1RCUTx\1-1-RCU-T-NewArch_svn_web_changes\App\SNMP\AgilisSNMPLLBUCOp.c
                  __pa_10   0x019b18    program     static C:\pavan\1+1RCUTx\1-1-RCU-T-NewArch_svn_web_changes\App\SNMP\AgilisSNMPSysInfo.c
                  __pa_10   0x01ad50    program     static C:\pavan\1+1RCUTx\1-1-RCU-T-NewArch_svn_web_changes\AgilisDevices\RCUHLAccess.c
                  __pa_10   0x012d60    program     static C:\pavan\1+1RCUTx\1-1-RCU-T-NewArch_svn_web_changes\Microchip\TCPIP Stack\UDP.c
                  __pa_10   0x0167d0    program     static C:\pavan\1+1RCUTx\1-1-RCU-T-NewArch_svn_web_changes\App\WebUI\AgilisHTTPGetDevInfo.c
                  __pa_10   0x00b92c    program     static C:\pavan\1+1RCUTx\1-1-RCU-T-NewArch_svn_web_changes\AgilisDevices\RCUServer.c
                  __pa_10   0x015800    program     static C:\pavan\1+1RCUTx\1-1-RCU-T-NewArch_svn_web_changes\Microchip\TCPIP Stack\DHCP.c
                  __pa_10   0x014f4c    program     static C:\pavan\1+1RCUTx\1-1-RCU-T-NewArch_svn_web_changes\AgilisDevices\RCULLAccess.c
                  __pa_10   0x002f16    program     static C:\pavan\1+1RCUTx\1-1-RCU-T-NewArch_svn_web_changes\Microchip\TCPIP Stack\TCP.c
                  __pa_10   0x00d008    program     static C:\pavan\1+1RCUTx\1-1-RCU-T-NewArch_svn_web_changes\AgilisDevices\BUCClient.c
                  __pa_10   0x00f60c    program     static C:\pavan\1+1RCUTx\1-1-RCU-T-NewArch_svn_web_changes\Drivers\UARTISR.c
                  __pa_10   0x006dfc    program     static C:\pavan\1+1RCUTx\1-1-RCU-T-NewArch_svn_web_changes\Microchip\TCPIP Stack\SNMP.c
                  __pa_10   0x019e40    program     static C:\pavan\1+1RCUTx\1-1-RCU-T-NewArch_svn_web_changes\App\SNMP\AgilisSNMPLLBUCStatus.c
                  __pa_10   0x010328    program     static C:\pavan\1+1RCUTx\1-1-RCU-T-NewArch_svn_web_changes\App\WebUI\AgilisHTTPPrint.c
                  __pa_10   0x01930c    program     static C:\pavan\1+1RCUTx\1-1-RCU-T-NewArch_svn_web_changes\Microchip\TCPIP Stack\ARP.c
                  __pa_10   0x01a9ea    program     static C:\pavan\1+1RCUTx\1-1-RCU-T-NewArch_svn_web_changes\Drivers\AgilisUart.c
                  __pa_10   0x01a65c    program     static C:\pavan\1+1RCUTx\1-1-RCU-T-NewArch_svn_web_changes\App\SNMP\AgilisSNMPLLRCUCmds.c
                  __pa_10   0x00e52c    program     static C:\pavan\1+1RCUTx\1-1-RCU-T-NewArch_svn_web_changes\App\SNMP\AgilisSNMPApp.c
                  __pa_10   0x01b86a    program     static C:\pavan\1+1RCUTx\1-1-RCU-T-NewArch_svn_web_changes\Agilis-SysLib\task.c
                  __pa_10   0x01216a    program     static C:\pavan\1+1RCUTx\1-1-RCU-T-NewArch_svn_web_changes\Microchip\TCPIP Stack\Helpers.c
                  __pa_10   0x016f0a    program     static C:\pavan\1+1RCUTx\1-1-RCU-T-NewArch_svn_web_changes\Agilis-SysLib\util.c
                 __pa_100   0x00bdf8    program     static C:\pavan\1+1RCUTx\1-1-RCU-T-NewArch_svn_web_changes\AgilisDevices\RCUServer.c
                 __pa_100   0x007268    program     static C:\pavan\1+1RCUTx\1-1-RCU-T-NewArch_svn_web_changes\Microchip\TCPIP Stack\SNMP.c
                 __pa_100   0x00350c    program     static C:\pavan\1+1RCUTx\1-1-RCU-T-NewArch_svn_web_changes\Microchip\TCPIP Stack\TCP.c
                 __pa_100   0x00d400    program     static C:\pavan\1+1RCUTx\1-1-RCU-T-NewArch_svn_web_changes\AgilisDevices\BUCClient.c
                 __pa_100   0x009c0c    program     static C:\pavan\1+1RCUTx\1-1-RCU-T-NewArch_svn_web_changes\Microchip\TCPIP Stack\HTTP2.c
                 __pa_101   0x003524    program     static C:\pavan\1+1RCUTx\1-1-RCU-T-NewArch_svn_web_changes\Microchip\TCPIP Stack\TCP.c
                 __pa_101   0x00d408    program     static C:\pavan\1+1RCUTx\1-1-RCU-T-NewArch_svn_web_changes\AgilisDevices\BUCClient.c
                 __pa_101   0x009c14    program     static C:\pavan\1+1RCUTx\1-1-RCU-T-NewArch_svn_web_changes\Microchip\TCPIP Stack\HTTP2.c
                 __pa_101   0x00bdfe    program     static C:\pavan\1+1RCUTx\1-1-RCU-T-NewArch_svn_web_changes\AgilisDevices\RCUServer.c
                 __pa_101   0x007272    program     static C:\pavan\1+1RCUTx\1-1-RCU-T-NewArch_svn_web_changes\Microchip\TCPIP Stack\SNMP.c
                 __pa_102   0x009c22    program     static C:\pavan\1+1RCUTx\1-1-RCU-T-NewArch_svn_web_changes\Microchip\TCPIP Stack\HTTP2.c
                 __pa_102   0x00be08    program     static C:\pavan\1+1RCUTx\1-1-RCU-T-NewArch_svn_web_changes\AgilisDevices\RCUServer.c
                 __pa_102   0x00727c    program     static C:\pavan\1+1RCUTx\1-1-RCU-T-NewArch_svn_web_changes\Microchip\TCPIP Stack\SNMP.c
                 __pa_102   0x003530    program     static C:\pavan\1+1RCUTx\1-1-RCU-T-NewArch_svn_web_changes\Microchip\TCPIP Stack\TCP.c
                 __pa_102   0x00d410    program     static C:\pavan\1+1RCUTx\1-1-RCU-T-NewArch_svn_web_changes\AgilisDevices\BUCClient.c
                 __pa_103   0x007284    program     static C:\pavan\1+1RCUTx\1-1-RCU-T-NewArch_svn_web_changes\Microchip\TCPIP Stack\SNMP.c
                 __pa_103   0x009c30    program     static C:\pavan\1+1RCUTx\1-1-RCU-T-NewArch_svn_web_changes\Microchip\TCPIP Stack\HTTP2.c
                 __pa_103   0x00be0e    program     static C:\pavan\1+1RCUTx\1-1-RCU-T-NewArch_svn_web_changes\AgilisDevices\RCUServer.c
                 __pa_103   0x00d416    program     static C:\pavan\1+1RCUTx\1-1-RCU-T-NewArch_svn_web_changes\AgilisDevices\BUCClient.c
                 __pa_103   0x00353c    program     static C:\pavan\1+1RCUTx\1-1-RCU-T-NewArch_svn_web_changes\Microchip\TCPIP Stack\TCP.c
                 __pa_104   0x00d41c    program     static C:\pavan\1+1RCUTx\1-1-RCU-T-NewArch_svn_web_changes\AgilisDevices\BUCClient.c
                 __pa_104   0x009c38    program     static C:\pavan\1+1RCUTx\1-1-RCU-T-NewArch_svn_web_changes\Microchip\TCPIP Stack\HTTP2.c
                 __pa_104   0x003548    program     static C:\pavan\1+1RCUTx\1-1-RCU-T-NewArch_svn_web_changes\Microchip\TCPIP Stack\TCP.c
                 __pa_104   0x00be16    program     static C:\pavan\1+1RCUTx\1-1-RCU-T-NewArch_svn_web_changes\AgilisDevices\RCUServer.c
                 __pa_104   0x00728c    program     static C:\pavan\1+1RCUTx\1-1-RCU-T-NewArch_svn_web_changes\Microchip\TCPIP Stack\SNMP.c
                 __pa_105   0x00be1e    program     static C:\pavan\1+1RCUTx\1-1-RCU-T-NewArch_svn_web_changes\AgilisDevices\RCUServer.c
                 __pa_105   0x007298    program     static C:\pavan\1+1RCUTx\1-1-RCU-T-NewArch_svn_web_changes\Microchip\TCPIP Stack\SNMP.c
                 __pa_105   0x009c46    program     static C:\pavan\1+1RCUTx\1-1-RCU-T-NewArch_svn_web_changes\Microchip\TCPIP Stack\HTTP2.c
                 __pa_105   0x00355e    program     static C:\pavan\1+1RCUTx\1-1-RCU-T-NewArch_svn_web_changes\Microchip\TCPIP Stack\TCP.c
                 __pa_105   0x00d426    program     static C:\pavan\1+1RCUTx\1-1-RCU-T-NewArch_svn_web_changes\AgilisDevices\BUCClient.c
                 __pa_106   0x00be24    program     static C:\pavan\1+1RCUTx\1-1-RCU-T-NewArch_svn_web_changes\AgilisDevices\RCUServer.c
                 __pa_106   0x009c50    program     static C:\pavan\1+1RCUTx\1-1-RCU-T-NewArch_svn_web_changes\Microchip\TCPIP Stack\HTTP2.c
                 __pa_106   0x0072a8    program     static C:\pavan\1+1RCUTx\1-1-RCU-T-NewArch_svn_web_changes\Microchip\TCPIP Stack\SNMP.c
                 __pa_106   0x00356e    program     static C:\pavan\1+1RCUTx\1-1-RCU-T-NewArch_svn_web_changes\Microchip\TCPIP Stack\TCP.c
                 __pa_106   0x00d42c    program     static C:\pavan\1+1RCUTx\1-1-RCU-T-NewArch_svn_web_changes\AgilisDevices\BUCClient.c
                 __pa_107   0x003584    program     static C:\pavan\1+1RCUTx\1-1-RCU-T-NewArch_svn_web_changes\Microchip\TCPIP Stack\TCP.c
                 __pa_107   0x0072b8    program     static C:\pavan\1+1RCUTx\1-1-RCU-T-NewArch_svn_web_changes\Microchip\TCPIP Stack\SNMP.c
                 __pa_107   0x00be3a    program     static C:\pavan\1+1RCUTx\1-1-RCU-T-NewArch_svn_web_changes\AgilisDevices\RCUServer.c
                 __pa_107   0x00d432    program     static C:\pavan\1+1RCUTx\1-1-RCU-T-NewArch_svn_web_changes\AgilisDevices\BUCClient.c
                 __pa_107   0x009c5c    program     static C:\pavan\1+1RCUTx\1-1-RCU-T-NewArch_svn_web_changes\Microchip\TCPIP Stack\HTTP2.c
                 __pa_108   0x00d438    program     static C:\pavan\1+1RCUTx\1-1-RCU-T-NewArch_svn_web_changes\AgilisDevices\BUCClient.c
                 __pa_108   0x00be42    program     static C:\pavan\1+1RCUTx\1-1-RCU-T-NewArch_svn_web_changes\AgilisDevices\RCUServer.c
                 __pa_108   0x0072c0    program     static C:\pavan\1+1RCUTx\1-1-RCU-T-NewArch_svn_web_changes\Microchip\TCPIP Stack\SNMP.c
                 __pa_108   0x009c6c    program     static C:\pavan\1+1RCUTx\1-1-RCU-T-NewArch_svn_web_changes\Microchip\TCPIP Stack\HTTP2.c
                 __pa_108   0x00359a    program     static C:\pavan\1+1RCUTx\1-1-RCU-T-NewArch_svn_web_changes\Microchip\TCPIP Stack\TCP.c
                 __pa_109   0x00d43e    program     static C:\pavan\1+1RCUTx\1-1-RCU-T-NewArch_svn_web_changes\AgilisDevices\BUCClient.c
                 __pa_109   0x00be52    program     static C:\pavan\1+1RCUTx\1-1-RCU-T-NewArch_svn_web_changes\AgilisDevices\RCUServer.c
                 __pa_109   0x0072c8    program     static C:\pavan\1+1RCUTx\1-1-RCU-T-NewArch_svn_web_changes\Microchip\TCPIP Stack\SNMP.c
                 __pa_109   0x009c74    program     static C:\pavan\1+1RCUTx\1-1-RCU-T-NewArch_svn_web_changes\Microchip\TCPIP Stack\HTTP2.c
                 __pa_109   0x0035a8    program     static C:\pavan\1+1RCUTx\1-1-RCU-T-NewArch_svn_web_changes\Microchip\TCPIP Stack\TCP.c
                  __pa_11   0x00f61e    program     static C:\pavan\1+1RCUTx\1-1-RCU-T-NewArch_svn_web_changes\Drivers\UARTISR.c
                  __pa_11   0x006e0a    program     static C:\pavan\1+1RCUTx\1-1-RCU-T-NewArch_svn_web_changes\Microchip\TCPIP Stack\SNMP.c
                  __pa_11   0x019314    program     static C:\pavan\1+1RCUTx\1-1-RCU-T-NewArch_svn_web_changes\Microchip\TCPIP Stack\ARP.c
                  __pa_11   0x019e52    program     static C:\pavan\1+1RCUTx\1-1-RCU-T-NewArch_svn_web_changes\App\SNMP\AgilisSNMPLLBUCStatus.c
                  __pa_11   0x002f42    program     static C:\pavan\1+1RCUTx\1-1-RCU-T-NewArch_svn_web_changes\Microchip\TCPIP Stack\TCP.c
                  __pa_11   0x014f5e    program     static C:\pavan\1+1RCUTx\1-1-RCU-T-NewArch_svn_web_changes\AgilisDevices\RCULLAccess.c
                  __pa_11   0x00b95e    program     static C:\pavan\1+1RCUTx\1-1-RCU-T-NewArch_svn_web_changes\AgilisDevices\RCUServer.c
                  __pa_11   0x012d6e    program     static C:\pavan\1+1RCUTx\1-1-RCU-T-NewArch_svn_web_changes\Microchip\TCPIP Stack\UDP.c
                  __pa_11   0x01a9f4    program     static C:\pavan\1+1RCUTx\1-1-RCU-T-NewArch_svn_web_changes\Drivers\AgilisUart.c
                  __pa_11   0x00e534    program     static C:\pavan\1+1RCUTx\1-1-RCU-T-NewArch_svn_web_changes\App\SNMP\AgilisSNMPApp.c
                  __pa_11   0x0175f8    program     static C:\pavan\1+1RCUTx\1-1-RCU-T-NewArch_svn_web_changes\App\SerialIntf\AgilisProtocol\AgilisProtocol.c
                  __pa_11   0x01b876    program     static C:\pavan\1+1RCUTx\1-1-RCU-T-NewArch_svn_web_changes\Agilis-SysLib\task.c
                  __pa_11   0x0188d4    program     static C:\pavan\1+1RCUTx\1-1-RCU-T-NewArch_svn_web_changes\Bootstrap\Initialization.c
                  __pa_11   0x01ad5e    program     static C:\pavan\1+1RCUTx\1-1-RCU-T-NewArch_svn_web_changes\AgilisDevices\RCUHLAccess.c
                  __pa_11   0x01bae6    program     static C:\pavan\1+1RCUTx\1-1-RCU-T-NewArch_svn_web_changes\App\SNMP\AgilisSNMPLLBUCOp.c
                  __pa_11   0x01c8b8    program     static C:\pavan\1+1RCUTx\1-1-RCU-T-NewArch_svn_web_changes\App\SNMP\AgilisSNMPLLBucDevInfo.c
                  __pa_11   0x0097a2    program     static C:\pavan\1+1RCUTx\1-1-RCU-T-NewArch_svn_web_changes\Microchip\TCPIP Stack\HTTP2.c
                  __pa_11   0x010334    program     static C:\pavan\1+1RCUTx\1-1-RCU-T-NewArch_svn_web_changes\App\WebUI\AgilisHTTPPrint.c
                  __pa_11   0x01114c    program     static C:\pavan\1+1RCUTx\1-1-RCU-T-NewArch_svn_web_changes\Microchip\TCPIP Stack\MPFS2.c
                  __pa_11   0x019b24    program     static C:\pavan\1+1RCUTx\1-1-RCU-T-NewArch_svn_web_changes\App\SNMP\AgilisSNMPSysInfo.c
                  __pa_11   0x018e64    program     static C:\pavan\1+1RCUTx\1-1-RCU-T-NewArch_svn_web_changes\Drivers\External-Peripherals\AgilisDualUART.c
                  __pa_11   0x013ab0    program     static C:\pavan\1+1RCUTx\1-1-RCU-T-NewArch_svn_web_changes\Microchip\TCPIP Stack\ETH97J60.c
                  __pa_11   0x016f18    program     static C:\pavan\1+1RCUTx\1-1-RCU-T-NewArch_svn_web_changes\Agilis-SysLib\util.c
                  __pa_11   0x0167f2    program     static C:\pavan\1+1RCUTx\1-1-RCU-T-NewArch_svn_web_changes\App\WebUI\AgilisHTTPGetDevInfo.c
                  __pa_11   0x012184    program     static C:\pavan\1+1RCUTx\1-1-RCU-T-NewArch_svn_web_changes\Microchip\TCPIP Stack\Helpers.c
                  __pa_11   0x015810    program     static C:\pavan\1+1RCUTx\1-1-RCU-T-NewArch_svn_web_changes\Microchip\TCPIP Stack\DHCP.c
                  __pa_11   0x0160aa    program     static C:\pavan\1+1RCUTx\1-1-RCU-T-NewArch_svn_web_changes\App\WebUI\AgilisHTTPApp.c
                  __pa_11   0x01a2e8    program     static C:\pavan\1+1RCUTx\1-1-RCU-T-NewArch_svn_web_changes\App\Util\AgilisAppUtil.c
                  __pa_11   0x01a666    program     static C:\pavan\1+1RCUTx\1-1-RCU-T-NewArch_svn_web_changes\App\SNMP\AgilisSNMPLLRCUCmds.c
                  __pa_11   0x00d016    program     static C:\pavan\1+1RCUTx\1-1-RCU-T-NewArch_svn_web_changes\AgilisDevices\BUCClient.c
                 __pa_110   0x0035b6    program     static C:\pavan\1+1RCUTx\1-1-RCU-T-NewArch_svn_web_changes\Microchip\TCPIP Stack\TCP.c
                 __pa_110   0x00be62    program     static C:\pavan\1+1RCUTx\1-1-RCU-T-NewArch_svn_web_changes\AgilisDevices\RCUServer.c
                 __pa_110   0x009c7e    program     static C:\pavan\1+1RCUTx\1-1-RCU-T-NewArch_svn_web_changes\Microchip\TCPIP Stack\HTTP2.c
                 __pa_110   0x00d44a    program     static C:\pavan\1+1RCUTx\1-1-RCU-T-NewArch_svn_web_changes\AgilisDevices\BUCClient.c
                 __pa_110   0x0072d0    program     static C:\pavan\1+1RCUTx\1-1-RCU-T-NewArch_svn_web_changes\Microchip\TCPIP Stack\SNMP.c
                 __pa_111   0x00be74    program     static C:\pavan\1+1RCUTx\1-1-RCU-T-NewArch_svn_web_changes\AgilisDevices\RCUServer.c
                 __pa_111   0x00d450    program     static C:\pavan\1+1RCUTx\1-1-RCU-T-NewArch_svn_web_changes\AgilisDevices\BUCClient.c
                 __pa_111   0x0072de    program     static C:\pavan\1+1RCUTx\1-1-RCU-T-NewArch_svn_web_changes\Microchip\TCPIP Stack\SNMP.c
                 __pa_111   0x009c86    program     static C:\pavan\1+1RCUTx\1-1-RCU-T-NewArch_svn_web_changes\Microchip\TCPIP Stack\HTTP2.c
                 __pa_111   0x0035be    program     static C:\pavan\1+1RCUTx\1-1-RCU-T-NewArch_svn_web_changes\Microchip\TCPIP Stack\TCP.c
                 __pa_112   0x00be80    program     static C:\pavan\1+1RCUTx\1-1-RCU-T-NewArch_svn_web_changes\AgilisDevices\RCUServer.c
                 __pa_112   0x00d458    program     static C:\pavan\1+1RCUTx\1-1-RCU-T-NewArch_svn_web_changes\AgilisDevices\BUCClient.c
                 __pa_112   0x009c94    program     static C:\pavan\1+1RCUTx\1-1-RCU-T-NewArch_svn_web_changes\Microchip\TCPIP Stack\HTTP2.c
                 __pa_112   0x0072ec    program     static C:\pavan\1+1RCUTx\1-1-RCU-T-NewArch_svn_web_changes\Microchip\TCPIP Stack\SNMP.c
                 __pa_112   0x0035cc    program     static C:\pavan\1+1RCUTx\1-1-RCU-T-NewArch_svn_web_changes\Microchip\TCPIP Stack\TCP.c
                 __pa_113   0x00be88    program     static C:\pavan\1+1RCUTx\1-1-RCU-T-NewArch_svn_web_changes\AgilisDevices\RCUServer.c
                 __pa_113   0x0035d4    program     static C:\pavan\1+1RCUTx\1-1-RCU-T-NewArch_svn_web_changes\Microchip\TCPIP Stack\TCP.c
                 __pa_113   0x0072fa    program     static C:\pavan\1+1RCUTx\1-1-RCU-T-NewArch_svn_web_changes\Microchip\TCPIP Stack\SNMP.c
                 __pa_113   0x00d460    program     static C:\pavan\1+1RCUTx\1-1-RCU-T-NewArch_svn_web_changes\AgilisDevices\BUCClient.c
                 __pa_113   0x009c9a    program     static C:\pavan\1+1RCUTx\1-1-RCU-T-NewArch_svn_web_changes\Microchip\TCPIP Stack\HTTP2.c
                 __pa_114   0x00d46a    program     static C:\pavan\1+1RCUTx\1-1-RCU-T-NewArch_svn_web_changes\AgilisDevices\BUCClient.c
                 __pa_114   0x009ca0    program     static C:\pavan\1+1RCUTx\1-1-RCU-T-NewArch_svn_web_changes\Microchip\TCPIP Stack\HTTP2.c
                 __pa_114   0x0035e2    program     static C:\pavan\1+1RCUTx\1-1-RCU-T-NewArch_svn_web_changes\Microchip\TCPIP Stack\TCP.c
                 __pa_114   0x007308    program     static C:\pavan\1+1RCUTx\1-1-RCU-T-NewArch_svn_web_changes\Microchip\TCPIP Stack\SNMP.c
                 __pa_114   0x00be8e    program     static C:\pavan\1+1RCUTx\1-1-RCU-T-NewArch_svn_web_changes\AgilisDevices\RCUServer.c
                 __pa_115   0x00d470    program     static C:\pavan\1+1RCUTx\1-1-RCU-T-NewArch_svn_web_changes\AgilisDevices\BUCClient.c
                 __pa_115   0x00be94    program     static C:\pavan\1+1RCUTx\1-1-RCU-T-NewArch_svn_web_changes\AgilisDevices\RCUServer.c
                 __pa_115   0x0035f0    program     static C:\pavan\1+1RCUTx\1-1-RCU-T-NewArch_svn_web_changes\Microchip\TCPIP Stack\TCP.c
                 __pa_115   0x009cac    program     static C:\pavan\1+1RCUTx\1-1-RCU-T-NewArch_svn_web_changes\Microchip\TCPIP Stack\HTTP2.c
                 __pa_115   0x007316    program     static C:\pavan\1+1RCUTx\1-1-RCU-T-NewArch_svn_web_changes\Microchip\TCPIP Stack\SNMP.c
                 __pa_116   0x00d476    program     static C:\pavan\1+1RCUTx\1-1-RCU-T-NewArch_svn_web_changes\AgilisDevices\BUCClient.c
                 __pa_116   0x009cb8    program     static C:\pavan\1+1RCUTx\1-1-RCU-T-NewArch_svn_web_changes\Microchip\TCPIP Stack\HTTP2.c
                 __pa_116   0x00be9e    program     static C:\pavan\1+1RCUTx\1-1-RCU-T-NewArch_svn_web_changes\AgilisDevices\RCUServer.c
                 __pa_116   0x0035fe    program     static C:\pavan\1+1RCUTx\1-1-RCU-T-NewArch_svn_web_changes\Microchip\TCPIP Stack\TCP.c
                 __pa_116   0x00731e    program     static C:\pavan\1+1RCUTx\1-1-RCU-T-NewArch_svn_web_changes\Microchip\TCPIP Stack\SNMP.c
                 __pa_117   0x00d47e    program     static C:\pavan\1+1RCUTx\1-1-RCU-T-NewArch_svn_web_changes\AgilisDevices\BUCClient.c
                 __pa_117   0x00732c    program     static C:\pavan\1+1RCUTx\1-1-RCU-T-NewArch_svn_web_changes\Microchip\TCPIP Stack\SNMP.c
                 __pa_117   0x00bea6    program     static C:\pavan\1+1RCUTx\1-1-RCU-T-NewArch_svn_web_changes\AgilisDevices\RCUServer.c
                 __pa_117   0x003608    program     static C:\pavan\1+1RCUTx\1-1-RCU-T-NewArch_svn_web_changes\Microchip\TCPIP Stack\TCP.c
                 __pa_117   0x009cc6    program     static C:\pavan\1+1RCUTx\1-1-RCU-T-NewArch_svn_web_changes\Microchip\TCPIP Stack\HTTP2.c
                 __pa_118   0x00beb2    program     static C:\pavan\1+1RCUTx\1-1-RCU-T-NewArch_svn_web_changes\AgilisDevices\RCUServer.c
                 __pa_118   0x00d484    program     static C:\pavan\1+1RCUTx\1-1-RCU-T-NewArch_svn_web_changes\AgilisDevices\BUCClient.c
                 __pa_118   0x00733a    program     static C:\pavan\1+1RCUTx\1-1-RCU-T-NewArch_svn_web_changes\Microchip\TCPIP Stack\SNMP.c
                 __pa_118   0x003612    program     static C:\pavan\1+1RCUTx\1-1-RCU-T-NewArch_svn_web_changes\Microchip\TCPIP Stack\TCP.c
                 __pa_118   0x009cd4    program     static C:\pavan\1+1RCUTx\1-1-RCU-T-NewArch_svn_web_changes\Microchip\TCPIP Stack\HTTP2.c
                 __pa_119   0x007344    program     static C:\pavan\1+1RCUTx\1-1-RCU-T-NewArch_svn_web_changes\Microchip\TCPIP Stack\SNMP.c
                 __pa_119   0x00d48c    program     static C:\pavan\1+1RCUTx\1-1-RCU-T-NewArch_svn_web_changes\AgilisDevices\BUCClient.c
                 __pa_119   0x009cdc    program     static C:\pavan\1+1RCUTx\1-1-RCU-T-NewArch_svn_web_changes\Microchip\TCPIP Stack\HTTP2.c
                 __pa_119   0x00beb8    program     static C:\pavan\1+1RCUTx\1-1-RCU-T-NewArch_svn_web_changes\AgilisDevices\RCUServer.c
                 __pa_119   0x00361c    program     static C:\pavan\1+1RCUTx\1-1-RCU-T-NewArch_svn_web_changes\Microchip\TCPIP Stack\TCP.c
                  __pa_12   0x019b32    program     static C:\pavan\1+1RCUTx\1-1-RCU-T-NewArch_svn_web_changes\App\SNMP\AgilisSNMPSysInfo.c
                  __pa_12   0x010346    program     static C:\pavan\1+1RCUTx\1-1-RCU-T-NewArch_svn_web_changes\App\WebUI\AgilisHTTPPrint.c
                  __pa_12   0x00d02c    program     static C:\pavan\1+1RCUTx\1-1-RCU-T-NewArch_svn_web_changes\AgilisDevices\BUCClient.c
                  __pa_12   0x018e70    program     static C:\pavan\1+1RCUTx\1-1-RCU-T-NewArch_svn_web_changes\Drivers\External-Peripherals\AgilisDualUART.c
                  __pa_12   0x013abc    program     static C:\pavan\1+1RCUTx\1-1-RCU-T-NewArch_svn_web_changes\Microchip\TCPIP Stack\ETH97J60.c
                  __pa_12   0x01aa00    program     static C:\pavan\1+1RCUTx\1-1-RCU-T-NewArch_svn_web_changes\Drivers\AgilisUart.c
                  __pa_12   0x002f4a    program     static C:\pavan\1+1RCUTx\1-1-RCU-T-NewArch_svn_web_changes\Microchip\TCPIP Stack\TCP.c
                  __pa_12   0x01a674    program     static C:\pavan\1+1RCUTx\1-1-RCU-T-NewArch_svn_web_changes\App\SNMP\AgilisSNMPLLRCUCmds.c
                  __pa_12   0x006e14    program     static C:\pavan\1+1RCUTx\1-1-RCU-T-NewArch_svn_web_changes\Microchip\TCPIP Stack\SNMP.c
                  __pa_12   0x015832    program     static C:\pavan\1+1RCUTx\1-1-RCU-T-NewArch_svn_web_changes\Microchip\TCPIP Stack\DHCP.c
                  __pa_12   0x0160ba    program     static C:\pavan\1+1RCUTx\1-1-RCU-T-NewArch_svn_web_changes\App\WebUI\AgilisHTTPApp.c
                  __pa_12   0x019e60    program     static C:\pavan\1+1RCUTx\1-1-RCU-T-NewArch_svn_web_changes\App\SNMP\AgilisSNMPLLBUCStatus.c
                  __pa_12   0x00f626    program     static C:\pavan\1+1RCUTx\1-1-RCU-T-NewArch_svn_web_changes\Drivers\UARTISR.c
                  __pa_12   0x016810    program     static C:\pavan\1+1RCUTx\1-1-RCU-T-NewArch_svn_web_changes\App\WebUI\AgilisHTTPGetDevInfo.c
                  __pa_12   0x014f6c    program     static C:\pavan\1+1RCUTx\1-1-RCU-T-NewArch_svn_web_changes\AgilisDevices\RCULLAccess.c
                  __pa_12   0x016f32    program     static C:\pavan\1+1RCUTx\1-1-RCU-T-NewArch_svn_web_changes\Agilis-SysLib\util.c
                  __pa_12   0x00b966    program     static C:\pavan\1+1RCUTx\1-1-RCU-T-NewArch_svn_web_changes\AgilisDevices\RCUServer.c
                  __pa_12   0x012d84    program     static C:\pavan\1+1RCUTx\1-1-RCU-T-NewArch_svn_web_changes\Microchip\TCPIP Stack\UDP.c
                  __pa_12   0x01c8c4    program     static C:\pavan\1+1RCUTx\1-1-RCU-T-NewArch_svn_web_changes\App\SNMP\AgilisSNMPLLBucDevInfo.c
                  __pa_12   0x01a2f2    program     static C:\pavan\1+1RCUTx\1-1-RCU-T-NewArch_svn_web_changes\App\Util\AgilisAppUtil.c
                  __pa_12   0x01b87e    program     static C:\pavan\1+1RCUTx\1-1-RCU-T-NewArch_svn_web_changes\Agilis-SysLib\task.c
                  __pa_12   0x017606    program     static C:\pavan\1+1RCUTx\1-1-RCU-T-NewArch_svn_web_changes\App\SerialIntf\AgilisProtocol\AgilisProtocol.c
                  __pa_12   0x01baf4    program     static C:\pavan\1+1RCUTx\1-1-RCU-T-NewArch_svn_web_changes\App\SNMP\AgilisSNMPLLBUCOp.c
                  __pa_12   0x0097ac    program     static C:\pavan\1+1RCUTx\1-1-RCU-T-NewArch_svn_web_changes\Microchip\TCPIP Stack\HTTP2.c
                  __pa_12   0x012194    program     static C:\pavan\1+1RCUTx\1-1-RCU-T-NewArch_svn_web_changes\Microchip\TCPIP Stack\Helpers.c
                  __pa_12   0x0188e2    program     static C:\pavan\1+1RCUTx\1-1-RCU-T-NewArch_svn_web_changes\Bootstrap\Initialization.c
                  __pa_12   0x011156    program     static C:\pavan\1+1RCUTx\1-1-RCU-T-NewArch_svn_web_changes\Microchip\TCPIP Stack\MPFS2.c
                  __pa_12   0x00e554    program     static C:\pavan\1+1RCUTx\1-1-RCU-T-NewArch_svn_web_changes\App\SNMP\AgilisSNMPApp.c
                 __pa_120   0x00bebe    program     static C:\pavan\1+1RCUTx\1-1-RCU-T-NewArch_svn_web_changes\AgilisDevices\RCUServer.c
                 __pa_120   0x003626    program     static C:\pavan\1+1RCUTx\1-1-RCU-T-NewArch_svn_web_changes\Microchip\TCPIP Stack\TCP.c
                 __pa_120   0x009ce2    program     static C:\pavan\1+1RCUTx\1-1-RCU-T-NewArch_svn_web_changes\Microchip\TCPIP Stack\HTTP2.c
                 __pa_120   0x00734e    program     static C:\pavan\1+1RCUTx\1-1-RCU-T-NewArch_svn_web_changes\Microchip\TCPIP Stack\SNMP.c
                 __pa_121   0x009cec    program     static C:\pavan\1+1RCUTx\1-1-RCU-T-NewArch_svn_web_changes\Microchip\TCPIP Stack\HTTP2.c
                 __pa_121   0x00735c    program     static C:\pavan\1+1RCUTx\1-1-RCU-T-NewArch_svn_web_changes\Microchip\TCPIP Stack\SNMP.c
                 __pa_121   0x003630    program     static C:\pavan\1+1RCUTx\1-1-RCU-T-NewArch_svn_web_changes\Microchip\TCPIP Stack\TCP.c
                 __pa_121   0x00bec6    program     static C:\pavan\1+1RCUTx\1-1-RCU-T-NewArch_svn_web_changes\AgilisDevices\RCUServer.c
                 __pa_122   0x009cf6    program     static C:\pavan\1+1RCUTx\1-1-RCU-T-NewArch_svn_web_changes\Microchip\TCPIP Stack\HTTP2.c
                 __pa_122   0x003638    program     static C:\pavan\1+1RCUTx\1-1-RCU-T-NewArch_svn_web_changes\Microchip\TCPIP Stack\TCP.c
                 __pa_122   0x00736a    program     static C:\pavan\1+1RCUTx\1-1-RCU-T-NewArch_svn_web_changes\Microchip\TCPIP Stack\SNMP.c
                 __pa_123   0x00364c    program     static C:\pavan\1+1RCUTx\1-1-RCU-T-NewArch_svn_web_changes\Microchip\TCPIP Stack\TCP.c
                 __pa_123   0x007378    program     static C:\pavan\1+1RCUTx\1-1-RCU-T-NewArch_svn_web_changes\Microchip\TCPIP Stack\SNMP.c
                 __pa_123   0x009d00    program     static C:\pavan\1+1RCUTx\1-1-RCU-T-NewArch_svn_web_changes\Microchip\TCPIP Stack\HTTP2.c
                 __pa_124   0x003660    program     static C:\pavan\1+1RCUTx\1-1-RCU-T-NewArch_svn_web_changes\Microchip\TCPIP Stack\TCP.c
                 __pa_124   0x007382    program     static C:\pavan\1+1RCUTx\1-1-RCU-T-NewArch_svn_web_changes\Microchip\TCPIP Stack\SNMP.c
                 __pa_124   0x009d08    program     static C:\pavan\1+1RCUTx\1-1-RCU-T-NewArch_svn_web_changes\Microchip\TCPIP Stack\HTTP2.c
                 __pa_125   0x003674    program     static C:\pavan\1+1RCUTx\1-1-RCU-T-NewArch_svn_web_changes\Microchip\TCPIP Stack\TCP.c
                 __pa_125   0x00738c    program     static C:\pavan\1+1RCUTx\1-1-RCU-T-NewArch_svn_web_changes\Microchip\TCPIP Stack\SNMP.c
                 __pa_125   0x009d10    program     static C:\pavan\1+1RCUTx\1-1-RCU-T-NewArch_svn_web_changes\Microchip\TCPIP Stack\HTTP2.c
                 __pa_126   0x00367c    program     static C:\pavan\1+1RCUTx\1-1-RCU-T-NewArch_svn_web_changes\Microchip\TCPIP Stack\TCP.c
                 __pa_126   0x007396    program     static C:\pavan\1+1RCUTx\1-1-RCU-T-NewArch_svn_web_changes\Microchip\TCPIP Stack\SNMP.c
                 __pa_126   0x009d18    program     static C:\pavan\1+1RCUTx\1-1-RCU-T-NewArch_svn_web_changes\Microchip\TCPIP Stack\HTTP2.c
                 __pa_127   0x003686    program     static C:\pavan\1+1RCUTx\1-1-RCU-T-NewArch_svn_web_changes\Microchip\TCPIP Stack\TCP.c
                 __pa_127   0x0073a0    program     static C:\pavan\1+1RCUTx\1-1-RCU-T-NewArch_svn_web_changes\Microchip\TCPIP Stack\SNMP.c
                 __pa_127   0x009d1e    program     static C:\pavan\1+1RCUTx\1-1-RCU-T-NewArch_svn_web_changes\Microchip\TCPIP Stack\HTTP2.c
                 __pa_128   0x0073a6    program     static C:\pavan\1+1RCUTx\1-1-RCU-T-NewArch_svn_web_changes\Microchip\TCPIP Stack\SNMP.c
                 __pa_128   0x009d38    program     static C:\pavan\1+1RCUTx\1-1-RCU-T-NewArch_svn_web_changes\Microchip\TCPIP Stack\HTTP2.c
                 __pa_128   0x003698    program     static C:\pavan\1+1RCUTx\1-1-RCU-T-NewArch_svn_web_changes\Microchip\TCPIP Stack\TCP.c
                 __pa_129   0x0073b0    program     static C:\pavan\1+1RCUTx\1-1-RCU-T-NewArch_svn_web_changes\Microchip\TCPIP Stack\SNMP.c
                 __pa_129   0x0036aa    program     static C:\pavan\1+1RCUTx\1-1-RCU-T-NewArch_svn_web_changes\Microchip\TCPIP Stack\TCP.c
                 __pa_129   0x009d40    program     static C:\pavan\1+1RCUTx\1-1-RCU-T-NewArch_svn_web_changes\Microchip\TCPIP Stack\HTTP2.c
                  __pa_13   0x013aca    program     static C:\pavan\1+1RCUTx\1-1-RCU-T-NewArch_svn_web_changes\Microchip\TCPIP Stack\ETH97J60.c
                  __pa_13   0x01760c    program     static C:\pavan\1+1RCUTx\1-1-RCU-T-NewArch_svn_web_changes\App\SerialIntf\AgilisProtocol\AgilisProtocol.c
                  __pa_13   0x01b886    program     static C:\pavan\1+1RCUTx\1-1-RCU-T-NewArch_svn_web_changes\Agilis-SysLib\task.c
                  __pa_13   0x0121a4    program     static C:\pavan\1+1RCUTx\1-1-RCU-T-NewArch_svn_web_changes\Microchip\TCPIP Stack\Helpers.c
                  __pa_13   0x012d98    program     static C:\pavan\1+1RCUTx\1-1-RCU-T-NewArch_svn_web_changes\Microchip\TCPIP Stack\UDP.c
                  __pa_13   0x0160ca    program     static C:\pavan\1+1RCUTx\1-1-RCU-T-NewArch_svn_web_changes\App\WebUI\AgilisHTTPApp.c
                  __pa_13   0x01034e    program     static C:\pavan\1+1RCUTx\1-1-RCU-T-NewArch_svn_web_changes\App\WebUI\AgilisHTTPPrint.c
                  __pa_13   0x01a680    program     static C:\pavan\1+1RCUTx\1-1-RCU-T-NewArch_svn_web_changes\App\SNMP\AgilisSNMPLLRCUCmds.c
                  __pa_13   0x00f634    program     static C:\pavan\1+1RCUTx\1-1-RCU-T-NewArch_svn_web_changes\Drivers\UARTISR.c
                  __pa_13   0x01aa08    program     static C:\pavan\1+1RCUTx\1-1-RCU-T-NewArch_svn_web_changes\Drivers\AgilisUart.c
                  __pa_13   0x016f3e    program     static C:\pavan\1+1RCUTx\1-1-RCU-T-NewArch_svn_web_changes\Agilis-SysLib\util.c
                  __pa_13   0x019e6e    program     static C:\pavan\1+1RCUTx\1-1-RCU-T-NewArch_svn_web_changes\App\SNMP\AgilisSNMPLLBUCStatus.c
                  __pa_13   0x00b988    program     static C:\pavan\1+1RCUTx\1-1-RCU-T-NewArch_svn_web_changes\AgilisDevices\RCUServer.c
                  __pa_13   0x015846    program     static C:\pavan\1+1RCUTx\1-1-RCU-T-NewArch_svn_web_changes\Microchip\TCPIP Stack\DHCP.c
                  __pa_13   0x011160    program     static C:\pavan\1+1RCUTx\1-1-RCU-T-NewArch_svn_web_changes\Microchip\TCPIP Stack\MPFS2.c
                  __pa_13   0x006e32    program     static C:\pavan\1+1RCUTx\1-1-RCU-T-NewArch_svn_web_changes\Microchip\TCPIP Stack\SNMP.c
                  __pa_13   0x00d03e    program     static C:\pavan\1+1RCUTx\1-1-RCU-T-NewArch_svn_web_changes\AgilisDevices\BUCClient.c
                  __pa_13   0x0097d2    program     static C:\pavan\1+1RCUTx\1-1-RCU-T-NewArch_svn_web_changes\Microchip\TCPIP Stack\HTTP2.c
                  __pa_13   0x0188ee    program     static C:\pavan\1+1RCUTx\1-1-RCU-T-NewArch_svn_web_changes\Bootstrap\Initialization.c
                  __pa_13   0x00e55e    program     static C:\pavan\1+1RCUTx\1-1-RCU-T-NewArch_svn_web_changes\App\SNMP\AgilisSNMPApp.c
                  __pa_13   0x014f76    program     static C:\pavan\1+1RCUTx\1-1-RCU-T-NewArch_svn_web_changes\AgilisDevices\RCULLAccess.c
                  __pa_13   0x016818    program     static C:\pavan\1+1RCUTx\1-1-RCU-T-NewArch_svn_web_changes\App\WebUI\AgilisHTTPGetDevInfo.c
                  __pa_13   0x018e80    program     static C:\pavan\1+1RCUTx\1-1-RCU-T-NewArch_svn_web_changes\Drivers\External-Peripherals\AgilisDualUART.c
                  __pa_13   0x002f52    program     static C:\pavan\1+1RCUTx\1-1-RCU-T-NewArch_svn_web_changes\Microchip\TCPIP Stack\TCP.c
                 __pa_130   0x0073ba    program     static C:\pavan\1+1RCUTx\1-1-RCU-T-NewArch_svn_web_changes\Microchip\TCPIP Stack\SNMP.c
                 __pa_130   0x0036bc    program     static C:\pavan\1+1RCUTx\1-1-RCU-T-NewArch_svn_web_changes\Microchip\TCPIP Stack\TCP.c
                 __pa_130   0x009d46    program     static C:\pavan\1+1RCUTx\1-1-RCU-T-NewArch_svn_web_changes\Microchip\TCPIP Stack\HTTP2.c
                 __pa_131   0x0036ce    program     static C:\pavan\1+1RCUTx\1-1-RCU-T-NewArch_svn_web_changes\Microchip\TCPIP Stack\TCP.c
                 __pa_131   0x009d4c    program     static C:\pavan\1+1RCUTx\1-1-RCU-T-NewArch_svn_web_changes\Microchip\TCPIP Stack\HTTP2.c
                 __pa_131   0x0073c4    program     static C:\pavan\1+1RCUTx\1-1-RCU-T-NewArch_svn_web_changes\Microchip\TCPIP Stack\SNMP.c
                 __pa_132   0x0036e0    program     static C:\pavan\1+1RCUTx\1-1-RCU-T-NewArch_svn_web_changes\Microchip\TCPIP Stack\TCP.c
                 __pa_132   0x009d5c    program     static C:\pavan\1+1RCUTx\1-1-RCU-T-NewArch_svn_web_changes\Microchip\TCPIP Stack\HTTP2.c
                 __pa_132   0x0073ce    program     static C:\pavan\1+1RCUTx\1-1-RCU-T-NewArch_svn_web_changes\Microchip\TCPIP Stack\SNMP.c
                 __pa_133   0x0036f2    program     static C:\pavan\1+1RCUTx\1-1-RCU-T-NewArch_svn_web_changes\Microchip\TCPIP Stack\TCP.c
                 __pa_133   0x009d66    program     static C:\pavan\1+1RCUTx\1-1-RCU-T-NewArch_svn_web_changes\Microchip\TCPIP Stack\HTTP2.c
                 __pa_133   0x0073d6    program     static C:\pavan\1+1RCUTx\1-1-RCU-T-NewArch_svn_web_changes\Microchip\TCPIP Stack\SNMP.c
                 __pa_134   0x003704    program     static C:\pavan\1+1RCUTx\1-1-RCU-T-NewArch_svn_web_changes\Microchip\TCPIP Stack\TCP.c
                 __pa_134   0x0073de    program     static C:\pavan\1+1RCUTx\1-1-RCU-T-NewArch_svn_web_changes\Microchip\TCPIP Stack\SNMP.c
                 __pa_134   0x009d76    program     static C:\pavan\1+1RCUTx\1-1-RCU-T-NewArch_svn_web_changes\Microchip\TCPIP Stack\HTTP2.c
                 __pa_135   0x0073e6    program     static C:\pavan\1+1RCUTx\1-1-RCU-T-NewArch_svn_web_changes\Microchip\TCPIP Stack\SNMP.c
                 __pa_135   0x003716    program     static C:\pavan\1+1RCUTx\1-1-RCU-T-NewArch_svn_web_changes\Microchip\TCPIP Stack\TCP.c
                 __pa_135   0x009d82    program     static C:\pavan\1+1RCUTx\1-1-RCU-T-NewArch_svn_web_changes\Microchip\TCPIP Stack\HTTP2.c
                 __pa_136   0x0073ec    program     static C:\pavan\1+1RCUTx\1-1-RCU-T-NewArch_svn_web_changes\Microchip\TCPIP Stack\SNMP.c
                 __pa_136   0x003728    program     static C:\pavan\1+1RCUTx\1-1-RCU-T-NewArch_svn_web_changes\Microchip\TCPIP Stack\TCP.c
                 __pa_136   0x009d8c    program     static C:\pavan\1+1RCUTx\1-1-RCU-T-NewArch_svn_web_changes\Microchip\TCPIP Stack\HTTP2.c
                 __pa_137   0x009d9c    program     static C:\pavan\1+1RCUTx\1-1-RCU-T-NewArch_svn_web_changes\Microchip\TCPIP Stack\HTTP2.c
                 __pa_137   0x003730    program     static C:\pavan\1+1RCUTx\1-1-RCU-T-NewArch_svn_web_changes\Microchip\TCPIP Stack\TCP.c
                 __pa_137   0x0073f4    program     static C:\pavan\1+1RCUTx\1-1-RCU-T-NewArch_svn_web_changes\Microchip\TCPIP Stack\SNMP.c
                 __pa_138   0x009da6    program     static C:\pavan\1+1RCUTx\1-1-RCU-T-NewArch_svn_web_changes\Microchip\TCPIP Stack\HTTP2.c
                 __pa_138   0x00373e    program     static C:\pavan\1+1RCUTx\1-1-RCU-T-NewArch_svn_web_changes\Microchip\TCPIP Stack\TCP.c
                 __pa_138   0x0073fe    program     static C:\pavan\1+1RCUTx\1-1-RCU-T-NewArch_svn_web_changes\Microchip\TCPIP Stack\SNMP.c
                 __pa_139   0x007402    program     static C:\pavan\1+1RCUTx\1-1-RCU-T-NewArch_svn_web_changes\Microchip\TCPIP Stack\SNMP.c
                 __pa_139   0x009db2    program     static C:\pavan\1+1RCUTx\1-1-RCU-T-NewArch_svn_web_changes\Microchip\TCPIP Stack\HTTP2.c
                 __pa_139   0x00374a    program     static C:\pavan\1+1RCUTx\1-1-RCU-T-NewArch_svn_web_changes\Microchip\TCPIP Stack\TCP.c
                  __pa_14   0x0121bc    program     static C:\pavan\1+1RCUTx\1-1-RCU-T-NewArch_svn_web_changes\Microchip\TCPIP Stack\Helpers.c
                  __pa_14   0x013ad8    program     static C:\pavan\1+1RCUTx\1-1-RCU-T-NewArch_svn_web_changes\Microchip\TCPIP Stack\ETH97J60.c
                  __pa_14   0x00d04a    program     static C:\pavan\1+1RCUTx\1-1-RCU-T-NewArch_svn_web_changes\AgilisDevices\BUCClient.c
                  __pa_14   0x017614    program     static C:\pavan\1+1RCUTx\1-1-RCU-T-NewArch_svn_web_changes\App\SerialIntf\AgilisProtocol\AgilisProtocol.c
                  __pa_14   0x016830    program     static C:\pavan\1+1RCUTx\1-1-RCU-T-NewArch_svn_web_changes\App\WebUI\AgilisHTTPGetDevInfo.c
                  __pa_14   0x0188fc    program     static C:\pavan\1+1RCUTx\1-1-RCU-T-NewArch_svn_web_changes\Bootstrap\Initialization.c
                  __pa_14   0x002f5e    program     static C:\pavan\1+1RCUTx\1-1-RCU-T-NewArch_svn_web_changes\Microchip\TCPIP Stack\TCP.c
                  __pa_14   0x019e84    program     static C:\pavan\1+1RCUTx\1-1-RCU-T-NewArch_svn_web_changes\App\SNMP\AgilisSNMPLLBUCStatus.c
                  __pa_14   0x016f54    program     static C:\pavan\1+1RCUTx\1-1-RCU-T-NewArch_svn_web_changes\Agilis-SysLib\util.c
                  __pa_14   0x00e568    program     static C:\pavan\1+1RCUTx\1-1-RCU-T-NewArch_svn_web_changes\App\SNMP\AgilisSNMPApp.c
                  __pa_14   0x0097da    program     static C:\pavan\1+1RCUTx\1-1-RCU-T-NewArch_svn_web_changes\Microchip\TCPIP Stack\HTTP2.c
                  __pa_14   0x006e3e    program     static C:\pavan\1+1RCUTx\1-1-RCU-T-NewArch_svn_web_changes\Microchip\TCPIP Stack\SNMP.c
                  __pa_14   0x011174    program     static C:\pavan\1+1RCUTx\1-1-RCU-T-NewArch_svn_web_changes\Microchip\TCPIP Stack\MPFS2.c
                  __pa_14   0x00b9a8    program     static C:\pavan\1+1RCUTx\1-1-RCU-T-NewArch_svn_web_changes\AgilisDevices\RCUServer.c
                  __pa_14   0x015858    program     static C:\pavan\1+1RCUTx\1-1-RCU-T-NewArch_svn_web_changes\Microchip\TCPIP Stack\DHCP.c
                  __pa_14   0x010356    program     static C:\pavan\1+1RCUTx\1-1-RCU-T-NewArch_svn_web_changes\App\WebUI\AgilisHTTPPrint.c
                  __pa_14   0x01a698    program     static C:\pavan\1+1RCUTx\1-1-RCU-T-NewArch_svn_web_changes\App\SNMP\AgilisSNMPLLRCUCmds.c
                  __pa_14   0x01b88c    program     static C:\pavan\1+1RCUTx\1-1-RCU-T-NewArch_svn_web_changes\Agilis-SysLib\task.c
                  __pa_14   0x00f642    program     static C:\pavan\1+1RCUTx\1-1-RCU-T-NewArch_svn_web_changes\Drivers\UARTISR.c
                  __pa_14   0x012da6    program     static C:\pavan\1+1RCUTx\1-1-RCU-T-NewArch_svn_web_changes\Microchip\TCPIP Stack\UDP.c
                  __pa_14   0x0160d0    program     static C:\pavan\1+1RCUTx\1-1-RCU-T-NewArch_svn_web_changes\App\WebUI\AgilisHTTPApp.c
                  __pa_14   0x014f82    program     static C:\pavan\1+1RCUTx\1-1-RCU-T-NewArch_svn_web_changes\AgilisDevices\RCULLAccess.c
                 __pa_140   0x009dbc    program     static C:\pavan\1+1RCUTx\1-1-RCU-T-NewArch_svn_web_changes\Microchip\TCPIP Stack\HTTP2.c
                 __pa_140   0x00740a    program     static C:\pavan\1+1RCUTx\1-1-RCU-T-NewArch_svn_web_changes\Microchip\TCPIP Stack\SNMP.c
                 __pa_140   0x003756    program     static C:\pavan\1+1RCUTx\1-1-RCU-T-NewArch_svn_web_changes\Microchip\TCPIP Stack\TCP.c
                 __pa_141   0x007410    program     static C:\pavan\1+1RCUTx\1-1-RCU-T-NewArch_svn_web_changes\Microchip\TCPIP Stack\SNMP.c
                 __pa_141   0x003760    program     static C:\pavan\1+1RCUTx\1-1-RCU-T-NewArch_svn_web_changes\Microchip\TCPIP Stack\TCP.c
                 __pa_141   0x009dca    program     static C:\pavan\1+1RCUTx\1-1-RCU-T-NewArch_svn_web_changes\Microchip\TCPIP Stack\HTTP2.c
                 __pa_142   0x00376a    program     static C:\pavan\1+1RCUTx\1-1-RCU-T-NewArch_svn_web_changes\Microchip\TCPIP Stack\TCP.c
                 __pa_142   0x009dd8    program     static C:\pavan\1+1RCUTx\1-1-RCU-T-NewArch_svn_web_changes\Microchip\TCPIP Stack\HTTP2.c
                 __pa_142   0x00741c    program     static C:\pavan\1+1RCUTx\1-1-RCU-T-NewArch_svn_web_changes\Microchip\TCPIP Stack\SNMP.c
                 __pa_143   0x009de4    program     static C:\pavan\1+1RCUTx\1-1-RCU-T-NewArch_svn_web_changes\Microchip\TCPIP Stack\HTTP2.c
                 __pa_143   0x003774    program     static C:\pavan\1+1RCUTx\1-1-RCU-T-NewArch_svn_web_changes\Microchip\TCPIP Stack\TCP.c
                 __pa_143   0x00742e    program     static C:\pavan\1+1RCUTx\1-1-RCU-T-NewArch_svn_web_changes\Microchip\TCPIP Stack\SNMP.c
                 __pa_144   0x007432    program     static C:\pavan\1+1RCUTx\1-1-RCU-T-NewArch_svn_web_changes\Microchip\TCPIP Stack\SNMP.c
                 __pa_144   0x009dec    program     static C:\pavan\1+1RCUTx\1-1-RCU-T-NewArch_svn_web_changes\Microchip\TCPIP Stack\HTTP2.c
                 __pa_144   0x003784    program     static C:\pavan\1+1RCUTx\1-1-RCU-T-NewArch_svn_web_changes\Microchip\TCPIP Stack\TCP.c
                 __pa_145   0x00743a    program     static C:\pavan\1+1RCUTx\1-1-RCU-T-NewArch_svn_web_changes\Microchip\TCPIP Stack\SNMP.c
                 __pa_145   0x009df2    program     static C:\pavan\1+1RCUTx\1-1-RCU-T-NewArch_svn_web_changes\Microchip\TCPIP Stack\HTTP2.c
                 __pa_145   0x003794    program     static C:\pavan\1+1RCUTx\1-1-RCU-T-NewArch_svn_web_changes\Microchip\TCPIP Stack\TCP.c
                 __pa_146   0x00744a    program     static C:\pavan\1+1RCUTx\1-1-RCU-T-NewArch_svn_web_changes\Microchip\TCPIP Stack\SNMP.c
                 __pa_146   0x009df8    program     static C:\pavan\1+1RCUTx\1-1-RCU-T-NewArch_svn_web_changes\Microchip\TCPIP Stack\HTTP2.c
                 __pa_146   0x0037a4    program     static C:\pavan\1+1RCUTx\1-1-RCU-T-NewArch_svn_web_changes\Microchip\TCPIP Stack\TCP.c
                 __pa_147   0x007456    program     static C:\pavan\1+1RCUTx\1-1-RCU-T-NewArch_svn_web_changes\Microchip\TCPIP Stack\SNMP.c
                 __pa_147   0x009e00    program     static C:\pavan\1+1RCUTx\1-1-RCU-T-NewArch_svn_web_changes\Microchip\TCPIP Stack\HTTP2.c
                 __pa_147   0x0037b4    program     static C:\pavan\1+1RCUTx\1-1-RCU-T-NewArch_svn_web_changes\Microchip\TCPIP Stack\TCP.c
                 __pa_148   0x00745c    program     static C:\pavan\1+1RCUTx\1-1-RCU-T-NewArch_svn_web_changes\Microchip\TCPIP Stack\SNMP.c
                 __pa_148   0x009e08    program     static C:\pavan\1+1RCUTx\1-1-RCU-T-NewArch_svn_web_changes\Microchip\TCPIP Stack\HTTP2.c
                 __pa_148   0x0037c4    program     static C:\pavan\1+1RCUTx\1-1-RCU-T-NewArch_svn_web_changes\Microchip\TCPIP Stack\TCP.c
                 __pa_149   0x0037ca    program     static C:\pavan\1+1RCUTx\1-1-RCU-T-NewArch_svn_web_changes\Microchip\TCPIP Stack\TCP.c
                 __pa_149   0x009e12    program     static C:\pavan\1+1RCUTx\1-1-RCU-T-NewArch_svn_web_changes\Microchip\TCPIP Stack\HTTP2.c
                 __pa_149   0x007460    program     static C:\pavan\1+1RCUTx\1-1-RCU-T-NewArch_svn_web_changes\Microchip\TCPIP Stack\SNMP.c
                  __pa_15   0x01b892    program     static C:\pavan\1+1RCUTx\1-1-RCU-T-NewArch_svn_web_changes\Agilis-SysLib\task.c
                  __pa_15   0x010366    program     static C:\pavan\1+1RCUTx\1-1-RCU-T-NewArch_svn_web_changes\App\WebUI\AgilisHTTPPrint.c
                  __pa_15   0x015866    program     static C:\pavan\1+1RCUTx\1-1-RCU-T-NewArch_svn_web_changes\Microchip\TCPIP Stack\DHCP.c
                  __pa_15   0x00f650    program     static C:\pavan\1+1RCUTx\1-1-RCU-T-NewArch_svn_web_changes\Drivers\UARTISR.c
                  __pa_15   0x006e4c    program     static C:\pavan\1+1RCUTx\1-1-RCU-T-NewArch_svn_web_changes\Microchip\TCPIP Stack\SNMP.c
                  __pa_15   0x0121d2    program     static C:\pavan\1+1RCUTx\1-1-RCU-T-NewArch_svn_web_changes\Microchip\TCPIP Stack\Helpers.c
                  __pa_15   0x011186    program     static C:\pavan\1+1RCUTx\1-1-RCU-T-NewArch_svn_web_changes\Microchip\TCPIP Stack\MPFS2.c
                  __pa_15   0x00b9b6    program     static C:\pavan\1+1RCUTx\1-1-RCU-T-NewArch_svn_web_changes\AgilisDevices\RCUServer.c
                  __pa_15   0x01890a    program     static C:\pavan\1+1RCUTx\1-1-RCU-T-NewArch_svn_web_changes\Bootstrap\Initialization.c
                  __pa_15   0x0097e2    program     static C:\pavan\1+1RCUTx\1-1-RCU-T-NewArch_svn_web_changes\Microchip\TCPIP Stack\HTTP2.c
                  __pa_15   0x00e582    program     static C:\pavan\1+1RCUTx\1-1-RCU-T-NewArch_svn_web_changes\App\SNMP\AgilisSNMPApp.c
                  __pa_15   0x002f68    program     static C:\pavan\1+1RCUTx\1-1-RCU-T-NewArch_svn_web_changes\Microchip\TCPIP Stack\TCP.c
                  __pa_15   0x00d054    program     static C:\pavan\1+1RCUTx\1-1-RCU-T-NewArch_svn_web_changes\AgilisDevices\BUCClient.c
                  __pa_15   0x017626    program     static C:\pavan\1+1RCUTx\1-1-RCU-T-NewArch_svn_web_changes\App\SerialIntf\AgilisProtocol\AgilisProtocol.c
                  __pa_15   0x013ae6    program     static C:\pavan\1+1RCUTx\1-1-RCU-T-NewArch_svn_web_changes\Microchip\TCPIP Stack\ETH97J60.c
                  __pa_15   0x01a69e    program     static C:\pavan\1+1RCUTx\1-1-RCU-T-NewArch_svn_web_changes\App\SNMP\AgilisSNMPLLRCUCmds.c
                  __pa_15   0x012dc0    program     static C:\pavan\1+1RCUTx\1-1-RCU-T-NewArch_svn_web_changes\Microchip\TCPIP Stack\UDP.c
                  __pa_15   0x019e8c    program     static C:\pavan\1+1RCUTx\1-1-RCU-T-NewArch_svn_web_changes\App\SNMP\AgilisSNMPLLBUCStatus.c
                  __pa_15   0x016f5c    program     static C:\pavan\1+1RCUTx\1-1-RCU-T-NewArch_svn_web_changes\Agilis-SysLib\util.c
                  __pa_15   0x016844    program     static C:\pavan\1+1RCUTx\1-1-RCU-T-NewArch_svn_web_changes\App\WebUI\AgilisHTTPGetDevInfo.c
                  __pa_15   0x0160de    program     static C:\pavan\1+1RCUTx\1-1-RCU-T-NewArch_svn_web_changes\App\WebUI\AgilisHTTPApp.c
                  __pa_15   0x014f9a    program     static C:\pavan\1+1RCUTx\1-1-RCU-T-NewArch_svn_web_changes\AgilisDevices\RCULLAccess.c
                 __pa_150   0x0037d8    program     static C:\pavan\1+1RCUTx\1-1-RCU-T-NewArch_svn_web_changes\Microchip\TCPIP Stack\TCP.c
                 __pa_150   0x00746c    program     static C:\pavan\1+1RCUTx\1-1-RCU-T-NewArch_svn_web_changes\Microchip\TCPIP Stack\SNMP.c
                 __pa_151   0x0037e6    program     static C:\pavan\1+1RCUTx\1-1-RCU-T-NewArch_svn_web_changes\Microchip\TCPIP Stack\TCP.c
                 __pa_151   0x00748a    program     static C:\pavan\1+1RCUTx\1-1-RCU-T-NewArch_svn_web_changes\Microchip\TCPIP Stack\SNMP.c
                 __pa_152   0x0074a4    program     static C:\pavan\1+1RCUTx\1-1-RCU-T-NewArch_svn_web_changes\Microchip\TCPIP Stack\SNMP.c
                 __pa_152   0x0037f4    program     static C:\pavan\1+1RCUTx\1-1-RCU-T-NewArch_svn_web_changes\Microchip\TCPIP Stack\TCP.c
                 __pa_153   0x0074b2    program     static C:\pavan\1+1RCUTx\1-1-RCU-T-NewArch_svn_web_changes\Microchip\TCPIP Stack\SNMP.c
                 __pa_153   0x003802    program     static C:\pavan\1+1RCUTx\1-1-RCU-T-NewArch_svn_web_changes\Microchip\TCPIP Stack\TCP.c
                 __pa_154   0x0074ba    program     static C:\pavan\1+1RCUTx\1-1-RCU-T-NewArch_svn_web_changes\Microchip\TCPIP Stack\SNMP.c
                 __pa_154   0x003810    program     static C:\pavan\1+1RCUTx\1-1-RCU-T-NewArch_svn_web_changes\Microchip\TCPIP Stack\TCP.c
                 __pa_155   0x00381e    program     static C:\pavan\1+1RCUTx\1-1-RCU-T-NewArch_svn_web_changes\Microchip\TCPIP Stack\TCP.c
                 __pa_155   0x0074c8    program     static C:\pavan\1+1RCUTx\1-1-RCU-T-NewArch_svn_web_changes\Microchip\TCPIP Stack\SNMP.c
                 __pa_156   0x00382c    program     static C:\pavan\1+1RCUTx\1-1-RCU-T-NewArch_svn_web_changes\Microchip\TCPIP Stack\TCP.c
                 __pa_156   0x0074d2    program     static C:\pavan\1+1RCUTx\1-1-RCU-T-NewArch_svn_web_changes\Microchip\TCPIP Stack\SNMP.c
                 __pa_157   0x0074dc    program     static C:\pavan\1+1RCUTx\1-1-RCU-T-NewArch_svn_web_changes\Microchip\TCPIP Stack\SNMP.c
                 __pa_157   0x00383a    program     static C:\pavan\1+1RCUTx\1-1-RCU-T-NewArch_svn_web_changes\Microchip\TCPIP Stack\TCP.c
                 __pa_158   0x003848    program     static C:\pavan\1+1RCUTx\1-1-RCU-T-NewArch_svn_web_changes\Microchip\TCPIP Stack\TCP.c
                 __pa_158   0x0074ea    program     static C:\pavan\1+1RCUTx\1-1-RCU-T-NewArch_svn_web_changes\Microchip\TCPIP Stack\SNMP.c
                 __pa_159   0x003856    program     static C:\pavan\1+1RCUTx\1-1-RCU-T-NewArch_svn_web_changes\Microchip\TCPIP Stack\TCP.c
                 __pa_159   0x0074f8    program     static C:\pavan\1+1RCUTx\1-1-RCU-T-NewArch_svn_web_changes\Microchip\TCPIP Stack\SNMP.c
                  __pa_16   0x002f72    program     static C:\pavan\1+1RCUTx\1-1-RCU-T-NewArch_svn_web_changes\Microchip\TCPIP Stack\TCP.c
                  __pa_16   0x0160e8    program     static C:\pavan\1+1RCUTx\1-1-RCU-T-NewArch_svn_web_changes\App\WebUI\AgilisHTTPApp.c
                  __pa_16   0x01684c    program     static C:\pavan\1+1RCUTx\1-1-RCU-T-NewArch_svn_web_changes\App\WebUI\AgilisHTTPGetDevInfo.c
                  __pa_16   0x01a6a8    program     static C:\pavan\1+1RCUTx\1-1-RCU-T-NewArch_svn_web_changes\App\SNMP\AgilisSNMPLLRCUCmds.c
                  __pa_16   0x01036e    program     static C:\pavan\1+1RCUTx\1-1-RCU-T-NewArch_svn_web_changes\App\WebUI\AgilisHTTPPrint.c
                  __pa_16   0x013af4    program     static C:\pavan\1+1RCUTx\1-1-RCU-T-NewArch_svn_web_changes\Microchip\TCPIP Stack\ETH97J60.c
                  __pa_16   0x017632    program     static C:\pavan\1+1RCUTx\1-1-RCU-T-NewArch_svn_web_changes\App\SerialIntf\AgilisProtocol\AgilisProtocol.c
                  __pa_16   0x00d06e    program     static C:\pavan\1+1RCUTx\1-1-RCU-T-NewArch_svn_web_changes\AgilisDevices\BUCClient.c
                  __pa_16   0x00e5a0    program     static C:\pavan\1+1RCUTx\1-1-RCU-T-NewArch_svn_web_changes\App\SNMP\AgilisSNMPApp.c
                  __pa_16   0x0097f0    program     static C:\pavan\1+1RCUTx\1-1-RCU-T-NewArch_svn_web_changes\Microchip\TCPIP Stack\HTTP2.c
                  __pa_16   0x00b9c4    program     static C:\pavan\1+1RCUTx\1-1-RCU-T-NewArch_svn_web_changes\AgilisDevices\RCUServer.c
                  __pa_16   0x0111ac    program     static C:\pavan\1+1RCUTx\1-1-RCU-T-NewArch_svn_web_changes\Microchip\TCPIP Stack\MPFS2.c
                  __pa_16   0x018910    program     static C:\pavan\1+1RCUTx\1-1-RCU-T-NewArch_svn_web_changes\Bootstrap\Initialization.c
                  __pa_16   0x0121dc    program     static C:\pavan\1+1RCUTx\1-1-RCU-T-NewArch_svn_web_changes\Microchip\TCPIP Stack\Helpers.c
                  __pa_16   0x019e94    program     static C:\pavan\1+1RCUTx\1-1-RCU-T-NewArch_svn_web_changes\App\SNMP\AgilisSNMPLLBUCStatus.c
                  __pa_16   0x016f6e    program     static C:\pavan\1+1RCUTx\1-1-RCU-T-NewArch_svn_web_changes\Agilis-SysLib\util.c
                  __pa_16   0x006e58    program     static C:\pavan\1+1RCUTx\1-1-RCU-T-NewArch_svn_web_changes\Microchip\TCPIP Stack\SNMP.c
                  __pa_16   0x00f65a    program     static C:\pavan\1+1RCUTx\1-1-RCU-T-NewArch_svn_web_changes\Drivers\UARTISR.c
                  __pa_16   0x01586c    program     static C:\pavan\1+1RCUTx\1-1-RCU-T-NewArch_svn_web_changes\Microchip\TCPIP Stack\DHCP.c
                  __pa_16   0x014faa    program     static C:\pavan\1+1RCUTx\1-1-RCU-T-NewArch_svn_web_changes\AgilisDevices\RCULLAccess.c
                  __pa_16   0x012dd8    program     static C:\pavan\1+1RCUTx\1-1-RCU-T-NewArch_svn_web_changes\Microchip\TCPIP Stack\UDP.c
                 __pa_160   0x003864    program     static C:\pavan\1+1RCUTx\1-1-RCU-T-NewArch_svn_web_changes\Microchip\TCPIP Stack\TCP.c
                 __pa_160   0x007506    program     static C:\pavan\1+1RCUTx\1-1-RCU-T-NewArch_svn_web_changes\Microchip\TCPIP Stack\SNMP.c
                 __pa_161   0x00750e    program     static C:\pavan\1+1RCUTx\1-1-RCU-T-NewArch_svn_web_changes\Microchip\TCPIP Stack\SNMP.c
                 __pa_161   0x003872    program     static C:\pavan\1+1RCUTx\1-1-RCU-T-NewArch_svn_web_changes\Microchip\TCPIP Stack\TCP.c
                 __pa_162   0x00751a    program     static C:\pavan\1+1RCUTx\1-1-RCU-T-NewArch_svn_web_changes\Microchip\TCPIP Stack\SNMP.c
                 __pa_162   0x003880    program     static C:\pavan\1+1RCUTx\1-1-RCU-T-NewArch_svn_web_changes\Microchip\TCPIP Stack\TCP.c
                 __pa_163   0x007520    program     static C:\pavan\1+1RCUTx\1-1-RCU-T-NewArch_svn_web_changes\Microchip\TCPIP Stack\SNMP.c
                 __pa_163   0x00388e    program     static C:\pavan\1+1RCUTx\1-1-RCU-T-NewArch_svn_web_changes\Microchip\TCPIP Stack\TCP.c
                 __pa_164   0x00752a    program     static C:\pavan\1+1RCUTx\1-1-RCU-T-NewArch_svn_web_changes\Microchip\TCPIP Stack\SNMP.c
                 __pa_164   0x00389c    program     static C:\pavan\1+1RCUTx\1-1-RCU-T-NewArch_svn_web_changes\Microchip\TCPIP Stack\TCP.c
                 __pa_165   0x00753e    program     static C:\pavan\1+1RCUTx\1-1-RCU-T-NewArch_svn_web_changes\Microchip\TCPIP Stack\SNMP.c
                 __pa_165   0x0038a6    program     static C:\pavan\1+1RCUTx\1-1-RCU-T-NewArch_svn_web_changes\Microchip\TCPIP Stack\TCP.c
                 __pa_166   0x007548    program     static C:\pavan\1+1RCUTx\1-1-RCU-T-NewArch_svn_web_changes\Microchip\TCPIP Stack\SNMP.c
                 __pa_166   0x0038b0    program     static C:\pavan\1+1RCUTx\1-1-RCU-T-NewArch_svn_web_changes\Microchip\TCPIP Stack\TCP.c
                 __pa_167   0x007552    program     static C:\pavan\1+1RCUTx\1-1-RCU-T-NewArch_svn_web_changes\Microchip\TCPIP Stack\SNMP.c
                 __pa_167   0x0038ba    program     static C:\pavan\1+1RCUTx\1-1-RCU-T-NewArch_svn_web_changes\Microchip\TCPIP Stack\TCP.c
                 __pa_168   0x00755c    program     static C:\pavan\1+1RCUTx\1-1-RCU-T-NewArch_svn_web_changes\Microchip\TCPIP Stack\SNMP.c
                 __pa_168   0x0038c4    program     static C:\pavan\1+1RCUTx\1-1-RCU-T-NewArch_svn_web_changes\Microchip\TCPIP Stack\TCP.c
                 __pa_169   0x007564    program     static C:\pavan\1+1RCUTx\1-1-RCU-T-NewArch_svn_web_changes\Microchip\TCPIP Stack\SNMP.c
                 __pa_169   0x0038ce    program     static C:\pavan\1+1RCUTx\1-1-RCU-T-NewArch_svn_web_changes\Microchip\TCPIP Stack\TCP.c
                  __pa_17   0x016f7a    program     static C:\pavan\1+1RCUTx\1-1-RCU-T-NewArch_svn_web_changes\Agilis-SysLib\util.c
                  __pa_17   0x006e66    program     static C:\pavan\1+1RCUTx\1-1-RCU-T-NewArch_svn_web_changes\Microchip\TCPIP Stack\SNMP.c
                  __pa_17   0x016858    program     static C:\pavan\1+1RCUTx\1-1-RCU-T-NewArch_svn_web_changes\App\WebUI\AgilisHTTPGetDevInfo.c
                  __pa_17   0x01763e    program     static C:\pavan\1+1RCUTx\1-1-RCU-T-NewArch_svn_web_changes\App\SerialIntf\AgilisProtocol\AgilisProtocol.c
                  __pa_17   0x00e5a6    program     static C:\pavan\1+1RCUTx\1-1-RCU-T-NewArch_svn_web_changes\App\SNMP\AgilisSNMPApp.c
                  __pa_17   0x018920    program     static C:\pavan\1+1RCUTx\1-1-RCU-T-NewArch_svn_web_changes\Bootstrap\Initialization.c
                  __pa_17   0x01587a    program     static C:\pavan\1+1RCUTx\1-1-RCU-T-NewArch_svn_web_changes\Microchip\TCPIP Stack\DHCP.c
                  __pa_17   0x013b02    program     static C:\pavan\1+1RCUTx\1-1-RCU-T-NewArch_svn_web_changes\Microchip\TCPIP Stack\ETH97J60.c
                  __pa_17   0x00d078    program     static C:\pavan\1+1RCUTx\1-1-RCU-T-NewArch_svn_web_changes\AgilisDevices\BUCClient.c
                  __pa_17   0x00b9ee    program     static C:\pavan\1+1RCUTx\1-1-RCU-T-NewArch_svn_web_changes\AgilisDevices\RCUServer.c
                  __pa_17   0x019e9e    program     static C:\pavan\1+1RCUTx\1-1-RCU-T-NewArch_svn_web_changes\App\SNMP\AgilisSNMPLLBUCStatus.c
                  __pa_17   0x014fba    program     static C:\pavan\1+1RCUTx\1-1-RCU-T-NewArch_svn_web_changes\AgilisDevices\RCULLAccess.c
                  __pa_17   0x0160f0    program     static C:\pavan\1+1RCUTx\1-1-RCU-T-NewArch_svn_web_changes\App\WebUI\AgilisHTTPApp.c
                  __pa_17   0x002f7e    program     static C:\pavan\1+1RCUTx\1-1-RCU-T-NewArch_svn_web_changes\Microchip\TCPIP Stack\TCP.c
                  __pa_17   0x00f676    program     static C:\pavan\1+1RCUTx\1-1-RCU-T-NewArch_svn_web_changes\Drivers\UARTISR.c
                  __pa_17   0x010384    program     static C:\pavan\1+1RCUTx\1-1-RCU-T-NewArch_svn_web_changes\App\WebUI\AgilisHTTPPrint.c
                  __pa_17   0x0097fa    program     static C:\pavan\1+1RCUTx\1-1-RCU-T-NewArch_svn_web_changes\Microchip\TCPIP Stack\HTTP2.c
                  __pa_17   0x012dee    program     static C:\pavan\1+1RCUTx\1-1-RCU-T-NewArch_svn_web_changes\Microchip\TCPIP Stack\UDP.c
                  __pa_17   0x0111c6    program     static C:\pavan\1+1RCUTx\1-1-RCU-T-NewArch_svn_web_changes\Microchip\TCPIP Stack\MPFS2.c
                  __pa_17   0x0121ee    program     static C:\pavan\1+1RCUTx\1-1-RCU-T-NewArch_svn_web_changes\Microchip\TCPIP Stack\Helpers.c
                 __pa_170   0x00756c    program     static C:\pavan\1+1RCUTx\1-1-RCU-T-NewArch_svn_web_changes\Microchip\TCPIP Stack\SNMP.c
                 __pa_170   0x0038d8    program     static C:\pavan\1+1RCUTx\1-1-RCU-T-NewArch_svn_web_changes\Microchip\TCPIP Stack\TCP.c
                 __pa_171   0x007572    program     static C:\pavan\1+1RCUTx\1-1-RCU-T-NewArch_svn_web_changes\Microchip\TCPIP Stack\SNMP.c
                 __pa_171   0x0038e2    program     static C:\pavan\1+1RCUTx\1-1-RCU-T-NewArch_svn_web_changes\Microchip\TCPIP Stack\TCP.c
                 __pa_172   0x0038ec    program     static C:\pavan\1+1RCUTx\1-1-RCU-T-NewArch_svn_web_changes\Microchip\TCPIP Stack\TCP.c
                 __pa_172   0x007576    program     static C:\pavan\1+1RCUTx\1-1-RCU-T-NewArch_svn_web_changes\Microchip\TCPIP Stack\SNMP.c
                 __pa_173   0x007584    program     static C:\pavan\1+1RCUTx\1-1-RCU-T-NewArch_svn_web_changes\Microchip\TCPIP Stack\SNMP.c
                 __pa_173   0x0038f4    program     static C:\pavan\1+1RCUTx\1-1-RCU-T-NewArch_svn_web_changes\Microchip\TCPIP Stack\TCP.c
                 __pa_174   0x007596    program     static C:\pavan\1+1RCUTx\1-1-RCU-T-NewArch_svn_web_changes\Microchip\TCPIP Stack\SNMP.c
                 __pa_174   0x0038fe    program     static C:\pavan\1+1RCUTx\1-1-RCU-T-NewArch_svn_web_changes\Microchip\TCPIP Stack\TCP.c
                 __pa_175   0x0075a6    program     static C:\pavan\1+1RCUTx\1-1-RCU-T-NewArch_svn_web_changes\Microchip\TCPIP Stack\SNMP.c
                 __pa_175   0x00390c    program     static C:\pavan\1+1RCUTx\1-1-RCU-T-NewArch_svn_web_changes\Microchip\TCPIP Stack\TCP.c
                 __pa_176   0x003934    program     static C:\pavan\1+1RCUTx\1-1-RCU-T-NewArch_svn_web_changes\Microchip\TCPIP Stack\TCP.c
                 __pa_176   0x0075b0    program     static C:\pavan\1+1RCUTx\1-1-RCU-T-NewArch_svn_web_changes\Microchip\TCPIP Stack\SNMP.c
                 __pa_177   0x003942    program     static C:\pavan\1+1RCUTx\1-1-RCU-T-NewArch_svn_web_changes\Microchip\TCPIP Stack\TCP.c
                 __pa_177   0x0075bc    program     static C:\pavan\1+1RCUTx\1-1-RCU-T-NewArch_svn_web_changes\Microchip\TCPIP Stack\SNMP.c
                 __pa_178   0x00394a    program     static C:\pavan\1+1RCUTx\1-1-RCU-T-NewArch_svn_web_changes\Microchip\TCPIP Stack\TCP.c
                 __pa_178   0x0075c8    program     static C:\pavan\1+1RCUTx\1-1-RCU-T-NewArch_svn_web_changes\Microchip\TCPIP Stack\SNMP.c
                 __pa_179   0x0075d0    program     static C:\pavan\1+1RCUTx\1-1-RCU-T-NewArch_svn_web_changes\Microchip\TCPIP Stack\SNMP.c
                 __pa_179   0x003954    program     static C:\pavan\1+1RCUTx\1-1-RCU-T-NewArch_svn_web_changes\Microchip\TCPIP Stack\TCP.c
                  __pa_18   0x019eae    program     static C:\pavan\1+1RCUTx\1-1-RCU-T-NewArch_svn_web_changes\App\SNMP\AgilisSNMPLLBUCStatus.c
                  __pa_18   0x00d0a2    program     static C:\pavan\1+1RCUTx\1-1-RCU-T-NewArch_svn_web_changes\AgilisDevices\BUCClient.c
                  __pa_18   0x016864    program     static C:\pavan\1+1RCUTx\1-1-RCU-T-NewArch_svn_web_changes\App\WebUI\AgilisHTTPGetDevInfo.c
                  __pa_18   0x013b0a    program     static C:\pavan\1+1RCUTx\1-1-RCU-T-NewArch_svn_web_changes\Microchip\TCPIP Stack\ETH97J60.c
                  __pa_18   0x017646    program     static C:\pavan\1+1RCUTx\1-1-RCU-T-NewArch_svn_web_changes\App\SerialIntf\AgilisProtocol\AgilisProtocol.c
                  __pa_18   0x00e5b8    program     static C:\pavan\1+1RCUTx\1-1-RCU-T-NewArch_svn_web_changes\App\SNMP\AgilisSNMPApp.c
                  __pa_18   0x01892a    program     static C:\pavan\1+1RCUTx\1-1-RCU-T-NewArch_svn_web_changes\Bootstrap\Initialization.c
                  __pa_18   0x0111da    program     static C:\pavan\1+1RCUTx\1-1-RCU-T-NewArch_svn_web_changes\Microchip\TCPIP Stack\MPFS2.c
                  __pa_18   0x002f8c    program     static C:\pavan\1+1RCUTx\1-1-RCU-T-NewArch_svn_web_changes\Microchip\TCPIP Stack\TCP.c
                  __pa_18   0x0160fe    program     static C:\pavan\1+1RCUTx\1-1-RCU-T-NewArch_svn_web_changes\App\WebUI\AgilisHTTPApp.c
                  __pa_18   0x014fc8    program     static C:\pavan\1+1RCUTx\1-1-RCU-T-NewArch_svn_web_changes\AgilisDevices\RCULLAccess.c
                  __pa_18   0x00ba14    program     static C:\pavan\1+1RCUTx\1-1-RCU-T-NewArch_svn_web_changes\AgilisDevices\RCUServer.c
                  __pa_18   0x00f690    program     static C:\pavan\1+1RCUTx\1-1-RCU-T-NewArch_svn_web_changes\Drivers\UARTISR.c
                  __pa_18   0x006e6c    program     static C:\pavan\1+1RCUTx\1-1-RCU-T-NewArch_svn_web_changes\Microchip\TCPIP Stack\SNMP.c
                  __pa_18   0x016f84    program     static C:\pavan\1+1RCUTx\1-1-RCU-T-NewArch_svn_web_changes\Agilis-SysLib\util.c
                  __pa_18   0x00980a    program     static C:\pavan\1+1RCUTx\1-1-RCU-T-NewArch_svn_web_changes\Microchip\TCPIP Stack\HTTP2.c
                  __pa_18   0x015880    program     static C:\pavan\1+1RCUTx\1-1-RCU-T-NewArch_svn_web_changes\Microchip\TCPIP Stack\DHCP.c
                  __pa_18   0x010392    program     static C:\pavan\1+1RCUTx\1-1-RCU-T-NewArch_svn_web_changes\App\WebUI\AgilisHTTPPrint.c
                  __pa_18   0x012dfa    program     static C:\pavan\1+1RCUTx\1-1-RCU-T-NewArch_svn_web_changes\Microchip\TCPIP Stack\UDP.c
                  __pa_18   0x0121fe    program     static C:\pavan\1+1RCUTx\1-1-RCU-T-NewArch_svn_web_changes\Microchip\TCPIP Stack\Helpers.c
                 __pa_180   0x0075d6    program     static C:\pavan\1+1RCUTx\1-1-RCU-T-NewArch_svn_web_changes\Microchip\TCPIP Stack\SNMP.c
                 __pa_180   0x003962    program     static C:\pavan\1+1RCUTx\1-1-RCU-T-NewArch_svn_web_changes\Microchip\TCPIP Stack\TCP.c
                 __pa_181   0x0075de    program     static C:\pavan\1+1RCUTx\1-1-RCU-T-NewArch_svn_web_changes\Microchip\TCPIP Stack\SNMP.c
                 __pa_181   0x00396c    program     static C:\pavan\1+1RCUTx\1-1-RCU-T-NewArch_svn_web_changes\Microchip\TCPIP Stack\TCP.c
                 __pa_182   0x0075ec    program     static C:\pavan\1+1RCUTx\1-1-RCU-T-NewArch_svn_web_changes\Microchip\TCPIP Stack\SNMP.c
                 __pa_182   0x00397a    program     static C:\pavan\1+1RCUTx\1-1-RCU-T-NewArch_svn_web_changes\Microchip\TCPIP Stack\TCP.c
                 __pa_183   0x0075f4    program     static C:\pavan\1+1RCUTx\1-1-RCU-T-NewArch_svn_web_changes\Microchip\TCPIP Stack\SNMP.c
                 __pa_183   0x003986    program     static C:\pavan\1+1RCUTx\1-1-RCU-T-NewArch_svn_web_changes\Microchip\TCPIP Stack\TCP.c
                 __pa_184   0x007602    program     static C:\pavan\1+1RCUTx\1-1-RCU-T-NewArch_svn_web_changes\Microchip\TCPIP Stack\SNMP.c
                 __pa_184   0x003990    program     static C:\pavan\1+1RCUTx\1-1-RCU-T-NewArch_svn_web_changes\Microchip\TCPIP Stack\TCP.c
                 __pa_185   0x0039a0    program     static C:\pavan\1+1RCUTx\1-1-RCU-T-NewArch_svn_web_changes\Microchip\TCPIP Stack\TCP.c
                 __pa_185   0x00760e    program     static C:\pavan\1+1RCUTx\1-1-RCU-T-NewArch_svn_web_changes\Microchip\TCPIP Stack\SNMP.c
                 __pa_186   0x0039aa    program     static C:\pavan\1+1RCUTx\1-1-RCU-T-NewArch_svn_web_changes\Microchip\TCPIP Stack\TCP.c
                 __pa_186   0x00761e    program     static C:\pavan\1+1RCUTx\1-1-RCU-T-NewArch_svn_web_changes\Microchip\TCPIP Stack\SNMP.c
                 __pa_187   0x0039c8    program     static C:\pavan\1+1RCUTx\1-1-RCU-T-NewArch_svn_web_changes\Microchip\TCPIP Stack\TCP.c
                 __pa_187   0x00762a    program     static C:\pavan\1+1RCUTx\1-1-RCU-T-NewArch_svn_web_changes\Microchip\TCPIP Stack\SNMP.c
                 __pa_188   0x007638    program     static C:\pavan\1+1RCUTx\1-1-RCU-T-NewArch_svn_web_changes\Microchip\TCPIP Stack\SNMP.c
                 __pa_188   0x0039de    program     static C:\pavan\1+1RCUTx\1-1-RCU-T-NewArch_svn_web_changes\Microchip\TCPIP Stack\TCP.c
                 __pa_189   0x0039f4    program     static C:\pavan\1+1RCUTx\1-1-RCU-T-NewArch_svn_web_changes\Microchip\TCPIP Stack\TCP.c
                 __pa_189   0x007640    program     static C:\pavan\1+1RCUTx\1-1-RCU-T-NewArch_svn_web_changes\Microchip\TCPIP Stack\SNMP.c
                  __pa_19   0x00d0b4    program     static C:\pavan\1+1RCUTx\1-1-RCU-T-NewArch_svn_web_changes\AgilisDevices\BUCClient.c
                  __pa_19   0x006e74    program     static C:\pavan\1+1RCUTx\1-1-RCU-T-NewArch_svn_web_changes\Microchip\TCPIP Stack\SNMP.c
                  __pa_19   0x01893c    program     static C:\pavan\1+1RCUTx\1-1-RCU-T-NewArch_svn_web_changes\Bootstrap\Initialization.c
                  __pa_19   0x012e10    program     static C:\pavan\1+1RCUTx\1-1-RCU-T-NewArch_svn_web_changes\Microchip\TCPIP Stack\UDP.c
                  __pa_19   0x00ba26    program     static C:\pavan\1+1RCUTx\1-1-RCU-T-NewArch_svn_web_changes\AgilisDevices\RCUServer.c
                  __pa_19   0x019eba    program     static C:\pavan\1+1RCUTx\1-1-RCU-T-NewArch_svn_web_changes\App\SNMP\AgilisSNMPLLBUCStatus.c
                  __pa_19   0x014fdc    program     static C:\pavan\1+1RCUTx\1-1-RCU-T-NewArch_svn_web_changes\AgilisDevices\RCULLAccess.c
                  __pa_19   0x00f6a4    program     static C:\pavan\1+1RCUTx\1-1-RCU-T-NewArch_svn_web_changes\Drivers\UARTISR.c
                  __pa_19   0x0103a0    program     static C:\pavan\1+1RCUTx\1-1-RCU-T-NewArch_svn_web_changes\App\WebUI\AgilisHTTPPrint.c
                  __pa_19   0x01220e    program     static C:\pavan\1+1RCUTx\1-1-RCU-T-NewArch_svn_web_changes\Microchip\TCPIP Stack\Helpers.c
                  __pa_19   0x016f92    program     static C:\pavan\1+1RCUTx\1-1-RCU-T-NewArch_svn_web_changes\Agilis-SysLib\util.c
                  __pa_19   0x01686c    program     static C:\pavan\1+1RCUTx\1-1-RCU-T-NewArch_svn_web_changes\App\WebUI\AgilisHTTPGetDevInfo.c
                  __pa_19   0x017656    program     static C:\pavan\1+1RCUTx\1-1-RCU-T-NewArch_svn_web_changes\App\SerialIntf\AgilisProtocol\AgilisProtocol.c
                  __pa_19   0x016108    program     static C:\pavan\1+1RCUTx\1-1-RCU-T-NewArch_svn_web_changes\App\WebUI\AgilisHTTPApp.c
                  __pa_19   0x01588a    program     static C:\pavan\1+1RCUTx\1-1-RCU-T-NewArch_svn_web_changes\Microchip\TCPIP Stack\DHCP.c
                  __pa_19   0x00e5c6    program     static C:\pavan\1+1RCUTx\1-1-RCU-T-NewArch_svn_web_changes\App\SNMP\AgilisSNMPApp.c
                  __pa_19   0x0111e4    program     static C:\pavan\1+1RCUTx\1-1-RCU-T-NewArch_svn_web_changes\Microchip\TCPIP Stack\MPFS2.c
                  __pa_19   0x009818    program     static C:\pavan\1+1RCUTx\1-1-RCU-T-NewArch_svn_web_changes\Microchip\TCPIP Stack\HTTP2.c
                  __pa_19   0x013b14    program     static C:\pavan\1+1RCUTx\1-1-RCU-T-NewArch_svn_web_changes\Microchip\TCPIP Stack\ETH97J60.c
                  __pa_19   0x002f96    program     static C:\pavan\1+1RCUTx\1-1-RCU-T-NewArch_svn_web_changes\Microchip\TCPIP Stack\TCP.c
                 __pa_190   0x003a10    program     static C:\pavan\1+1RCUTx\1-1-RCU-T-NewArch_svn_web_changes\Microchip\TCPIP Stack\TCP.c
                 __pa_190   0x007648    program     static C:\pavan\1+1RCUTx\1-1-RCU-T-NewArch_svn_web_changes\Microchip\TCPIP Stack\SNMP.c
                 __pa_191   0x003a2c    program     static C:\pavan\1+1RCUTx\1-1-RCU-T-NewArch_svn_web_changes\Microchip\TCPIP Stack\TCP.c
                 __pa_191   0x00764e    program     static C:\pavan\1+1RCUTx\1-1-RCU-T-NewArch_svn_web_changes\Microchip\TCPIP Stack\SNMP.c
                 __pa_192   0x007654    program     static C:\pavan\1+1RCUTx\1-1-RCU-T-NewArch_svn_web_changes\Microchip\TCPIP Stack\SNMP.c
                 __pa_192   0x003a38    program     static C:\pavan\1+1RCUTx\1-1-RCU-T-NewArch_svn_web_changes\Microchip\TCPIP Stack\TCP.c
                 __pa_193   0x003a46    program     static C:\pavan\1+1RCUTx\1-1-RCU-T-NewArch_svn_web_changes\Microchip\TCPIP Stack\TCP.c
                 __pa_193   0x007660    program     static C:\pavan\1+1RCUTx\1-1-RCU-T-NewArch_svn_web_changes\Microchip\TCPIP Stack\SNMP.c
                 __pa_194   0x003a50    program     static C:\pavan\1+1RCUTx\1-1-RCU-T-NewArch_svn_web_changes\Microchip\TCPIP Stack\TCP.c
                 __pa_194   0x00766e    program     static C:\pavan\1+1RCUTx\1-1-RCU-T-NewArch_svn_web_changes\Microchip\TCPIP Stack\SNMP.c
                 __pa_195   0x00767c    program     static C:\pavan\1+1RCUTx\1-1-RCU-T-NewArch_svn_web_changes\Microchip\TCPIP Stack\SNMP.c
                 __pa_195   0x003a5a    program     static C:\pavan\1+1RCUTx\1-1-RCU-T-NewArch_svn_web_changes\Microchip\TCPIP Stack\TCP.c
                 __pa_196   0x00768a    program     static C:\pavan\1+1RCUTx\1-1-RCU-T-NewArch_svn_web_changes\Microchip\TCPIP Stack\SNMP.c
                 __pa_196   0x003a62    program     static C:\pavan\1+1RCUTx\1-1-RCU-T-NewArch_svn_web_changes\Microchip\TCPIP Stack\TCP.c
                 __pa_197   0x007698    program     static C:\pavan\1+1RCUTx\1-1-RCU-T-NewArch_svn_web_changes\Microchip\TCPIP Stack\SNMP.c
                 __pa_197   0x003a6c    program     static C:\pavan\1+1RCUTx\1-1-RCU-T-NewArch_svn_web_changes\Microchip\TCPIP Stack\TCP.c
                 __pa_198   0x0076a6    program     static C:\pavan\1+1RCUTx\1-1-RCU-T-NewArch_svn_web_changes\Microchip\TCPIP Stack\SNMP.c
                 __pa_198   0x003a76    program     static C:\pavan\1+1RCUTx\1-1-RCU-T-NewArch_svn_web_changes\Microchip\TCPIP Stack\TCP.c
                 __pa_199   0x0076b4    program     static C:\pavan\1+1RCUTx\1-1-RCU-T-NewArch_svn_web_changes\Microchip\TCPIP Stack\SNMP.c
                 __pa_199   0x003a80    program     static C:\pavan\1+1RCUTx\1-1-RCU-T-NewArch_svn_web_changes\Microchip\TCPIP Stack\TCP.c
                   __pa_2   0x01ce40    program     static C:\pavan\1+1RCUTx\1-1-RCU-T-NewArch_svn_web_changes\Agilis-SysLib\list.c
                   __pa_2   0x01ca0e    program     static C:\pavan\1+1RCUTx\1-1-RCU-T-NewArch_svn_web_changes\Microchip\TCPIP Stack\ICMP.c
                   __pa_2   0x01b32a    program     static C:\pavan\1+1RCUTx\1-1-RCU-T-NewArch_svn_web_changes\Microchip\TCPIP Stack\SPIEEPROM.c
                   __pa_2   0x01ba44    program     static C:\pavan\1+1RCUTx\1-1-RCU-T-NewArch_svn_web_changes\App\SNMP\AgilisSNMPLLBUCOp.c
                   __pa_2   0x009708    program     static C:\pavan\1+1RCUTx\1-1-RCU-T-NewArch_svn_web_changes\Microchip\TCPIP Stack\HTTP2.c
                   __pa_2   0x016024    program     static C:\pavan\1+1RCUTx\1-1-RCU-T-NewArch_svn_web_changes\App\WebUI\AgilisHTTPApp.c
                   __pa_2   0x0102b2    program     static C:\pavan\1+1RCUTx\1-1-RCU-T-NewArch_svn_web_changes\App\WebUI\AgilisHTTPPrint.c
                   __pa_2   0x01cb1c    program     static C:\pavan\1+1RCUTx\1-1-RCU-T-NewArch_svn_web_changes\Microchip\TCPIP Stack\Tick.c
                   __pa_2   0x013a2c    program     static C:\pavan\1+1RCUTx\1-1-RCU-T-NewArch_svn_web_changes\Microchip\TCPIP Stack\ETH97J60.c
                   __pa_2   0x01928e    program     static C:\pavan\1+1RCUTx\1-1-RCU-T-NewArch_svn_web_changes\Microchip\TCPIP Stack\ARP.c
                   __pa_2   0x00f5a0    program     static C:\pavan\1+1RCUTx\1-1-RCU-T-NewArch_svn_web_changes\Drivers\UARTISR.c
                   __pa_2   0x01b028    program     static C:\pavan\1+1RCUTx\1-1-RCU-T-NewArch_svn_web_changes\Microchip\TCPIP Stack\IP.c
                   __pa_2   0x016e50    program     static C:\pavan\1+1RCUTx\1-1-RCU-T-NewArch_svn_web_changes\Agilis-SysLib\util.c
                   __pa_2   0x01a5e4    program     static C:\pavan\1+1RCUTx\1-1-RCU-T-NewArch_svn_web_changes\App\SNMP\AgilisSNMPLLRCUCmds.c
                   __pa_2   0x01a26c    program     static C:\pavan\1+1RCUTx\1-1-RCU-T-NewArch_svn_web_changes\App\Util\AgilisAppUtil.c
                   __pa_2   0x00cf66    program     static C:\pavan\1+1RCUTx\1-1-RCU-T-NewArch_svn_web_changes\AgilisDevices\BUCClient.c
                   __pa_2   0x011096    program     static C:\pavan\1+1RCUTx\1-1-RCU-T-NewArch_svn_web_changes\Microchip\TCPIP Stack\MPFS2.c
                   __pa_2   0x01ac9a    program     static C:\pavan\1+1RCUTx\1-1-RCU-T-NewArch_svn_web_changes\AgilisDevices\RCUHLAccess.c
                   __pa_2   0x018de8    program     static C:\pavan\1+1RCUTx\1-1-RCU-T-NewArch_svn_web_changes\Drivers\External-Peripherals\AgilisDualUART.c
                   __pa_2   0x012cea    program     static C:\pavan\1+1RCUTx\1-1-RCU-T-NewArch_svn_web_changes\Microchip\TCPIP Stack\UDP.c
                   __pa_2   0x015760    program     static C:\pavan\1+1RCUTx\1-1-RCU-T-NewArch_svn_web_changes\Microchip\TCPIP Stack\DHCP.c
                   __pa_2   0x002e02    program     static C:\pavan\1+1RCUTx\1-1-RCU-T-NewArch_svn_web_changes\Microchip\TCPIP Stack\TCP.c
                   __pa_2   0x01b61a    program     static C:\pavan\1+1RCUTx\1-1-RCU-T-NewArch_svn_web_changes\Microchip\TCPIP Stack\StackTsk.c
                   __pa_2   0x014eca    program     static C:\pavan\1+1RCUTx\1-1-RCU-T-NewArch_svn_web_changes\AgilisDevices\RCULLAccess.c
                   __pa_2   0x006d98    program     static C:\pavan\1+1RCUTx\1-1-RCU-T-NewArch_svn_web_changes\Microchip\TCPIP Stack\SNMP.c
                   __pa_2   0x00b866    program     static C:\pavan\1+1RCUTx\1-1-RCU-T-NewArch_svn_web_changes\AgilisDevices\RCUServer.c
                   __pa_2   0x01c0a8    program     static C:\pavan\1+1RCUTx\1-1-RCU-T-NewArch_svn_web_changes\Drivers\MCU-Internal\ISR.c
                   __pa_2   0x01cd38    program     static C:\pavan\1+1RCUTx\1-1-RCU-T-NewArch_svn_web_changes\App\Task\RCUTask.c
                   __pa_2   0x01c84a    program     static C:\pavan\1+1RCUTx\1-1-RCU-T-NewArch_svn_web_changes\App\SNMP\AgilisSNMPLLBucDevInfo.c
                   __pa_2   0x018826    program     static C:\pavan\1+1RCUTx\1-1-RCU-T-NewArch_svn_web_changes\Bootstrap\Initialization.c
                   __pa_2   0x019dd8    program     static C:\pavan\1+1RCUTx\1-1-RCU-T-NewArch_svn_web_changes\App\SNMP\AgilisSNMPLLBUCStatus.c
                   __pa_2   0x01a970    program     static C:\pavan\1+1RCUTx\1-1-RCU-T-NewArch_svn_web_changes\Drivers\AgilisUart.c
                   __pa_2   0x01b80c    program     static C:\pavan\1+1RCUTx\1-1-RCU-T-NewArch_svn_web_changes\Agilis-SysLib\task.c
                   __pa_2   0x01cc00    program     static C:\pavan\1+1RCUTx\1-1-RCU-T-NewArch_svn_web_changes\Microchip\TCPIP Stack\UART.c
                   __pa_2   0x017546    program     static C:\pavan\1+1RCUTx\1-1-RCU-T-NewArch_svn_web_changes\App\SerialIntf\AgilisProtocol\AgilisProtocol.c
                   __pa_2   0x016712    program     static C:\pavan\1+1RCUTx\1-1-RCU-T-NewArch_svn_web_changes\App\WebUI\AgilisHTTPGetDevInfo.c
                   __pa_2   0x00e49e    program     static C:\pavan\1+1RCUTx\1-1-RCU-T-NewArch_svn_web_changes\App\SNMP\AgilisSNMPApp.c
                   __pa_2   0x018362    program     static C:\pavan\1+1RCUTx\1-1-RCU-T-NewArch_svn_web_changes\AgilisDevices\AgilisDeviceManager.c
                   __pa_2   0x01c592    program     static C:\pavan\1+1RCUTx\1-1-RCU-T-NewArch_svn_web_changes\App\Task\AgilisTaskManager.c
                   __pa_2   0x0120b0    program     static C:\pavan\1+1RCUTx\1-1-RCU-T-NewArch_svn_web_changes\Microchip\TCPIP Stack\Helpers.c
                   __pa_2   0x01c272    program     static C:\pavan\1+1RCUTx\1-1-RCU-T-NewArch_svn_web_changes\Drivers\AgilisDriverManager.c
                   __pa_2   0x019a9c    program     static C:\pavan\1+1RCUTx\1-1-RCU-T-NewArch_svn_web_changes\App\SNMP\AgilisSNMPSysInfo.c
                   __pa_2   0x01beb6    program     static C:\pavan\1+1RCUTx\1-1-RCU-T-NewArch_svn_web_changes\Drivers\External-Peripherals\devadc.c
                  __pa_20   0x016876    program     static C:\pavan\1+1RCUTx\1-1-RCU-T-NewArch_svn_web_changes\App\WebUI\AgilisHTTPGetDevInfo.c
                  __pa_20   0x00e5d4    program     static C:\pavan\1+1RCUTx\1-1-RCU-T-NewArch_svn_web_changes\App\SNMP\AgilisSNMPApp.c
                  __pa_20   0x00981e    program     static C:\pavan\1+1RCUTx\1-1-RCU-T-NewArch_svn_web_changes\Microchip\TCPIP Stack\HTTP2.c
                  __pa_20   0x0111f2    program     static C:\pavan\1+1RCUTx\1-1-RCU-T-NewArch_svn_web_changes\Microchip\TCPIP Stack\MPFS2.c
                  __pa_20   0x006e82    program     static C:\pavan\1+1RCUTx\1-1-RCU-T-NewArch_svn_web_changes\Microchip\TCPIP Stack\SNMP.c
                  __pa_20   0x018946    program     static C:\pavan\1+1RCUTx\1-1-RCU-T-NewArch_svn_web_changes\Bootstrap\Initialization.c
                  __pa_20   0x0103a6    program     static C:\pavan\1+1RCUTx\1-1-RCU-T-NewArch_svn_web_changes\App\WebUI\AgilisHTTPPrint.c
                  __pa_20   0x00ba66    program     static C:\pavan\1+1RCUTx\1-1-RCU-T-NewArch_svn_web_changes\AgilisDevices\RCUServer.c
                  __pa_20   0x017666    program     static C:\pavan\1+1RCUTx\1-1-RCU-T-NewArch_svn_web_changes\App\SerialIntf\AgilisProtocol\AgilisProtocol.c
                  __pa_20   0x01221e    program     static C:\pavan\1+1RCUTx\1-1-RCU-T-NewArch_svn_web_changes\Microchip\TCPIP Stack\Helpers.c
                  __pa_20   0x019ec8    program     static C:\pavan\1+1RCUTx\1-1-RCU-T-NewArch_svn_web_changes\App\SNMP\AgilisSNMPLLBUCStatus.c
                  __pa_20   0x014fe6    program     static C:\pavan\1+1RCUTx\1-1-RCU-T-NewArch_svn_web_changes\AgilisDevices\RCULLAccess.c
                  __pa_20   0x016fa0    program     static C:\pavan\1+1RCUTx\1-1-RCU-T-NewArch_svn_web_changes\Agilis-SysLib\util.c
                  __pa_20   0x012e16    program     static C:\pavan\1+1RCUTx\1-1-RCU-T-NewArch_svn_web_changes\Microchip\TCPIP Stack\UDP.c
                  __pa_20   0x016112    program     static C:\pavan\1+1RCUTx\1-1-RCU-T-NewArch_svn_web_changes\App\WebUI\AgilisHTTPApp.c
                  __pa_20   0x00f6b2    program     static C:\pavan\1+1RCUTx\1-1-RCU-T-NewArch_svn_web_changes\Drivers\UARTISR.c
                  __pa_20   0x015892    program     static C:\pavan\1+1RCUTx\1-1-RCU-T-NewArch_svn_web_changes\Microchip\TCPIP Stack\DHCP.c
                  __pa_20   0x00d0bc    program     static C:\pavan\1+1RCUTx\1-1-RCU-T-NewArch_svn_web_changes\AgilisDevices\BUCClient.c
                  __pa_20   0x013b1e    program     static C:\pavan\1+1RCUTx\1-1-RCU-T-NewArch_svn_web_changes\Microchip\TCPIP Stack\ETH97J60.c
                  __pa_20   0x002fb2    program     static C:\pavan\1+1RCUTx\1-1-RCU-T-NewArch_svn_web_changes\Microchip\TCPIP Stack\TCP.c
                 __pa_200   0x003a8a    program     static C:\pavan\1+1RCUTx\1-1-RCU-T-NewArch_svn_web_changes\Microchip\TCPIP Stack\TCP.c
                 __pa_200   0x0076c2    program     static C:\pavan\1+1RCUTx\1-1-RCU-T-NewArch_svn_web_changes\Microchip\TCPIP Stack\SNMP.c
                 __pa_201   0x003aa0    program     static C:\pavan\1+1RCUTx\1-1-RCU-T-NewArch_svn_web_changes\Microchip\TCPIP Stack\TCP.c
                 __pa_201   0x0076d0    program     static C:\pavan\1+1RCUTx\1-1-RCU-T-NewArch_svn_web_changes\Microchip\TCPIP Stack\SNMP.c
                 __pa_202   0x0076d8    program     static C:\pavan\1+1RCUTx\1-1-RCU-T-NewArch_svn_web_changes\Microchip\TCPIP Stack\SNMP.c
                 __pa_202   0x003aac    program     static C:\pavan\1+1RCUTx\1-1-RCU-T-NewArch_svn_web_changes\Microchip\TCPIP Stack\TCP.c
                 __pa_203   0x0076dc    program     static C:\pavan\1+1RCUTx\1-1-RCU-T-NewArch_svn_web_changes\Microchip\TCPIP Stack\SNMP.c
                 __pa_203   0x003ab8    program     static C:\pavan\1+1RCUTx\1-1-RCU-T-NewArch_svn_web_changes\Microchip\TCPIP Stack\TCP.c
                 __pa_204   0x003abe    program     static C:\pavan\1+1RCUTx\1-1-RCU-T-NewArch_svn_web_changes\Microchip\TCPIP Stack\TCP.c
                 __pa_204   0x0076e6    program     static C:\pavan\1+1RCUTx\1-1-RCU-T-NewArch_svn_web_changes\Microchip\TCPIP Stack\SNMP.c
                 __pa_205   0x003aca    program     static C:\pavan\1+1RCUTx\1-1-RCU-T-NewArch_svn_web_changes\Microchip\TCPIP Stack\TCP.c
                 __pa_205   0x0076ee    program     static C:\pavan\1+1RCUTx\1-1-RCU-T-NewArch_svn_web_changes\Microchip\TCPIP Stack\SNMP.c
                 __pa_206   0x0076f6    program     static C:\pavan\1+1RCUTx\1-1-RCU-T-NewArch_svn_web_changes\Microchip\TCPIP Stack\SNMP.c
                 __pa_206   0x003ade    program     static C:\pavan\1+1RCUTx\1-1-RCU-T-NewArch_svn_web_changes\Microchip\TCPIP Stack\TCP.c
                 __pa_207   0x0076fe    program     static C:\pavan\1+1RCUTx\1-1-RCU-T-NewArch_svn_web_changes\Microchip\TCPIP Stack\SNMP.c
                 __pa_207   0x003af2    program     static C:\pavan\1+1RCUTx\1-1-RCU-T-NewArch_svn_web_changes\Microchip\TCPIP Stack\TCP.c
                 __pa_208   0x007706    program     static C:\pavan\1+1RCUTx\1-1-RCU-T-NewArch_svn_web_changes\Microchip\TCPIP Stack\SNMP.c
                 __pa_208   0x003b00    program     static C:\pavan\1+1RCUTx\1-1-RCU-T-NewArch_svn_web_changes\Microchip\TCPIP Stack\TCP.c
                 __pa_209   0x003b0a    program     static C:\pavan\1+1RCUTx\1-1-RCU-T-NewArch_svn_web_changes\Microchip\TCPIP Stack\TCP.c
                 __pa_209   0x00770e    program     static C:\pavan\1+1RCUTx\1-1-RCU-T-NewArch_svn_web_changes\Microchip\TCPIP Stack\SNMP.c
                  __pa_21   0x00ba78    program     static C:\pavan\1+1RCUTx\1-1-RCU-T-NewArch_svn_web_changes\AgilisDevices\RCUServer.c
                  __pa_21   0x014ff2    program     static C:\pavan\1+1RCUTx\1-1-RCU-T-NewArch_svn_web_changes\AgilisDevices\RCULLAccess.c
                  __pa_21   0x019ed0    program     static C:\pavan\1+1RCUTx\1-1-RCU-T-NewArch_svn_web_changes\App\SNMP\AgilisSNMPLLBUCStatus.c
                  __pa_21   0x016fae    program     static C:\pavan\1+1RCUTx\1-1-RCU-T-NewArch_svn_web_changes\Agilis-SysLib\util.c
                  __pa_21   0x013b36    program     static C:\pavan\1+1RCUTx\1-1-RCU-T-NewArch_svn_web_changes\Microchip\TCPIP Stack\ETH97J60.c
                  __pa_21   0x012e1e    program     static C:\pavan\1+1RCUTx\1-1-RCU-T-NewArch_svn_web_changes\Microchip\TCPIP Stack\UDP.c
                  __pa_21   0x01766e    program     static C:\pavan\1+1RCUTx\1-1-RCU-T-NewArch_svn_web_changes\App\SerialIntf\AgilisProtocol\AgilisProtocol.c
                  __pa_21   0x018954    program     static C:\pavan\1+1RCUTx\1-1-RCU-T-NewArch_svn_web_changes\Bootstrap\Initialization.c
                  __pa_21   0x01611e    program     static C:\pavan\1+1RCUTx\1-1-RCU-T-NewArch_svn_web_changes\App\WebUI\AgilisHTTPApp.c
                  __pa_21   0x00d0c6    program     static C:\pavan\1+1RCUTx\1-1-RCU-T-NewArch_svn_web_changes\AgilisDevices\BUCClient.c
                  __pa_21   0x0158a0    program     static C:\pavan\1+1RCUTx\1-1-RCU-T-NewArch_svn_web_changes\Microchip\TCPIP Stack\DHCP.c
                  __pa_21   0x002fbe    program     static C:\pavan\1+1RCUTx\1-1-RCU-T-NewArch_svn_web_changes\Microchip\TCPIP Stack\TCP.c
                  __pa_21   0x00e5e2    program     static C:\pavan\1+1RCUTx\1-1-RCU-T-NewArch_svn_web_changes\App\SNMP\AgilisSNMPApp.c
                  __pa_21   0x009828    program     static C:\pavan\1+1RCUTx\1-1-RCU-T-NewArch_svn_web_changes\Microchip\TCPIP Stack\HTTP2.c
                  __pa_21   0x012226    program     static C:\pavan\1+1RCUTx\1-1-RCU-T-NewArch_svn_web_changes\Microchip\TCPIP Stack\Helpers.c
                  __pa_21   0x0103ae    program     static C:\pavan\1+1RCUTx\1-1-RCU-T-NewArch_svn_web_changes\App\WebUI\AgilisHTTPPrint.c
                  __pa_21   0x011214    program     static C:\pavan\1+1RCUTx\1-1-RCU-T-NewArch_svn_web_changes\Microchip\TCPIP Stack\MPFS2.c
                  __pa_21   0x016880    program     static C:\pavan\1+1RCUTx\1-1-RCU-T-NewArch_svn_web_changes\App\WebUI\AgilisHTTPGetDevInfo.c
                  __pa_21   0x00f6bc    program     static C:\pavan\1+1RCUTx\1-1-RCU-T-NewArch_svn_web_changes\Drivers\UARTISR.c
                  __pa_21   0x006e92    program     static C:\pavan\1+1RCUTx\1-1-RCU-T-NewArch_svn_web_changes\Microchip\TCPIP Stack\SNMP.c
                 __pa_210   0x003b12    program     static C:\pavan\1+1RCUTx\1-1-RCU-T-NewArch_svn_web_changes\Microchip\TCPIP Stack\TCP.c
                 __pa_210   0x00772c    program     static C:\pavan\1+1RCUTx\1-1-RCU-T-NewArch_svn_web_changes\Microchip\TCPIP Stack\SNMP.c
                 __pa_211   0x007736    program     static C:\pavan\1+1RCUTx\1-1-RCU-T-NewArch_svn_web_changes\Microchip\TCPIP Stack\SNMP.c
                 __pa_211   0x003b1c    program     static C:\pavan\1+1RCUTx\1-1-RCU-T-NewArch_svn_web_changes\Microchip\TCPIP Stack\TCP.c
                 __pa_212   0x003b26    program     static C:\pavan\1+1RCUTx\1-1-RCU-T-NewArch_svn_web_changes\Microchip\TCPIP Stack\TCP.c
                 __pa_212   0x00773c    program     static C:\pavan\1+1RCUTx\1-1-RCU-T-NewArch_svn_web_changes\Microchip\TCPIP Stack\SNMP.c
                 __pa_213   0x007746    program     static C:\pavan\1+1RCUTx\1-1-RCU-T-NewArch_svn_web_changes\Microchip\TCPIP Stack\SNMP.c
                 __pa_213   0x003b2e    program     static C:\pavan\1+1RCUTx\1-1-RCU-T-NewArch_svn_web_changes\Microchip\TCPIP Stack\TCP.c
                 __pa_214   0x007750    program     static C:\pavan\1+1RCUTx\1-1-RCU-T-NewArch_svn_web_changes\Microchip\TCPIP Stack\SNMP.c
                 __pa_214   0x003b3c    program     static C:\pavan\1+1RCUTx\1-1-RCU-T-NewArch_svn_web_changes\Microchip\TCPIP Stack\TCP.c
                 __pa_215   0x003b46    program     static C:\pavan\1+1RCUTx\1-1-RCU-T-NewArch_svn_web_changes\Microchip\TCPIP Stack\TCP.c
                 __pa_215   0x007756    program     static C:\pavan\1+1RCUTx\1-1-RCU-T-NewArch_svn_web_changes\Microchip\TCPIP Stack\SNMP.c
                 __pa_216   0x007764    program     static C:\pavan\1+1RCUTx\1-1-RCU-T-NewArch_svn_web_changes\Microchip\TCPIP Stack\SNMP.c
                 __pa_216   0x003b52    program     static C:\pavan\1+1RCUTx\1-1-RCU-T-NewArch_svn_web_changes\Microchip\TCPIP Stack\TCP.c
                 __pa_217   0x003b64    program     static C:\pavan\1+1RCUTx\1-1-RCU-T-NewArch_svn_web_changes\Microchip\TCPIP Stack\TCP.c
                 __pa_217   0x00776a    program     static C:\pavan\1+1RCUTx\1-1-RCU-T-NewArch_svn_web_changes\Microchip\TCPIP Stack\SNMP.c
                 __pa_218   0x003b6a    program     static C:\pavan\1+1RCUTx\1-1-RCU-T-NewArch_svn_web_changes\Microchip\TCPIP Stack\TCP.c
                 __pa_218   0x007770    program     static C:\pavan\1+1RCUTx\1-1-RCU-T-NewArch_svn_web_changes\Microchip\TCPIP Stack\SNMP.c
                 __pa_219   0x003b72    program     static C:\pavan\1+1RCUTx\1-1-RCU-T-NewArch_svn_web_changes\Microchip\TCPIP Stack\TCP.c
                 __pa_219   0x007778    program     static C:\pavan\1+1RCUTx\1-1-RCU-T-NewArch_svn_web_changes\Microchip\TCPIP Stack\SNMP.c
                  __pa_22   0x012e2c    program     static C:\pavan\1+1RCUTx\1-1-RCU-T-NewArch_svn_web_changes\Microchip\TCPIP Stack\UDP.c
                  __pa_22   0x00ba86    program     static C:\pavan\1+1RCUTx\1-1-RCU-T-NewArch_svn_web_changes\AgilisDevices\RCUServer.c
                  __pa_22   0x01767c    program     static C:\pavan\1+1RCUTx\1-1-RCU-T-NewArch_svn_web_changes\App\SerialIntf\AgilisProtocol\AgilisProtocol.c
                  __pa_22   0x00d0ea    program     static C:\pavan\1+1RCUTx\1-1-RCU-T-NewArch_svn_web_changes\AgilisDevices\BUCClient.c
                  __pa_22   0x0158ae    program     static C:\pavan\1+1RCUTx\1-1-RCU-T-NewArch_svn_web_changes\Microchip\TCPIP Stack\DHCP.c
                  __pa_22   0x00e5ea    program     static C:\pavan\1+1RCUTx\1-1-RCU-T-NewArch_svn_web_changes\App\SNMP\AgilisSNMPApp.c
                  __pa_22   0x018962    program     static C:\pavan\1+1RCUTx\1-1-RCU-T-NewArch_svn_web_changes\Bootstrap\Initialization.c
                  __pa_22   0x0103bc    program     static C:\pavan\1+1RCUTx\1-1-RCU-T-NewArch_svn_web_changes\App\WebUI\AgilisHTTPPrint.c
                  __pa_22   0x01688e    program     static C:\pavan\1+1RCUTx\1-1-RCU-T-NewArch_svn_web_changes\App\WebUI\AgilisHTTPGetDevInfo.c
                  __pa_22   0x012234    program     static C:\pavan\1+1RCUTx\1-1-RCU-T-NewArch_svn_web_changes\Microchip\TCPIP Stack\Helpers.c
                  __pa_22   0x019ed6    program     static C:\pavan\1+1RCUTx\1-1-RCU-T-NewArch_svn_web_changes\App\SNMP\AgilisSNMPLLBUCStatus.c
                  __pa_22   0x00f6c6    program     static C:\pavan\1+1RCUTx\1-1-RCU-T-NewArch_svn_web_changes\Drivers\UARTISR.c
                  __pa_22   0x016128    program     static C:\pavan\1+1RCUTx\1-1-RCU-T-NewArch_svn_web_changes\App\WebUI\AgilisHTTPApp.c
                  __pa_22   0x006e98    program     static C:\pavan\1+1RCUTx\1-1-RCU-T-NewArch_svn_web_changes\Microchip\TCPIP Stack\SNMP.c
                  __pa_22   0x013b3e    program     static C:\pavan\1+1RCUTx\1-1-RCU-T-NewArch_svn_web_changes\Microchip\TCPIP Stack\ETH97J60.c
                  __pa_22   0x002fcc    program     static C:\pavan\1+1RCUTx\1-1-RCU-T-NewArch_svn_web_changes\Microchip\TCPIP Stack\TCP.c
                  __pa_22   0x016fb8    program     static C:\pavan\1+1RCUTx\1-1-RCU-T-NewArch_svn_web_changes\Agilis-SysLib\util.c
                  __pa_22   0x014ffa    program     static C:\pavan\1+1RCUTx\1-1-RCU-T-NewArch_svn_web_changes\AgilisDevices\RCULLAccess.c
                  __pa_22   0x011234    program     static C:\pavan\1+1RCUTx\1-1-RCU-T-NewArch_svn_web_changes\Microchip\TCPIP Stack\MPFS2.c
                  __pa_22   0x009832    program     static C:\pavan\1+1RCUTx\1-1-RCU-T-NewArch_svn_web_changes\Microchip\TCPIP Stack\HTTP2.c
                 __pa_220   0x003b84    program     static C:\pavan\1+1RCUTx\1-1-RCU-T-NewArch_svn_web_changes\Microchip\TCPIP Stack\TCP.c
                 __pa_220   0x00777e    program     static C:\pavan\1+1RCUTx\1-1-RCU-T-NewArch_svn_web_changes\Microchip\TCPIP Stack\SNMP.c
                 __pa_221   0x003b92    program     static C:\pavan\1+1RCUTx\1-1-RCU-T-NewArch_svn_web_changes\Microchip\TCPIP Stack\TCP.c
                 __pa_221   0x007786    program     static C:\pavan\1+1RCUTx\1-1-RCU-T-NewArch_svn_web_changes\Microchip\TCPIP Stack\SNMP.c
                 __pa_222   0x00778e    program     static C:\pavan\1+1RCUTx\1-1-RCU-T-NewArch_svn_web_changes\Microchip\TCPIP Stack\SNMP.c
                 __pa_222   0x003b9c    program     static C:\pavan\1+1RCUTx\1-1-RCU-T-NewArch_svn_web_changes\Microchip\TCPIP Stack\TCP.c
                 __pa_223   0x003ba6    program     static C:\pavan\1+1RCUTx\1-1-RCU-T-NewArch_svn_web_changes\Microchip\TCPIP Stack\TCP.c
                 __pa_223   0x007798    program     static C:\pavan\1+1RCUTx\1-1-RCU-T-NewArch_svn_web_changes\Microchip\TCPIP Stack\SNMP.c
                 __pa_224   0x003bb0    program     static C:\pavan\1+1RCUTx\1-1-RCU-T-NewArch_svn_web_changes\Microchip\TCPIP Stack\TCP.c
                 __pa_224   0x00779e    program     static C:\pavan\1+1RCUTx\1-1-RCU-T-NewArch_svn_web_changes\Microchip\TCPIP Stack\SNMP.c
                 __pa_225   0x003bb8    program     static C:\pavan\1+1RCUTx\1-1-RCU-T-NewArch_svn_web_changes\Microchip\TCPIP Stack\TCP.c
                 __pa_225   0x0077ae    program     static C:\pavan\1+1RCUTx\1-1-RCU-T-NewArch_svn_web_changes\Microchip\TCPIP Stack\SNMP.c
                 __pa_226   0x003bc2    program     static C:\pavan\1+1RCUTx\1-1-RCU-T-NewArch_svn_web_changes\Microchip\TCPIP Stack\TCP.c
                 __pa_226   0x0077b8    program     static C:\pavan\1+1RCUTx\1-1-RCU-T-NewArch_svn_web_changes\Microchip\TCPIP Stack\SNMP.c
                 __pa_227   0x0077c8    program     static C:\pavan\1+1RCUTx\1-1-RCU-T-NewArch_svn_web_changes\Microchip\TCPIP Stack\SNMP.c
                 __pa_227   0x003bcc    program     static C:\pavan\1+1RCUTx\1-1-RCU-T-NewArch_svn_web_changes\Microchip\TCPIP Stack\TCP.c
                 __pa_228   0x0077d6    program     static C:\pavan\1+1RCUTx\1-1-RCU-T-NewArch_svn_web_changes\Microchip\TCPIP Stack\SNMP.c
                 __pa_228   0x003bd4    program     static C:\pavan\1+1RCUTx\1-1-RCU-T-NewArch_svn_web_changes\Microchip\TCPIP Stack\TCP.c
                 __pa_229   0x003bde    program     static C:\pavan\1+1RCUTx\1-1-RCU-T-NewArch_svn_web_changes\Microchip\TCPIP Stack\TCP.c
                 __pa_229   0x0077e4    program     static C:\pavan\1+1RCUTx\1-1-RCU-T-NewArch_svn_web_changes\Microchip\TCPIP Stack\SNMP.c
                  __pa_23   0x00e5fe    program     static C:\pavan\1+1RCUTx\1-1-RCU-T-NewArch_svn_web_changes\App\SNMP\AgilisSNMPApp.c
                  __pa_23   0x00ba8e    program     static C:\pavan\1+1RCUTx\1-1-RCU-T-NewArch_svn_web_changes\AgilisDevices\RCUServer.c
                  __pa_23   0x012e36    program     static C:\pavan\1+1RCUTx\1-1-RCU-T-NewArch_svn_web_changes\Microchip\TCPIP Stack\UDP.c
                  __pa_23   0x01768a    program     static C:\pavan\1+1RCUTx\1-1-RCU-T-NewArch_svn_web_changes\App\SerialIntf\AgilisProtocol\AgilisProtocol.c
                  __pa_23   0x011246    program     static C:\pavan\1+1RCUTx\1-1-RCU-T-NewArch_svn_web_changes\Microchip\TCPIP Stack\MPFS2.c
                  __pa_23   0x009846    program     static C:\pavan\1+1RCUTx\1-1-RCU-T-NewArch_svn_web_changes\Microchip\TCPIP Stack\HTTP2.c
                  __pa_23   0x016fc4    program     static C:\pavan\1+1RCUTx\1-1-RCU-T-NewArch_svn_web_changes\Agilis-SysLib\util.c
                  __pa_23   0x019ee4    program     static C:\pavan\1+1RCUTx\1-1-RCU-T-NewArch_svn_web_changes\App\SNMP\AgilisSNMPLLBUCStatus.c
                  __pa_23   0x002fea    program     static C:\pavan\1+1RCUTx\1-1-RCU-T-NewArch_svn_web_changes\Microchip\TCPIP Stack\TCP.c
                  __pa_23   0x015002    program     static C:\pavan\1+1RCUTx\1-1-RCU-T-NewArch_svn_web_changes\AgilisDevices\RCULLAccess.c
                  __pa_23   0x0158ce    program     static C:\pavan\1+1RCUTx\1-1-RCU-T-NewArch_svn_web_changes\Microchip\TCPIP Stack\DHCP.c
                  __pa_23   0x01612e    program     static C:\pavan\1+1RCUTx\1-1-RCU-T-NewArch_svn_web_changes\App\WebUI\AgilisHTTPApp.c
                  __pa_23   0x01896a    program     static C:\pavan\1+1RCUTx\1-1-RCU-T-NewArch_svn_web_changes\Bootstrap\Initialization.c
                  __pa_23   0x013b4c    program     static C:\pavan\1+1RCUTx\1-1-RCU-T-NewArch_svn_web_changes\Microchip\TCPIP Stack\ETH97J60.c
                  __pa_23   0x0103c8    program     static C:\pavan\1+1RCUTx\1-1-RCU-T-NewArch_svn_web_changes\App\WebUI\AgilisHTTPPrint.c
                  __pa_23   0x012242    program     static C:\pavan\1+1RCUTx\1-1-RCU-T-NewArch_svn_web_changes\Microchip\TCPIP Stack\Helpers.c
                  __pa_23   0x01689c    program     static C:\pavan\1+1RCUTx\1-1-RCU-T-NewArch_svn_web_changes\App\WebUI\AgilisHTTPGetDevInfo.c
                  __pa_23   0x00f6d0    program     static C:\pavan\1+1RCUTx\1-1-RCU-T-NewArch_svn_web_changes\Drivers\UARTISR.c
                  __pa_23   0x006ea6    program     static C:\pavan\1+1RCUTx\1-1-RCU-T-NewArch_svn_web_changes\Microchip\TCPIP Stack\SNMP.c
                  __pa_23   0x00d0f6    program     static C:\pavan\1+1RCUTx\1-1-RCU-T-NewArch_svn_web_changes\AgilisDevices\BUCClient.c
                 __pa_230   0x0077f2    program     static C:\pavan\1+1RCUTx\1-1-RCU-T-NewArch_svn_web_changes\Microchip\TCPIP Stack\SNMP.c
                 __pa_230   0x003bec    program     static C:\pavan\1+1RCUTx\1-1-RCU-T-NewArch_svn_web_changes\Microchip\TCPIP Stack\TCP.c
                 __pa_231   0x007804    program     static C:\pavan\1+1RCUTx\1-1-RCU-T-NewArch_svn_web_changes\Microchip\TCPIP Stack\SNMP.c
                 __pa_231   0x003bfc    program     static C:\pavan\1+1RCUTx\1-1-RCU-T-NewArch_svn_web_changes\Microchip\TCPIP Stack\TCP.c
                 __pa_232   0x00780a    program     static C:\pavan\1+1RCUTx\1-1-RCU-T-NewArch_svn_web_changes\Microchip\TCPIP Stack\SNMP.c
                 __pa_232   0x003c0c    program     static C:\pavan\1+1RCUTx\1-1-RCU-T-NewArch_svn_web_changes\Microchip\TCPIP Stack\TCP.c
                 __pa_233   0x007814    program     static C:\pavan\1+1RCUTx\1-1-RCU-T-NewArch_svn_web_changes\Microchip\TCPIP Stack\SNMP.c
                 __pa_233   0x003c1a    program     static C:\pavan\1+1RCUTx\1-1-RCU-T-NewArch_svn_web_changes\Microchip\TCPIP Stack\TCP.c
                 __pa_234   0x00781a    program     static C:\pavan\1+1RCUTx\1-1-RCU-T-NewArch_svn_web_changes\Microchip\TCPIP Stack\SNMP.c
                 __pa_234   0x003c28    program     static C:\pavan\1+1RCUTx\1-1-RCU-T-NewArch_svn_web_changes\Microchip\TCPIP Stack\TCP.c
                 __pa_235   0x003c34    program     static C:\pavan\1+1RCUTx\1-1-RCU-T-NewArch_svn_web_changes\Microchip\TCPIP Stack\TCP.c
                 __pa_235   0x007822    program     static C:\pavan\1+1RCUTx\1-1-RCU-T-NewArch_svn_web_changes\Microchip\TCPIP Stack\SNMP.c
                 __pa_236   0x003c40    program     static C:\pavan\1+1RCUTx\1-1-RCU-T-NewArch_svn_web_changes\Microchip\TCPIP Stack\TCP.c
                 __pa_236   0x00782a    program     static C:\pavan\1+1RCUTx\1-1-RCU-T-NewArch_svn_web_changes\Microchip\TCPIP Stack\SNMP.c
                 __pa_237   0x003c4a    program     static C:\pavan\1+1RCUTx\1-1-RCU-T-NewArch_svn_web_changes\Microchip\TCPIP Stack\TCP.c
                 __pa_237   0x007832    program     static C:\pavan\1+1RCUTx\1-1-RCU-T-NewArch_svn_web_changes\Microchip\TCPIP Stack\SNMP.c
                 __pa_238   0x003c56    program     static C:\pavan\1+1RCUTx\1-1-RCU-T-NewArch_svn_web_changes\Microchip\TCPIP Stack\TCP.c
                 __pa_238   0x007838    program     static C:\pavan\1+1RCUTx\1-1-RCU-T-NewArch_svn_web_changes\Microchip\TCPIP Stack\SNMP.c
                 __pa_239   0x003c64    program     static C:\pavan\1+1RCUTx\1-1-RCU-T-NewArch_svn_web_changes\Microchip\TCPIP Stack\TCP.c
                 __pa_239   0x00783e    program     static C:\pavan\1+1RCUTx\1-1-RCU-T-NewArch_svn_web_changes\Microchip\TCPIP Stack\SNMP.c
                  __pa_24   0x00ba92    program     static C:\pavan\1+1RCUTx\1-1-RCU-T-NewArch_svn_web_changes\AgilisDevices\RCUServer.c
                  __pa_24   0x019ef0    program     static C:\pavan\1+1RCUTx\1-1-RCU-T-NewArch_svn_web_changes\App\SNMP\AgilisSNMPLLBUCStatus.c
                  __pa_24   0x016134    program     static C:\pavan\1+1RCUTx\1-1-RCU-T-NewArch_svn_web_changes\App\WebUI\AgilisHTTPApp.c
                  __pa_24   0x012256    program     static C:\pavan\1+1RCUTx\1-1-RCU-T-NewArch_svn_web_changes\Microchip\TCPIP Stack\Helpers.c
                  __pa_24   0x002ff4    program     static C:\pavan\1+1RCUTx\1-1-RCU-T-NewArch_svn_web_changes\Microchip\TCPIP Stack\TCP.c
                  __pa_24   0x006eae    program     static C:\pavan\1+1RCUTx\1-1-RCU-T-NewArch_svn_web_changes\Microchip\TCPIP Stack\SNMP.c
                  __pa_24   0x009852    program     static C:\pavan\1+1RCUTx\1-1-RCU-T-NewArch_svn_web_changes\Microchip\TCPIP Stack\HTTP2.c
                  __pa_24   0x00d0fe    program     static C:\pavan\1+1RCUTx\1-1-RCU-T-NewArch_svn_web_changes\AgilisDevices\BUCClient.c
                  __pa_24   0x013b54    program     static C:\pavan\1+1RCUTx\1-1-RCU-T-NewArch_svn_web_changes\Microchip\TCPIP Stack\ETH97J60.c
                  __pa_24   0x012e4a    program     static C:\pavan\1+1RCUTx\1-1-RCU-T-NewArch_svn_web_changes\Microchip\TCPIP Stack\UDP.c
                  __pa_24   0x0168aa    program     static C:\pavan\1+1RCUTx\1-1-RCU-T-NewArch_svn_web_changes\App\WebUI\AgilisHTTPGetDevInfo.c
                  __pa_24   0x018970    program     static C:\pavan\1+1RCUTx\1-1-RCU-T-NewArch_svn_web_changes\Bootstrap\Initialization.c
                  __pa_24   0x016fce    program     static C:\pavan\1+1RCUTx\1-1-RCU-T-NewArch_svn_web_changes\Agilis-SysLib\util.c
                  __pa_24   0x0103d4    program     static C:\pavan\1+1RCUTx\1-1-RCU-T-NewArch_svn_web_changes\App\WebUI\AgilisHTTPPrint.c
                  __pa_24   0x011258    program     static C:\pavan\1+1RCUTx\1-1-RCU-T-NewArch_svn_web_changes\Microchip\TCPIP Stack\MPFS2.c
                  __pa_24   0x01500a    program     static C:\pavan\1+1RCUTx\1-1-RCU-T-NewArch_svn_web_changes\AgilisDevices\RCULLAccess.c
                  __pa_24   0x017690    program     static C:\pavan\1+1RCUTx\1-1-RCU-T-NewArch_svn_web_changes\App\SerialIntf\AgilisProtocol\AgilisProtocol.c
                  __pa_24   0x0158d4    program     static C:\pavan\1+1RCUTx\1-1-RCU-T-NewArch_svn_web_changes\Microchip\TCPIP Stack\DHCP.c
                  __pa_24   0x00f6da    program     static C:\pavan\1+1RCUTx\1-1-RCU-T-NewArch_svn_web_changes\Drivers\UARTISR.c
                  __pa_24   0x00e610    program     static C:\pavan\1+1RCUTx\1-1-RCU-T-NewArch_svn_web_changes\App\SNMP\AgilisSNMPApp.c
                 __pa_240   0x003c72    program     static C:\pavan\1+1RCUTx\1-1-RCU-T-NewArch_svn_web_changes\Microchip\TCPIP Stack\TCP.c
                 __pa_240   0x007844    program     static C:\pavan\1+1RCUTx\1-1-RCU-T-NewArch_svn_web_changes\Microchip\TCPIP Stack\SNMP.c
                 __pa_241   0x003c80    program     static C:\pavan\1+1RCUTx\1-1-RCU-T-NewArch_svn_web_changes\Microchip\TCPIP Stack\TCP.c
                 __pa_241   0x00784e    program     static C:\pavan\1+1RCUTx\1-1-RCU-T-NewArch_svn_web_changes\Microchip\TCPIP Stack\SNMP.c
                 __pa_242   0x003c8e    program     static C:\pavan\1+1RCUTx\1-1-RCU-T-NewArch_svn_web_changes\Microchip\TCPIP Stack\TCP.c
                 __pa_242   0x007856    program     static C:\pavan\1+1RCUTx\1-1-RCU-T-NewArch_svn_web_changes\Microchip\TCPIP Stack\SNMP.c
                 __pa_243   0x003c9c    program     static C:\pavan\1+1RCUTx\1-1-RCU-T-NewArch_svn_web_changes\Microchip\TCPIP Stack\TCP.c
                 __pa_243   0x007860    program     static C:\pavan\1+1RCUTx\1-1-RCU-T-NewArch_svn_web_changes\Microchip\TCPIP Stack\SNMP.c
                 __pa_244   0x003caa    program     static C:\pavan\1+1RCUTx\1-1-RCU-T-NewArch_svn_web_changes\Microchip\TCPIP Stack\TCP.c
                 __pa_244   0x00786e    program     static C:\pavan\1+1RCUTx\1-1-RCU-T-NewArch_svn_web_changes\Microchip\TCPIP Stack\SNMP.c
                 __pa_245   0x003cb8    program     static C:\pavan\1+1RCUTx\1-1-RCU-T-NewArch_svn_web_changes\Microchip\TCPIP Stack\TCP.c
                 __pa_245   0x00787a    program     static C:\pavan\1+1RCUTx\1-1-RCU-T-NewArch_svn_web_changes\Microchip\TCPIP Stack\SNMP.c
                 __pa_246   0x007886    program     static C:\pavan\1+1RCUTx\1-1-RCU-T-NewArch_svn_web_changes\Microchip\TCPIP Stack\SNMP.c
                 __pa_246   0x003cc6    program     static C:\pavan\1+1RCUTx\1-1-RCU-T-NewArch_svn_web_changes\Microchip\TCPIP Stack\TCP.c
                 __pa_247   0x007892    program     static C:\pavan\1+1RCUTx\1-1-RCU-T-NewArch_svn_web_changes\Microchip\TCPIP Stack\SNMP.c
                 __pa_247   0x003cd4    program     static C:\pavan\1+1RCUTx\1-1-RCU-T-NewArch_svn_web_changes\Microchip\TCPIP Stack\TCP.c
                 __pa_248   0x007898    program     static C:\pavan\1+1RCUTx\1-1-RCU-T-NewArch_svn_web_changes\Microchip\TCPIP Stack\SNMP.c
                 __pa_248   0x003ce2    program     static C:\pavan\1+1RCUTx\1-1-RCU-T-NewArch_svn_web_changes\Microchip\TCPIP Stack\TCP.c
                 __pa_249   0x0078a0    program     static C:\pavan\1+1RCUTx\1-1-RCU-T-NewArch_svn_web_changes\Microchip\TCPIP Stack\SNMP.c
                 __pa_249   0x003cf0    program     static C:\pavan\1+1RCUTx\1-1-RCU-T-NewArch_svn_web_changes\Microchip\TCPIP Stack\TCP.c
                  __pa_25   0x012e58    program     static C:\pavan\1+1RCUTx\1-1-RCU-T-NewArch_svn_web_changes\Microchip\TCPIP Stack\UDP.c
                  __pa_25   0x018976    program     static C:\pavan\1+1RCUTx\1-1-RCU-T-NewArch_svn_web_changes\Bootstrap\Initialization.c
                  __pa_25   0x0158de    program     static C:\pavan\1+1RCUTx\1-1-RCU-T-NewArch_svn_web_changes\Microchip\TCPIP Stack\DHCP.c
                  __pa_25   0x00d118    program     static C:\pavan\1+1RCUTx\1-1-RCU-T-NewArch_svn_web_changes\AgilisDevices\BUCClient.c
                  __pa_25   0x011266    program     static C:\pavan\1+1RCUTx\1-1-RCU-T-NewArch_svn_web_changes\Microchip\TCPIP Stack\MPFS2.c
                  __pa_25   0x00e622    program     static C:\pavan\1+1RCUTx\1-1-RCU-T-NewArch_svn_web_changes\App\SNMP\AgilisSNMPApp.c
                  __pa_25   0x012260    program     static C:\pavan\1+1RCUTx\1-1-RCU-T-NewArch_svn_web_changes\Microchip\TCPIP Stack\Helpers.c
                  __pa_25   0x015012    program     static C:\pavan\1+1RCUTx\1-1-RCU-T-NewArch_svn_web_changes\AgilisDevices\RCULLAccess.c
                  __pa_25   0x002ffe    program     static C:\pavan\1+1RCUTx\1-1-RCU-T-NewArch_svn_web_changes\Microchip\TCPIP Stack\TCP.c
                  __pa_25   0x0103e0    program     static C:\pavan\1+1RCUTx\1-1-RCU-T-NewArch_svn_web_changes\App\WebUI\AgilisHTTPPrint.c
                  __pa_25   0x017698    program     static C:\pavan\1+1RCUTx\1-1-RCU-T-NewArch_svn_web_changes\App\SerialIntf\AgilisProtocol\AgilisProtocol.c
                  __pa_25   0x0168b4    program     static C:\pavan\1+1RCUTx\1-1-RCU-T-NewArch_svn_web_changes\App\WebUI\AgilisHTTPGetDevInfo.c
                  __pa_25   0x009858    program     static C:\pavan\1+1RCUTx\1-1-RCU-T-NewArch_svn_web_changes\Microchip\TCPIP Stack\HTTP2.c
                  __pa_25   0x006eb8    program     static C:\pavan\1+1RCUTx\1-1-RCU-T-NewArch_svn_web_changes\Microchip\TCPIP Stack\SNMP.c
                  __pa_25   0x013b64    program     static C:\pavan\1+1RCUTx\1-1-RCU-T-NewArch_svn_web_changes\Microchip\TCPIP Stack\ETH97J60.c
                  __pa_25   0x019efe    program     static C:\pavan\1+1RCUTx\1-1-RCU-T-NewArch_svn_web_changes\App\SNMP\AgilisSNMPLLBUCStatus.c
                  __pa_25   0x00f6e6    program     static C:\pavan\1+1RCUTx\1-1-RCU-T-NewArch_svn_web_changes\Drivers\UARTISR.c
                  __pa_25   0x00ba98    program     static C:\pavan\1+1RCUTx\1-1-RCU-T-NewArch_svn_web_changes\AgilisDevices\RCUServer.c
                  __pa_25   0x016fdc    program     static C:\pavan\1+1RCUTx\1-1-RCU-T-NewArch_svn_web_changes\Agilis-SysLib\util.c
                 __pa_250   0x003cfe    program     static C:\pavan\1+1RCUTx\1-1-RCU-T-NewArch_svn_web_changes\Microchip\TCPIP Stack\TCP.c
                 __pa_250   0x0078a6    program     static C:\pavan\1+1RCUTx\1-1-RCU-T-NewArch_svn_web_changes\Microchip\TCPIP Stack\SNMP.c
                 __pa_251   0x003d06    program     static C:\pavan\1+1RCUTx\1-1-RCU-T-NewArch_svn_web_changes\Microchip\TCPIP Stack\TCP.c
                 __pa_251   0x0078ac    program     static C:\pavan\1+1RCUTx\1-1-RCU-T-NewArch_svn_web_changes\Microchip\TCPIP Stack\SNMP.c
                 __pa_252   0x0078be    program     static C:\pavan\1+1RCUTx\1-1-RCU-T-NewArch_svn_web_changes\Microchip\TCPIP Stack\SNMP.c
                 __pa_252   0x003d10    program     static C:\pavan\1+1RCUTx\1-1-RCU-T-NewArch_svn_web_changes\Microchip\TCPIP Stack\TCP.c
                 __pa_253   0x0078c8    program     static C:\pavan\1+1RCUTx\1-1-RCU-T-NewArch_svn_web_changes\Microchip\TCPIP Stack\SNMP.c
                 __pa_253   0x003d1a    program     static C:\pavan\1+1RCUTx\1-1-RCU-T-NewArch_svn_web_changes\Microchip\TCPIP Stack\TCP.c
                 __pa_254   0x003d24    program     static C:\pavan\1+1RCUTx\1-1-RCU-T-NewArch_svn_web_changes\Microchip\TCPIP Stack\TCP.c
                 __pa_254   0x0078ce    program     static C:\pavan\1+1RCUTx\1-1-RCU-T-NewArch_svn_web_changes\Microchip\TCPIP Stack\SNMP.c
                 __pa_255   0x003d2e    program     static C:\pavan\1+1RCUTx\1-1-RCU-T-NewArch_svn_web_changes\Microchip\TCPIP Stack\TCP.c
                 __pa_255   0x0078d6    program     static C:\pavan\1+1RCUTx\1-1-RCU-T-NewArch_svn_web_changes\Microchip\TCPIP Stack\SNMP.c
                 __pa_256   0x0078e0    program     static C:\pavan\1+1RCUTx\1-1-RCU-T-NewArch_svn_web_changes\Microchip\TCPIP Stack\SNMP.c
                 __pa_256   0x003d36    program     static C:\pavan\1+1RCUTx\1-1-RCU-T-NewArch_svn_web_changes\Microchip\TCPIP Stack\TCP.c
                 __pa_257   0x0078ec    program     static C:\pavan\1+1RCUTx\1-1-RCU-T-NewArch_svn_web_changes\Microchip\TCPIP Stack\SNMP.c
                 __pa_257   0x003d40    program     static C:\pavan\1+1RCUTx\1-1-RCU-T-NewArch_svn_web_changes\Microchip\TCPIP Stack\TCP.c
                 __pa_258   0x0078f2    program     static C:\pavan\1+1RCUTx\1-1-RCU-T-NewArch_svn_web_changes\Microchip\TCPIP Stack\SNMP.c
                 __pa_258   0x003d4a    program     static C:\pavan\1+1RCUTx\1-1-RCU-T-NewArch_svn_web_changes\Microchip\TCPIP Stack\TCP.c
                 __pa_259   0x003d54    program     static C:\pavan\1+1RCUTx\1-1-RCU-T-NewArch_svn_web_changes\Microchip\TCPIP Stack\TCP.c
                  __pa_26   0x006ec4    program     static C:\pavan\1+1RCUTx\1-1-RCU-T-NewArch_svn_web_changes\Microchip\TCPIP Stack\SNMP.c
                  __pa_26   0x0168c2    program     static C:\pavan\1+1RCUTx\1-1-RCU-T-NewArch_svn_web_changes\App\WebUI\AgilisHTTPGetDevInfo.c
                  __pa_26   0x016fe4    program     static C:\pavan\1+1RCUTx\1-1-RCU-T-NewArch_svn_web_changes\Agilis-SysLib\util.c
                  __pa_26   0x00d122    program     static C:\pavan\1+1RCUTx\1-1-RCU-T-NewArch_svn_web_changes\AgilisDevices\BUCClient.c
                  __pa_26   0x015020    program     static C:\pavan\1+1RCUTx\1-1-RCU-T-NewArch_svn_web_changes\AgilisDevices\RCULLAccess.c
                  __pa_26   0x019f06    program     static C:\pavan\1+1RCUTx\1-1-RCU-T-NewArch_svn_web_changes\App\SNMP\AgilisSNMPLLBUCStatus.c
                  __pa_26   0x013b70    program     static C:\pavan\1+1RCUTx\1-1-RCU-T-NewArch_svn_web_changes\Microchip\TCPIP Stack\ETH97J60.c
                  __pa_26   0x011282    program     static C:\pavan\1+1RCUTx\1-1-RCU-T-NewArch_svn_web_changes\Microchip\TCPIP Stack\MPFS2.c
                  __pa_26   0x00bab2    program     static C:\pavan\1+1RCUTx\1-1-RCU-T-NewArch_svn_web_changes\AgilisDevices\RCUServer.c
                  __pa_26   0x00f6f4    program     static C:\pavan\1+1RCUTx\1-1-RCU-T-NewArch_svn_web_changes\Drivers\UARTISR.c
                  __pa_26   0x00985e    program     static C:\pavan\1+1RCUTx\1-1-RCU-T-NewArch_svn_web_changes\Microchip\TCPIP Stack\HTTP2.c
                  __pa_26   0x01769e    program     static C:\pavan\1+1RCUTx\1-1-RCU-T-NewArch_svn_web_changes\App\SerialIntf\AgilisProtocol\AgilisProtocol.c
                  __pa_26   0x01226e    program     static C:\pavan\1+1RCUTx\1-1-RCU-T-NewArch_svn_web_changes\Microchip\TCPIP Stack\Helpers.c
                  __pa_26   0x0103f4    program     static C:\pavan\1+1RCUTx\1-1-RCU-T-NewArch_svn_web_changes\App\WebUI\AgilisHTTPPrint.c
                  __pa_26   0x01897e    program     static C:\pavan\1+1RCUTx\1-1-RCU-T-NewArch_svn_web_changes\Bootstrap\Initialization.c
                  __pa_26   0x00300a    program     static C:\pavan\1+1RCUTx\1-1-RCU-T-NewArch_svn_web_changes\Microchip\TCPIP Stack\TCP.c
                  __pa_26   0x00e62e    program     static C:\pavan\1+1RCUTx\1-1-RCU-T-NewArch_svn_web_changes\App\SNMP\AgilisSNMPApp.c
                  __pa_26   0x012e64    program     static C:\pavan\1+1RCUTx\1-1-RCU-T-NewArch_svn_web_changes\Microchip\TCPIP Stack\UDP.c
                  __pa_26   0x0158e6    program     static C:\pavan\1+1RCUTx\1-1-RCU-T-NewArch_svn_web_changes\Microchip\TCPIP Stack\DHCP.c
                 __pa_260   0x003d5e    program     static C:\pavan\1+1RCUTx\1-1-RCU-T-NewArch_svn_web_changes\Microchip\TCPIP Stack\TCP.c
                 __pa_261   0x003d66    program     static C:\pavan\1+1RCUTx\1-1-RCU-T-NewArch_svn_web_changes\Microchip\TCPIP Stack\TCP.c
                 __pa_262   0x003d72    program     static C:\pavan\1+1RCUTx\1-1-RCU-T-NewArch_svn_web_changes\Microchip\TCPIP Stack\TCP.c
                 __pa_263   0x003d82    program     static C:\pavan\1+1RCUTx\1-1-RCU-T-NewArch_svn_web_changes\Microchip\TCPIP Stack\TCP.c
                 __pa_264   0x003d8c    program     static C:\pavan\1+1RCUTx\1-1-RCU-T-NewArch_svn_web_changes\Microchip\TCPIP Stack\TCP.c
                 __pa_265   0x003d9e    program     static C:\pavan\1+1RCUTx\1-1-RCU-T-NewArch_svn_web_changes\Microchip\TCPIP Stack\TCP.c
                 __pa_266   0x003dae    program     static C:\pavan\1+1RCUTx\1-1-RCU-T-NewArch_svn_web_changes\Microchip\TCPIP Stack\TCP.c
                 __pa_267   0x003dbc    program     static C:\pavan\1+1RCUTx\1-1-RCU-T-NewArch_svn_web_changes\Microchip\TCPIP Stack\TCP.c
                 __pa_268   0x003dc2    program     static C:\pavan\1+1RCUTx\1-1-RCU-T-NewArch_svn_web_changes\Microchip\TCPIP Stack\TCP.c
                 __pa_269   0x003dd0    program     static C:\pavan\1+1RCUTx\1-1-RCU-T-NewArch_svn_web_changes\Microchip\TCPIP Stack\TCP.c
                  __pa_27   0x019f10    program     static C:\pavan\1+1RCUTx\1-1-RCU-T-NewArch_svn_web_changes\App\SNMP\AgilisSNMPLLBUCStatus.c
                  __pa_27   0x016ff2    program     static C:\pavan\1+1RCUTx\1-1-RCU-T-NewArch_svn_web_changes\Agilis-SysLib\util.c
                  __pa_27   0x015040    program     static C:\pavan\1+1RCUTx\1-1-RCU-T-NewArch_svn_web_changes\AgilisDevices\RCULLAccess.c
                  __pa_27   0x009864    program     static C:\pavan\1+1RCUTx\1-1-RCU-T-NewArch_svn_web_changes\Microchip\TCPIP Stack\HTTP2.c
                  __pa_27   0x01129c    program     static C:\pavan\1+1RCUTx\1-1-RCU-T-NewArch_svn_web_changes\Microchip\TCPIP Stack\MPFS2.c
                  __pa_27   0x012e6e    program     static C:\pavan\1+1RCUTx\1-1-RCU-T-NewArch_svn_web_changes\Microchip\TCPIP Stack\UDP.c
                  __pa_27   0x0176ae    program     static C:\pavan\1+1RCUTx\1-1-RCU-T-NewArch_svn_web_changes\App\SerialIntf\AgilisProtocol\AgilisProtocol.c
                  __pa_27   0x01227c    program     static C:\pavan\1+1RCUTx\1-1-RCU-T-NewArch_svn_web_changes\Microchip\TCPIP Stack\Helpers.c
                  __pa_27   0x00e634    program     static C:\pavan\1+1RCUTx\1-1-RCU-T-NewArch_svn_web_changes\App\SNMP\AgilisSNMPApp.c
                  __pa_27   0x006edc    program     static C:\pavan\1+1RCUTx\1-1-RCU-T-NewArch_svn_web_changes\Microchip\TCPIP Stack\SNMP.c
                  __pa_27   0x010408    program     static C:\pavan\1+1RCUTx\1-1-RCU-T-NewArch_svn_web_changes\App\WebUI\AgilisHTTPPrint.c
                  __pa_27   0x0168d0    program     static C:\pavan\1+1RCUTx\1-1-RCU-T-NewArch_svn_web_changes\App\WebUI\AgilisHTTPGetDevInfo.c
                  __pa_27   0x00d12a    program     static C:\pavan\1+1RCUTx\1-1-RCU-T-NewArch_svn_web_changes\AgilisDevices\BUCClient.c
                  __pa_27   0x013b7e    program     static C:\pavan\1+1RCUTx\1-1-RCU-T-NewArch_svn_web_changes\Microchip\TCPIP Stack\ETH97J60.c
                  __pa_27   0x00babe    program     static C:\pavan\1+1RCUTx\1-1-RCU-T-NewArch_svn_web_changes\AgilisDevices\RCUServer.c
                  __pa_27   0x0158ee    program     static C:\pavan\1+1RCUTx\1-1-RCU-T-NewArch_svn_web_changes\Microchip\TCPIP Stack\DHCP.c
                  __pa_27   0x003020    program     static C:\pavan\1+1RCUTx\1-1-RCU-T-NewArch_svn_web_changes\Microchip\TCPIP Stack\TCP.c
                  __pa_27   0x00f700    program     static C:\pavan\1+1RCUTx\1-1-RCU-T-NewArch_svn_web_changes\Drivers\UARTISR.c
                 __pa_270   0x003dd8    program     static C:\pavan\1+1RCUTx\1-1-RCU-T-NewArch_svn_web_changes\Microchip\TCPIP Stack\TCP.c
                 __pa_271   0x003de2    program     static C:\pavan\1+1RCUTx\1-1-RCU-T-NewArch_svn_web_changes\Microchip\TCPIP Stack\TCP.c
                 __pa_272   0x003dea    program     static C:\pavan\1+1RCUTx\1-1-RCU-T-NewArch_svn_web_changes\Microchip\TCPIP Stack\TCP.c
                 __pa_273   0x003df2    program     static C:\pavan\1+1RCUTx\1-1-RCU-T-NewArch_svn_web_changes\Microchip\TCPIP Stack\TCP.c
                 __pa_274   0x003dfe    program     static C:\pavan\1+1RCUTx\1-1-RCU-T-NewArch_svn_web_changes\Microchip\TCPIP Stack\TCP.c
                 __pa_275   0x003e0a    program     static C:\pavan\1+1RCUTx\1-1-RCU-T-NewArch_svn_web_changes\Microchip\TCPIP Stack\TCP.c
                 __pa_276   0x003e16    program     static C:\pavan\1+1RCUTx\1-1-RCU-T-NewArch_svn_web_changes\Microchip\TCPIP Stack\TCP.c
                 __pa_277   0x003e22    program     static C:\pavan\1+1RCUTx\1-1-RCU-T-NewArch_svn_web_changes\Microchip\TCPIP Stack\TCP.c
                 __pa_278   0x003e2e    program     static C:\pavan\1+1RCUTx\1-1-RCU-T-NewArch_svn_web_changes\Microchip\TCPIP Stack\TCP.c
                 __pa_279   0x003e36    program     static C:\pavan\1+1RCUTx\1-1-RCU-T-NewArch_svn_web_changes\Microchip\TCPIP Stack\TCP.c
                  __pa_28   0x013b8e    program     static C:\pavan\1+1RCUTx\1-1-RCU-T-NewArch_svn_web_changes\Microchip\TCPIP Stack\ETH97J60.c
                  __pa_28   0x00bace    program     static C:\pavan\1+1RCUTx\1-1-RCU-T-NewArch_svn_web_changes\AgilisDevices\RCUServer.c
                  __pa_28   0x015048    program     static C:\pavan\1+1RCUTx\1-1-RCU-T-NewArch_svn_web_changes\AgilisDevices\RCULLAccess.c
                  __pa_28   0x012e78    program     static C:\pavan\1+1RCUTx\1-1-RCU-T-NewArch_svn_web_changes\Microchip\TCPIP Stack\UDP.c
                  __pa_28   0x00d136    program     static C:\pavan\1+1RCUTx\1-1-RCU-T-NewArch_svn_web_changes\AgilisDevices\BUCClient.c
                  __pa_28   0x006ee8    program     static C:\pavan\1+1RCUTx\1-1-RCU-T-NewArch_svn_web_changes\Microchip\TCPIP Stack\SNMP.c
                  __pa_28   0x0176b6    program     static C:\pavan\1+1RCUTx\1-1-RCU-T-NewArch_svn_web_changes\App\SerialIntf\AgilisProtocol\AgilisProtocol.c
                  __pa_28   0x0112b6    program     static C:\pavan\1+1RCUTx\1-1-RCU-T-NewArch_svn_web_changes\Microchip\TCPIP Stack\MPFS2.c
                  __pa_28   0x00986a    program     static C:\pavan\1+1RCUTx\1-1-RCU-T-NewArch_svn_web_changes\Microchip\TCPIP Stack\HTTP2.c
                  __pa_28   0x016ffa    program     static C:\pavan\1+1RCUTx\1-1-RCU-T-NewArch_svn_web_changes\Agilis-SysLib\util.c
                  __pa_28   0x00302e    program     static C:\pavan\1+1RCUTx\1-1-RCU-T-NewArch_svn_web_changes\Microchip\TCPIP Stack\TCP.c
                  __pa_28   0x0158fa    program     static C:\pavan\1+1RCUTx\1-1-RCU-T-NewArch_svn_web_changes\Microchip\TCPIP Stack\DHCP.c
                  __pa_28   0x019f1a    program     static C:\pavan\1+1RCUTx\1-1-RCU-T-NewArch_svn_web_changes\App\SNMP\AgilisSNMPLLBUCStatus.c
                  __pa_28   0x0168dc    program     static C:\pavan\1+1RCUTx\1-1-RCU-T-NewArch_svn_web_changes\App\WebUI\AgilisHTTPGetDevInfo.c
                  __pa_28   0x01228c    program     static C:\pavan\1+1RCUTx\1-1-RCU-T-NewArch_svn_web_changes\Microchip\TCPIP Stack\Helpers.c
                  __pa_28   0x01041c    program     static C:\pavan\1+1RCUTx\1-1-RCU-T-NewArch_svn_web_changes\App\WebUI\AgilisHTTPPrint.c
                  __pa_28   0x00e63e    program     static C:\pavan\1+1RCUTx\1-1-RCU-T-NewArch_svn_web_changes\App\SNMP\AgilisSNMPApp.c
                 __pa_280   0x003e3e    program     static C:\pavan\1+1RCUTx\1-1-RCU-T-NewArch_svn_web_changes\Microchip\TCPIP Stack\TCP.c
                 __pa_281   0x003e46    program     static C:\pavan\1+1RCUTx\1-1-RCU-T-NewArch_svn_web_changes\Microchip\TCPIP Stack\TCP.c
                 __pa_282   0x003e4e    program     static C:\pavan\1+1RCUTx\1-1-RCU-T-NewArch_svn_web_changes\Microchip\TCPIP Stack\TCP.c
                 __pa_283   0x003e58    program     static C:\pavan\1+1RCUTx\1-1-RCU-T-NewArch_svn_web_changes\Microchip\TCPIP Stack\TCP.c
                 __pa_284   0x003e60    program     static C:\pavan\1+1RCUTx\1-1-RCU-T-NewArch_svn_web_changes\Microchip\TCPIP Stack\TCP.c
                 __pa_285   0x003e68    program     static C:\pavan\1+1RCUTx\1-1-RCU-T-NewArch_svn_web_changes\Microchip\TCPIP Stack\TCP.c
                 __pa_286   0x003e70    program     static C:\pavan\1+1RCUTx\1-1-RCU-T-NewArch_svn_web_changes\Microchip\TCPIP Stack\TCP.c
                 __pa_287   0x003e78    program     static C:\pavan\1+1RCUTx\1-1-RCU-T-NewArch_svn_web_changes\Microchip\TCPIP Stack\TCP.c
                  __pa_29   0x00d14c    program     static C:\pavan\1+1RCUTx\1-1-RCU-T-NewArch_svn_web_changes\AgilisDevices\BUCClient.c
                  __pa_29   0x0168e8    program     static C:\pavan\1+1RCUTx\1-1-RCU-T-NewArch_svn_web_changes\App\WebUI\AgilisHTTPGetDevInfo.c
                  __pa_29   0x006eee    program     static C:\pavan\1+1RCUTx\1-1-RCU-T-NewArch_svn_web_changes\Microchip\TCPIP Stack\SNMP.c
                  __pa_29   0x0176c6    program     static C:\pavan\1+1RCUTx\1-1-RCU-T-NewArch_svn_web_changes\App\SerialIntf\AgilisProtocol\AgilisProtocol.c
                  __pa_29   0x0112d0    program     static C:\pavan\1+1RCUTx\1-1-RCU-T-NewArch_svn_web_changes\Microchip\TCPIP Stack\MPFS2.c
                  __pa_29   0x01229a    program     static C:\pavan\1+1RCUTx\1-1-RCU-T-NewArch_svn_web_changes\Microchip\TCPIP Stack\Helpers.c
                  __pa_29   0x009874    program     static C:\pavan\1+1RCUTx\1-1-RCU-T-NewArch_svn_web_changes\Microchip\TCPIP Stack\HTTP2.c
                  __pa_29   0x012e88    program     static C:\pavan\1+1RCUTx\1-1-RCU-T-NewArch_svn_web_changes\Microchip\TCPIP Stack\UDP.c
                  __pa_29   0x015052    program     static C:\pavan\1+1RCUTx\1-1-RCU-T-NewArch_svn_web_changes\AgilisDevices\RCULLAccess.c
                  __pa_29   0x00bada    program     static C:\pavan\1+1RCUTx\1-1-RCU-T-NewArch_svn_web_changes\AgilisDevices\RCUServer.c
                  __pa_29   0x01700c    program     static C:\pavan\1+1RCUTx\1-1-RCU-T-NewArch_svn_web_changes\Agilis-SysLib\util.c
                  __pa_29   0x00303c    program     static C:\pavan\1+1RCUTx\1-1-RCU-T-NewArch_svn_web_changes\Microchip\TCPIP Stack\TCP.c
                  __pa_29   0x019f24    program     static C:\pavan\1+1RCUTx\1-1-RCU-T-NewArch_svn_web_changes\App\SNMP\AgilisSNMPLLBUCStatus.c
                  __pa_29   0x013b98    program     static C:\pavan\1+1RCUTx\1-1-RCU-T-NewArch_svn_web_changes\Microchip\TCPIP Stack\ETH97J60.c
                  __pa_29   0x015906    program     static C:\pavan\1+1RCUTx\1-1-RCU-T-NewArch_svn_web_changes\Microchip\TCPIP Stack\DHCP.c
                  __pa_29   0x00e64e    program     static C:\pavan\1+1RCUTx\1-1-RCU-T-NewArch_svn_web_changes\App\SNMP\AgilisSNMPApp.c
                  __pa_29   0x01042e    program     static C:\pavan\1+1RCUTx\1-1-RCU-T-NewArch_svn_web_changes\App\WebUI\AgilisHTTPPrint.c
                   __pa_3   0x00b8de    program     static C:\pavan\1+1RCUTx\1-1-RCU-T-NewArch_svn_web_changes\AgilisDevices\RCUServer.c
                   __pa_3   0x014ed6    program     static C:\pavan\1+1RCUTx\1-1-RCU-T-NewArch_svn_web_changes\AgilisDevices\RCULLAccess.c
                   __pa_3   0x01acce    program     static C:\pavan\1+1RCUTx\1-1-RCU-T-NewArch_svn_web_changes\AgilisDevices\RCUHLAccess.c
                   __pa_3   0x01882c    program     static C:\pavan\1+1RCUTx\1-1-RCU-T-NewArch_svn_web_changes\Bootstrap\Initialization.c
                   __pa_3   0x01a27c    program     static C:\pavan\1+1RCUTx\1-1-RCU-T-NewArch_svn_web_changes\App\Util\AgilisAppUtil.c
                   __pa_3   0x01b626    program     static C:\pavan\1+1RCUTx\1-1-RCU-T-NewArch_svn_web_changes\Microchip\TCPIP Stack\StackTsk.c
                   __pa_3   0x00e4aa    program     static C:\pavan\1+1RCUTx\1-1-RCU-T-NewArch_svn_web_changes\App\SNMP\AgilisSNMPApp.c
                   __pa_3   0x002e10    program     static C:\pavan\1+1RCUTx\1-1-RCU-T-NewArch_svn_web_changes\Microchip\TCPIP Stack\TCP.c
                   __pa_3   0x01c5a4    program     static C:\pavan\1+1RCUTx\1-1-RCU-T-NewArch_svn_web_changes\App\Task\AgilisTaskManager.c
                   __pa_3   0x006d9c    program     static C:\pavan\1+1RCUTx\1-1-RCU-T-NewArch_svn_web_changes\Microchip\TCPIP Stack\SNMP.c
                   __pa_3   0x0102c8    program     static C:\pavan\1+1RCUTx\1-1-RCU-T-NewArch_svn_web_changes\App\WebUI\AgilisHTTPPrint.c
                   __pa_3   0x01cb28    program     static C:\pavan\1+1RCUTx\1-1-RCU-T-NewArch_svn_web_changes\Microchip\TCPIP Stack\Tick.c
                   __pa_3   0x01cc10    program     static C:\pavan\1+1RCUTx\1-1-RCU-T-NewArch_svn_web_changes\Microchip\TCPIP Stack\UART.c
                   __pa_3   0x012cf6    program     static C:\pavan\1+1RCUTx\1-1-RCU-T-NewArch_svn_web_changes\Microchip\TCPIP Stack\UDP.c
                   __pa_3   0x01c0c0    program     static C:\pavan\1+1RCUTx\1-1-RCU-T-NewArch_svn_web_changes\Drivers\MCU-Internal\ISR.c
                   __pa_3   0x01929a    program     static C:\pavan\1+1RCUTx\1-1-RCU-T-NewArch_svn_web_changes\Microchip\TCPIP Stack\ARP.c
                   __pa_3   0x015774    program     static C:\pavan\1+1RCUTx\1-1-RCU-T-NewArch_svn_web_changes\Microchip\TCPIP Stack\DHCP.c
                   __pa_3   0x016030    program     static C:\pavan\1+1RCUTx\1-1-RCU-T-NewArch_svn_web_changes\App\WebUI\AgilisHTTPApp.c
                   __pa_3   0x017558    program     static C:\pavan\1+1RCUTx\1-1-RCU-T-NewArch_svn_web_changes\App\SerialIntf\AgilisProtocol\AgilisProtocol.c
                   __pa_3   0x01c858    program     static C:\pavan\1+1RCUTx\1-1-RCU-T-NewArch_svn_web_changes\App\SNMP\AgilisSNMPLLBucDevInfo.c
                   __pa_3   0x01109a    program     static C:\pavan\1+1RCUTx\1-1-RCU-T-NewArch_svn_web_changes\Microchip\TCPIP Stack\MPFS2.c
                   __pa_3   0x01b344    program     static C:\pavan\1+1RCUTx\1-1-RCU-T-NewArch_svn_web_changes\Microchip\TCPIP Stack\SPIEEPROM.c
                   __pa_3   0x00cf8a    program     static C:\pavan\1+1RCUTx\1-1-RCU-T-NewArch_svn_web_changes\AgilisDevices\BUCClient.c
                   __pa_3   0x01b818    program     static C:\pavan\1+1RCUTx\1-1-RCU-T-NewArch_svn_web_changes\Agilis-SysLib\task.c
                   __pa_3   0x009714    program     static C:\pavan\1+1RCUTx\1-1-RCU-T-NewArch_svn_web_changes\Microchip\TCPIP Stack\HTTP2.c
                   __pa_3   0x01ce4e    program     static C:\pavan\1+1RCUTx\1-1-RCU-T-NewArch_svn_web_changes\Agilis-SysLib\list.c
                   __pa_3   0x013a4a    program     static C:\pavan\1+1RCUTx\1-1-RCU-T-NewArch_svn_web_changes\Microchip\TCPIP Stack\ETH97J60.c
                   __pa_3   0x01836c    program     static C:\pavan\1+1RCUTx\1-1-RCU-T-NewArch_svn_web_changes\AgilisDevices\AgilisDeviceManager.c
                   __pa_3   0x019de4    program     static C:\pavan\1+1RCUTx\1-1-RCU-T-NewArch_svn_web_changes\App\SNMP\AgilisSNMPLLBUCStatus.c
                   __pa_3   0x01c27e    program     static C:\pavan\1+1RCUTx\1-1-RCU-T-NewArch_svn_web_changes\Drivers\AgilisDriverManager.c
                   __pa_3   0x00f5ac    program     static C:\pavan\1+1RCUTx\1-1-RCU-T-NewArch_svn_web_changes\Drivers\UARTISR.c
                   __pa_3   0x01bec2    program     static C:\pavan\1+1RCUTx\1-1-RCU-T-NewArch_svn_web_changes\Drivers\External-Peripherals\devadc.c
                   __pa_3   0x01ba52    program     static C:\pavan\1+1RCUTx\1-1-RCU-T-NewArch_svn_web_changes\App\SNMP\AgilisSNMPLLBUCOp.c
                   __pa_3   0x01a994    program     static C:\pavan\1+1RCUTx\1-1-RCU-T-NewArch_svn_web_changes\Drivers\AgilisUart.c
                   __pa_3   0x0120bc    program     static C:\pavan\1+1RCUTx\1-1-RCU-T-NewArch_svn_web_changes\Microchip\TCPIP Stack\Helpers.c
                   __pa_3   0x019aac    program     static C:\pavan\1+1RCUTx\1-1-RCU-T-NewArch_svn_web_changes\App\SNMP\AgilisSNMPSysInfo.c
                   __pa_3   0x01b034    program     static C:\pavan\1+1RCUTx\1-1-RCU-T-NewArch_svn_web_changes\Microchip\TCPIP Stack\IP.c
                   __pa_3   0x016722    program     static C:\pavan\1+1RCUTx\1-1-RCU-T-NewArch_svn_web_changes\App\WebUI\AgilisHTTPGetDevInfo.c
                   __pa_3   0x016e5c    program     static C:\pavan\1+1RCUTx\1-1-RCU-T-NewArch_svn_web_changes\Agilis-SysLib\util.c
                   __pa_3   0x01a5f0    program     static C:\pavan\1+1RCUTx\1-1-RCU-T-NewArch_svn_web_changes\App\SNMP\AgilisSNMPLLRCUCmds.c
                   __pa_3   0x018dfa    program     static C:\pavan\1+1RCUTx\1-1-RCU-T-NewArch_svn_web_changes\Drivers\External-Peripherals\AgilisDualUART.c
                  __pa_30   0x00d15c    program     static C:\pavan\1+1RCUTx\1-1-RCU-T-NewArch_svn_web_changes\AgilisDevices\BUCClient.c
                  __pa_30   0x010440    program     static C:\pavan\1+1RCUTx\1-1-RCU-T-NewArch_svn_web_changes\App\WebUI\AgilisHTTPPrint.c
                  __pa_30   0x009882    program     static C:\pavan\1+1RCUTx\1-1-RCU-T-NewArch_svn_web_changes\Microchip\TCPIP Stack\HTTP2.c
                  __pa_30   0x0168f2    program     static C:\pavan\1+1RCUTx\1-1-RCU-T-NewArch_svn_web_changes\App\WebUI\AgilisHTTPGetDevInfo.c
                  __pa_30   0x017014    program     static C:\pavan\1+1RCUTx\1-1-RCU-T-NewArch_svn_web_changes\Agilis-SysLib\util.c
                  __pa_30   0x006efa    program     static C:\pavan\1+1RCUTx\1-1-RCU-T-NewArch_svn_web_changes\Microchip\TCPIP Stack\SNMP.c
                  __pa_30   0x00e65e    program     static C:\pavan\1+1RCUTx\1-1-RCU-T-NewArch_svn_web_changes\App\SNMP\AgilisSNMPApp.c
                  __pa_30   0x013ba2    program     static C:\pavan\1+1RCUTx\1-1-RCU-T-NewArch_svn_web_changes\Microchip\TCPIP Stack\ETH97J60.c
                  __pa_30   0x0122a4    program     static C:\pavan\1+1RCUTx\1-1-RCU-T-NewArch_svn_web_changes\Microchip\TCPIP Stack\Helpers.c
                  __pa_30   0x0112e0    program     static C:\pavan\1+1RCUTx\1-1-RCU-T-NewArch_svn_web_changes\Microchip\TCPIP Stack\MPFS2.c
                  __pa_30   0x015060    program     static C:\pavan\1+1RCUTx\1-1-RCU-T-NewArch_svn_web_changes\AgilisDevices\RCULLAccess.c
                  __pa_30   0x012e98    program     static C:\pavan\1+1RCUTx\1-1-RCU-T-NewArch_svn_web_changes\Microchip\TCPIP Stack\UDP.c
                  __pa_30   0x00304a    program     static C:\pavan\1+1RCUTx\1-1-RCU-T-NewArch_svn_web_changes\Microchip\TCPIP Stack\TCP.c
                  __pa_30   0x0176d2    program     static C:\pavan\1+1RCUTx\1-1-RCU-T-NewArch_svn_web_changes\App\SerialIntf\AgilisProtocol\AgilisProtocol.c
                  __pa_30   0x00bae4    program     static C:\pavan\1+1RCUTx\1-1-RCU-T-NewArch_svn_web_changes\AgilisDevices\RCUServer.c
                  __pa_30   0x015914    program     static C:\pavan\1+1RCUTx\1-1-RCU-T-NewArch_svn_web_changes\Microchip\TCPIP Stack\DHCP.c
                  __pa_31   0x00d166    program     static C:\pavan\1+1RCUTx\1-1-RCU-T-NewArch_svn_web_changes\AgilisDevices\BUCClient.c
                  __pa_31   0x003056    program     static C:\pavan\1+1RCUTx\1-1-RCU-T-NewArch_svn_web_changes\Microchip\TCPIP Stack\TCP.c
                  __pa_31   0x0168fa    program     static C:\pavan\1+1RCUTx\1-1-RCU-T-NewArch_svn_web_changes\App\WebUI\AgilisHTTPGetDevInfo.c
                  __pa_31   0x01044c    program     static C:\pavan\1+1RCUTx\1-1-RCU-T-NewArch_svn_web_changes\App\WebUI\AgilisHTTPPrint.c
                  __pa_31   0x0122ac    program     static C:\pavan\1+1RCUTx\1-1-RCU-T-NewArch_svn_web_changes\Microchip\TCPIP Stack\Helpers.c
                  __pa_31   0x013baa    program     static C:\pavan\1+1RCUTx\1-1-RCU-T-NewArch_svn_web_changes\Microchip\TCPIP Stack\ETH97J60.c
                  __pa_31   0x017020    program     static C:\pavan\1+1RCUTx\1-1-RCU-T-NewArch_svn_web_changes\Agilis-SysLib\util.c
                  __pa_31   0x00e66e    program     static C:\pavan\1+1RCUTx\1-1-RCU-T-NewArch_svn_web_changes\App\SNMP\AgilisSNMPApp.c
                  __pa_31   0x015922    program     static C:\pavan\1+1RCUTx\1-1-RCU-T-NewArch_svn_web_changes\Microchip\TCPIP Stack\DHCP.c
                  __pa_31   0x006f06    program     static C:\pavan\1+1RCUTx\1-1-RCU-T-NewArch_svn_web_changes\Microchip\TCPIP Stack\SNMP.c
                  __pa_31   0x00baf2    program     static C:\pavan\1+1RCUTx\1-1-RCU-T-NewArch_svn_web_changes\AgilisDevices\RCUServer.c
                  __pa_31   0x0176d8    program     static C:\pavan\1+1RCUTx\1-1-RCU-T-NewArch_svn_web_changes\App\SerialIntf\AgilisProtocol\AgilisProtocol.c
                  __pa_31   0x0112f8    program     static C:\pavan\1+1RCUTx\1-1-RCU-T-NewArch_svn_web_changes\Microchip\TCPIP Stack\MPFS2.c
                  __pa_31   0x015068    program     static C:\pavan\1+1RCUTx\1-1-RCU-T-NewArch_svn_web_changes\AgilisDevices\RCULLAccess.c
                  __pa_31   0x012ea2    program     static C:\pavan\1+1RCUTx\1-1-RCU-T-NewArch_svn_web_changes\Microchip\TCPIP Stack\UDP.c
                  __pa_31   0x00988c    program     static C:\pavan\1+1RCUTx\1-1-RCU-T-NewArch_svn_web_changes\Microchip\TCPIP Stack\HTTP2.c
                  __pa_32   0x00bb00    program     static C:\pavan\1+1RCUTx\1-1-RCU-T-NewArch_svn_web_changes\AgilisDevices\RCUServer.c
                  __pa_32   0x0176e4    program     static C:\pavan\1+1RCUTx\1-1-RCU-T-NewArch_svn_web_changes\App\SerialIntf\AgilisProtocol\AgilisProtocol.c
                  __pa_32   0x01592a    program     static C:\pavan\1+1RCUTx\1-1-RCU-T-NewArch_svn_web_changes\Microchip\TCPIP Stack\DHCP.c
                  __pa_32   0x015078    program     static C:\pavan\1+1RCUTx\1-1-RCU-T-NewArch_svn_web_changes\AgilisDevices\RCULLAccess.c
                  __pa_32   0x00305e    program     static C:\pavan\1+1RCUTx\1-1-RCU-T-NewArch_svn_web_changes\Microchip\TCPIP Stack\TCP.c
                  __pa_32   0x012eb0    program     static C:\pavan\1+1RCUTx\1-1-RCU-T-NewArch_svn_web_changes\Microchip\TCPIP Stack\UDP.c
                  __pa_32   0x010456    program     static C:\pavan\1+1RCUTx\1-1-RCU-T-NewArch_svn_web_changes\App\WebUI\AgilisHTTPPrint.c
                  __pa_32   0x00989c    program     static C:\pavan\1+1RCUTx\1-1-RCU-T-NewArch_svn_web_changes\Microchip\TCPIP Stack\HTTP2.c
                  __pa_32   0x006f1c    program     static C:\pavan\1+1RCUTx\1-1-RCU-T-NewArch_svn_web_changes\Microchip\TCPIP Stack\SNMP.c
                  __pa_32   0x00e67c    program     static C:\pavan\1+1RCUTx\1-1-RCU-T-NewArch_svn_web_changes\App\SNMP\AgilisSNMPApp.c
                  __pa_32   0x01130a    program     static C:\pavan\1+1RCUTx\1-1-RCU-T-NewArch_svn_web_changes\Microchip\TCPIP Stack\MPFS2.c
                  __pa_32   0x01702a    program     static C:\pavan\1+1RCUTx\1-1-RCU-T-NewArch_svn_web_changes\Agilis-SysLib\util.c
                  __pa_32   0x00d170    program     static C:\pavan\1+1RCUTx\1-1-RCU-T-NewArch_svn_web_changes\AgilisDevices\BUCClient.c
                  __pa_33   0x017034    program     static C:\pavan\1+1RCUTx\1-1-RCU-T-NewArch_svn_web_changes\Agilis-SysLib\util.c
                  __pa_33   0x01508a    program     static C:\pavan\1+1RCUTx\1-1-RCU-T-NewArch_svn_web_changes\AgilisDevices\RCULLAccess.c
                  __pa_33   0x010460    program     static C:\pavan\1+1RCUTx\1-1-RCU-T-NewArch_svn_web_changes\App\WebUI\AgilisHTTPPrint.c
                  __pa_33   0x00e68a    program     static C:\pavan\1+1RCUTx\1-1-RCU-T-NewArch_svn_web_changes\App\SNMP\AgilisSNMPApp.c
                  __pa_33   0x012ebe    program     static C:\pavan\1+1RCUTx\1-1-RCU-T-NewArch_svn_web_changes\Microchip\TCPIP Stack\UDP.c
                  __pa_33   0x015932    program     static C:\pavan\1+1RCUTx\1-1-RCU-T-NewArch_svn_web_changes\Microchip\TCPIP Stack\DHCP.c
                  __pa_33   0x003088    program     static C:\pavan\1+1RCUTx\1-1-RCU-T-NewArch_svn_web_changes\Microchip\TCPIP Stack\TCP.c
                  __pa_33   0x00d17a    program     static C:\pavan\1+1RCUTx\1-1-RCU-T-NewArch_svn_web_changes\AgilisDevices\BUCClient.c
                  __pa_33   0x011320    program     static C:\pavan\1+1RCUTx\1-1-RCU-T-NewArch_svn_web_changes\Microchip\TCPIP Stack\MPFS2.c
                  __pa_33   0x0098aa    program     static C:\pavan\1+1RCUTx\1-1-RCU-T-NewArch_svn_web_changes\Microchip\TCPIP Stack\HTTP2.c
                  __pa_33   0x0176ee    program     static C:\pavan\1+1RCUTx\1-1-RCU-T-NewArch_svn_web_changes\App\SerialIntf\AgilisProtocol\AgilisProtocol.c
                  __pa_33   0x006f2a    program     static C:\pavan\1+1RCUTx\1-1-RCU-T-NewArch_svn_web_changes\Microchip\TCPIP Stack\SNMP.c
                  __pa_33   0x00bb08    program     static C:\pavan\1+1RCUTx\1-1-RCU-T-NewArch_svn_web_changes\AgilisDevices\RCUServer.c
                  __pa_34   0x012ecc    program     static C:\pavan\1+1RCUTx\1-1-RCU-T-NewArch_svn_web_changes\Microchip\TCPIP Stack\UDP.c
                  __pa_34   0x00309c    program     static C:\pavan\1+1RCUTx\1-1-RCU-T-NewArch_svn_web_changes\Microchip\TCPIP Stack\TCP.c
                  __pa_34   0x00bb16    program     static C:\pavan\1+1RCUTx\1-1-RCU-T-NewArch_svn_web_changes\AgilisDevices\RCUServer.c
                  __pa_34   0x0176f8    program     static C:\pavan\1+1RCUTx\1-1-RCU-T-NewArch_svn_web_changes\App\SerialIntf\AgilisProtocol\AgilisProtocol.c
                  __pa_34   0x01132e    program     static C:\pavan\1+1RCUTx\1-1-RCU-T-NewArch_svn_web_changes\Microchip\TCPIP Stack\MPFS2.c
                  __pa_34   0x015938    program     static C:\pavan\1+1RCUTx\1-1-RCU-T-NewArch_svn_web_changes\Microchip\TCPIP Stack\DHCP.c
                  __pa_34   0x00e698    program     static C:\pavan\1+1RCUTx\1-1-RCU-T-NewArch_svn_web_changes\App\SNMP\AgilisSNMPApp.c
                  __pa_34   0x0098be    program     static C:\pavan\1+1RCUTx\1-1-RCU-T-NewArch_svn_web_changes\Microchip\TCPIP Stack\HTTP2.c
                  __pa_34   0x01046a    program     static C:\pavan\1+1RCUTx\1-1-RCU-T-NewArch_svn_web_changes\App\WebUI\AgilisHTTPPrint.c
                  __pa_34   0x017042    program     static C:\pavan\1+1RCUTx\1-1-RCU-T-NewArch_svn_web_changes\Agilis-SysLib\util.c
                  __pa_34   0x015094    program     static C:\pavan\1+1RCUTx\1-1-RCU-T-NewArch_svn_web_changes\AgilisDevices\RCULLAccess.c
                  __pa_34   0x00d182    program     static C:\pavan\1+1RCUTx\1-1-RCU-T-NewArch_svn_web_changes\AgilisDevices\BUCClient.c
                  __pa_34   0x006f38    program     static C:\pavan\1+1RCUTx\1-1-RCU-T-NewArch_svn_web_changes\Microchip\TCPIP Stack\SNMP.c
                  __pa_35   0x01133c    program     static C:\pavan\1+1RCUTx\1-1-RCU-T-NewArch_svn_web_changes\Microchip\TCPIP Stack\MPFS2.c
                  __pa_35   0x01509e    program     static C:\pavan\1+1RCUTx\1-1-RCU-T-NewArch_svn_web_changes\AgilisDevices\RCULLAccess.c
                  __pa_35   0x0030b8    program     static C:\pavan\1+1RCUTx\1-1-RCU-T-NewArch_svn_web_changes\Microchip\TCPIP Stack\TCP.c
                  __pa_35   0x012eda    program     static C:\pavan\1+1RCUTx\1-1-RCU-T-NewArch_svn_web_changes\Microchip\TCPIP Stack\UDP.c
                  __pa_35   0x0176fe    program     static C:\pavan\1+1RCUTx\1-1-RCU-T-NewArch_svn_web_changes\App\SerialIntf\AgilisProtocol\AgilisProtocol.c
                  __pa_35   0x00e6a6    program     static C:\pavan\1+1RCUTx\1-1-RCU-T-NewArch_svn_web_changes\App\SNMP\AgilisSNMPApp.c
                  __pa_35   0x00bb24    program     static C:\pavan\1+1RCUTx\1-1-RCU-T-NewArch_svn_web_changes\AgilisDevices\RCUServer.c
                  __pa_35   0x0098ce    program     static C:\pavan\1+1RCUTx\1-1-RCU-T-NewArch_svn_web_changes\Microchip\TCPIP Stack\HTTP2.c
                  __pa_35   0x010474    program     static C:\pavan\1+1RCUTx\1-1-RCU-T-NewArch_svn_web_changes\App\WebUI\AgilisHTTPPrint.c
                  __pa_35   0x006f46    program     static C:\pavan\1+1RCUTx\1-1-RCU-T-NewArch_svn_web_changes\Microchip\TCPIP Stack\SNMP.c
                  __pa_35   0x00d194    program     static C:\pavan\1+1RCUTx\1-1-RCU-T-NewArch_svn_web_changes\AgilisDevices\BUCClient.c
                  __pa_36   0x00e6ae    program     static C:\pavan\1+1RCUTx\1-1-RCU-T-NewArch_svn_web_changes\App\SNMP\AgilisSNMPApp.c
                  __pa_36   0x0030d2    program     static C:\pavan\1+1RCUTx\1-1-RCU-T-NewArch_svn_web_changes\Microchip\TCPIP Stack\TCP.c
                  __pa_36   0x00d19e    program     static C:\pavan\1+1RCUTx\1-1-RCU-T-NewArch_svn_web_changes\AgilisDevices\BUCClient.c
                  __pa_36   0x006f4c    program     static C:\pavan\1+1RCUTx\1-1-RCU-T-NewArch_svn_web_changes\Microchip\TCPIP Stack\SNMP.c
                  __pa_36   0x0098e2    program     static C:\pavan\1+1RCUTx\1-1-RCU-T-NewArch_svn_web_changes\Microchip\TCPIP Stack\HTTP2.c
                  __pa_36   0x01770c    program     static C:\pavan\1+1RCUTx\1-1-RCU-T-NewArch_svn_web_changes\App\SerialIntf\AgilisProtocol\AgilisProtocol.c
                  __pa_36   0x01134a    program     static C:\pavan\1+1RCUTx\1-1-RCU-T-NewArch_svn_web_changes\Microchip\TCPIP Stack\MPFS2.c
                  __pa_36   0x00bb2a    program     static C:\pavan\1+1RCUTx\1-1-RCU-T-NewArch_svn_web_changes\AgilisDevices\RCUServer.c
                  __pa_36   0x01047c    program     static C:\pavan\1+1RCUTx\1-1-RCU-T-NewArch_svn_web_changes\App\WebUI\AgilisHTTPPrint.c
                  __pa_36   0x0150a6    program     static C:\pavan\1+1RCUTx\1-1-RCU-T-NewArch_svn_web_changes\AgilisDevices\RCULLAccess.c
                  __pa_36   0x012ee8    program     static C:\pavan\1+1RCUTx\1-1-RCU-T-NewArch_svn_web_changes\Microchip\TCPIP Stack\UDP.c
                  __pa_37   0x006f58    program     static C:\pavan\1+1RCUTx\1-1-RCU-T-NewArch_svn_web_changes\Microchip\TCPIP Stack\SNMP.c
                  __pa_37   0x0150ae    program     static C:\pavan\1+1RCUTx\1-1-RCU-T-NewArch_svn_web_changes\AgilisDevices\RCULLAccess.c
                  __pa_37   0x011354    program     static C:\pavan\1+1RCUTx\1-1-RCU-T-NewArch_svn_web_changes\Microchip\TCPIP Stack\MPFS2.c
                  __pa_37   0x01771a    program     static C:\pavan\1+1RCUTx\1-1-RCU-T-NewArch_svn_web_changes\App\SerialIntf\AgilisProtocol\AgilisProtocol.c
                  __pa_37   0x0030da    program     static C:\pavan\1+1RCUTx\1-1-RCU-T-NewArch_svn_web_changes\Microchip\TCPIP Stack\TCP.c
                  __pa_37   0x00d1a8    program     static C:\pavan\1+1RCUTx\1-1-RCU-T-NewArch_svn_web_changes\AgilisDevices\BUCClient.c
                  __pa_37   0x00e6bc    program     static C:\pavan\1+1RCUTx\1-1-RCU-T-NewArch_svn_web_changes\App\SNMP\AgilisSNMPApp.c
                  __pa_37   0x012ef6    program     static C:\pavan\1+1RCUTx\1-1-RCU-T-NewArch_svn_web_changes\Microchip\TCPIP Stack\UDP.c
                  __pa_37   0x00bb3c    program     static C:\pavan\1+1RCUTx\1-1-RCU-T-NewArch_svn_web_changes\AgilisDevices\RCUServer.c
                  __pa_37   0x0098f2    program     static C:\pavan\1+1RCUTx\1-1-RCU-T-NewArch_svn_web_changes\Microchip\TCPIP Stack\HTTP2.c
                  __pa_37   0x010484    program     static C:\pavan\1+1RCUTx\1-1-RCU-T-NewArch_svn_web_changes\App\WebUI\AgilisHTTPPrint.c
                  __pa_38   0x012efe    program     static C:\pavan\1+1RCUTx\1-1-RCU-T-NewArch_svn_web_changes\Microchip\TCPIP Stack\UDP.c
                  __pa_38   0x0030ea    program     static C:\pavan\1+1RCUTx\1-1-RCU-T-NewArch_svn_web_changes\Microchip\TCPIP Stack\TCP.c
                  __pa_38   0x00d1b2    program     static C:\pavan\1+1RCUTx\1-1-RCU-T-NewArch_svn_web_changes\AgilisDevices\BUCClient.c
                  __pa_38   0x0150ba    program     static C:\pavan\1+1RCUTx\1-1-RCU-T-NewArch_svn_web_changes\AgilisDevices\RCULLAccess.c
                  __pa_38   0x010492    program     static C:\pavan\1+1RCUTx\1-1-RCU-T-NewArch_svn_web_changes\App\WebUI\AgilisHTTPPrint.c
                  __pa_38   0x00e6ca    program     static C:\pavan\1+1RCUTx\1-1-RCU-T-NewArch_svn_web_changes\App\SNMP\AgilisSNMPApp.c
                  __pa_38   0x00bb4c    program     static C:\pavan\1+1RCUTx\1-1-RCU-T-NewArch_svn_web_changes\AgilisDevices\RCUServer.c
                  __pa_38   0x009900    program     static C:\pavan\1+1RCUTx\1-1-RCU-T-NewArch_svn_web_changes\Microchip\TCPIP Stack\HTTP2.c
                  __pa_38   0x017720    program     static C:\pavan\1+1RCUTx\1-1-RCU-T-NewArch_svn_web_changes\App\SerialIntf\AgilisProtocol\AgilisProtocol.c
                  __pa_38   0x006f62    program     static C:\pavan\1+1RCUTx\1-1-RCU-T-NewArch_svn_web_changes\Microchip\TCPIP Stack\SNMP.c
                  __pa_38   0x011366    program     static C:\pavan\1+1RCUTx\1-1-RCU-T-NewArch_svn_web_changes\Microchip\TCPIP Stack\MPFS2.c
                  __pa_39   0x0104a0    program     static C:\pavan\1+1RCUTx\1-1-RCU-T-NewArch_svn_web_changes\App\WebUI\AgilisHTTPPrint.c
                  __pa_39   0x0150c8    program     static C:\pavan\1+1RCUTx\1-1-RCU-T-NewArch_svn_web_changes\AgilisDevices\RCULLAccess.c
                  __pa_39   0x011374    program     static C:\pavan\1+1RCUTx\1-1-RCU-T-NewArch_svn_web_changes\Microchip\TCPIP Stack\MPFS2.c
                  __pa_39   0x0030fa    program     static C:\pavan\1+1RCUTx\1-1-RCU-T-NewArch_svn_web_changes\Microchip\TCPIP Stack\TCP.c
                  __pa_39   0x017728    program     static C:\pavan\1+1RCUTx\1-1-RCU-T-NewArch_svn_web_changes\App\SerialIntf\AgilisProtocol\AgilisProtocol.c
                  __pa_39   0x009908    program     static C:\pavan\1+1RCUTx\1-1-RCU-T-NewArch_svn_web_changes\Microchip\TCPIP Stack\HTTP2.c
                  __pa_39   0x00d1c0    program     static C:\pavan\1+1RCUTx\1-1-RCU-T-NewArch_svn_web_changes\AgilisDevices\BUCClient.c
                  __pa_39   0x006f68    program     static C:\pavan\1+1RCUTx\1-1-RCU-T-NewArch_svn_web_changes\Microchip\TCPIP Stack\SNMP.c
                  __pa_39   0x012f08    program     static C:\pavan\1+1RCUTx\1-1-RCU-T-NewArch_svn_web_changes\Microchip\TCPIP Stack\UDP.c
                  __pa_39   0x00bb52    program     static C:\pavan\1+1RCUTx\1-1-RCU-T-NewArch_svn_web_changes\AgilisDevices\RCUServer.c
                  __pa_39   0x00e6d2    program     static C:\pavan\1+1RCUTx\1-1-RCU-T-NewArch_svn_web_changes\App\SNMP\AgilisSNMPApp.c
                   __pa_4   0x01837a    program     static C:\pavan\1+1RCUTx\1-1-RCU-T-NewArch_svn_web_changes\AgilisDevices\AgilisDeviceManager.c
                   __pa_4   0x018e12    program     static C:\pavan\1+1RCUTx\1-1-RCU-T-NewArch_svn_web_changes\Drivers\External-Peripherals\AgilisDualUART.c
                   __pa_4   0x01c0d8    program     static C:\pavan\1+1RCUTx\1-1-RCU-T-NewArch_svn_web_changes\Drivers\MCU-Internal\ISR.c
                   __pa_4   0x012d04    program     static C:\pavan\1+1RCUTx\1-1-RCU-T-NewArch_svn_web_changes\Microchip\TCPIP Stack\UDP.c
                   __pa_4   0x006da8    program     static C:\pavan\1+1RCUTx\1-1-RCU-T-NewArch_svn_web_changes\Microchip\TCPIP Stack\SNMP.c
                   __pa_4   0x019de8    program     static C:\pavan\1+1RCUTx\1-1-RCU-T-NewArch_svn_web_changes\App\SNMP\AgilisSNMPLLBUCStatus.c
                   __pa_4   0x00f5ba    program     static C:\pavan\1+1RCUTx\1-1-RCU-T-NewArch_svn_web_changes\Drivers\UARTISR.c
                   __pa_4   0x002e1c    program     static C:\pavan\1+1RCUTx\1-1-RCU-T-NewArch_svn_web_changes\Microchip\TCPIP Stack\TCP.c
                   __pa_4   0x01ba5e    program     static C:\pavan\1+1RCUTx\1-1-RCU-T-NewArch_svn_web_changes\App\SNMP\AgilisSNMPLLBUCOp.c
                   __pa_4   0x01bedc    program     static C:\pavan\1+1RCUTx\1-1-RCU-T-NewArch_svn_web_changes\Drivers\External-Peripherals\devadc.c
                   __pa_4   0x014ee4    program     static C:\pavan\1+1RCUTx\1-1-RCU-T-NewArch_svn_web_changes\AgilisDevices\RCULLAccess.c
                   __pa_4   0x009730    program     static C:\pavan\1+1RCUTx\1-1-RCU-T-NewArch_svn_web_changes\Microchip\TCPIP Stack\HTTP2.c
                   __pa_4   0x0102d4    program     static C:\pavan\1+1RCUTx\1-1-RCU-T-NewArch_svn_web_changes\App\WebUI\AgilisHTTPPrint.c
                   __pa_4   0x00b8f6    program     static C:\pavan\1+1RCUTx\1-1-RCU-T-NewArch_svn_web_changes\AgilisDevices\RCUServer.c
                   __pa_4   0x01a9a6    program     static C:\pavan\1+1RCUTx\1-1-RCU-T-NewArch_svn_web_changes\Drivers\AgilisUart.c
                   __pa_4   0x00e4ba    program     static C:\pavan\1+1RCUTx\1-1-RCU-T-NewArch_svn_web_changes\App\SNMP\AgilisSNMPApp.c
                   __pa_4   0x0110a6    program     static C:\pavan\1+1RCUTx\1-1-RCU-T-NewArch_svn_web_changes\Microchip\TCPIP Stack\MPFS2.c
                   __pa_4   0x01acfc    program     static C:\pavan\1+1RCUTx\1-1-RCU-T-NewArch_svn_web_changes\AgilisDevices\RCUHLAccess.c
                   __pa_4   0x013a62    program     static C:\pavan\1+1RCUTx\1-1-RCU-T-NewArch_svn_web_changes\Microchip\TCPIP Stack\ETH97J60.c
                   __pa_4   0x01b822    program     static C:\pavan\1+1RCUTx\1-1-RCU-T-NewArch_svn_web_changes\Agilis-SysLib\task.c
                   __pa_4   0x01a28e    program     static C:\pavan\1+1RCUTx\1-1-RCU-T-NewArch_svn_web_changes\App\Util\AgilisAppUtil.c
                   __pa_4   0x01a61c    program     static C:\pavan\1+1RCUTx\1-1-RCU-T-NewArch_svn_web_changes\App\SNMP\AgilisSNMPLLRCUCmds.c
                   __pa_4   0x0120de    program     static C:\pavan\1+1RCUTx\1-1-RCU-T-NewArch_svn_web_changes\Microchip\TCPIP Stack\Helpers.c
                   __pa_4   0x01b354    program     static C:\pavan\1+1RCUTx\1-1-RCU-T-NewArch_svn_web_changes\Microchip\TCPIP Stack\SPIEEPROM.c
                   __pa_4   0x019ab4    program     static C:\pavan\1+1RCUTx\1-1-RCU-T-NewArch_svn_web_changes\App\SNMP\AgilisSNMPSysInfo.c
                   __pa_4   0x0192ae    program     static C:\pavan\1+1RCUTx\1-1-RCU-T-NewArch_svn_web_changes\Microchip\TCPIP Stack\ARP.c
                   __pa_4   0x01603e    program     static C:\pavan\1+1RCUTx\1-1-RCU-T-NewArch_svn_web_changes\App\WebUI\AgilisHTTPApp.c
                   __pa_4   0x017564    program     static C:\pavan\1+1RCUTx\1-1-RCU-T-NewArch_svn_web_changes\App\SerialIntf\AgilisProtocol\AgilisProtocol.c
                   __pa_4   0x01c86a    program     static C:\pavan\1+1RCUTx\1-1-RCU-T-NewArch_svn_web_changes\App\SNMP\AgilisSNMPLLBucDevInfo.c
                   __pa_4   0x00cf98    program     static C:\pavan\1+1RCUTx\1-1-RCU-T-NewArch_svn_web_changes\AgilisDevices\BUCClient.c
                   __pa_4   0x01578c    program     static C:\pavan\1+1RCUTx\1-1-RCU-T-NewArch_svn_web_changes\Microchip\TCPIP Stack\DHCP.c
                   __pa_4   0x01883c    program     static C:\pavan\1+1RCUTx\1-1-RCU-T-NewArch_svn_web_changes\Bootstrap\Initialization.c
                   __pa_4   0x01c5b0    program     static C:\pavan\1+1RCUTx\1-1-RCU-T-NewArch_svn_web_changes\App\Task\AgilisTaskManager.c
                   __pa_4   0x016e6c    program     static C:\pavan\1+1RCUTx\1-1-RCU-T-NewArch_svn_web_changes\Agilis-SysLib\util.c
                   __pa_4   0x016780    program     static C:\pavan\1+1RCUTx\1-1-RCU-T-NewArch_svn_web_changes\App\WebUI\AgilisHTTPGetDevInfo.c
                   __pa_4   0x01b03a    program     static C:\pavan\1+1RCUTx\1-1-RCU-T-NewArch_svn_web_changes\Microchip\TCPIP Stack\IP.c
                  __pa_40   0x003108    program     static C:\pavan\1+1RCUTx\1-1-RCU-T-NewArch_svn_web_changes\Microchip\TCPIP Stack\TCP.c
                  __pa_40   0x011382    program     static C:\pavan\1+1RCUTx\1-1-RCU-T-NewArch_svn_web_changes\Microchip\TCPIP Stack\MPFS2.c
                  __pa_40   0x00d1ce    program     static C:\pavan\1+1RCUTx\1-1-RCU-T-NewArch_svn_web_changes\AgilisDevices\BUCClient.c
                  __pa_40   0x00e6e0    program     static C:\pavan\1+1RCUTx\1-1-RCU-T-NewArch_svn_web_changes\App\SNMP\AgilisSNMPApp.c
                  __pa_40   0x0150d4    program     static C:\pavan\1+1RCUTx\1-1-RCU-T-NewArch_svn_web_changes\AgilisDevices\RCULLAccess.c
                  __pa_40   0x012f10    program     static C:\pavan\1+1RCUTx\1-1-RCU-T-NewArch_svn_web_changes\Microchip\TCPIP Stack\UDP.c
                  __pa_40   0x009916    program     static C:\pavan\1+1RCUTx\1-1-RCU-T-NewArch_svn_web_changes\Microchip\TCPIP Stack\HTTP2.c
                  __pa_40   0x00bb5a    program     static C:\pavan\1+1RCUTx\1-1-RCU-T-NewArch_svn_web_changes\AgilisDevices\RCUServer.c
                  __pa_40   0x017730    program     static C:\pavan\1+1RCUTx\1-1-RCU-T-NewArch_svn_web_changes\App\SerialIntf\AgilisProtocol\AgilisProtocol.c
                  __pa_40   0x0104ac    program     static C:\pavan\1+1RCUTx\1-1-RCU-T-NewArch_svn_web_changes\App\WebUI\AgilisHTTPPrint.c
                  __pa_40   0x006f78    program     static C:\pavan\1+1RCUTx\1-1-RCU-T-NewArch_svn_web_changes\Microchip\TCPIP Stack\SNMP.c
                  __pa_41   0x00e6f8    program     static C:\pavan\1+1RCUTx\1-1-RCU-T-NewArch_svn_web_changes\App\SNMP\AgilisSNMPApp.c
                  __pa_41   0x00bb62    program     static C:\pavan\1+1RCUTx\1-1-RCU-T-NewArch_svn_web_changes\AgilisDevices\RCUServer.c
                  __pa_41   0x006f86    program     static C:\pavan\1+1RCUTx\1-1-RCU-T-NewArch_svn_web_changes\Microchip\TCPIP Stack\SNMP.c
                  __pa_41   0x003124    program     static C:\pavan\1+1RCUTx\1-1-RCU-T-NewArch_svn_web_changes\Microchip\TCPIP Stack\TCP.c
                  __pa_41   0x00d1dc    program     static C:\pavan\1+1RCUTx\1-1-RCU-T-NewArch_svn_web_changes\AgilisDevices\BUCClient.c
                  __pa_41   0x012f26    program     static C:\pavan\1+1RCUTx\1-1-RCU-T-NewArch_svn_web_changes\Microchip\TCPIP Stack\UDP.c
                  __pa_41   0x0150dc    program     static C:\pavan\1+1RCUTx\1-1-RCU-T-NewArch_svn_web_changes\AgilisDevices\RCULLAccess.c
                  __pa_41   0x009922    program     static C:\pavan\1+1RCUTx\1-1-RCU-T-NewArch_svn_web_changes\Microchip\TCPIP Stack\HTTP2.c
                  __pa_41   0x01138c    program     static C:\pavan\1+1RCUTx\1-1-RCU-T-NewArch_svn_web_changes\Microchip\TCPIP Stack\MPFS2.c
                  __pa_41   0x0104b2    program     static C:\pavan\1+1RCUTx\1-1-RCU-T-NewArch_svn_web_changes\App\WebUI\AgilisHTTPPrint.c
                  __pa_41   0x01773a    program     static C:\pavan\1+1RCUTx\1-1-RCU-T-NewArch_svn_web_changes\App\SerialIntf\AgilisProtocol\AgilisProtocol.c
                  __pa_42   0x006f94    program     static C:\pavan\1+1RCUTx\1-1-RCU-T-NewArch_svn_web_changes\Microchip\TCPIP Stack\SNMP.c
                  __pa_42   0x011396    program     static C:\pavan\1+1RCUTx\1-1-RCU-T-NewArch_svn_web_changes\Microchip\TCPIP Stack\MPFS2.c
                  __pa_42   0x017742    program     static C:\pavan\1+1RCUTx\1-1-RCU-T-NewArch_svn_web_changes\App\SerialIntf\AgilisProtocol\AgilisProtocol.c
                  __pa_42   0x00312c    program     static C:\pavan\1+1RCUTx\1-1-RCU-T-NewArch_svn_web_changes\Microchip\TCPIP Stack\TCP.c
                  __pa_42   0x00bb6e    program     static C:\pavan\1+1RCUTx\1-1-RCU-T-NewArch_svn_web_changes\AgilisDevices\RCUServer.c
                  __pa_42   0x00d1e2    program     static C:\pavan\1+1RCUTx\1-1-RCU-T-NewArch_svn_web_changes\AgilisDevices\BUCClient.c
                  __pa_42   0x00e710    program     static C:\pavan\1+1RCUTx\1-1-RCU-T-NewArch_svn_web_changes\App\SNMP\AgilisSNMPApp.c
                  __pa_42   0x012f34    program     static C:\pavan\1+1RCUTx\1-1-RCU-T-NewArch_svn_web_changes\Microchip\TCPIP Stack\UDP.c
                  __pa_42   0x0150e6    program     static C:\pavan\1+1RCUTx\1-1-RCU-T-NewArch_svn_web_changes\AgilisDevices\RCULLAccess.c
                  __pa_42   0x00992e    program     static C:\pavan\1+1RCUTx\1-1-RCU-T-NewArch_svn_web_changes\Microchip\TCPIP Stack\HTTP2.c
                  __pa_42   0x0104c0    program     static C:\pavan\1+1RCUTx\1-1-RCU-T-NewArch_svn_web_changes\App\WebUI\AgilisHTTPPrint.c
                  __pa_43   0x0113a8    program     static C:\pavan\1+1RCUTx\1-1-RCU-T-NewArch_svn_web_changes\Microchip\TCPIP Stack\MPFS2.c
                  __pa_43   0x00bb7c    program     static C:\pavan\1+1RCUTx\1-1-RCU-T-NewArch_svn_web_changes\AgilisDevices\RCUServer.c
                  __pa_43   0x01774c    program     static C:\pavan\1+1RCUTx\1-1-RCU-T-NewArch_svn_web_changes\App\SerialIntf\AgilisProtocol\AgilisProtocol.c
                  __pa_43   0x00e726    program     static C:\pavan\1+1RCUTx\1-1-RCU-T-NewArch_svn_web_changes\App\SNMP\AgilisSNMPApp.c
                  __pa_43   0x009938    program     static C:\pavan\1+1RCUTx\1-1-RCU-T-NewArch_svn_web_changes\Microchip\TCPIP Stack\HTTP2.c
                  __pa_43   0x00d1ec    program     static C:\pavan\1+1RCUTx\1-1-RCU-T-NewArch_svn_web_changes\AgilisDevices\BUCClient.c
                  __pa_43   0x006fb8    program     static C:\pavan\1+1RCUTx\1-1-RCU-T-NewArch_svn_web_changes\Microchip\TCPIP Stack\SNMP.c
                  __pa_43   0x003144    program     static C:\pavan\1+1RCUTx\1-1-RCU-T-NewArch_svn_web_changes\Microchip\TCPIP Stack\TCP.c
                  __pa_43   0x012f3e    program     static C:\pavan\1+1RCUTx\1-1-RCU-T-NewArch_svn_web_changes\Microchip\TCPIP Stack\UDP.c
                  __pa_43   0x0104c6    program     static C:\pavan\1+1RCUTx\1-1-RCU-T-NewArch_svn_web_changes\App\WebUI\AgilisHTTPPrint.c
                  __pa_43   0x0150f0    program     static C:\pavan\1+1RCUTx\1-1-RCU-T-NewArch_svn_web_changes\AgilisDevices\RCULLAccess.c
                  __pa_44   0x006fd2    program     static C:\pavan\1+1RCUTx\1-1-RCU-T-NewArch_svn_web_changes\Microchip\TCPIP Stack\SNMP.c
                  __pa_44   0x017756    program     static C:\pavan\1+1RCUTx\1-1-RCU-T-NewArch_svn_web_changes\App\SerialIntf\AgilisProtocol\AgilisProtocol.c
                  __pa_44   0x00bb8a    program     static C:\pavan\1+1RCUTx\1-1-RCU-T-NewArch_svn_web_changes\AgilisDevices\RCUServer.c
                  __pa_44   0x012f4c    program     static C:\pavan\1+1RCUTx\1-1-RCU-T-NewArch_svn_web_changes\Microchip\TCPIP Stack\UDP.c
                  __pa_44   0x0113d0    program     static C:\pavan\1+1RCUTx\1-1-RCU-T-NewArch_svn_web_changes\Microchip\TCPIP Stack\MPFS2.c
                  __pa_44   0x009940    program     static C:\pavan\1+1RCUTx\1-1-RCU-T-NewArch_svn_web_changes\Microchip\TCPIP Stack\HTTP2.c
                  __pa_44   0x0104ce    program     static C:\pavan\1+1RCUTx\1-1-RCU-T-NewArch_svn_web_changes\App\WebUI\AgilisHTTPPrint.c
                  __pa_44   0x003156    program     static C:\pavan\1+1RCUTx\1-1-RCU-T-NewArch_svn_web_changes\Microchip\TCPIP Stack\TCP.c
                  __pa_44   0x00e72e    program     static C:\pavan\1+1RCUTx\1-1-RCU-T-NewArch_svn_web_changes\App\SNMP\AgilisSNMPApp.c
                  __pa_44   0x00d1f2    program     static C:\pavan\1+1RCUTx\1-1-RCU-T-NewArch_svn_web_changes\AgilisDevices\BUCClient.c
                  __pa_45   0x0113da    program     static C:\pavan\1+1RCUTx\1-1-RCU-T-NewArch_svn_web_changes\Microchip\TCPIP Stack\MPFS2.c
                  __pa_45   0x00d1fa    program     static C:\pavan\1+1RCUTx\1-1-RCU-T-NewArch_svn_web_changes\AgilisDevices\BUCClient.c
                  __pa_45   0x003160    program     static C:\pavan\1+1RCUTx\1-1-RCU-T-NewArch_svn_web_changes\Microchip\TCPIP Stack\TCP.c
                  __pa_45   0x009950    program     static C:\pavan\1+1RCUTx\1-1-RCU-T-NewArch_svn_web_changes\Microchip\TCPIP Stack\HTTP2.c
                  __pa_45   0x012f54    program     static C:\pavan\1+1RCUTx\1-1-RCU-T-NewArch_svn_web_changes\Microchip\TCPIP Stack\UDP.c
                  __pa_45   0x0104dc    program     static C:\pavan\1+1RCUTx\1-1-RCU-T-NewArch_svn_web_changes\App\WebUI\AgilisHTTPPrint.c
                  __pa_45   0x006fec    program     static C:\pavan\1+1RCUTx\1-1-RCU-T-NewArch_svn_web_changes\Microchip\TCPIP Stack\SNMP.c
                  __pa_45   0x00bb98    program     static C:\pavan\1+1RCUTx\1-1-RCU-T-NewArch_svn_web_changes\AgilisDevices\RCUServer.c
                  __pa_45   0x00e736    program     static C:\pavan\1+1RCUTx\1-1-RCU-T-NewArch_svn_web_changes\App\SNMP\AgilisSNMPApp.c
                  __pa_46   0x012f62    program     static C:\pavan\1+1RCUTx\1-1-RCU-T-NewArch_svn_web_changes\Microchip\TCPIP Stack\UDP.c
                  __pa_46   0x00d202    program     static C:\pavan\1+1RCUTx\1-1-RCU-T-NewArch_svn_web_changes\AgilisDevices\BUCClient.c
                  __pa_46   0x003172    program     static C:\pavan\1+1RCUTx\1-1-RCU-T-NewArch_svn_web_changes\Microchip\TCPIP Stack\TCP.c
                  __pa_46   0x0104ec    program     static C:\pavan\1+1RCUTx\1-1-RCU-T-NewArch_svn_web_changes\App\WebUI\AgilisHTTPPrint.c
                  __pa_46   0x006ff8    program     static C:\pavan\1+1RCUTx\1-1-RCU-T-NewArch_svn_web_changes\Microchip\TCPIP Stack\SNMP.c
                  __pa_46   0x00e744    program     static C:\pavan\1+1RCUTx\1-1-RCU-T-NewArch_svn_web_changes\App\SNMP\AgilisSNMPApp.c
                  __pa_46   0x00bba2    program     static C:\pavan\1+1RCUTx\1-1-RCU-T-NewArch_svn_web_changes\AgilisDevices\RCUServer.c
                  __pa_46   0x0113f4    program     static C:\pavan\1+1RCUTx\1-1-RCU-T-NewArch_svn_web_changes\Microchip\TCPIP Stack\MPFS2.c
                  __pa_46   0x009960    program     static C:\pavan\1+1RCUTx\1-1-RCU-T-NewArch_svn_web_changes\Microchip\TCPIP Stack\HTTP2.c
                  __pa_47   0x009970    program     static C:\pavan\1+1RCUTx\1-1-RCU-T-NewArch_svn_web_changes\Microchip\TCPIP Stack\HTTP2.c
                  __pa_47   0x00e756    program     static C:\pavan\1+1RCUTx\1-1-RCU-T-NewArch_svn_web_changes\App\SNMP\AgilisSNMPApp.c
                  __pa_47   0x0104f4    program     static C:\pavan\1+1RCUTx\1-1-RCU-T-NewArch_svn_web_changes\App\WebUI\AgilisHTTPPrint.c
                  __pa_47   0x00bbaa    program     static C:\pavan\1+1RCUTx\1-1-RCU-T-NewArch_svn_web_changes\AgilisDevices\RCUServer.c
                  __pa_47   0x0113fc    program     static C:\pavan\1+1RCUTx\1-1-RCU-T-NewArch_svn_web_changes\Microchip\TCPIP Stack\MPFS2.c
                  __pa_47   0x007000    program     static C:\pavan\1+1RCUTx\1-1-RCU-T-NewArch_svn_web_changes\Microchip\TCPIP Stack\SNMP.c
                  __pa_47   0x00d208    program     static C:\pavan\1+1RCUTx\1-1-RCU-T-NewArch_svn_web_changes\AgilisDevices\BUCClient.c
                  __pa_47   0x003198    program     static C:\pavan\1+1RCUTx\1-1-RCU-T-NewArch_svn_web_changes\Microchip\TCPIP Stack\TCP.c
                  __pa_47   0x012f70    program     static C:\pavan\1+1RCUTx\1-1-RCU-T-NewArch_svn_web_changes\Microchip\TCPIP Stack\UDP.c
                  __pa_48   0x0031b6    program     static C:\pavan\1+1RCUTx\1-1-RCU-T-NewArch_svn_web_changes\Microchip\TCPIP Stack\TCP.c
                  __pa_48   0x00d210    program     static C:\pavan\1+1RCUTx\1-1-RCU-T-NewArch_svn_web_changes\AgilisDevices\BUCClient.c
                  __pa_48   0x0104fc    program     static C:\pavan\1+1RCUTx\1-1-RCU-T-NewArch_svn_web_changes\App\WebUI\AgilisHTTPPrint.c
                  __pa_48   0x009980    program     static C:\pavan\1+1RCUTx\1-1-RCU-T-NewArch_svn_web_changes\Microchip\TCPIP Stack\HTTP2.c
                  __pa_48   0x00e768    program     static C:\pavan\1+1RCUTx\1-1-RCU-T-NewArch_svn_web_changes\App\SNMP\AgilisSNMPApp.c
                  __pa_48   0x00bbb0    program     static C:\pavan\1+1RCUTx\1-1-RCU-T-NewArch_svn_web_changes\AgilisDevices\RCUServer.c
                  __pa_48   0x00700a    program     static C:\pavan\1+1RCUTx\1-1-RCU-T-NewArch_svn_web_changes\Microchip\TCPIP Stack\SNMP.c
                  __pa_48   0x01140c    program     static C:\pavan\1+1RCUTx\1-1-RCU-T-NewArch_svn_web_changes\Microchip\TCPIP Stack\MPFS2.c
                  __pa_48   0x012f78    program     static C:\pavan\1+1RCUTx\1-1-RCU-T-NewArch_svn_web_changes\Microchip\TCPIP Stack\UDP.c
                  __pa_49   0x0031d6    program     static C:\pavan\1+1RCUTx\1-1-RCU-T-NewArch_svn_web_changes\Microchip\TCPIP Stack\TCP.c
                  __pa_49   0x00e772    program     static C:\pavan\1+1RCUTx\1-1-RCU-T-NewArch_svn_web_changes\App\SNMP\AgilisSNMPApp.c
                  __pa_49   0x011424    program     static C:\pavan\1+1RCUTx\1-1-RCU-T-NewArch_svn_web_changes\Microchip\TCPIP Stack\MPFS2.c
                  __pa_49   0x010504    program     static C:\pavan\1+1RCUTx\1-1-RCU-T-NewArch_svn_web_changes\App\WebUI\AgilisHTTPPrint.c
                  __pa_49   0x007014    program     static C:\pavan\1+1RCUTx\1-1-RCU-T-NewArch_svn_web_changes\Microchip\TCPIP Stack\SNMP.c
                  __pa_49   0x012f80    program     static C:\pavan\1+1RCUTx\1-1-RCU-T-NewArch_svn_web_changes\Microchip\TCPIP Stack\UDP.c
                  __pa_49   0x00bbb4    program     static C:\pavan\1+1RCUTx\1-1-RCU-T-NewArch_svn_web_changes\AgilisDevices\RCUServer.c
                  __pa_49   0x00d218    program     static C:\pavan\1+1RCUTx\1-1-RCU-T-NewArch_svn_web_changes\AgilisDevices\BUCClient.c
                  __pa_49   0x009986    program     static C:\pavan\1+1RCUTx\1-1-RCU-T-NewArch_svn_web_changes\Microchip\TCPIP Stack\HTTP2.c
                   __pa_5   0x00973c    program     static C:\pavan\1+1RCUTx\1-1-RCU-T-NewArch_svn_web_changes\Microchip\TCPIP Stack\HTTP2.c
                   __pa_5   0x014eee    program     static C:\pavan\1+1RCUTx\1-1-RCU-T-NewArch_svn_web_changes\AgilisDevices\RCULLAccess.c
                   __pa_5   0x01ba74    program     static C:\pavan\1+1RCUTx\1-1-RCU-T-NewArch_svn_web_changes\App\SNMP\AgilisSNMPLLBUCOp.c
                   __pa_5   0x012d2a    program     static C:\pavan\1+1RCUTx\1-1-RCU-T-NewArch_svn_web_changes\Microchip\TCPIP Stack\UDP.c
                   __pa_5   0x002e26    program     static C:\pavan\1+1RCUTx\1-1-RCU-T-NewArch_svn_web_changes\Microchip\TCPIP Stack\TCP.c
                   __pa_5   0x019df6    program     static C:\pavan\1+1RCUTx\1-1-RCU-T-NewArch_svn_web_changes\App\SNMP\AgilisSNMPLLBUCStatus.c
                   __pa_5   0x01a624    program     static C:\pavan\1+1RCUTx\1-1-RCU-T-NewArch_svn_web_changes\App\SNMP\AgilisSNMPLLRCUCmds.c
                   __pa_5   0x01a29a    program     static C:\pavan\1+1RCUTx\1-1-RCU-T-NewArch_svn_web_changes\App\Util\AgilisAppUtil.c
                   __pa_5   0x01b050    program     static C:\pavan\1+1RCUTx\1-1-RCU-T-NewArch_svn_web_changes\Microchip\TCPIP Stack\IP.c
                   __pa_5   0x016e7c    program     static C:\pavan\1+1RCUTx\1-1-RCU-T-NewArch_svn_web_changes\Agilis-SysLib\util.c
                   __pa_5   0x019ac4    program     static C:\pavan\1+1RCUTx\1-1-RCU-T-NewArch_svn_web_changes\App\SNMP\AgilisSNMPSysInfo.c
                   __pa_5   0x015798    program     static C:\pavan\1+1RCUTx\1-1-RCU-T-NewArch_svn_web_changes\Microchip\TCPIP Stack\DHCP.c
                   __pa_5   0x01c872    program     static C:\pavan\1+1RCUTx\1-1-RCU-T-NewArch_svn_web_changes\App\SNMP\AgilisSNMPLLBucDevInfo.c
                   __pa_5   0x01ad14    program     static C:\pavan\1+1RCUTx\1-1-RCU-T-NewArch_svn_web_changes\AgilisDevices\RCUHLAccess.c
                   __pa_5   0x0120ec    program     static C:\pavan\1+1RCUTx\1-1-RCU-T-NewArch_svn_web_changes\Microchip\TCPIP Stack\Helpers.c
                   __pa_5   0x0110b8    program     static C:\pavan\1+1RCUTx\1-1-RCU-T-NewArch_svn_web_changes\Microchip\TCPIP Stack\MPFS2.c
                   __pa_5   0x013a6c    program     static C:\pavan\1+1RCUTx\1-1-RCU-T-NewArch_svn_web_changes\Microchip\TCPIP Stack\ETH97J60.c
                   __pa_5   0x01b82a    program     static C:\pavan\1+1RCUTx\1-1-RCU-T-NewArch_svn_web_changes\Agilis-SysLib\task.c
                   __pa_5   0x0192b8    program     static C:\pavan\1+1RCUTx\1-1-RCU-T-NewArch_svn_web_changes\Microchip\TCPIP Stack\ARP.c
                   __pa_5   0x01b35e    program     static C:\pavan\1+1RCUTx\1-1-RCU-T-NewArch_svn_web_changes\Microchip\TCPIP Stack\SPIEEPROM.c
                   __pa_5   0x017572    program     static C:\pavan\1+1RCUTx\1-1-RCU-T-NewArch_svn_web_changes\App\SerialIntf\AgilisProtocol\AgilisProtocol.c
                   __pa_5   0x016786    program     static C:\pavan\1+1RCUTx\1-1-RCU-T-NewArch_svn_web_changes\App\WebUI\AgilisHTTPGetDevInfo.c
                   __pa_5   0x01605c    program     static C:\pavan\1+1RCUTx\1-1-RCU-T-NewArch_svn_web_changes\App\WebUI\AgilisHTTPApp.c
                   __pa_5   0x0102e4    program     static C:\pavan\1+1RCUTx\1-1-RCU-T-NewArch_svn_web_changes\App\WebUI\AgilisHTTPPrint.c
                   __pa_5   0x00b8fc    program     static C:\pavan\1+1RCUTx\1-1-RCU-T-NewArch_svn_web_changes\AgilisDevices\RCUServer.c
                   __pa_5   0x00cfa2    program     static C:\pavan\1+1RCUTx\1-1-RCU-T-NewArch_svn_web_changes\AgilisDevices\BUCClient.c
                   __pa_5   0x018e1e    program     static C:\pavan\1+1RCUTx\1-1-RCU-T-NewArch_svn_web_changes\Drivers\External-Peripherals\AgilisDualUART.c
                   __pa_5   0x01838c    program     static C:\pavan\1+1RCUTx\1-1-RCU-T-NewArch_svn_web_changes\AgilisDevices\AgilisDeviceManager.c
                   __pa_5   0x006dac    program     static C:\pavan\1+1RCUTx\1-1-RCU-T-NewArch_svn_web_changes\Microchip\TCPIP Stack\SNMP.c
                   __pa_5   0x00f5c6    program     static C:\pavan\1+1RCUTx\1-1-RCU-T-NewArch_svn_web_changes\Drivers\UARTISR.c
                   __pa_5   0x01beea    program     static C:\pavan\1+1RCUTx\1-1-RCU-T-NewArch_svn_web_changes\Drivers\External-Peripherals\devadc.c
                   __pa_5   0x01a9b2    program     static C:\pavan\1+1RCUTx\1-1-RCU-T-NewArch_svn_web_changes\Drivers\AgilisUart.c
                   __pa_5   0x00e4cc    program     static C:\pavan\1+1RCUTx\1-1-RCU-T-NewArch_svn_web_changes\App\SNMP\AgilisSNMPApp.c
                   __pa_5   0x018850    program     static C:\pavan\1+1RCUTx\1-1-RCU-T-NewArch_svn_web_changes\Bootstrap\Initialization.c
                  __pa_50   0x007032    program     static C:\pavan\1+1RCUTx\1-1-RCU-T-NewArch_svn_web_changes\Microchip\TCPIP Stack\SNMP.c
                  __pa_50   0x00e77c    program     static C:\pavan\1+1RCUTx\1-1-RCU-T-NewArch_svn_web_changes\App\SNMP\AgilisSNMPApp.c
                  __pa_50   0x009992    program     static C:\pavan\1+1RCUTx\1-1-RCU-T-NewArch_svn_web_changes\Microchip\TCPIP Stack\HTTP2.c
                  __pa_50   0x01050a    program     static C:\pavan\1+1RCUTx\1-1-RCU-T-NewArch_svn_web_changes\App\WebUI\AgilisHTTPPrint.c
                  __pa_50   0x00d220    program     static C:\pavan\1+1RCUTx\1-1-RCU-T-NewArch_svn_web_changes\AgilisDevices\BUCClient.c
                  __pa_50   0x011432    program     static C:\pavan\1+1RCUTx\1-1-RCU-T-NewArch_svn_web_changes\Microchip\TCPIP Stack\MPFS2.c
                  __pa_50   0x012f88    program     static C:\pavan\1+1RCUTx\1-1-RCU-T-NewArch_svn_web_changes\Microchip\TCPIP Stack\UDP.c
                  __pa_50   0x0031ec    program     static C:\pavan\1+1RCUTx\1-1-RCU-T-NewArch_svn_web_changes\Microchip\TCPIP Stack\TCP.c
                  __pa_50   0x00bbbc    program     static C:\pavan\1+1RCUTx\1-1-RCU-T-NewArch_svn_web_changes\AgilisDevices\RCUServer.c
                  __pa_51   0x011438    program     static C:\pavan\1+1RCUTx\1-1-RCU-T-NewArch_svn_web_changes\Microchip\TCPIP Stack\MPFS2.c
                  __pa_51   0x00999e    program     static C:\pavan\1+1RCUTx\1-1-RCU-T-NewArch_svn_web_changes\Microchip\TCPIP Stack\HTTP2.c
                  __pa_51   0x00703e    program     static C:\pavan\1+1RCUTx\1-1-RCU-T-NewArch_svn_web_changes\Microchip\TCPIP Stack\SNMP.c
                  __pa_51   0x003202    program     static C:\pavan\1+1RCUTx\1-1-RCU-T-NewArch_svn_web_changes\Microchip\TCPIP Stack\TCP.c
                  __pa_51   0x00bbc4    program     static C:\pavan\1+1RCUTx\1-1-RCU-T-NewArch_svn_web_changes\AgilisDevices\RCUServer.c
                  __pa_51   0x00e784    program     static C:\pavan\1+1RCUTx\1-1-RCU-T-NewArch_svn_web_changes\App\SNMP\AgilisSNMPApp.c
                  __pa_51   0x010512    program     static C:\pavan\1+1RCUTx\1-1-RCU-T-NewArch_svn_web_changes\App\WebUI\AgilisHTTPPrint.c
                  __pa_51   0x012f96    program     static C:\pavan\1+1RCUTx\1-1-RCU-T-NewArch_svn_web_changes\Microchip\TCPIP Stack\UDP.c
                  __pa_51   0x00d228    program     static C:\pavan\1+1RCUTx\1-1-RCU-T-NewArch_svn_web_changes\AgilisDevices\BUCClient.c
                  __pa_52   0x0099ae    program     static C:\pavan\1+1RCUTx\1-1-RCU-T-NewArch_svn_web_changes\Microchip\TCPIP Stack\HTTP2.c
                  __pa_52   0x01051a    program     static C:\pavan\1+1RCUTx\1-1-RCU-T-NewArch_svn_web_changes\App\WebUI\AgilisHTTPPrint.c
                  __pa_52   0x011454    program     static C:\pavan\1+1RCUTx\1-1-RCU-T-NewArch_svn_web_changes\Microchip\TCPIP Stack\MPFS2.c
                  __pa_52   0x007050    program     static C:\pavan\1+1RCUTx\1-1-RCU-T-NewArch_svn_web_changes\Microchip\TCPIP Stack\SNMP.c
                  __pa_52   0x00e792    program     static C:\pavan\1+1RCUTx\1-1-RCU-T-NewArch_svn_web_changes\App\SNMP\AgilisSNMPApp.c
                  __pa_52   0x00bbd2    program     static C:\pavan\1+1RCUTx\1-1-RCU-T-NewArch_svn_web_changes\AgilisDevices\RCUServer.c
                  __pa_52   0x00320e    program     static C:\pavan\1+1RCUTx\1-1-RCU-T-NewArch_svn_web_changes\Microchip\TCPIP Stack\TCP.c
                  __pa_52   0x00d23e    program     static C:\pavan\1+1RCUTx\1-1-RCU-T-NewArch_svn_web_changes\AgilisDevices\BUCClient.c
                  __pa_52   0x012fa4    program     static C:\pavan\1+1RCUTx\1-1-RCU-T-NewArch_svn_web_changes\Microchip\TCPIP Stack\UDP.c
                  __pa_53   0x00d246    program     static C:\pavan\1+1RCUTx\1-1-RCU-T-NewArch_svn_web_changes\AgilisDevices\BUCClient.c
                  __pa_53   0x0099be    program     static C:\pavan\1+1RCUTx\1-1-RCU-T-NewArch_svn_web_changes\Microchip\TCPIP Stack\HTTP2.c
                  __pa_53   0x007058    program     static C:\pavan\1+1RCUTx\1-1-RCU-T-NewArch_svn_web_changes\Microchip\TCPIP Stack\SNMP.c
                  __pa_53   0x011464    program     static C:\pavan\1+1RCUTx\1-1-RCU-T-NewArch_svn_web_changes\Microchip\TCPIP Stack\MPFS2.c
                  __pa_53   0x00321c    program     static C:\pavan\1+1RCUTx\1-1-RCU-T-NewArch_svn_web_changes\Microchip\TCPIP Stack\TCP.c
                  __pa_53   0x012fac    program     static C:\pavan\1+1RCUTx\1-1-RCU-T-NewArch_svn_web_changes\Microchip\TCPIP Stack\UDP.c
                  __pa_53   0x00e79a    program     static C:\pavan\1+1RCUTx\1-1-RCU-T-NewArch_svn_web_changes\App\SNMP\AgilisSNMPApp.c
                  __pa_53   0x00bbe0    program     static C:\pavan\1+1RCUTx\1-1-RCU-T-NewArch_svn_web_changes\AgilisDevices\RCUServer.c
                  __pa_53   0x010522    program     static C:\pavan\1+1RCUTx\1-1-RCU-T-NewArch_svn_web_changes\App\WebUI\AgilisHTTPPrint.c
                  __pa_54   0x00bbee    program     static C:\pavan\1+1RCUTx\1-1-RCU-T-NewArch_svn_web_changes\AgilisDevices\RCUServer.c
                  __pa_54   0x003224    program     static C:\pavan\1+1RCUTx\1-1-RCU-T-NewArch_svn_web_changes\Microchip\TCPIP Stack\TCP.c
                  __pa_54   0x00d26e    program     static C:\pavan\1+1RCUTx\1-1-RCU-T-NewArch_svn_web_changes\AgilisDevices\BUCClient.c
                  __pa_54   0x01147c    program     static C:\pavan\1+1RCUTx\1-1-RCU-T-NewArch_svn_web_changes\Microchip\TCPIP Stack\MPFS2.c
                  __pa_54   0x012fba    program     static C:\pavan\1+1RCUTx\1-1-RCU-T-NewArch_svn_web_changes\Microchip\TCPIP Stack\UDP.c
                  __pa_54   0x00e7a2    program     static C:\pavan\1+1RCUTx\1-1-RCU-T-NewArch_svn_web_changes\App\SNMP\AgilisSNMPApp.c
                  __pa_54   0x007066    program     static C:\pavan\1+1RCUTx\1-1-RCU-T-NewArch_svn_web_changes\Microchip\TCPIP Stack\SNMP.c
                  __pa_54   0x01052e    program     static C:\pavan\1+1RCUTx\1-1-RCU-T-NewArch_svn_web_changes\App\WebUI\AgilisHTTPPrint.c
                  __pa_54   0x0099d4    program     static C:\pavan\1+1RCUTx\1-1-RCU-T-NewArch_svn_web_changes\Microchip\TCPIP Stack\HTTP2.c
                  __pa_55   0x00bbfc    program     static C:\pavan\1+1RCUTx\1-1-RCU-T-NewArch_svn_web_changes\AgilisDevices\RCUServer.c
                  __pa_55   0x012fc2    program     static C:\pavan\1+1RCUTx\1-1-RCU-T-NewArch_svn_web_changes\Microchip\TCPIP Stack\UDP.c
                  __pa_55   0x007074    program     static C:\pavan\1+1RCUTx\1-1-RCU-T-NewArch_svn_web_changes\Microchip\TCPIP Stack\SNMP.c
                  __pa_55   0x01053a    program     static C:\pavan\1+1RCUTx\1-1-RCU-T-NewArch_svn_web_changes\App\WebUI\AgilisHTTPPrint.c
                  __pa_55   0x003232    program     static C:\pavan\1+1RCUTx\1-1-RCU-T-NewArch_svn_web_changes\Microchip\TCPIP Stack\TCP.c
                  __pa_55   0x00e7a8    program     static C:\pavan\1+1RCUTx\1-1-RCU-T-NewArch_svn_web_changes\App\SNMP\AgilisSNMPApp.c
                  __pa_55   0x01148a    program     static C:\pavan\1+1RCUTx\1-1-RCU-T-NewArch_svn_web_changes\Microchip\TCPIP Stack\MPFS2.c
                  __pa_55   0x0099e0    program     static C:\pavan\1+1RCUTx\1-1-RCU-T-NewArch_svn_web_changes\Microchip\TCPIP Stack\HTTP2.c
                  __pa_55   0x00d274    program     static C:\pavan\1+1RCUTx\1-1-RCU-T-NewArch_svn_web_changes\AgilisDevices\BUCClient.c
                  __pa_56   0x00d27c    program     static C:\pavan\1+1RCUTx\1-1-RCU-T-NewArch_svn_web_changes\AgilisDevices\BUCClient.c
                  __pa_56   0x0099ee    program     static C:\pavan\1+1RCUTx\1-1-RCU-T-NewArch_svn_web_changes\Microchip\TCPIP Stack\HTTP2.c
                  __pa_56   0x00707c    program     static C:\pavan\1+1RCUTx\1-1-RCU-T-NewArch_svn_web_changes\Microchip\TCPIP Stack\SNMP.c
                  __pa_56   0x012fcc    program     static C:\pavan\1+1RCUTx\1-1-RCU-T-NewArch_svn_web_changes\Microchip\TCPIP Stack\UDP.c
                  __pa_56   0x00e7b0    program     static C:\pavan\1+1RCUTx\1-1-RCU-T-NewArch_svn_web_changes\App\SNMP\AgilisSNMPApp.c
                  __pa_56   0x00bc06    program     static C:\pavan\1+1RCUTx\1-1-RCU-T-NewArch_svn_web_changes\AgilisDevices\RCUServer.c
                  __pa_56   0x010548    program     static C:\pavan\1+1RCUTx\1-1-RCU-T-NewArch_svn_web_changes\App\WebUI\AgilisHTTPPrint.c
                  __pa_56   0x003240    program     static C:\pavan\1+1RCUTx\1-1-RCU-T-NewArch_svn_web_changes\Microchip\TCPIP Stack\TCP.c
                  __pa_56   0x01149e    program     static C:\pavan\1+1RCUTx\1-1-RCU-T-NewArch_svn_web_changes\Microchip\TCPIP Stack\MPFS2.c
                  __pa_57   0x00bc10    program     static C:\pavan\1+1RCUTx\1-1-RCU-T-NewArch_svn_web_changes\AgilisDevices\RCUServer.c
                  __pa_57   0x00e7c0    program     static C:\pavan\1+1RCUTx\1-1-RCU-T-NewArch_svn_web_changes\App\SNMP\AgilisSNMPApp.c
                  __pa_57   0x00324a    program     static C:\pavan\1+1RCUTx\1-1-RCU-T-NewArch_svn_web_changes\Microchip\TCPIP Stack\TCP.c
                  __pa_57   0x012fd6    program     static C:\pavan\1+1RCUTx\1-1-RCU-T-NewArch_svn_web_changes\Microchip\TCPIP Stack\UDP.c
                  __pa_57   0x00708a    program     static C:\pavan\1+1RCUTx\1-1-RCU-T-NewArch_svn_web_changes\Microchip\TCPIP Stack\SNMP.c
                  __pa_57   0x010556    program     static C:\pavan\1+1RCUTx\1-1-RCU-T-NewArch_svn_web_changes\App\WebUI\AgilisHTTPPrint.c
                  __pa_57   0x0114ac    program     static C:\pavan\1+1RCUTx\1-1-RCU-T-NewArch_svn_web_changes\Microchip\TCPIP Stack\MPFS2.c
                  __pa_57   0x0099fc    program     static C:\pavan\1+1RCUTx\1-1-RCU-T-NewArch_svn_web_changes\Microchip\TCPIP Stack\HTTP2.c
                  __pa_57   0x00d284    program     static C:\pavan\1+1RCUTx\1-1-RCU-T-NewArch_svn_web_changes\AgilisDevices\BUCClient.c
                  __pa_58   0x00bc1a    program     static C:\pavan\1+1RCUTx\1-1-RCU-T-NewArch_svn_web_changes\AgilisDevices\RCUServer.c
                  __pa_58   0x012fe0    program     static C:\pavan\1+1RCUTx\1-1-RCU-T-NewArch_svn_web_changes\Microchip\TCPIP Stack\UDP.c
                  __pa_58   0x00d29c    program     static C:\pavan\1+1RCUTx\1-1-RCU-T-NewArch_svn_web_changes\AgilisDevices\BUCClient.c
                  __pa_58   0x01055e    program     static C:\pavan\1+1RCUTx\1-1-RCU-T-NewArch_svn_web_changes\App\WebUI\AgilisHTTPPrint.c
                  __pa_58   0x009a0c    program     static C:\pavan\1+1RCUTx\1-1-RCU-T-NewArch_svn_web_changes\Microchip\TCPIP Stack\HTTP2.c
                  __pa_58   0x0114be    program     static C:\pavan\1+1RCUTx\1-1-RCU-T-NewArch_svn_web_changes\Microchip\TCPIP Stack\MPFS2.c
                  __pa_58   0x007092    program     static C:\pavan\1+1RCUTx\1-1-RCU-T-NewArch_svn_web_changes\Microchip\TCPIP Stack\SNMP.c
                  __pa_58   0x003268    program     static C:\pavan\1+1RCUTx\1-1-RCU-T-NewArch_svn_web_changes\Microchip\TCPIP Stack\TCP.c
                  __pa_59   0x010566    program     static C:\pavan\1+1RCUTx\1-1-RCU-T-NewArch_svn_web_changes\App\WebUI\AgilisHTTPPrint.c
                  __pa_59   0x0114c8    program     static C:\pavan\1+1RCUTx\1-1-RCU-T-NewArch_svn_web_changes\Microchip\TCPIP Stack\MPFS2.c
                  __pa_59   0x00bc22    program     static C:\pavan\1+1RCUTx\1-1-RCU-T-NewArch_svn_web_changes\AgilisDevices\RCUServer.c
                  __pa_59   0x00328c    program     static C:\pavan\1+1RCUTx\1-1-RCU-T-NewArch_svn_web_changes\Microchip\TCPIP Stack\TCP.c
                  __pa_59   0x012fea    program     static C:\pavan\1+1RCUTx\1-1-RCU-T-NewArch_svn_web_changes\Microchip\TCPIP Stack\UDP.c
                  __pa_59   0x007098    program     static C:\pavan\1+1RCUTx\1-1-RCU-T-NewArch_svn_web_changes\Microchip\TCPIP Stack\SNMP.c
                  __pa_59   0x00d2a4    program     static C:\pavan\1+1RCUTx\1-1-RCU-T-NewArch_svn_web_changes\AgilisDevices\BUCClient.c
                  __pa_59   0x009a1a    program     static C:\pavan\1+1RCUTx\1-1-RCU-T-NewArch_svn_web_changes\Microchip\TCPIP Stack\HTTP2.c
                   __pa_6   0x01b370    program     static C:\pavan\1+1RCUTx\1-1-RCU-T-NewArch_svn_web_changes\Microchip\TCPIP Stack\SPIEEPROM.c
                   __pa_6   0x01a638    program     static C:\pavan\1+1RCUTx\1-1-RCU-T-NewArch_svn_web_changes\App\SNMP\AgilisSNMPLLRCUCmds.c
                   __pa_6   0x01a2a2    program     static C:\pavan\1+1RCUTx\1-1-RCU-T-NewArch_svn_web_changes\App\Util\AgilisAppUtil.c
                   __pa_6   0x01b05a    program     static C:\pavan\1+1RCUTx\1-1-RCU-T-NewArch_svn_web_changes\Microchip\TCPIP Stack\IP.c
                   __pa_6   0x016790    program     static C:\pavan\1+1RCUTx\1-1-RCU-T-NewArch_svn_web_changes\App\WebUI\AgilisHTTPGetDevInfo.c
                   __pa_6   0x019ae2    program     static C:\pavan\1+1RCUTx\1-1-RCU-T-NewArch_svn_web_changes\App\SNMP\AgilisSNMPSysInfo.c
                   __pa_6   0x01ad1c    program     static C:\pavan\1+1RCUTx\1-1-RCU-T-NewArch_svn_web_changes\AgilisDevices\RCUHLAccess.c
                   __pa_6   0x01c880    program     static C:\pavan\1+1RCUTx\1-1-RCU-T-NewArch_svn_web_changes\App\SNMP\AgilisSNMPLLBucDevInfo.c
                   __pa_6   0x013a70    program     static C:\pavan\1+1RCUTx\1-1-RCU-T-NewArch_svn_web_changes\Microchip\TCPIP Stack\ETH97J60.c
                   __pa_6   0x01b834    program     static C:\pavan\1+1RCUTx\1-1-RCU-T-NewArch_svn_web_changes\Agilis-SysLib\task.c
                   __pa_6   0x0192c8    program     static C:\pavan\1+1RCUTx\1-1-RCU-T-NewArch_svn_web_changes\Microchip\TCPIP Stack\ARP.c
                   __pa_6   0x002eba    program     static C:\pavan\1+1RCUTx\1-1-RCU-T-NewArch_svn_web_changes\Microchip\TCPIP Stack\TCP.c
                   __pa_6   0x00b900    program     static C:\pavan\1+1RCUTx\1-1-RCU-T-NewArch_svn_web_changes\AgilisDevices\RCUServer.c
                   __pa_6   0x010312    program     static C:\pavan\1+1RCUTx\1-1-RCU-T-NewArch_svn_web_changes\App\WebUI\AgilisHTTPPrint.c
                   __pa_6   0x012d3c    program     static C:\pavan\1+1RCUTx\1-1-RCU-T-NewArch_svn_web_changes\Microchip\TCPIP Stack\UDP.c
                   __pa_6   0x014f0e    program     static C:\pavan\1+1RCUTx\1-1-RCU-T-NewArch_svn_web_changes\AgilisDevices\RCULLAccess.c
                   __pa_6   0x0110da    program     static C:\pavan\1+1RCUTx\1-1-RCU-T-NewArch_svn_web_changes\Microchip\TCPIP Stack\MPFS2.c
                   __pa_6   0x01885c    program     static C:\pavan\1+1RCUTx\1-1-RCU-T-NewArch_svn_web_changes\Bootstrap\Initialization.c
                   __pa_6   0x017582    program     static C:\pavan\1+1RCUTx\1-1-RCU-T-NewArch_svn_web_changes\App\SerialIntf\AgilisProtocol\AgilisProtocol.c
                   __pa_6   0x00e4d8    program     static C:\pavan\1+1RCUTx\1-1-RCU-T-NewArch_svn_web_changes\App\SNMP\AgilisSNMPApp.c
                   __pa_6   0x009764    program     static C:\pavan\1+1RCUTx\1-1-RCU-T-NewArch_svn_web_changes\Microchip\TCPIP Stack\HTTP2.c
                   __pa_6   0x01a9be    program     static C:\pavan\1+1RCUTx\1-1-RCU-T-NewArch_svn_web_changes\Drivers\AgilisUart.c
                   __pa_6   0x01befc    program     static C:\pavan\1+1RCUTx\1-1-RCU-T-NewArch_svn_web_changes\Drivers\External-Peripherals\devadc.c
                   __pa_6   0x01ba8e    program     static C:\pavan\1+1RCUTx\1-1-RCU-T-NewArch_svn_web_changes\App\SNMP\AgilisSNMPLLBUCOp.c
                   __pa_6   0x00f5d4    program     static C:\pavan\1+1RCUTx\1-1-RCU-T-NewArch_svn_web_changes\Drivers\UARTISR.c
                   __pa_6   0x006db8    program     static C:\pavan\1+1RCUTx\1-1-RCU-T-NewArch_svn_web_changes\Microchip\TCPIP Stack\SNMP.c
                   __pa_6   0x019dfe    program     static C:\pavan\1+1RCUTx\1-1-RCU-T-NewArch_svn_web_changes\App\SNMP\AgilisSNMPLLBUCStatus.c
                   __pa_6   0x01839e    program     static C:\pavan\1+1RCUTx\1-1-RCU-T-NewArch_svn_web_changes\AgilisDevices\AgilisDeviceManager.c
                   __pa_6   0x018e2e    program     static C:\pavan\1+1RCUTx\1-1-RCU-T-NewArch_svn_web_changes\Drivers\External-Peripherals\AgilisDualUART.c
                   __pa_6   0x0157a2    program     static C:\pavan\1+1RCUTx\1-1-RCU-T-NewArch_svn_web_changes\Microchip\TCPIP Stack\DHCP.c
                   __pa_6   0x00cfae    program     static C:\pavan\1+1RCUTx\1-1-RCU-T-NewArch_svn_web_changes\AgilisDevices\BUCClient.c
                   __pa_6   0x016070    program     static C:\pavan\1+1RCUTx\1-1-RCU-T-NewArch_svn_web_changes\App\WebUI\AgilisHTTPApp.c
                   __pa_6   0x012112    program     static C:\pavan\1+1RCUTx\1-1-RCU-T-NewArch_svn_web_changes\Microchip\TCPIP Stack\Helpers.c
                   __pa_6   0x016eba    program     static C:\pavan\1+1RCUTx\1-1-RCU-T-NewArch_svn_web_changes\Agilis-SysLib\util.c
                  __pa_60   0x009a2e    program     static C:\pavan\1+1RCUTx\1-1-RCU-T-NewArch_svn_web_changes\Microchip\TCPIP Stack\HTTP2.c
                  __pa_60   0x0114d4    program     static C:\pavan\1+1RCUTx\1-1-RCU-T-NewArch_svn_web_changes\Microchip\TCPIP Stack\MPFS2.c
                  __pa_60   0x0070a0    program     static C:\pavan\1+1RCUTx\1-1-RCU-T-NewArch_svn_web_changes\Microchip\TCPIP Stack\SNMP.c
                  __pa_60   0x01057e    program     static C:\pavan\1+1RCUTx\1-1-RCU-T-NewArch_svn_web_changes\App\WebUI\AgilisHTTPPrint.c
                  __pa_60   0x00bc2c    program     static C:\pavan\1+1RCUTx\1-1-RCU-T-NewArch_svn_web_changes\AgilisDevices\RCUServer.c
                  __pa_60   0x012ff4    program     static C:\pavan\1+1RCUTx\1-1-RCU-T-NewArch_svn_web_changes\Microchip\TCPIP Stack\UDP.c
                  __pa_60   0x00329c    program     static C:\pavan\1+1RCUTx\1-1-RCU-T-NewArch_svn_web_changes\Microchip\TCPIP Stack\TCP.c
                  __pa_60   0x00d2ac    program     static C:\pavan\1+1RCUTx\1-1-RCU-T-NewArch_svn_web_changes\AgilisDevices\BUCClient.c
                  __pa_61   0x0114e2    program     static C:\pavan\1+1RCUTx\1-1-RCU-T-NewArch_svn_web_changes\Microchip\TCPIP Stack\MPFS2.c
                  __pa_61   0x010596    program     static C:\pavan\1+1RCUTx\1-1-RCU-T-NewArch_svn_web_changes\App\WebUI\AgilisHTTPPrint.c
                  __pa_61   0x009a36    program     static C:\pavan\1+1RCUTx\1-1-RCU-T-NewArch_svn_web_changes\Microchip\TCPIP Stack\HTTP2.c
                  __pa_61   0x0032a6    program     static C:\pavan\1+1RCUTx\1-1-RCU-T-NewArch_svn_web_changes\Microchip\TCPIP Stack\TCP.c
                  __pa_61   0x012ffa    program     static C:\pavan\1+1RCUTx\1-1-RCU-T-NewArch_svn_web_changes\Microchip\TCPIP Stack\UDP.c
                  __pa_61   0x0070aa    program     static C:\pavan\1+1RCUTx\1-1-RCU-T-NewArch_svn_web_changes\Microchip\TCPIP Stack\SNMP.c
                  __pa_61   0x00bc3e    program     static C:\pavan\1+1RCUTx\1-1-RCU-T-NewArch_svn_web_changes\AgilisDevices\RCUServer.c
                  __pa_61   0x00d2b2    program     static C:\pavan\1+1RCUTx\1-1-RCU-T-NewArch_svn_web_changes\AgilisDevices\BUCClient.c
                  __pa_62   0x009a48    program     static C:\pavan\1+1RCUTx\1-1-RCU-T-NewArch_svn_web_changes\Microchip\TCPIP Stack\HTTP2.c
                  __pa_62   0x00d2bc    program     static C:\pavan\1+1RCUTx\1-1-RCU-T-NewArch_svn_web_changes\AgilisDevices\BUCClient.c
                  __pa_62   0x0114f0    program     static C:\pavan\1+1RCUTx\1-1-RCU-T-NewArch_svn_web_changes\Microchip\TCPIP Stack\MPFS2.c
                  __pa_62   0x0070b2    program     static C:\pavan\1+1RCUTx\1-1-RCU-T-NewArch_svn_web_changes\Microchip\TCPIP Stack\SNMP.c
                  __pa_62   0x0032b0    program     static C:\pavan\1+1RCUTx\1-1-RCU-T-NewArch_svn_web_changes\Microchip\TCPIP Stack\TCP.c
                  __pa_62   0x0105c6    program     static C:\pavan\1+1RCUTx\1-1-RCU-T-NewArch_svn_web_changes\App\WebUI\AgilisHTTPPrint.c
                  __pa_62   0x00bc46    program     static C:\pavan\1+1RCUTx\1-1-RCU-T-NewArch_svn_web_changes\AgilisDevices\RCUServer.c
                  __pa_63   0x0070ba    program     static C:\pavan\1+1RCUTx\1-1-RCU-T-NewArch_svn_web_changes\Microchip\TCPIP Stack\SNMP.c
                  __pa_63   0x0114f8    program     static C:\pavan\1+1RCUTx\1-1-RCU-T-NewArch_svn_web_changes\Microchip\TCPIP Stack\MPFS2.c
                  __pa_63   0x009a54    program     static C:\pavan\1+1RCUTx\1-1-RCU-T-NewArch_svn_web_changes\Microchip\TCPIP Stack\HTTP2.c
                  __pa_63   0x00bc4e    program     static C:\pavan\1+1RCUTx\1-1-RCU-T-NewArch_svn_web_changes\AgilisDevices\RCUServer.c
                  __pa_63   0x0105d4    program     static C:\pavan\1+1RCUTx\1-1-RCU-T-NewArch_svn_web_changes\App\WebUI\AgilisHTTPPrint.c
                  __pa_63   0x0032d0    program     static C:\pavan\1+1RCUTx\1-1-RCU-T-NewArch_svn_web_changes\Microchip\TCPIP Stack\TCP.c
                  __pa_63   0x00d2c2    program     static C:\pavan\1+1RCUTx\1-1-RCU-T-NewArch_svn_web_changes\AgilisDevices\BUCClient.c
                  __pa_64   0x0070c2    program     static C:\pavan\1+1RCUTx\1-1-RCU-T-NewArch_svn_web_changes\Microchip\TCPIP Stack\SNMP.c
                  __pa_64   0x00bc74    program     static C:\pavan\1+1RCUTx\1-1-RCU-T-NewArch_svn_web_changes\AgilisDevices\RCUServer.c
                  __pa_64   0x0032e6    program     static C:\pavan\1+1RCUTx\1-1-RCU-T-NewArch_svn_web_changes\Microchip\TCPIP Stack\TCP.c
                  __pa_64   0x00d2c8    program     static C:\pavan\1+1RCUTx\1-1-RCU-T-NewArch_svn_web_changes\AgilisDevices\BUCClient.c
                  __pa_64   0x009a66    program     static C:\pavan\1+1RCUTx\1-1-RCU-T-NewArch_svn_web_changes\Microchip\TCPIP Stack\HTTP2.c
                  __pa_64   0x0105de    program     static C:\pavan\1+1RCUTx\1-1-RCU-T-NewArch_svn_web_changes\App\WebUI\AgilisHTTPPrint.c
                  __pa_64   0x011502    program     static C:\pavan\1+1RCUTx\1-1-RCU-T-NewArch_svn_web_changes\Microchip\TCPIP Stack\MPFS2.c
                  __pa_65   0x00d2d0    program     static C:\pavan\1+1RCUTx\1-1-RCU-T-NewArch_svn_web_changes\AgilisDevices\BUCClient.c
                  __pa_65   0x0032fa    program     static C:\pavan\1+1RCUTx\1-1-RCU-T-NewArch_svn_web_changes\Microchip\TCPIP Stack\TCP.c
                  __pa_65   0x009a72    program     static C:\pavan\1+1RCUTx\1-1-RCU-T-NewArch_svn_web_changes\Microchip\TCPIP Stack\HTTP2.c
                  __pa_65   0x0070dc    program     static C:\pavan\1+1RCUTx\1-1-RCU-T-NewArch_svn_web_changes\Microchip\TCPIP Stack\SNMP.c
                  __pa_65   0x0105ea    program     static C:\pavan\1+1RCUTx\1-1-RCU-T-NewArch_svn_web_changes\App\WebUI\AgilisHTTPPrint.c
                  __pa_65   0x011508    program     static C:\pavan\1+1RCUTx\1-1-RCU-T-NewArch_svn_web_changes\Microchip\TCPIP Stack\MPFS2.c
                  __pa_65   0x00bc7a    program     static C:\pavan\1+1RCUTx\1-1-RCU-T-NewArch_svn_web_changes\AgilisDevices\RCUServer.c
                  __pa_66   0x011522    program     static C:\pavan\1+1RCUTx\1-1-RCU-T-NewArch_svn_web_changes\Microchip\TCPIP Stack\MPFS2.c
                  __pa_66   0x009a7e    program     static C:\pavan\1+1RCUTx\1-1-RCU-T-NewArch_svn_web_changes\Microchip\TCPIP Stack\HTTP2.c
                  __pa_66   0x00d2dc    program     static C:\pavan\1+1RCUTx\1-1-RCU-T-NewArch_svn_web_changes\AgilisDevices\BUCClient.c
                  __pa_66   0x003310    program     static C:\pavan\1+1RCUTx\1-1-RCU-T-NewArch_svn_web_changes\Microchip\TCPIP Stack\TCP.c
                  __pa_66   0x0070e8    program     static C:\pavan\1+1RCUTx\1-1-RCU-T-NewArch_svn_web_changes\Microchip\TCPIP Stack\SNMP.c
                  __pa_66   0x0105f4    program     static C:\pavan\1+1RCUTx\1-1-RCU-T-NewArch_svn_web_changes\App\WebUI\AgilisHTTPPrint.c
                  __pa_66   0x00bc86    program     static C:\pavan\1+1RCUTx\1-1-RCU-T-NewArch_svn_web_changes\AgilisDevices\RCUServer.c
                  __pa_67   0x00332e    program     static C:\pavan\1+1RCUTx\1-1-RCU-T-NewArch_svn_web_changes\Microchip\TCPIP Stack\TCP.c
                  __pa_67   0x0070f2    program     static C:\pavan\1+1RCUTx\1-1-RCU-T-NewArch_svn_web_changes\Microchip\TCPIP Stack\SNMP.c
                  __pa_67   0x011530    program     static C:\pavan\1+1RCUTx\1-1-RCU-T-NewArch_svn_web_changes\Microchip\TCPIP Stack\MPFS2.c
                  __pa_67   0x00d2e4    program     static C:\pavan\1+1RCUTx\1-1-RCU-T-NewArch_svn_web_changes\AgilisDevices\BUCClient.c
                  __pa_67   0x0105fc    program     static C:\pavan\1+1RCUTx\1-1-RCU-T-NewArch_svn_web_changes\App\WebUI\AgilisHTTPPrint.c
                  __pa_67   0x00bc8c    program     static C:\pavan\1+1RCUTx\1-1-RCU-T-NewArch_svn_web_changes\AgilisDevices\RCUServer.c
                  __pa_67   0x009a8a    program     static C:\pavan\1+1RCUTx\1-1-RCU-T-NewArch_svn_web_changes\Microchip\TCPIP Stack\HTTP2.c
                  __pa_68   0x00d2ea    program     static C:\pavan\1+1RCUTx\1-1-RCU-T-NewArch_svn_web_changes\AgilisDevices\BUCClient.c
                  __pa_68   0x010608    program     static C:\pavan\1+1RCUTx\1-1-RCU-T-NewArch_svn_web_changes\App\WebUI\AgilisHTTPPrint.c
                  __pa_68   0x0070fc    program     static C:\pavan\1+1RCUTx\1-1-RCU-T-NewArch_svn_web_changes\Microchip\TCPIP Stack\SNMP.c
                  __pa_68   0x009a90    program     static C:\pavan\1+1RCUTx\1-1-RCU-T-NewArch_svn_web_changes\Microchip\TCPIP Stack\HTTP2.c
                  __pa_68   0x003344    program     static C:\pavan\1+1RCUTx\1-1-RCU-T-NewArch_svn_web_changes\Microchip\TCPIP Stack\TCP.c
                  __pa_68   0x01153a    program     static C:\pavan\1+1RCUTx\1-1-RCU-T-NewArch_svn_web_changes\Microchip\TCPIP Stack\MPFS2.c
                  __pa_68   0x00bc96    program     static C:\pavan\1+1RCUTx\1-1-RCU-T-NewArch_svn_web_changes\AgilisDevices\RCUServer.c
                  __pa_69   0x003352    program     static C:\pavan\1+1RCUTx\1-1-RCU-T-NewArch_svn_web_changes\Microchip\TCPIP Stack\TCP.c
                  __pa_69   0x010616    program     static C:\pavan\1+1RCUTx\1-1-RCU-T-NewArch_svn_web_changes\App\WebUI\AgilisHTTPPrint.c
                  __pa_69   0x007106    program     static C:\pavan\1+1RCUTx\1-1-RCU-T-NewArch_svn_web_changes\Microchip\TCPIP Stack\SNMP.c
                  __pa_69   0x00d2f0    program     static C:\pavan\1+1RCUTx\1-1-RCU-T-NewArch_svn_web_changes\AgilisDevices\BUCClient.c
                  __pa_69   0x00bca0    program     static C:\pavan\1+1RCUTx\1-1-RCU-T-NewArch_svn_web_changes\AgilisDevices\RCUServer.c
                  __pa_69   0x009a96    program     static C:\pavan\1+1RCUTx\1-1-RCU-T-NewArch_svn_web_changes\Microchip\TCPIP Stack\HTTP2.c
                   __pa_7   0x01c888    program     static C:\pavan\1+1RCUTx\1-1-RCU-T-NewArch_svn_web_changes\App\SNMP\AgilisSNMPLLBucDevInfo.c
                   __pa_7   0x00e4e8    program     static C:\pavan\1+1RCUTx\1-1-RCU-T-NewArch_svn_web_changes\App\SNMP\AgilisSNMPApp.c
                   __pa_7   0x01ba9e    program     static C:\pavan\1+1RCUTx\1-1-RCU-T-NewArch_svn_web_changes\App\SNMP\AgilisSNMPLLBUCOp.c
                   __pa_7   0x016ec6    program     static C:\pavan\1+1RCUTx\1-1-RCU-T-NewArch_svn_web_changes\Agilis-SysLib\util.c
                   __pa_7   0x019af0    program     static C:\pavan\1+1RCUTx\1-1-RCU-T-NewArch_svn_web_changes\App\SNMP\AgilisSNMPSysInfo.c
                   __pa_7   0x01ad2c    program     static C:\pavan\1+1RCUTx\1-1-RCU-T-NewArch_svn_web_changes\AgilisDevices\RCUHLAccess.c
                   __pa_7   0x01887c    program     static C:\pavan\1+1RCUTx\1-1-RCU-T-NewArch_svn_web_changes\Bootstrap\Initialization.c
                   __pa_7   0x01a2b0    program     static C:\pavan\1+1RCUTx\1-1-RCU-T-NewArch_svn_web_changes\App\Util\AgilisAppUtil.c
                   __pa_7   0x00cfb8    program     static C:\pavan\1+1RCUTx\1-1-RCU-T-NewArch_svn_web_changes\AgilisDevices\BUCClient.c
                   __pa_7   0x01a644    program     static C:\pavan\1+1RCUTx\1-1-RCU-T-NewArch_svn_web_changes\App\SNMP\AgilisSNMPLLRCUCmds.c
                   __pa_7   0x01b842    program     static C:\pavan\1+1RCUTx\1-1-RCU-T-NewArch_svn_web_changes\Agilis-SysLib\task.c
                   __pa_7   0x019e0e    program     static C:\pavan\1+1RCUTx\1-1-RCU-T-NewArch_svn_web_changes\App\SNMP\AgilisSNMPLLBUCStatus.c
                   __pa_7   0x00b906    program     static C:\pavan\1+1RCUTx\1-1-RCU-T-NewArch_svn_web_changes\AgilisDevices\RCUServer.c
                   __pa_7   0x0167a0    program     static C:\pavan\1+1RCUTx\1-1-RCU-T-NewArch_svn_web_changes\App\WebUI\AgilisHTTPGetDevInfo.c
                   __pa_7   0x01607c    program     static C:\pavan\1+1RCUTx\1-1-RCU-T-NewArch_svn_web_changes\App\WebUI\AgilisHTTPApp.c
                   __pa_7   0x00976c    program     static C:\pavan\1+1RCUTx\1-1-RCU-T-NewArch_svn_web_changes\Microchip\TCPIP Stack\HTTP2.c
                   __pa_7   0x0157ae    program     static C:\pavan\1+1RCUTx\1-1-RCU-T-NewArch_svn_web_changes\Microchip\TCPIP Stack\DHCP.c
                   __pa_7   0x006dc0    program     static C:\pavan\1+1RCUTx\1-1-RCU-T-NewArch_svn_web_changes\Microchip\TCPIP Stack\SNMP.c
                   __pa_7   0x018e38    program     static C:\pavan\1+1RCUTx\1-1-RCU-T-NewArch_svn_web_changes\Drivers\External-Peripherals\AgilisDualUART.c
                   __pa_7   0x0183a6    program     static C:\pavan\1+1RCUTx\1-1-RCU-T-NewArch_svn_web_changes\AgilisDevices\AgilisDeviceManager.c
                   __pa_7   0x012134    program     static C:\pavan\1+1RCUTx\1-1-RCU-T-NewArch_svn_web_changes\Microchip\TCPIP Stack\Helpers.c
                   __pa_7   0x00f5ee    program     static C:\pavan\1+1RCUTx\1-1-RCU-T-NewArch_svn_web_changes\Drivers\UARTISR.c
                   __pa_7   0x01b064    program     static C:\pavan\1+1RCUTx\1-1-RCU-T-NewArch_svn_web_changes\Microchip\TCPIP Stack\IP.c
                   __pa_7   0x01111e    program     static C:\pavan\1+1RCUTx\1-1-RCU-T-NewArch_svn_web_changes\Microchip\TCPIP Stack\MPFS2.c
                   __pa_7   0x013a76    program     static C:\pavan\1+1RCUTx\1-1-RCU-T-NewArch_svn_web_changes\Microchip\TCPIP Stack\ETH97J60.c
                   __pa_7   0x012d44    program     static C:\pavan\1+1RCUTx\1-1-RCU-T-NewArch_svn_web_changes\Microchip\TCPIP Stack\UDP.c
                   __pa_7   0x010316    program     static C:\pavan\1+1RCUTx\1-1-RCU-T-NewArch_svn_web_changes\App\WebUI\AgilisHTTPPrint.c
                   __pa_7   0x014f24    program     static C:\pavan\1+1RCUTx\1-1-RCU-T-NewArch_svn_web_changes\AgilisDevices\RCULLAccess.c
                   __pa_7   0x01a9c6    program     static C:\pavan\1+1RCUTx\1-1-RCU-T-NewArch_svn_web_changes\Drivers\AgilisUart.c
                   __pa_7   0x002ec6    program     static C:\pavan\1+1RCUTx\1-1-RCU-T-NewArch_svn_web_changes\Microchip\TCPIP Stack\TCP.c
                   __pa_7   0x0192d4    program     static C:\pavan\1+1RCUTx\1-1-RCU-T-NewArch_svn_web_changes\Microchip\TCPIP Stack\ARP.c
                   __pa_7   0x01b37c    program     static C:\pavan\1+1RCUTx\1-1-RCU-T-NewArch_svn_web_changes\Microchip\TCPIP Stack\SPIEEPROM.c
                   __pa_7   0x01758e    program     static C:\pavan\1+1RCUTx\1-1-RCU-T-NewArch_svn_web_changes\App\SerialIntf\AgilisProtocol\AgilisProtocol.c
                   __pa_7   0x01bf0e    program     static C:\pavan\1+1RCUTx\1-1-RCU-T-NewArch_svn_web_changes\Drivers\External-Peripherals\devadc.c
                  __pa_70   0x00bcb6    program     static C:\pavan\1+1RCUTx\1-1-RCU-T-NewArch_svn_web_changes\AgilisDevices\RCUServer.c
                  __pa_70   0x009aa0    program     static C:\pavan\1+1RCUTx\1-1-RCU-T-NewArch_svn_web_changes\Microchip\TCPIP Stack\HTTP2.c
                  __pa_70   0x003364    program     static C:\pavan\1+1RCUTx\1-1-RCU-T-NewArch_svn_web_changes\Microchip\TCPIP Stack\TCP.c
                  __pa_70   0x00d2fc    program     static C:\pavan\1+1RCUTx\1-1-RCU-T-NewArch_svn_web_changes\AgilisDevices\BUCClient.c
                  __pa_70   0x00710c    program     static C:\pavan\1+1RCUTx\1-1-RCU-T-NewArch_svn_web_changes\Microchip\TCPIP Stack\SNMP.c
                  __pa_70   0x01061a    program     static C:\pavan\1+1RCUTx\1-1-RCU-T-NewArch_svn_web_changes\App\WebUI\AgilisHTTPPrint.c
                  __pa_71   0x00bcbc    program     static C:\pavan\1+1RCUTx\1-1-RCU-T-NewArch_svn_web_changes\AgilisDevices\RCUServer.c
                  __pa_71   0x00d308    program     static C:\pavan\1+1RCUTx\1-1-RCU-T-NewArch_svn_web_changes\AgilisDevices\BUCClient.c
                  __pa_71   0x007124    program     static C:\pavan\1+1RCUTx\1-1-RCU-T-NewArch_svn_web_changes\Microchip\TCPIP Stack\SNMP.c
                  __pa_71   0x009aaa    program     static C:\pavan\1+1RCUTx\1-1-RCU-T-NewArch_svn_web_changes\Microchip\TCPIP Stack\HTTP2.c
                  __pa_71   0x003376    program     static C:\pavan\1+1RCUTx\1-1-RCU-T-NewArch_svn_web_changes\Microchip\TCPIP Stack\TCP.c
                  __pa_71   0x010622    program     static C:\pavan\1+1RCUTx\1-1-RCU-T-NewArch_svn_web_changes\App\WebUI\AgilisHTTPPrint.c
                  __pa_72   0x00bcc4    program     static C:\pavan\1+1RCUTx\1-1-RCU-T-NewArch_svn_web_changes\AgilisDevices\RCUServer.c
                  __pa_72   0x009ab6    program     static C:\pavan\1+1RCUTx\1-1-RCU-T-NewArch_svn_web_changes\Microchip\TCPIP Stack\HTTP2.c
                  __pa_72   0x010628    program     static C:\pavan\1+1RCUTx\1-1-RCU-T-NewArch_svn_web_changes\App\WebUI\AgilisHTTPPrint.c
                  __pa_72   0x00713c    program     static C:\pavan\1+1RCUTx\1-1-RCU-T-NewArch_svn_web_changes\Microchip\TCPIP Stack\SNMP.c
                  __pa_72   0x003388    program     static C:\pavan\1+1RCUTx\1-1-RCU-T-NewArch_svn_web_changes\Microchip\TCPIP Stack\TCP.c
                  __pa_72   0x00d312    program     static C:\pavan\1+1RCUTx\1-1-RCU-T-NewArch_svn_web_changes\AgilisDevices\BUCClient.c
                  __pa_73   0x007154    program     static C:\pavan\1+1RCUTx\1-1-RCU-T-NewArch_svn_web_changes\Microchip\TCPIP Stack\SNMP.c
                  __pa_73   0x00339a    program     static C:\pavan\1+1RCUTx\1-1-RCU-T-NewArch_svn_web_changes\Microchip\TCPIP Stack\TCP.c
                  __pa_73   0x009ac6    program     static C:\pavan\1+1RCUTx\1-1-RCU-T-NewArch_svn_web_changes\Microchip\TCPIP Stack\HTTP2.c
                  __pa_73   0x00bcce    program     static C:\pavan\1+1RCUTx\1-1-RCU-T-NewArch_svn_web_changes\AgilisDevices\RCUServer.c
                  __pa_73   0x00d31c    program     static C:\pavan\1+1RCUTx\1-1-RCU-T-NewArch_svn_web_changes\AgilisDevices\BUCClient.c
                  __pa_74   0x007158    program     static C:\pavan\1+1RCUTx\1-1-RCU-T-NewArch_svn_web_changes\Microchip\TCPIP Stack\SNMP.c
                  __pa_74   0x009ad0    program     static C:\pavan\1+1RCUTx\1-1-RCU-T-NewArch_svn_web_changes\Microchip\TCPIP Stack\HTTP2.c
                  __pa_74   0x00bce0    program     static C:\pavan\1+1RCUTx\1-1-RCU-T-NewArch_svn_web_changes\AgilisDevices\RCUServer.c
                  __pa_74   0x0033a4    program     static C:\pavan\1+1RCUTx\1-1-RCU-T-NewArch_svn_web_changes\Microchip\TCPIP Stack\TCP.c
                  __pa_74   0x00d322    program     static C:\pavan\1+1RCUTx\1-1-RCU-T-NewArch_svn_web_changes\AgilisDevices\BUCClient.c
                  __pa_75   0x00715e    program     static C:\pavan\1+1RCUTx\1-1-RCU-T-NewArch_svn_web_changes\Microchip\TCPIP Stack\SNMP.c
                  __pa_75   0x00d330    program     static C:\pavan\1+1RCUTx\1-1-RCU-T-NewArch_svn_web_changes\AgilisDevices\BUCClient.c
                  __pa_75   0x00bcf6    program     static C:\pavan\1+1RCUTx\1-1-RCU-T-NewArch_svn_web_changes\AgilisDevices\RCUServer.c
                  __pa_75   0x0033b6    program     static C:\pavan\1+1RCUTx\1-1-RCU-T-NewArch_svn_web_changes\Microchip\TCPIP Stack\TCP.c
                  __pa_75   0x009ad8    program     static C:\pavan\1+1RCUTx\1-1-RCU-T-NewArch_svn_web_changes\Microchip\TCPIP Stack\HTTP2.c
                  __pa_76   0x007168    program     static C:\pavan\1+1RCUTx\1-1-RCU-T-NewArch_svn_web_changes\Microchip\TCPIP Stack\SNMP.c
                  __pa_76   0x009ae0    program     static C:\pavan\1+1RCUTx\1-1-RCU-T-NewArch_svn_web_changes\Microchip\TCPIP Stack\HTTP2.c
                  __pa_76   0x00bd00    program     static C:\pavan\1+1RCUTx\1-1-RCU-T-NewArch_svn_web_changes\AgilisDevices\RCUServer.c
                  __pa_76   0x0033c0    program     static C:\pavan\1+1RCUTx\1-1-RCU-T-NewArch_svn_web_changes\Microchip\TCPIP Stack\TCP.c
                  __pa_76   0x00d340    program     static C:\pavan\1+1RCUTx\1-1-RCU-T-NewArch_svn_web_changes\AgilisDevices\BUCClient.c
                  __pa_77   0x00717e    program     static C:\pavan\1+1RCUTx\1-1-RCU-T-NewArch_svn_web_changes\Microchip\TCPIP Stack\SNMP.c
                  __pa_77   0x009ae8    program     static C:\pavan\1+1RCUTx\1-1-RCU-T-NewArch_svn_web_changes\Microchip\TCPIP Stack\HTTP2.c
                  __pa_77   0x0033ce    program     static C:\pavan\1+1RCUTx\1-1-RCU-T-NewArch_svn_web_changes\Microchip\TCPIP Stack\TCP.c
                  __pa_77   0x00bd0c    program     static C:\pavan\1+1RCUTx\1-1-RCU-T-NewArch_svn_web_changes\AgilisDevices\RCUServer.c
                  __pa_77   0x00d346    program     static C:\pavan\1+1RCUTx\1-1-RCU-T-NewArch_svn_web_changes\AgilisDevices\BUCClient.c
                  __pa_78   0x00718a    program     static C:\pavan\1+1RCUTx\1-1-RCU-T-NewArch_svn_web_changes\Microchip\TCPIP Stack\SNMP.c
                  __pa_78   0x0033dc    program     static C:\pavan\1+1RCUTx\1-1-RCU-T-NewArch_svn_web_changes\Microchip\TCPIP Stack\TCP.c
                  __pa_78   0x00d354    program     static C:\pavan\1+1RCUTx\1-1-RCU-T-NewArch_svn_web_changes\AgilisDevices\BUCClient.c
                  __pa_78   0x00bd1a    program     static C:\pavan\1+1RCUTx\1-1-RCU-T-NewArch_svn_web_changes\AgilisDevices\RCUServer.c
                  __pa_78   0x009af6    program     static C:\pavan\1+1RCUTx\1-1-RCU-T-NewArch_svn_web_changes\Microchip\TCPIP Stack\HTTP2.c
                  __pa_79   0x00bd28    program     static C:\pavan\1+1RCUTx\1-1-RCU-T-NewArch_svn_web_changes\AgilisDevices\RCUServer.c
                  __pa_79   0x00d35a    program     static C:\pavan\1+1RCUTx\1-1-RCU-T-NewArch_svn_web_changes\AgilisDevices\BUCClient.c
                  __pa_79   0x0033ea    program     static C:\pavan\1+1RCUTx\1-1-RCU-T-NewArch_svn_web_changes\Microchip\TCPIP Stack\TCP.c
                  __pa_79   0x009b04    program     static C:\pavan\1+1RCUTx\1-1-RCU-T-NewArch_svn_web_changes\Microchip\TCPIP Stack\HTTP2.c
                  __pa_79   0x007198    program     static C:\pavan\1+1RCUTx\1-1-RCU-T-NewArch_svn_web_changes\Microchip\TCPIP Stack\SNMP.c
                   __pa_8   0x01b072    program     static C:\pavan\1+1RCUTx\1-1-RCU-T-NewArch_svn_web_changes\Microchip\TCPIP Stack\IP.c
                   __pa_8   0x019b02    program     static C:\pavan\1+1RCUTx\1-1-RCU-T-NewArch_svn_web_changes\App\SNMP\AgilisSNMPSysInfo.c
                   __pa_8   0x01a64e    program     static C:\pavan\1+1RCUTx\1-1-RCU-T-NewArch_svn_web_changes\App\SNMP\AgilisSNMPLLRCUCmds.c
                   __pa_8   0x00f5f6    program     static C:\pavan\1+1RCUTx\1-1-RCU-T-NewArch_svn_web_changes\Drivers\UARTISR.c
                   __pa_8   0x013a80    program     static C:\pavan\1+1RCUTx\1-1-RCU-T-NewArch_svn_web_changes\Microchip\TCPIP Stack\ETH97J60.c
                   __pa_8   0x011126    program     static C:\pavan\1+1RCUTx\1-1-RCU-T-NewArch_svn_web_changes\Microchip\TCPIP Stack\MPFS2.c
                   __pa_8   0x01bf20    program     static C:\pavan\1+1RCUTx\1-1-RCU-T-NewArch_svn_web_changes\Drivers\External-Peripherals\devadc.c
                   __pa_8   0x01b38c    program     static C:\pavan\1+1RCUTx\1-1-RCU-T-NewArch_svn_web_changes\Microchip\TCPIP Stack\SPIEEPROM.c
                   __pa_8   0x01b850    program     static C:\pavan\1+1RCUTx\1-1-RCU-T-NewArch_svn_web_changes\Agilis-SysLib\task.c
                   __pa_8   0x0175b0    program     static C:\pavan\1+1RCUTx\1-1-RCU-T-NewArch_svn_web_changes\App\SerialIntf\AgilisProtocol\AgilisProtocol.c
                   __pa_8   0x0192e2    program     static C:\pavan\1+1RCUTx\1-1-RCU-T-NewArch_svn_web_changes\Microchip\TCPIP Stack\ARP.c
                   __pa_8   0x002ee8    program     static C:\pavan\1+1RCUTx\1-1-RCU-T-NewArch_svn_web_changes\Microchip\TCPIP Stack\TCP.c
                   __pa_8   0x012d4a    program     static C:\pavan\1+1RCUTx\1-1-RCU-T-NewArch_svn_web_changes\Microchip\TCPIP Stack\UDP.c
                   __pa_8   0x01031c    program     static C:\pavan\1+1RCUTx\1-1-RCU-T-NewArch_svn_web_changes\App\WebUI\AgilisHTTPPrint.c
                   __pa_8   0x014f30    program     static C:\pavan\1+1RCUTx\1-1-RCU-T-NewArch_svn_web_changes\AgilisDevices\RCULLAccess.c
                   __pa_8   0x01a9d0    program     static C:\pavan\1+1RCUTx\1-1-RCU-T-NewArch_svn_web_changes\Drivers\AgilisUart.c
                   __pa_8   0x01889c    program     static C:\pavan\1+1RCUTx\1-1-RCU-T-NewArch_svn_web_changes\Bootstrap\Initialization.c
                   __pa_8   0x01a2be    program     static C:\pavan\1+1RCUTx\1-1-RCU-T-NewArch_svn_web_changes\App\Util\AgilisAppUtil.c
                   __pa_8   0x00b910    program     static C:\pavan\1+1RCUTx\1-1-RCU-T-NewArch_svn_web_changes\AgilisDevices\RCUServer.c
                   __pa_8   0x00e4f6    program     static C:\pavan\1+1RCUTx\1-1-RCU-T-NewArch_svn_web_changes\App\SNMP\AgilisSNMPApp.c
                   __pa_8   0x016088    program     static C:\pavan\1+1RCUTx\1-1-RCU-T-NewArch_svn_web_changes\App\WebUI\AgilisHTTPApp.c
                   __pa_8   0x0167b0    program     static C:\pavan\1+1RCUTx\1-1-RCU-T-NewArch_svn_web_changes\App\WebUI\AgilisHTTPGetDevInfo.c
                   __pa_8   0x00cfce    program     static C:\pavan\1+1RCUTx\1-1-RCU-T-NewArch_svn_web_changes\AgilisDevices\BUCClient.c
                   __pa_8   0x01c8a0    program     static C:\pavan\1+1RCUTx\1-1-RCU-T-NewArch_svn_web_changes\App\SNMP\AgilisSNMPLLBucDevInfo.c
                   __pa_8   0x009788    program     static C:\pavan\1+1RCUTx\1-1-RCU-T-NewArch_svn_web_changes\Microchip\TCPIP Stack\HTTP2.c
                   __pa_8   0x01bab4    program     static C:\pavan\1+1RCUTx\1-1-RCU-T-NewArch_svn_web_changes\App\SNMP\AgilisSNMPLLBUCOp.c
                   __pa_8   0x019e14    program     static C:\pavan\1+1RCUTx\1-1-RCU-T-NewArch_svn_web_changes\App\SNMP\AgilisSNMPLLBUCStatus.c
                   __pa_8   0x0157ca    program     static C:\pavan\1+1RCUTx\1-1-RCU-T-NewArch_svn_web_changes\Microchip\TCPIP Stack\DHCP.c
                   __pa_8   0x01ad34    program     static C:\pavan\1+1RCUTx\1-1-RCU-T-NewArch_svn_web_changes\AgilisDevices\RCUHLAccess.c
                   __pa_8   0x018e40    program     static C:\pavan\1+1RCUTx\1-1-RCU-T-NewArch_svn_web_changes\Drivers\External-Peripherals\AgilisDualUART.c
                   __pa_8   0x006dce    program     static C:\pavan\1+1RCUTx\1-1-RCU-T-NewArch_svn_web_changes\Microchip\TCPIP Stack\SNMP.c
                   __pa_8   0x012146    program     static C:\pavan\1+1RCUTx\1-1-RCU-T-NewArch_svn_web_changes\Microchip\TCPIP Stack\Helpers.c
                   __pa_8   0x0183ae    program     static C:\pavan\1+1RCUTx\1-1-RCU-T-NewArch_svn_web_changes\AgilisDevices\AgilisDeviceManager.c
                   __pa_8   0x016ed8    program     static C:\pavan\1+1RCUTx\1-1-RCU-T-NewArch_svn_web_changes\Agilis-SysLib\util.c
                  __pa_80   0x0071a6    program     static C:\pavan\1+1RCUTx\1-1-RCU-T-NewArch_svn_web_changes\Microchip\TCPIP Stack\SNMP.c
                  __pa_80   0x00d360    program     static C:\pavan\1+1RCUTx\1-1-RCU-T-NewArch_svn_web_changes\AgilisDevices\BUCClient.c
                  __pa_80   0x0033f8    program     static C:\pavan\1+1RCUTx\1-1-RCU-T-NewArch_svn_web_changes\Microchip\TCPIP Stack\TCP.c
                  __pa_80   0x009b12    program     static C:\pavan\1+1RCUTx\1-1-RCU-T-NewArch_svn_web_changes\Microchip\TCPIP Stack\HTTP2.c
                  __pa_80   0x00bd2e    program     static C:\pavan\1+1RCUTx\1-1-RCU-T-NewArch_svn_web_changes\AgilisDevices\RCUServer.c
                  __pa_81   0x009b20    program     static C:\pavan\1+1RCUTx\1-1-RCU-T-NewArch_svn_web_changes\Microchip\TCPIP Stack\HTTP2.c
                  __pa_81   0x003400    program     static C:\pavan\1+1RCUTx\1-1-RCU-T-NewArch_svn_web_changes\Microchip\TCPIP Stack\TCP.c
                  __pa_81   0x00bd34    program     static C:\pavan\1+1RCUTx\1-1-RCU-T-NewArch_svn_web_changes\AgilisDevices\RCUServer.c
                  __pa_81   0x00d368    program     static C:\pavan\1+1RCUTx\1-1-RCU-T-NewArch_svn_web_changes\AgilisDevices\BUCClient.c
                  __pa_81   0x0071b4    program     static C:\pavan\1+1RCUTx\1-1-RCU-T-NewArch_svn_web_changes\Microchip\TCPIP Stack\SNMP.c
                  __pa_82   0x00340c    program     static C:\pavan\1+1RCUTx\1-1-RCU-T-NewArch_svn_web_changes\Microchip\TCPIP Stack\TCP.c
                  __pa_82   0x00bd3a    program     static C:\pavan\1+1RCUTx\1-1-RCU-T-NewArch_svn_web_changes\AgilisDevices\RCUServer.c
                  __pa_82   0x00d36e    program     static C:\pavan\1+1RCUTx\1-1-RCU-T-NewArch_svn_web_changes\AgilisDevices\BUCClient.c
                  __pa_82   0x009b2e    program     static C:\pavan\1+1RCUTx\1-1-RCU-T-NewArch_svn_web_changes\Microchip\TCPIP Stack\HTTP2.c
                  __pa_82   0x0071c2    program     static C:\pavan\1+1RCUTx\1-1-RCU-T-NewArch_svn_web_changes\Microchip\TCPIP Stack\SNMP.c
                  __pa_83   0x009b3c    program     static C:\pavan\1+1RCUTx\1-1-RCU-T-NewArch_svn_web_changes\Microchip\TCPIP Stack\HTTP2.c
                  __pa_83   0x003416    program     static C:\pavan\1+1RCUTx\1-1-RCU-T-NewArch_svn_web_changes\Microchip\TCPIP Stack\TCP.c
                  __pa_83   0x00d374    program     static C:\pavan\1+1RCUTx\1-1-RCU-T-NewArch_svn_web_changes\AgilisDevices\BUCClient.c
                  __pa_83   0x0071d0    program     static C:\pavan\1+1RCUTx\1-1-RCU-T-NewArch_svn_web_changes\Microchip\TCPIP Stack\SNMP.c
                  __pa_83   0x00bd4c    program     static C:\pavan\1+1RCUTx\1-1-RCU-T-NewArch_svn_web_changes\AgilisDevices\RCUServer.c
                  __pa_84   0x009b4a    program     static C:\pavan\1+1RCUTx\1-1-RCU-T-NewArch_svn_web_changes\Microchip\TCPIP Stack\HTTP2.c
                  __pa_84   0x003420    program     static C:\pavan\1+1RCUTx\1-1-RCU-T-NewArch_svn_web_changes\Microchip\TCPIP Stack\TCP.c
                  __pa_84   0x00d37a    program     static C:\pavan\1+1RCUTx\1-1-RCU-T-NewArch_svn_web_changes\AgilisDevices\BUCClient.c
                  __pa_84   0x00bd58    program     static C:\pavan\1+1RCUTx\1-1-RCU-T-NewArch_svn_web_changes\AgilisDevices\RCUServer.c
                  __pa_84   0x0071da    program     static C:\pavan\1+1RCUTx\1-1-RCU-T-NewArch_svn_web_changes\Microchip\TCPIP Stack\SNMP.c
                  __pa_85   0x00bd62    program     static C:\pavan\1+1RCUTx\1-1-RCU-T-NewArch_svn_web_changes\AgilisDevices\RCUServer.c
                  __pa_85   0x009b58    program     static C:\pavan\1+1RCUTx\1-1-RCU-T-NewArch_svn_web_changes\Microchip\TCPIP Stack\HTTP2.c
                  __pa_85   0x00342a    program     static C:\pavan\1+1RCUTx\1-1-RCU-T-NewArch_svn_web_changes\Microchip\TCPIP Stack\TCP.c
                  __pa_85   0x0071e4    program     static C:\pavan\1+1RCUTx\1-1-RCU-T-NewArch_svn_web_changes\Microchip\TCPIP Stack\SNMP.c
                  __pa_85   0x00d380    program     static C:\pavan\1+1RCUTx\1-1-RCU-T-NewArch_svn_web_changes\AgilisDevices\BUCClient.c
                  __pa_86   0x0071ea    program     static C:\pavan\1+1RCUTx\1-1-RCU-T-NewArch_svn_web_changes\Microchip\TCPIP Stack\SNMP.c
                  __pa_86   0x00bd6e    program     static C:\pavan\1+1RCUTx\1-1-RCU-T-NewArch_svn_web_changes\AgilisDevices\RCUServer.c
                  __pa_86   0x003434    program     static C:\pavan\1+1RCUTx\1-1-RCU-T-NewArch_svn_web_changes\Microchip\TCPIP Stack\TCP.c
                  __pa_86   0x00d386    program     static C:\pavan\1+1RCUTx\1-1-RCU-T-NewArch_svn_web_changes\AgilisDevices\BUCClient.c
                  __pa_86   0x009b66    program     static C:\pavan\1+1RCUTx\1-1-RCU-T-NewArch_svn_web_changes\Microchip\TCPIP Stack\HTTP2.c
                  __pa_87   0x00bd76    program     static C:\pavan\1+1RCUTx\1-1-RCU-T-NewArch_svn_web_changes\AgilisDevices\RCUServer.c
                  __pa_87   0x003444    program     static C:\pavan\1+1RCUTx\1-1-RCU-T-NewArch_svn_web_changes\Microchip\TCPIP Stack\TCP.c
                  __pa_87   0x00d390    program     static C:\pavan\1+1RCUTx\1-1-RCU-T-NewArch_svn_web_changes\AgilisDevices\BUCClient.c
                  __pa_87   0x0071f4    program     static C:\pavan\1+1RCUTx\1-1-RCU-T-NewArch_svn_web_changes\Microchip\TCPIP Stack\SNMP.c
                  __pa_87   0x009b70    program     static C:\pavan\1+1RCUTx\1-1-RCU-T-NewArch_svn_web_changes\Microchip\TCPIP Stack\HTTP2.c
                  __pa_88   0x009b7a    program     static C:\pavan\1+1RCUTx\1-1-RCU-T-NewArch_svn_web_changes\Microchip\TCPIP Stack\HTTP2.c
                  __pa_88   0x0071fc    program     static C:\pavan\1+1RCUTx\1-1-RCU-T-NewArch_svn_web_changes\Microchip\TCPIP Stack\SNMP.c
                  __pa_88   0x00bd80    program     static C:\pavan\1+1RCUTx\1-1-RCU-T-NewArch_svn_web_changes\AgilisDevices\RCUServer.c
                  __pa_88   0x00d396    program     static C:\pavan\1+1RCUTx\1-1-RCU-T-NewArch_svn_web_changes\AgilisDevices\BUCClient.c
                  __pa_88   0x003452    program     static C:\pavan\1+1RCUTx\1-1-RCU-T-NewArch_svn_web_changes\Microchip\TCPIP Stack\TCP.c
                  __pa_89   0x00346c    program     static C:\pavan\1+1RCUTx\1-1-RCU-T-NewArch_svn_web_changes\Microchip\TCPIP Stack\TCP.c
                  __pa_89   0x009b90    program     static C:\pavan\1+1RCUTx\1-1-RCU-T-NewArch_svn_web_changes\Microchip\TCPIP Stack\HTTP2.c
                  __pa_89   0x00d3a0    program     static C:\pavan\1+1RCUTx\1-1-RCU-T-NewArch_svn_web_changes\AgilisDevices\BUCClient.c
                  __pa_89   0x007204    program     static C:\pavan\1+1RCUTx\1-1-RCU-T-NewArch_svn_web_changes\Microchip\TCPIP Stack\SNMP.c
                  __pa_89   0x00bd8a    program     static C:\pavan\1+1RCUTx\1-1-RCU-T-NewArch_svn_web_changes\AgilisDevices\RCUServer.c
                   __pa_9   0x0157fa    program     static C:\pavan\1+1RCUTx\1-1-RCU-T-NewArch_svn_web_changes\Microchip\TCPIP Stack\DHCP.c
                   __pa_9   0x019e2a    program     static C:\pavan\1+1RCUTx\1-1-RCU-T-NewArch_svn_web_changes\App\SNMP\AgilisSNMPLLBUCStatus.c
                   __pa_9   0x012150    program     static C:\pavan\1+1RCUTx\1-1-RCU-T-NewArch_svn_web_changes\Microchip\TCPIP Stack\Helpers.c
                   __pa_9   0x016ee8    program     static C:\pavan\1+1RCUTx\1-1-RCU-T-NewArch_svn_web_changes\Agilis-SysLib\util.c
                   __pa_9   0x01a656    program     static C:\pavan\1+1RCUTx\1-1-RCU-T-NewArch_svn_web_changes\App\SNMP\AgilisSNMPLLRCUCmds.c
                   __pa_9   0x01b080    program     static C:\pavan\1+1RCUTx\1-1-RCU-T-NewArch_svn_web_changes\Microchip\TCPIP Stack\IP.c
                   __pa_9   0x019b0e    program     static C:\pavan\1+1RCUTx\1-1-RCU-T-NewArch_svn_web_changes\App\SNMP\AgilisSNMPSysInfo.c
                   __pa_9   0x013a8e    program     static C:\pavan\1+1RCUTx\1-1-RCU-T-NewArch_svn_web_changes\Microchip\TCPIP Stack\ETH97J60.c
                   __pa_9   0x01b858    program     static C:\pavan\1+1RCUTx\1-1-RCU-T-NewArch_svn_web_changes\Agilis-SysLib\task.c
                   __pa_9   0x0192f0    program     static C:\pavan\1+1RCUTx\1-1-RCU-T-NewArch_svn_web_changes\Microchip\TCPIP Stack\ARP.c
                   __pa_9   0x012d52    program     static C:\pavan\1+1RCUTx\1-1-RCU-T-NewArch_svn_web_changes\Microchip\TCPIP Stack\UDP.c
                   __pa_9   0x01bac6    program     static C:\pavan\1+1RCUTx\1-1-RCU-T-NewArch_svn_web_changes\App\SNMP\AgilisSNMPLLBUCOp.c
                   __pa_9   0x01c8a6    program     static C:\pavan\1+1RCUTx\1-1-RCU-T-NewArch_svn_web_changes\App\SNMP\AgilisSNMPLLBucDevInfo.c
                   __pa_9   0x0167c0    program     static C:\pavan\1+1RCUTx\1-1-RCU-T-NewArch_svn_web_changes\App\WebUI\AgilisHTTPGetDevInfo.c
                   __pa_9   0x009796    program     static C:\pavan\1+1RCUTx\1-1-RCU-T-NewArch_svn_web_changes\Microchip\TCPIP Stack\HTTP2.c
                   __pa_9   0x016096    program     static C:\pavan\1+1RCUTx\1-1-RCU-T-NewArch_svn_web_changes\App\WebUI\AgilisHTTPApp.c
                   __pa_9   0x00cfe0    program     static C:\pavan\1+1RCUTx\1-1-RCU-T-NewArch_svn_web_changes\AgilisDevices\BUCClient.c
                   __pa_9   0x018e48    program     static C:\pavan\1+1RCUTx\1-1-RCU-T-NewArch_svn_web_changes\Drivers\External-Peripherals\AgilisDualUART.c
                   __pa_9   0x00f600    program     static C:\pavan\1+1RCUTx\1-1-RCU-T-NewArch_svn_web_changes\Drivers\UARTISR.c
                   __pa_9   0x01112c    program     static C:\pavan\1+1RCUTx\1-1-RCU-T-NewArch_svn_web_changes\Microchip\TCPIP Stack\MPFS2.c
                   __pa_9   0x0175be    program     static C:\pavan\1+1RCUTx\1-1-RCU-T-NewArch_svn_web_changes\App\SerialIntf\AgilisProtocol\AgilisProtocol.c
                   __pa_9   0x01a9de    program     static C:\pavan\1+1RCUTx\1-1-RCU-T-NewArch_svn_web_changes\Drivers\AgilisUart.c
                   __pa_9   0x00b91e    program     static C:\pavan\1+1RCUTx\1-1-RCU-T-NewArch_svn_web_changes\AgilisDevices\RCUServer.c
                   __pa_9   0x010322    program     static C:\pavan\1+1RCUTx\1-1-RCU-T-NewArch_svn_web_changes\App\WebUI\AgilisHTTPPrint.c
                   __pa_9   0x006ddc    program     static C:\pavan\1+1RCUTx\1-1-RCU-T-NewArch_svn_web_changes\Microchip\TCPIP Stack\SNMP.c
                   __pa_9   0x00e50c    program     static C:\pavan\1+1RCUTx\1-1-RCU-T-NewArch_svn_web_changes\App\SNMP\AgilisSNMPApp.c
                   __pa_9   0x014f3e    program     static C:\pavan\1+1RCUTx\1-1-RCU-T-NewArch_svn_web_changes\AgilisDevices\RCULLAccess.c
                   __pa_9   0x002f10    program     static C:\pavan\1+1RCUTx\1-1-RCU-T-NewArch_svn_web_changes\Microchip\TCPIP Stack\TCP.c
                   __pa_9   0x01ad42    program     static C:\pavan\1+1RCUTx\1-1-RCU-T-NewArch_svn_web_changes\AgilisDevices\RCUHLAccess.c
                   __pa_9   0x01a2cc    program     static C:\pavan\1+1RCUTx\1-1-RCU-T-NewArch_svn_web_changes\App\Util\AgilisAppUtil.c
                   __pa_9   0x0188a4    program     static C:\pavan\1+1RCUTx\1-1-RCU-T-NewArch_svn_web_changes\Bootstrap\Initialization.c
                  __pa_90   0x00bd90    program     static C:\pavan\1+1RCUTx\1-1-RCU-T-NewArch_svn_web_changes\AgilisDevices\RCUServer.c
                  __pa_90   0x003474    program     static C:\pavan\1+1RCUTx\1-1-RCU-T-NewArch_svn_web_changes\Microchip\TCPIP Stack\TCP.c
                  __pa_90   0x00720c    program     static C:\pavan\1+1RCUTx\1-1-RCU-T-NewArch_svn_web_changes\Microchip\TCPIP Stack\SNMP.c
                  __pa_90   0x00d3a8    program     static C:\pavan\1+1RCUTx\1-1-RCU-T-NewArch_svn_web_changes\AgilisDevices\BUCClient.c
                  __pa_90   0x009b96    program     static C:\pavan\1+1RCUTx\1-1-RCU-T-NewArch_svn_web_changes\Microchip\TCPIP Stack\HTTP2.c
                  __pa_91   0x00d3ae    program     static C:\pavan\1+1RCUTx\1-1-RCU-T-NewArch_svn_web_changes\AgilisDevices\BUCClient.c
                  __pa_91   0x009ba4    program     static C:\pavan\1+1RCUTx\1-1-RCU-T-NewArch_svn_web_changes\Microchip\TCPIP Stack\HTTP2.c
                  __pa_91   0x007218    program     static C:\pavan\1+1RCUTx\1-1-RCU-T-NewArch_svn_web_changes\Microchip\TCPIP Stack\SNMP.c
                  __pa_91   0x00bd9e    program     static C:\pavan\1+1RCUTx\1-1-RCU-T-NewArch_svn_web_changes\AgilisDevices\RCUServer.c
                  __pa_91   0x00347e    program     static C:\pavan\1+1RCUTx\1-1-RCU-T-NewArch_svn_web_changes\Microchip\TCPIP Stack\TCP.c
                  __pa_92   0x009bae    program     static C:\pavan\1+1RCUTx\1-1-RCU-T-NewArch_svn_web_changes\Microchip\TCPIP Stack\HTTP2.c
                  __pa_92   0x00d3b6    program     static C:\pavan\1+1RCUTx\1-1-RCU-T-NewArch_svn_web_changes\AgilisDevices\BUCClient.c
                  __pa_92   0x007220    program     static C:\pavan\1+1RCUTx\1-1-RCU-T-NewArch_svn_web_changes\Microchip\TCPIP Stack\SNMP.c
                  __pa_92   0x00bdaa    program     static C:\pavan\1+1RCUTx\1-1-RCU-T-NewArch_svn_web_changes\AgilisDevices\RCUServer.c
                  __pa_92   0x003488    program     static C:\pavan\1+1RCUTx\1-1-RCU-T-NewArch_svn_web_changes\Microchip\TCPIP Stack\TCP.c
                  __pa_93   0x009bb8    program     static C:\pavan\1+1RCUTx\1-1-RCU-T-NewArch_svn_web_changes\Microchip\TCPIP Stack\HTTP2.c
                  __pa_93   0x00d3c0    program     static C:\pavan\1+1RCUTx\1-1-RCU-T-NewArch_svn_web_changes\AgilisDevices\BUCClient.c
                  __pa_93   0x00722c    program     static C:\pavan\1+1RCUTx\1-1-RCU-T-NewArch_svn_web_changes\Microchip\TCPIP Stack\SNMP.c
                  __pa_93   0x00bdb8    program     static C:\pavan\1+1RCUTx\1-1-RCU-T-NewArch_svn_web_changes\AgilisDevices\RCUServer.c
                  __pa_93   0x003492    program     static C:\pavan\1+1RCUTx\1-1-RCU-T-NewArch_svn_web_changes\Microchip\TCPIP Stack\TCP.c
                  __pa_94   0x00349c    program     static C:\pavan\1+1RCUTx\1-1-RCU-T-NewArch_svn_web_changes\Microchip\TCPIP Stack\TCP.c
                  __pa_94   0x007232    program     static C:\pavan\1+1RCUTx\1-1-RCU-T-NewArch_svn_web_changes\Microchip\TCPIP Stack\SNMP.c
                  __pa_94   0x009bc2    program     static C:\pavan\1+1RCUTx\1-1-RCU-T-NewArch_svn_web_changes\Microchip\TCPIP Stack\HTTP2.c
                  __pa_94   0x00bdc6    program     static C:\pavan\1+1RCUTx\1-1-RCU-T-NewArch_svn_web_changes\AgilisDevices\RCUServer.c
                  __pa_94   0x00d3c8    program     static C:\pavan\1+1RCUTx\1-1-RCU-T-NewArch_svn_web_changes\AgilisDevices\BUCClient.c
                  __pa_95   0x00723a    program     static C:\pavan\1+1RCUTx\1-1-RCU-T-NewArch_svn_web_changes\Microchip\TCPIP Stack\SNMP.c
                  __pa_95   0x0034a6    program     static C:\pavan\1+1RCUTx\1-1-RCU-T-NewArch_svn_web_changes\Microchip\TCPIP Stack\TCP.c
                  __pa_95   0x009bd0    program     static C:\pavan\1+1RCUTx\1-1-RCU-T-NewArch_svn_web_changes\Microchip\TCPIP Stack\HTTP2.c
                  __pa_95   0x00bdce    program     static C:\pavan\1+1RCUTx\1-1-RCU-T-NewArch_svn_web_changes\AgilisDevices\RCUServer.c
                  __pa_95   0x00d3d0    program     static C:\pavan\1+1RCUTx\1-1-RCU-T-NewArch_svn_web_changes\AgilisDevices\BUCClient.c
                  __pa_96   0x007240    program     static C:\pavan\1+1RCUTx\1-1-RCU-T-NewArch_svn_web_changes\Microchip\TCPIP Stack\SNMP.c
                  __pa_96   0x0034be    program     static C:\pavan\1+1RCUTx\1-1-RCU-T-NewArch_svn_web_changes\Microchip\TCPIP Stack\TCP.c
                  __pa_96   0x009bde    program     static C:\pavan\1+1RCUTx\1-1-RCU-T-NewArch_svn_web_changes\Microchip\TCPIP Stack\HTTP2.c
                  __pa_96   0x00bdd6    program     static C:\pavan\1+1RCUTx\1-1-RCU-T-NewArch_svn_web_changes\AgilisDevices\RCUServer.c
                  __pa_96   0x00d3d6    program     static C:\pavan\1+1RCUTx\1-1-RCU-T-NewArch_svn_web_changes\AgilisDevices\BUCClient.c
                  __pa_97   0x007246    program     static C:\pavan\1+1RCUTx\1-1-RCU-T-NewArch_svn_web_changes\Microchip\TCPIP Stack\SNMP.c
                  __pa_97   0x0034cc    program     static C:\pavan\1+1RCUTx\1-1-RCU-T-NewArch_svn_web_changes\Microchip\TCPIP Stack\TCP.c
                  __pa_97   0x009be6    program     static C:\pavan\1+1RCUTx\1-1-RCU-T-NewArch_svn_web_changes\Microchip\TCPIP Stack\HTTP2.c
                  __pa_97   0x00d3e0    program     static C:\pavan\1+1RCUTx\1-1-RCU-T-NewArch_svn_web_changes\AgilisDevices\BUCClient.c
                  __pa_97   0x00bdde    program     static C:\pavan\1+1RCUTx\1-1-RCU-T-NewArch_svn_web_changes\AgilisDevices\RCUServer.c
                  __pa_98   0x0034e4    program     static C:\pavan\1+1RCUTx\1-1-RCU-T-NewArch_svn_web_changes\Microchip\TCPIP Stack\TCP.c
                  __pa_98   0x007252    program     static C:\pavan\1+1RCUTx\1-1-RCU-T-NewArch_svn_web_changes\Microchip\TCPIP Stack\SNMP.c
                  __pa_98   0x009bfc    program     static C:\pavan\1+1RCUTx\1-1-RCU-T-NewArch_svn_web_changes\Microchip\TCPIP Stack\HTTP2.c
                  __pa_98   0x00d3f2    program     static C:\pavan\1+1RCUTx\1-1-RCU-T-NewArch_svn_web_changes\AgilisDevices\BUCClient.c
                  __pa_98   0x00bde4    program     static C:\pavan\1+1RCUTx\1-1-RCU-T-NewArch_svn_web_changes\AgilisDevices\RCUServer.c
                  __pa_99   0x00725e    program     static C:\pavan\1+1RCUTx\1-1-RCU-T-NewArch_svn_web_changes\Microchip\TCPIP Stack\SNMP.c
                  __pa_99   0x009c02    program     static C:\pavan\1+1RCUTx\1-1-RCU-T-NewArch_svn_web_changes\Microchip\TCPIP Stack\HTTP2.c
                  __pa_99   0x00d3f8    program     static C:\pavan\1+1RCUTx\1-1-RCU-T-NewArch_svn_web_changes\AgilisDevices\BUCClient.c
                  __pa_99   0x00bdee    program     static C:\pavan\1+1RCUTx\1-1-RCU-T-NewArch_svn_web_changes\AgilisDevices\RCUServer.c
                  __pa_99   0x0034f4    program     static C:\pavan\1+1RCUTx\1-1-RCU-T-NewArch_svn_web_changes\Microchip\TCPIP Stack\TCP.c
               __string_0   0x0145f7    program     static C:\pavan\1+1RCUTx\1-1-RCU-T-NewArch_svn_web_changes\AgilisDevices\RCULLAccess.c
               __string_0   0x013c07    program     static C:\pavan\1+1RCUTx\1-1-RCU-T-NewArch_svn_web_changes\Bootstrap\Initialization.c
               __string_0   0x0145eb    program     static C:\pavan\1+1RCUTx\1-1-RCU-T-NewArch_svn_web_changes\App\WebUI\AgilisHTTPPrint.c
               __string_0   0x0143a7    program     static C:\pavan\1+1RCUTx\1-1-RCU-T-NewArch_svn_web_changes\Drivers\AgilisUart.c
               __string_0   0x01444f    program     static C:\pavan\1+1RCUTx\1-1-RCU-T-NewArch_svn_web_changes\App\WebUI\AgilisHTTPApp.c
               __string_0   0x014623    program     static C:\pavan\1+1RCUTx\1-1-RCU-T-NewArch_svn_web_changes\AgilisDevices\RCUServer.c
               __string_0   0x0144e9    program     static C:\pavan\1+1RCUTx\1-1-RCU-T-NewArch_svn_web_changes\App\WebUI\AgilisHTTPGetDevInfo.c
               __string_0   0x013bd8    program     static C:\pavan\1+1RCUTx\1-1-RCU-T-NewArch_svn_web_changes\Main\Main.c
               __string_0   0x01438c    program     static C:\pavan\1+1RCUTx\1-1-RCU-T-NewArch_svn_web_changes\App\SerialIntf\AgilisProtocol\AgilisProtocol.c
               __string_0   0x014605    program     static C:\pavan\1+1RCUTx\1-1-RCU-T-NewArch_svn_web_changes\App\Util\AgilisAppUtil.c
               __string_0   0x014663    program     static C:\pavan\1+1RCUTx\1-1-RCU-T-NewArch_svn_web_changes\AgilisDevices\BUCClient.c
               __string_0   0x013bb2    program     static C:\pavan\1+1RCUTx\1-1-RCU-T-NewArch_svn_web_changes\Agilis-SysLib\util.c
               __string_0   0x0145fd    program     static C:\pavan\1+1RCUTx\1-1-RCU-T-NewArch_svn_web_changes\AgilisDevices\RCUHLAccess.c
               __string_0   0x0145ee    program     static C:\pavan\1+1RCUTx\1-1-RCU-T-NewArch_svn_web_changes\Microchip\TCPIP Stack\SNMP.c
               __string_0   0x014667    program     static C:\pavan\1+1RCUTx\1-1-RCU-T-NewArch_svn_web_changes\App\SNMP\AgilisSNMPLLBUCOp.c
               __string_0   0x014385    program     static C:\pavan\1+1RCUTx\1-1-RCU-T-NewArch_svn_web_changes\Microchip\TCPIP Stack\MPFS2.c
               __string_0   0x01437a    program     static C:\pavan\1+1RCUTx\1-1-RCU-T-NewArch_svn_web_changes\Microchip\TCPIP Stack\HTTP2.c
               __string_0   0x01466f    program     static C:\pavan\1+1RCUTx\1-1-RCU-T-NewArch_svn_web_changes\App\SNMP\AgilisSNMPLLBUCStatus.c
               __string_1   0x0144e6    program     static C:\pavan\1+1RCUTx\1-1-RCU-T-NewArch_svn_web_changes\App\WebUI\AgilisHTTPGetDevInfo.c
               __string_1   0x0143a1    program     static C:\pavan\1+1RCUTx\1-1-RCU-T-NewArch_svn_web_changes\Drivers\AgilisUart.c
               __string_1   0x01465f    program     static C:\pavan\1+1RCUTx\1-1-RCU-T-NewArch_svn_web_changes\AgilisDevices\BUCClient.c
               __string_1   0x013c03    program     static C:\pavan\1+1RCUTx\1-1-RCU-T-NewArch_svn_web_changes\Bootstrap\Initialization.c
               __string_1   0x01466b    program     static C:\pavan\1+1RCUTx\1-1-RCU-T-NewArch_svn_web_changes\App\SNMP\AgilisSNMPLLBUCStatus.c
               __string_1   0x0145e3    program     static C:\pavan\1+1RCUTx\1-1-RCU-T-NewArch_svn_web_changes\App\WebUI\AgilisHTTPPrint.c
               __string_1   0x01461e    program     static C:\pavan\1+1RCUTx\1-1-RCU-T-NewArch_svn_web_changes\AgilisDevices\RCUServer.c
               __string_1   0x01436f    program     static C:\pavan\1+1RCUTx\1-1-RCU-T-NewArch_svn_web_changes\Microchip\TCPIP Stack\HTTP2.c
               __string_1   0x013bd2    program     static C:\pavan\1+1RCUTx\1-1-RCU-T-NewArch_svn_web_changes\Main\Main.c
               __string_1   0x014603    program     static C:\pavan\1+1RCUTx\1-1-RCU-T-NewArch_svn_web_changes\App\Util\AgilisAppUtil.c
               __string_1   0x01444a    program     static C:\pavan\1+1RCUTx\1-1-RCU-T-NewArch_svn_web_changes\App\WebUI\AgilisHTTPApp.c
              __string_10   0x014644    program     static C:\pavan\1+1RCUTx\1-1-RCU-T-NewArch_svn_web_changes\AgilisDevices\BUCClient.c
              __string_10   0x0145af    program     static C:\pavan\1+1RCUTx\1-1-RCU-T-NewArch_svn_web_changes\App\WebUI\AgilisHTTPPrint.c
              __string_10   0x01434d    program     static C:\pavan\1+1RCUTx\1-1-RCU-T-NewArch_svn_web_changes\Microchip\TCPIP Stack\HTTP2.c
              __string_10   0x0143f6    program     static C:\pavan\1+1RCUTx\1-1-RCU-T-NewArch_svn_web_changes\App\WebUI\AgilisHTTPApp.c
              __string_10   0x0144b0    program     static C:\pavan\1+1RCUTx\1-1-RCU-T-NewArch_svn_web_changes\App\WebUI\AgilisHTTPGetDevInfo.c
              __string_11   0x014349    program     static C:\pavan\1+1RCUTx\1-1-RCU-T-NewArch_svn_web_changes\Microchip\TCPIP Stack\HTTP2.c
              __string_11   0x0144aa    program     static C:\pavan\1+1RCUTx\1-1-RCU-T-NewArch_svn_web_changes\App\WebUI\AgilisHTTPGetDevInfo.c
              __string_11   0x0145aa    program     static C:\pavan\1+1RCUTx\1-1-RCU-T-NewArch_svn_web_changes\App\WebUI\AgilisHTTPPrint.c
              __string_11   0x014641    program     static C:\pavan\1+1RCUTx\1-1-RCU-T-NewArch_svn_web_changes\AgilisDevices\BUCClient.c
              __string_11   0x0143f1    program     static C:\pavan\1+1RCUTx\1-1-RCU-T-NewArch_svn_web_changes\App\WebUI\AgilisHTTPApp.c
              __string_12   0x0145a5    program     static C:\pavan\1+1RCUTx\1-1-RCU-T-NewArch_svn_web_changes\App\WebUI\AgilisHTTPPrint.c
              __string_12   0x014496    program     static C:\pavan\1+1RCUTx\1-1-RCU-T-NewArch_svn_web_changes\App\WebUI\AgilisHTTPGetDevInfo.c
              __string_12   0x01463e    program     static C:\pavan\1+1RCUTx\1-1-RCU-T-NewArch_svn_web_changes\AgilisDevices\BUCClient.c
              __string_12   0x014345    program     static C:\pavan\1+1RCUTx\1-1-RCU-T-NewArch_svn_web_changes\Microchip\TCPIP Stack\HTTP2.c
              __string_12   0x0143ec    program     static C:\pavan\1+1RCUTx\1-1-RCU-T-NewArch_svn_web_changes\App\WebUI\AgilisHTTPApp.c
              __string_13   0x0143e8    program     static C:\pavan\1+1RCUTx\1-1-RCU-T-NewArch_svn_web_changes\App\WebUI\AgilisHTTPApp.c
              __string_13   0x014341    program     static C:\pavan\1+1RCUTx\1-1-RCU-T-NewArch_svn_web_changes\Microchip\TCPIP Stack\HTTP2.c
              __string_13   0x01463b    program     static C:\pavan\1+1RCUTx\1-1-RCU-T-NewArch_svn_web_changes\AgilisDevices\BUCClient.c
              __string_13   0x0145a2    program     static C:\pavan\1+1RCUTx\1-1-RCU-T-NewArch_svn_web_changes\App\WebUI\AgilisHTTPPrint.c
              __string_13   0x014492    program     static C:\pavan\1+1RCUTx\1-1-RCU-T-NewArch_svn_web_changes\App\WebUI\AgilisHTTPGetDevInfo.c
              __string_14   0x01433d    program     static C:\pavan\1+1RCUTx\1-1-RCU-T-NewArch_svn_web_changes\Microchip\TCPIP Stack\HTTP2.c
              __string_14   0x0143e3    program     static C:\pavan\1+1RCUTx\1-1-RCU-T-NewArch_svn_web_changes\App\WebUI\AgilisHTTPApp.c
              __string_14   0x014637    program     static C:\pavan\1+1RCUTx\1-1-RCU-T-NewArch_svn_web_changes\AgilisDevices\BUCClient.c
              __string_14   0x01459f    program     static C:\pavan\1+1RCUTx\1-1-RCU-T-NewArch_svn_web_changes\App\WebUI\AgilisHTTPPrint.c
              __string_14   0x014482    program     static C:\pavan\1+1RCUTx\1-1-RCU-T-NewArch_svn_web_changes\App\WebUI\AgilisHTTPGetDevInfo.c
              __string_15   0x0143de    program     static C:\pavan\1+1RCUTx\1-1-RCU-T-NewArch_svn_web_changes\App\WebUI\AgilisHTTPApp.c
              __string_15   0x01459b    program     static C:\pavan\1+1RCUTx\1-1-RCU-T-NewArch_svn_web_changes\App\WebUI\AgilisHTTPPrint.c
              __string_15   0x014339    program     static C:\pavan\1+1RCUTx\1-1-RCU-T-NewArch_svn_web_changes\Microchip\TCPIP Stack\HTTP2.c
              __string_15   0x014634    program     static C:\pavan\1+1RCUTx\1-1-RCU-T-NewArch_svn_web_changes\AgilisDevices\BUCClient.c
              __string_15   0x01447d    program     static C:\pavan\1+1RCUTx\1-1-RCU-T-NewArch_svn_web_changes\App\WebUI\AgilisHTTPGetDevInfo.c
              __string_16   0x01432e    program     static C:\pavan\1+1RCUTx\1-1-RCU-T-NewArch_svn_web_changes\Microchip\TCPIP Stack\HTTP2.c
              __string_16   0x0143c9    program     static C:\pavan\1+1RCUTx\1-1-RCU-T-NewArch_svn_web_changes\App\WebUI\AgilisHTTPApp.c
              __string_16   0x014631    program     static C:\pavan\1+1RCUTx\1-1-RCU-T-NewArch_svn_web_changes\AgilisDevices\BUCClient.c
              __string_16   0x014478    program     static C:\pavan\1+1RCUTx\1-1-RCU-T-NewArch_svn_web_changes\App\WebUI\AgilisHTTPGetDevInfo.c
              __string_16   0x014598    program     static C:\pavan\1+1RCUTx\1-1-RCU-T-NewArch_svn_web_changes\App\WebUI\AgilisHTTPPrint.c
              __string_17   0x014324    program     static C:\pavan\1+1RCUTx\1-1-RCU-T-NewArch_svn_web_changes\Microchip\TCPIP Stack\HTTP2.c
              __string_17   0x01458f    program     static C:\pavan\1+1RCUTx\1-1-RCU-T-NewArch_svn_web_changes\App\WebUI\AgilisHTTPPrint.c
              __string_17   0x0143b5    program     static C:\pavan\1+1RCUTx\1-1-RCU-T-NewArch_svn_web_changes\App\WebUI\AgilisHTTPApp.c
              __string_17   0x014472    program     static C:\pavan\1+1RCUTx\1-1-RCU-T-NewArch_svn_web_changes\App\WebUI\AgilisHTTPGetDevInfo.c
              __string_17   0x01462e    program     static C:\pavan\1+1RCUTx\1-1-RCU-T-NewArch_svn_web_changes\AgilisDevices\BUCClient.c
              __string_18   0x0143b1    program     static C:\pavan\1+1RCUTx\1-1-RCU-T-NewArch_svn_web_changes\App\WebUI\AgilisHTTPApp.c
              __string_18   0x01431b    program     static C:\pavan\1+1RCUTx\1-1-RCU-T-NewArch_svn_web_changes\Microchip\TCPIP Stack\HTTP2.c
              __string_18   0x014465    program     static C:\pavan\1+1RCUTx\1-1-RCU-T-NewArch_svn_web_changes\App\WebUI\AgilisHTTPGetDevInfo.c
              __string_18   0x01462b    program     static C:\pavan\1+1RCUTx\1-1-RCU-T-NewArch_svn_web_changes\AgilisDevices\BUCClient.c
              __string_18   0x014587    program     static C:\pavan\1+1RCUTx\1-1-RCU-T-NewArch_svn_web_changes\App\WebUI\AgilisHTTPPrint.c
              __string_19   0x014628    program     static C:\pavan\1+1RCUTx\1-1-RCU-T-NewArch_svn_web_changes\AgilisDevices\BUCClient.c
              __string_19   0x01457d    program     static C:\pavan\1+1RCUTx\1-1-RCU-T-NewArch_svn_web_changes\App\WebUI\AgilisHTTPPrint.c
              __string_19   0x014312    program     static C:\pavan\1+1RCUTx\1-1-RCU-T-NewArch_svn_web_changes\Microchip\TCPIP Stack\HTTP2.c
              __string_19   0x014460    program     static C:\pavan\1+1RCUTx\1-1-RCU-T-NewArch_svn_web_changes\App\WebUI\AgilisHTTPGetDevInfo.c
              __string_19   0x0143ad    program     static C:\pavan\1+1RCUTx\1-1-RCU-T-NewArch_svn_web_changes\App\WebUI\AgilisHTTPApp.c
               __string_2   0x014601    program     static C:\pavan\1+1RCUTx\1-1-RCU-T-NewArch_svn_web_changes\App\Util\AgilisAppUtil.c
               __string_2   0x0145da    program     static C:\pavan\1+1RCUTx\1-1-RCU-T-NewArch_svn_web_changes\App\WebUI\AgilisHTTPPrint.c
               __string_2   0x01465c    program     static C:\pavan\1+1RCUTx\1-1-RCU-T-NewArch_svn_web_changes\AgilisDevices\BUCClient.c
               __string_2   0x01436a    program     static C:\pavan\1+1RCUTx\1-1-RCU-T-NewArch_svn_web_changes\Microchip\TCPIP Stack\HTTP2.c
               __string_2   0x01439b    program     static C:\pavan\1+1RCUTx\1-1-RCU-T-NewArch_svn_web_changes\Drivers\AgilisUart.c
               __string_2   0x0144df    program     static C:\pavan\1+1RCUTx\1-1-RCU-T-NewArch_svn_web_changes\App\WebUI\AgilisHTTPGetDevInfo.c
               __string_2   0x013bfc    program     static C:\pavan\1+1RCUTx\1-1-RCU-T-NewArch_svn_web_changes\Bootstrap\Initialization.c
               __string_2   0x014444    program     static C:\pavan\1+1RCUTx\1-1-RCU-T-NewArch_svn_web_changes\App\WebUI\AgilisHTTPApp.c
               __string_2   0x01461a    program     static C:\pavan\1+1RCUTx\1-1-RCU-T-NewArch_svn_web_changes\AgilisDevices\RCUServer.c
               __string_2   0x013bcc    program     static C:\pavan\1+1RCUTx\1-1-RCU-T-NewArch_svn_web_changes\Main\Main.c
              __string_20   0x014579    program     static C:\pavan\1+1RCUTx\1-1-RCU-T-NewArch_svn_web_changes\App\WebUI\AgilisHTTPPrint.c
              __string_20   0x014308    program     static C:\pavan\1+1RCUTx\1-1-RCU-T-NewArch_svn_web_changes\Microchip\TCPIP Stack\HTTP2.c
              __string_20   0x01445b    program     static C:\pavan\1+1RCUTx\1-1-RCU-T-NewArch_svn_web_changes\App\WebUI\AgilisHTTPGetDevInfo.c
              __string_21   0x014573    program     static C:\pavan\1+1RCUTx\1-1-RCU-T-NewArch_svn_web_changes\App\WebUI\AgilisHTTPPrint.c
              __string_21   0x014457    program     static C:\pavan\1+1RCUTx\1-1-RCU-T-NewArch_svn_web_changes\App\WebUI\AgilisHTTPGetDevInfo.c
              __string_21   0x0142fe    program     static C:\pavan\1+1RCUTx\1-1-RCU-T-NewArch_svn_web_changes\Microchip\TCPIP Stack\HTTP2.c
              __string_22   0x0142f3    program     static C:\pavan\1+1RCUTx\1-1-RCU-T-NewArch_svn_web_changes\Microchip\TCPIP Stack\HTTP2.c
              __string_22   0x014563    program     static C:\pavan\1+1RCUTx\1-1-RCU-T-NewArch_svn_web_changes\App\WebUI\AgilisHTTPPrint.c
              __string_23   0x014546    program     static C:\pavan\1+1RCUTx\1-1-RCU-T-NewArch_svn_web_changes\App\WebUI\AgilisHTTPPrint.c
              __string_23   0x0142df    program     static C:\pavan\1+1RCUTx\1-1-RCU-T-NewArch_svn_web_changes\Microchip\TCPIP Stack\HTTP2.c
              __string_24   0x014533    program     static C:\pavan\1+1RCUTx\1-1-RCU-T-NewArch_svn_web_changes\App\WebUI\AgilisHTTPPrint.c
              __string_24   0x0142d2    program     static C:\pavan\1+1RCUTx\1-1-RCU-T-NewArch_svn_web_changes\Microchip\TCPIP Stack\HTTP2.c
              __string_25   0x0142d1    program     static C:\pavan\1+1RCUTx\1-1-RCU-T-NewArch_svn_web_changes\Microchip\TCPIP Stack\HTTP2.c
              __string_25   0x01451f    program     static C:\pavan\1+1RCUTx\1-1-RCU-T-NewArch_svn_web_changes\App\WebUI\AgilisHTTPPrint.c
              __string_26   0x0142ac    program     static C:\pavan\1+1RCUTx\1-1-RCU-T-NewArch_svn_web_changes\Microchip\TCPIP Stack\HTTP2.c
              __string_26   0x014501    program     static C:\pavan\1+1RCUTx\1-1-RCU-T-NewArch_svn_web_changes\App\WebUI\AgilisHTTPPrint.c
              __string_27   0x0144fc    program     static C:\pavan\1+1RCUTx\1-1-RCU-T-NewArch_svn_web_changes\App\WebUI\AgilisHTTPPrint.c
              __string_27   0x01424e    program     static C:\pavan\1+1RCUTx\1-1-RCU-T-NewArch_svn_web_changes\Microchip\TCPIP Stack\HTTP2.c
              __string_28   0x0141cd    program     static C:\pavan\1+1RCUTx\1-1-RCU-T-NewArch_svn_web_changes\Microchip\TCPIP Stack\HTTP2.c
              __string_29   0x01412f    program     static C:\pavan\1+1RCUTx\1-1-RCU-T-NewArch_svn_web_changes\Microchip\TCPIP Stack\HTTP2.c
               __string_3   0x014659    program     static C:\pavan\1+1RCUTx\1-1-RCU-T-NewArch_svn_web_changes\AgilisDevices\BUCClient.c
               __string_3   0x013bf7    program     static C:\pavan\1+1RCUTx\1-1-RCU-T-NewArch_svn_web_changes\Bootstrap\Initialization.c
               __string_3   0x014431    program     static C:\pavan\1+1RCUTx\1-1-RCU-T-NewArch_svn_web_changes\App\WebUI\AgilisHTTPApp.c
               __string_3   0x014617    program     static C:\pavan\1+1RCUTx\1-1-RCU-T-NewArch_svn_web_changes\AgilisDevices\RCUServer.c
               __string_3   0x013bc6    program     static C:\pavan\1+1RCUTx\1-1-RCU-T-NewArch_svn_web_changes\Main\Main.c
               __string_3   0x0144db    program     static C:\pavan\1+1RCUTx\1-1-RCU-T-NewArch_svn_web_changes\App\WebUI\AgilisHTTPGetDevInfo.c
               __string_3   0x014395    program     static C:\pavan\1+1RCUTx\1-1-RCU-T-NewArch_svn_web_changes\Drivers\AgilisUart.c
               __string_3   0x0145d4    program     static C:\pavan\1+1RCUTx\1-1-RCU-T-NewArch_svn_web_changes\App\WebUI\AgilisHTTPPrint.c
              __string_30   0x0140c2    program     static C:\pavan\1+1RCUTx\1-1-RCU-T-NewArch_svn_web_changes\Microchip\TCPIP Stack\HTTP2.c
              __string_31   0x014052    program     static C:\pavan\1+1RCUTx\1-1-RCU-T-NewArch_svn_web_changes\Microchip\TCPIP Stack\HTTP2.c
              __string_32   0x013fec    program     static C:\pavan\1+1RCUTx\1-1-RCU-T-NewArch_svn_web_changes\Microchip\TCPIP Stack\HTTP2.c
              __string_33   0x013ecc    program     static C:\pavan\1+1RCUTx\1-1-RCU-T-NewArch_svn_web_changes\Microchip\TCPIP Stack\HTTP2.c
              __string_34   0x013e1f    program     static C:\pavan\1+1RCUTx\1-1-RCU-T-NewArch_svn_web_changes\Microchip\TCPIP Stack\HTTP2.c
              __string_35   0x013d4c    program     static C:\pavan\1+1RCUTx\1-1-RCU-T-NewArch_svn_web_changes\Microchip\TCPIP Stack\HTTP2.c
              __string_36   0x013d1a    program     static C:\pavan\1+1RCUTx\1-1-RCU-T-NewArch_svn_web_changes\Microchip\TCPIP Stack\HTTP2.c
              __string_37   0x013cc3    program     static C:\pavan\1+1RCUTx\1-1-RCU-T-NewArch_svn_web_changes\Microchip\TCPIP Stack\HTTP2.c
              __string_38   0x013cbb    program     static C:\pavan\1+1RCUTx\1-1-RCU-T-NewArch_svn_web_changes\Microchip\TCPIP Stack\HTTP2.c
              __string_39   0x013cac    program     static C:\pavan\1+1RCUTx\1-1-RCU-T-NewArch_svn_web_changes\Microchip\TCPIP Stack\HTTP2.c
               __string_4   0x014613    program     static C:\pavan\1+1RCUTx\1-1-RCU-T-NewArch_svn_web_changes\AgilisDevices\RCUServer.c
               __string_4   0x0145ce    program     static C:\pavan\1+1RCUTx\1-1-RCU-T-NewArch_svn_web_changes\App\WebUI\AgilisHTTPPrint.c
               __string_4   0x01441d    program     static C:\pavan\1+1RCUTx\1-1-RCU-T-NewArch_svn_web_changes\App\WebUI\AgilisHTTPApp.c
               __string_4   0x0144d3    program     static C:\pavan\1+1RCUTx\1-1-RCU-T-NewArch_svn_web_changes\App\WebUI\AgilisHTTPGetDevInfo.c
               __string_4   0x013bc0    program     static C:\pavan\1+1RCUTx\1-1-RCU-T-NewArch_svn_web_changes\Main\Main.c
               __string_4   0x014656    program     static C:\pavan\1+1RCUTx\1-1-RCU-T-NewArch_svn_web_changes\AgilisDevices\BUCClient.c
               __string_4   0x014366    program     static C:\pavan\1+1RCUTx\1-1-RCU-T-NewArch_svn_web_changes\Microchip\TCPIP Stack\HTTP2.c
               __string_4   0x01438f    program     static C:\pavan\1+1RCUTx\1-1-RCU-T-NewArch_svn_web_changes\Drivers\AgilisUart.c
               __string_4   0x013bf6    program     static C:\pavan\1+1RCUTx\1-1-RCU-T-NewArch_svn_web_changes\Bootstrap\Initialization.c
              __string_40   0x013c9c    program     static C:\pavan\1+1RCUTx\1-1-RCU-T-NewArch_svn_web_changes\Microchip\TCPIP Stack\HTTP2.c
              __string_41   0x013c98    program     static C:\pavan\1+1RCUTx\1-1-RCU-T-NewArch_svn_web_changes\Microchip\TCPIP Stack\HTTP2.c
              __string_42   0x013c93    program     static C:\pavan\1+1RCUTx\1-1-RCU-T-NewArch_svn_web_changes\Microchip\TCPIP Stack\HTTP2.c
              __string_43   0x013c88    program     static C:\pavan\1+1RCUTx\1-1-RCU-T-NewArch_svn_web_changes\Microchip\TCPIP Stack\HTTP2.c
              __string_44   0x013c7e    program     static C:\pavan\1+1RCUTx\1-1-RCU-T-NewArch_svn_web_changes\Microchip\TCPIP Stack\HTTP2.c
              __string_45   0x013c6b    program     static C:\pavan\1+1RCUTx\1-1-RCU-T-NewArch_svn_web_changes\Microchip\TCPIP Stack\HTTP2.c
              __string_46   0x013c5c    program     static C:\pavan\1+1RCUTx\1-1-RCU-T-NewArch_svn_web_changes\Microchip\TCPIP Stack\HTTP2.c
              __string_47   0x013c43    program     static C:\pavan\1+1RCUTx\1-1-RCU-T-NewArch_svn_web_changes\Microchip\TCPIP Stack\HTTP2.c
              __string_48   0x013c33    program     static C:\pavan\1+1RCUTx\1-1-RCU-T-NewArch_svn_web_changes\Microchip\TCPIP Stack\HTTP2.c
              __string_49   0x013c2a    program     static C:\pavan\1+1RCUTx\1-1-RCU-T-NewArch_svn_web_changes\Microchip\TCPIP Stack\HTTP2.c
               __string_5   0x013bee    program     static C:\pavan\1+1RCUTx\1-1-RCU-T-NewArch_svn_web_changes\Bootstrap\Initialization.c
               __string_5   0x0145ca    program     static C:\pavan\1+1RCUTx\1-1-RCU-T-NewArch_svn_web_changes\App\WebUI\AgilisHTTPPrint.c
               __string_5   0x01460f    program     static C:\pavan\1+1RCUTx\1-1-RCU-T-NewArch_svn_web_changes\AgilisDevices\RCUServer.c
               __string_5   0x01440d    program     static C:\pavan\1+1RCUTx\1-1-RCU-T-NewArch_svn_web_changes\App\WebUI\AgilisHTTPApp.c
               __string_5   0x014653    program     static C:\pavan\1+1RCUTx\1-1-RCU-T-NewArch_svn_web_changes\AgilisDevices\BUCClient.c
               __string_5   0x0144cc    program     static C:\pavan\1+1RCUTx\1-1-RCU-T-NewArch_svn_web_changes\App\WebUI\AgilisHTTPGetDevInfo.c
               __string_5   0x014362    program     static C:\pavan\1+1RCUTx\1-1-RCU-T-NewArch_svn_web_changes\Microchip\TCPIP Stack\HTTP2.c
              __string_50   0x013c21    program     static C:\pavan\1+1RCUTx\1-1-RCU-T-NewArch_svn_web_changes\Microchip\TCPIP Stack\HTTP2.c
              __string_51   0x013c1d    program     static C:\pavan\1+1RCUTx\1-1-RCU-T-NewArch_svn_web_changes\Microchip\TCPIP Stack\HTTP2.c
              __string_52   0x013c18    program     static C:\pavan\1+1RCUTx\1-1-RCU-T-NewArch_svn_web_changes\Microchip\TCPIP Stack\HTTP2.c
              __string_53   0x013c0d    program     static C:\pavan\1+1RCUTx\1-1-RCU-T-NewArch_svn_web_changes\Microchip\TCPIP Stack\HTTP2.c
               __string_6   0x01435d    program     static C:\pavan\1+1RCUTx\1-1-RCU-T-NewArch_svn_web_changes\Microchip\TCPIP Stack\HTTP2.c
               __string_6   0x0144c7    program     static C:\pavan\1+1RCUTx\1-1-RCU-T-NewArch_svn_web_changes\App\WebUI\AgilisHTTPGetDevInfo.c
               __string_6   0x014409    program     static C:\pavan\1+1RCUTx\1-1-RCU-T-NewArch_svn_web_changes\App\WebUI\AgilisHTTPApp.c
               __string_6   0x01460b    program     static C:\pavan\1+1RCUTx\1-1-RCU-T-NewArch_svn_web_changes\AgilisDevices\RCUServer.c
               __string_6   0x014650    program     static C:\pavan\1+1RCUTx\1-1-RCU-T-NewArch_svn_web_changes\AgilisDevices\BUCClient.c
               __string_6   0x013be8    program     static C:\pavan\1+1RCUTx\1-1-RCU-T-NewArch_svn_web_changes\Bootstrap\Initialization.c
               __string_6   0x0145c6    program     static C:\pavan\1+1RCUTx\1-1-RCU-T-NewArch_svn_web_changes\App\WebUI\AgilisHTTPPrint.c
               __string_7   0x0144c2    program     static C:\pavan\1+1RCUTx\1-1-RCU-T-NewArch_svn_web_changes\App\WebUI\AgilisHTTPGetDevInfo.c
               __string_7   0x01464d    program     static C:\pavan\1+1RCUTx\1-1-RCU-T-NewArch_svn_web_changes\AgilisDevices\BUCClient.c
               __string_7   0x0145c2    program     static C:\pavan\1+1RCUTx\1-1-RCU-T-NewArch_svn_web_changes\App\WebUI\AgilisHTTPPrint.c
               __string_7   0x014359    program     static C:\pavan\1+1RCUTx\1-1-RCU-T-NewArch_svn_web_changes\Microchip\TCPIP Stack\HTTP2.c
               __string_7   0x014607    program     static C:\pavan\1+1RCUTx\1-1-RCU-T-NewArch_svn_web_changes\AgilisDevices\RCUServer.c
               __string_7   0x013bde    program     static C:\pavan\1+1RCUTx\1-1-RCU-T-NewArch_svn_web_changes\Bootstrap\Initialization.c
               __string_7   0x014400    program     static C:\pavan\1+1RCUTx\1-1-RCU-T-NewArch_svn_web_changes\App\WebUI\AgilisHTTPApp.c
               __string_8   0x01464a    program     static C:\pavan\1+1RCUTx\1-1-RCU-T-NewArch_svn_web_changes\AgilisDevices\BUCClient.c
               __string_8   0x014355    program     static C:\pavan\1+1RCUTx\1-1-RCU-T-NewArch_svn_web_changes\Microchip\TCPIP Stack\HTTP2.c
               __string_8   0x0143fd    program     static C:\pavan\1+1RCUTx\1-1-RCU-T-NewArch_svn_web_changes\App\WebUI\AgilisHTTPApp.c
               __string_8   0x0144bc    program     static C:\pavan\1+1RCUTx\1-1-RCU-T-NewArch_svn_web_changes\App\WebUI\AgilisHTTPGetDevInfo.c
               __string_8   0x0145bc    program     static C:\pavan\1+1RCUTx\1-1-RCU-T-NewArch_svn_web_changes\App\WebUI\AgilisHTTPPrint.c
               __string_9   0x014647    program     static C:\pavan\1+1RCUTx\1-1-RCU-T-NewArch_svn_web_changes\AgilisDevices\BUCClient.c
               __string_9   0x0143fa    program     static C:\pavan\1+1RCUTx\1-1-RCU-T-NewArch_svn_web_changes\App\WebUI\AgilisHTTPApp.c
               __string_9   0x014351    program     static C:\pavan\1+1RCUTx\1-1-RCU-T-NewArch_svn_web_changes\Microchip\TCPIP Stack\HTTP2.c
               __string_9   0x0145b6    program     static C:\pavan\1+1RCUTx\1-1-RCU-T-NewArch_svn_web_changes\App\WebUI\AgilisHTTPPrint.c
               __string_9   0x0144b6    program     static C:\pavan\1+1RCUTx\1-1-RCU-T-NewArch_svn_web_changes\App\WebUI\AgilisHTTPGetDevInfo.c
               __tmplbl_0   0x011642    program     static                          
              __tmplbl_10   0x013314    program     static                          
             __tmplbl_100   0x002e10    program     static                          
             __tmplbl_101   0x002e10    program     static                          
             __tmplbl_102   0x002e10    program     static                          
             __tmplbl_103   0x002e10    program     static                          
             __tmplbl_104   0x002e10    program     static                          
             __tmplbl_106   0x002e10    program     static                          
             __tmplbl_108   0x002e10    program     static                          
             __tmplbl_109   0x002e10    program     static                          
             __tmplbl_109   0x00bace    program     static                          
              __tmplbl_11   0x013312    program     static                          
             __tmplbl_110   0x002e10    program     static                          
             __tmplbl_111   0x002e10    program     static                          
             __tmplbl_114   0x002e10    program     static                          
             __tmplbl_116   0x008148    program     static                          
             __tmplbl_117   0x002e10    program     static                          
             __tmplbl_117   0x008144    program     static                          
             __tmplbl_118   0x002e10    program     static                          
              __tmplbl_12   0x0133ee    program     static                          
              __tmplbl_12   0x00f09c    program     static                          
             __tmplbl_123   0x00e4cc    program     static                          
             __tmplbl_124   0x00e792    program     static                          
             __tmplbl_127   0x006dac    program     static                          
             __tmplbl_129   0x00e4cc    program     static                          
             __tmplbl_129   0x006dac    program     static                          
              __tmplbl_13   0x00f084    program     static                          
              __tmplbl_13   0x0133e0    program     static                          
             __tmplbl_130   0x00e792    program     static                          
             __tmplbl_130   0x006dac    program     static                          
             __tmplbl_130   0x002e10    program     static                          
             __tmplbl_131   0x00e4cc    program     static                          
             __tmplbl_131   0x006dac    program     static                          
             __tmplbl_131   0x002e10    program     static                          
             __tmplbl_132   0x006dac    program     static                          
             __tmplbl_133   0x006dac    program     static                          
             __tmplbl_134   0x006dac    program     static                          
             __tmplbl_135   0x006dac    program     static                          
             __tmplbl_136   0x006dac    program     static                          
             __tmplbl_137   0x006dac    program     static                          
              __tmplbl_14   0x00f0de    program     static                          
              __tmplbl_14   0x0133e6    program     static                          
             __tmplbl_141   0x006dac    program     static                          
             __tmplbl_143   0x006dac    program     static                          
             __tmplbl_144   0x006dac    program     static                          
             __tmplbl_145   0x006dac    program     static                          
             __tmplbl_146   0x006dac    program     static                          
             __tmplbl_148   0x002e10    program     static                          
              __tmplbl_15   0x012cea    program     static                          
              __tmplbl_15   0x00f0d0    program     static                          
             __tmplbl_151   0x002e10    program     static                          
             __tmplbl_152   0x002e10    program     static                          
             __tmplbl_154   0x006dac    program     static                          
             __tmplbl_155   0x002a88    program     static                          
             __tmplbl_155   0x006dac    program     static                          
             __tmplbl_156   0x006dac    program     static                          
             __tmplbl_157   0x002a88    program     static                          
             __tmplbl_158   0x002a96    program     static                          
             __tmplbl_159   0x006dac    program     static                          
              __tmplbl_16   0x00f1ae    program     static                          
             __tmplbl_160   0x006dac    program     static                          
             __tmplbl_162   0x006dac    program     static                          
             __tmplbl_164   0x002a96    program     static                          
             __tmplbl_164   0x006dac    program     static                          
             __tmplbl_165   0x006dac    program     static                          
             __tmplbl_166   0x002a96    program     static                          
             __tmplbl_166   0x006dac    program     static                          
             __tmplbl_167   0x002a96    program     static                          
              __tmplbl_17   0x00f196    program     static                          
             __tmplbl_173   0x006dac    program     static                          
             __tmplbl_174   0x002a8e    program     static                          
             __tmplbl_174   0x006dac    program     static                          
             __tmplbl_175   0x006dac    program     static                          
             __tmplbl_176   0x006dac    program     static                          
             __tmplbl_177   0x006dac    program     static                          
             __tmplbl_178   0x006dac    program     static                          
             __tmplbl_179   0x006a72    program     static                          
              __tmplbl_18   0x00f1f4    program     static                          
              __tmplbl_18   0x012cea    program     static                          
             __tmplbl_188   0x006c8a    program     static                          
             __tmplbl_188   0x009730    program     static                          
             __tmplbl_189   0x009730    program     static                          
              __tmplbl_19   0x00f1e6    program     static                          
             __tmplbl_190   0x006d06    program     static                          
             __tmplbl_190   0x009730    program     static                          
             __tmplbl_191   0x009730    program     static                          
             __tmplbl_192   0x008bde    program     static                          
             __tmplbl_193   0x008b98    program     static                          
             __tmplbl_194   0x008b6c    program     static                          
             __tmplbl_195   0x008b66    program     static                          
              __tmplbl_20   0x00f2c4    program     static                          
             __tmplbl_202   0x008bfa    program     static                          
             __tmplbl_203   0x008bfa    program     static                          
             __tmplbl_204   0x008bfa    program     static                          
             __tmplbl_204   0x006262    program     static                          
             __tmplbl_205   0x006262    program     static                          
             __tmplbl_206   0x0078ce    program     static                          
              __tmplbl_21   0x00f2ac    program     static                          
             __tmplbl_213   0x003e22    program     static                          
             __tmplbl_214   0x003ba6    program     static                          
             __tmplbl_215   0x003c1a    program     static                          
             __tmplbl_216   0x003e60    program     static                          
             __tmplbl_218   0x0082b2    program     static                          
             __tmplbl_219   0x009730    program     static                          
              __tmplbl_22   0x00f30a    program     static                          
             __tmplbl_220   0x009730    program     static                          
             __tmplbl_221   0x009730    program     static                          
             __tmplbl_223   0x009730    program     static                          
              __tmplbl_23   0x00f2fc    program     static                          
              __tmplbl_24   0x00f5ba    program     static                          
              __tmplbl_25   0x013a20    program     static                          
              __tmplbl_25   0x00f5ba    program     static                          
              __tmplbl_38   0x00d03e    program     static                          
              __tmplbl_39   0x0115ba    program     static                          
              __tmplbl_39   0x00c912    program     static                          
              __tmplbl_40   0x00c912    program     static                          
              __tmplbl_40   0x01165e    program     static                          
              __tmplbl_41   0x01169e    program     static                          
              __tmplbl_41   0x00c926    program     static                          
              __tmplbl_42   0x011702    program     static                          
               __tmplbl_5   0x01337e    program     static                          
              __tmplbl_57   0x0104c6    program     static                          
              __tmplbl_58   0x00a6c6    program     static                          
              __tmplbl_58   0x0104c0    program     static                          
              __tmplbl_59   0x0104c0    program     static                          
               __tmplbl_6   0x013368    program     static                          
              __tmplbl_60   0x01109a    program     static                          
              __tmplbl_61   0x01109a    program     static                          
              __tmplbl_62   0x0102c8    program     static                          
              __tmplbl_63   0x0104ec    program     static                          
              __tmplbl_65   0x0104ec    program     static                          
              __tmplbl_66   0x0104ec    program     static                          
              __tmplbl_67   0x0104ec    program     static                          
              __tmplbl_68   0x0104ec    program     static                          
              __tmplbl_69   0x0105fc    program     static                          
               __tmplbl_7   0x013350    program     static                          
              __tmplbl_70   0x0104c0    program     static                          
              __tmplbl_71   0x0104c0    program     static                          
              __tmplbl_72   0x0105fc    program     static                          
              __tmplbl_73   0x0104c0    program     static                          
              __tmplbl_74   0x0104c0    program     static                          
              __tmplbl_75   0x0105fc    program     static                          
              __tmplbl_76   0x0102c8    program     static                          
              __tmplbl_77   0x0104c6    program     static                          
              __tmplbl_78   0x0102c8    program     static                          
              __tmplbl_78   0x00bace    program     static                          
              __tmplbl_79   0x0104c6    program     static                          
              __tmplbl_79   0x002e10    program     static                          
               __tmplbl_8   0x01333a    program     static                          
              __tmplbl_80   0x0104c6    program     static                          
              __tmplbl_81   0x0104c6    program     static                          
              __tmplbl_81   0x002e10    program     static                          
              __tmplbl_82   0x0104c6    program     static                          
              __tmplbl_83   0x0104c6    program     static                          
              __tmplbl_85   0x002e10    program     static                          
              __tmplbl_87   0x002e10    program     static                          
              __tmplbl_88   0x002e10    program     static                          
              __tmplbl_89   0x002e10    program     static                          
               __tmplbl_9   0x013322    program     static                          
              __tmplbl_90   0x002e10    program     static                          
              __tmplbl_91   0x002e10    program     static                          
              __tmplbl_92   0x002e10    program     static                          
              __tmplbl_93   0x002e10    program     static                          
              __tmplbl_95   0x002e10    program     static                          
              __tmplbl_97   0x002e10    program     static                          
              __tmplbl_99   0x002e10    program     static                          
            __zero_memory   0x01d1fa    program     extern C:\MCC18\src\traditional\proc\p18F97J60.asm
                _do_cinit   0x01cc20    program     extern C:\mcc18\src\traditional\startup\c018iz.c
                   _entry   0x000000    program     extern C:\mcc18\src\traditional\startup\c018iz.c
                   _false   0x01d104    program     static                          
                 _startup   0x01d15a    program     extern C:\mcc18\src\traditional\startup\c018iz.c
                    atof1   0x016b66    program     extern C:\pavan\1+1RCUTx\1-1-RCU-T-NewArch_svn_web_changes\Agilis-SysLib\util.c
                    atof5   0x016aac    program     extern C:\pavan\1+1RCUTx\1-1-RCU-T-NewArch_svn_web_changes\Agilis-SysLib\util.c
                     atol   0x01c294    program     extern C:\Program Files\mcc18\src\traditional\stdclib\atol.asm
             btohexa_high   0x011cc6    program     extern C:\pavan\1+1RCUTx\1-1-RCU-T-NewArch_svn_web_changes\Microchip\TCPIP Stack\Helpers.c
              btohexa_low   0x011cee    program     extern C:\pavan\1+1RCUTx\1-1-RCU-T-NewArch_svn_web_changes\Microchip\TCPIP Stack\Helpers.c
         cReadCommunities   0x01d1be    program     static C:\pavan\1+1RCUTx\1-1-RCU-T-NewArch_svn_web_changes\Bootstrap\Initialization.c
        cWriteCommunities   0x01d1c7    program     static C:\pavan\1+1RCUTx\1-1-RCU-T-NewArch_svn_web_changes\Bootstrap\Initialization.c
               clear_loop   0x01d200    program     static C:\MCC18\src\traditional\proc\p18F97J60.asm
                copy_loop   0x01cc92    program     static                          
            copy_one_byte   0x01cc98    program     static                          
            dataTypeTable   0x01d1e6    program     static C:\pavan\1+1RCUTx\1-1-RCU-T-NewArch_svn_web_changes\Microchip\TCPIP Stack\SNMP.c
                     done   0x01ccbc    program     static                          
             done_copying   0x01cca6    program     static                          
                  endloop   0x01d130    program     static                          
      getSnmpV2GenTrapOid   0x0043f0    program     extern C:\pavan\1+1RCUTx\1-1-RCU-T-NewArch_svn_web_changes\Microchip\TCPIP Stack\SNMP.c
                  hexatob   0x011c7c    program     extern C:\pavan\1+1RCUTx\1-1-RCU-T-NewArch_svn_web_changes\Microchip\TCPIP Stack\Helpers.c
         httpContentTypes   0x01cf8d    program     static C:\pavan\1+1RCUTx\1-1-RCU-T-NewArch_svn_web_changes\Microchip\TCPIP Stack\HTTP2.c
       httpFileExtensions   0x01cf69    program     static C:\pavan\1+1RCUTx\1-1-RCU-T-NewArch_svn_web_changes\Microchip\TCPIP Stack\HTTP2.c
                 jANotInf   0x0178f8    program     static C:\Program Files\mcc18\src\traditional\math\divFP.asm
                 jANotInf   0x0177d6    program     static C:\Program Files\mcc18\src\traditional\math\addFP.asm
                 jANotInf   0x01799e    program     static C:\Program Files\mcc18\src\traditional\math\mulFP.asm
                 jANotNeg   0x01786a    program     static C:\Program Files\mcc18\src\traditional\math\addFP.asm
                jANotZero   0x01790c    program     static C:\Program Files\mcc18\src\traditional\math\divFP.asm
              jAandWsetup   0x01783a    program     static C:\Program Files\mcc18\src\traditional\math\addFP.asm
                  jAisNeg   0x017c92    program     static C:\Program Files\mcc18\src\traditional\math\compFP.asm
                 jAltBexp   0x017828    program     static C:\Program Files\mcc18\src\traditional\math\addFP.asm
                jBANotInf   0x0177cc    program     static C:\Program Files\mcc18\src\traditional\math\addFP.asm
                 jBNotInf   0x0177e4    program     static C:\Program Files\mcc18\src\traditional\math\addFP.asm
              jBothFinite   0x0179ac    program     static C:\Program Files\mcc18\src\traditional\math\mulFP.asm
             jBothNotZero   0x017c34    program     static C:\Program Files\mcc18\src\traditional\math\compFP.asm
             jBothNotZero   0x0179b8    program     static C:\Program Files\mcc18\src\traditional\math\mulFP.asm
            jDifOrPosSign   0x0177f8    program     static C:\Program Files\mcc18\src\traditional\math\addFP.asm
                      jEQ   0x017c50    program     static C:\Program Files\mcc18\src\traditional\math\compFP.asm
                     jEnd   0x019622    program     static C:\Program Files\mcc18\src\traditional\stdclib\strlen.asm
                     jEnd   0x019606    program     static C:\Program Files\mcc18\src\traditional\stdclib\scpyp2r.asm
                     jEnd   0x019592    program     static C:\Program Files\mcc18\src\traditional\stdclib\scmpp2r.asm
                     jEnd   0x019552    program     static C:\Program Files\mcc18\src\traditional\stdclib\strcmp.asm
                     jEnd   0x019526    program     static C:\Program Files\mcc18\src\traditional\stdclib\scatp2r.asm
                     jEnd   0x0194ee    program     static C:\Program Files\mcc18\src\traditional\stdclib\memset.asm
                     jEnd   0x0194ba    program     static C:\Program Files\mcc18\src\traditional\stdclib\mcpyp2r.asm
                     jEnd   0x019464    program     static C:\Program Files\mcc18\src\traditional\stdclib\memcpy.asm
                     jEnd   0x01c3b2    program     static C:\Program Files\mcc18\src\traditional\stdclib\atol.asm
                     jEnd   0x01941e    program     static C:\Program Files\mcc18\src\traditional\stdclib\mcmpp2r.asm
                     jEnd   0x01935a    program     static C:\Program Files\mcc18\src\traditional\stdclib\memcmp.asm
                     jEnd   0x0193e0    program     static C:\Program Files\mcc18\src\traditional\stdclib\mcmpp2p.asm
                     jEnd   0x019748    program     static C:\Program Files\mcc18\src\traditional\stdclib\strupr.asm
                     jEnd   0x01970e    program     static C:\Program Files\mcc18\src\traditional\stdclib\strncpy.asm
                     jEnd   0x0196ae    program     static C:\Program Files\mcc18\src\traditional\stdclib\strncmp.asm
                     jEnd   0x01965a    program     static C:\Program Files\mcc18\src\traditional\stdclib\slenpgm.asm
                 jEndLoop   0x01c382    program     static C:\Program Files\mcc18\src\traditional\stdclib\atol.asm
                    jExch   0x017c5c    program     static C:\Program Files\mcc18\src\traditional\math\compFP.asm
                    jExit   0x017b74    program     static C:\Program Files\mcc18\src\traditional\math\castFP08.asm
                    jExit   0x017be2    program     static C:\Program Files\mcc18\src\traditional\math\castFP32.asm
                   jExpEQ   0x017ca2    program     static C:\Program Files\mcc18\src\traditional\math\compFP.asm
                   jFinal   0x017c86    program     static C:\Program Files\mcc18\src\traditional\math\compFP.asm
               jFinalSign   0x0178d2    program     static C:\Program Files\mcc18\src\traditional\math\addFP.asm
                jHaveZero   0x0179b4    program     static C:\Program Files\mcc18\src\traditional\math\mulFP.asm
                jI2F08Beg   0x01776e    program     static C:\Program Files\mcc18\src\traditional\math\cast08FP.asm
                jI2F16Beg   0x017796    program     static C:\Program Files\mcc18\src\traditional\math\cast16FP.asm
                    jLoop   0x017b5c    program     static C:\Program Files\mcc18\src\traditional\math\castFP08.asm
                    jLoop   0x01951c    program     static C:\Program Files\mcc18\src\traditional\stdclib\scatp2r.asm
                    jLoop   0x0194d0    program     static C:\Program Files\mcc18\src\traditional\stdclib\memset.asm
                    jLoop   0x019548    program     static C:\Program Files\mcc18\src\traditional\stdclib\strcmp.asm
                    jLoop   0x01949c    program     static C:\Program Files\mcc18\src\traditional\stdclib\mcpyp2r.asm
                    jLoop   0x019586    program     static C:\Program Files\mcc18\src\traditional\stdclib\scmpp2r.asm
                    jLoop   0x01c2f4    program     static C:\Program Files\mcc18\src\traditional\stdclib\atol.asm
                    jLoop   0x019448    program     static C:\Program Files\mcc18\src\traditional\stdclib\memcpy.asm
                    jLoop   0x01933e    program     static C:\Program Files\mcc18\src\traditional\stdclib\memcmp.asm
                    jLoop   0x019734    program     static C:\Program Files\mcc18\src\traditional\stdclib\strupr.asm
                    jLoop   0x0196ec    program     static C:\Program Files\mcc18\src\traditional\stdclib\strncpy.asm
                    jLoop   0x017934    program     static C:\Program Files\mcc18\src\traditional\math\divFP.asm
                    jLoop   0x0195bc    program     static C:\Program Files\mcc18\src\traditional\stdclib\strcpy.asm
                    jLoop   0x0195fc    program     static C:\Program Files\mcc18\src\traditional\stdclib\scpyp2r.asm
                    jLoop   0x019618    program     static C:\Program Files\mcc18\src\traditional\stdclib\strlen.asm
                    jLoop   0x01968e    program     static C:\Program Files\mcc18\src\traditional\stdclib\strncmp.asm
                    jLoop   0x019642    program     static C:\Program Files\mcc18\src\traditional\stdclib\slenpgm.asm
                    jLoop   0x019400    program     static C:\Program Files\mcc18\src\traditional\stdclib\mcmpp2r.asm
                    jLoop   0x017bb6    program     static C:\Program Files\mcc18\src\traditional\math\castFP32.asm
                    jLoop   0x019370    program     static C:\Program Files\mcc18\src\traditional\stdclib\mcmpp2p.asm
                jLoopExit   0x017bca    program     static C:\Program Files\mcc18\src\traditional\math\castFP32.asm
                jLoopExit   0x017b6a    program     static C:\Program Files\mcc18\src\traditional\math\castFP08.asm
                     jMax   0x017b38    program     static C:\Program Files\mcc18\src\traditional\math\castFP08.asm
                     jMax   0x017b86    program     static C:\Program Files\mcc18\src\traditional\math\castFP32.asm
                  jMaxNeg   0x017b98    program     static C:\Program Files\mcc18\src\traditional\math\castFP32.asm
                  jMaxNeg   0x017b42    program     static C:\Program Files\mcc18\src\traditional\math\castFP08.asm
                  jMaxPos   0x017b3c    program     static C:\Program Files\mcc18\src\traditional\math\castFP08.asm
                  jMaxPos   0x017b8a    program     static C:\Program Files\mcc18\src\traditional\math\castFP32.asm
                      jNE   0x017c54    program     static C:\Program Files\mcc18\src\traditional\math\compFP.asm
                    jNext   0x01795a    program     static C:\Program Files\mcc18\src\traditional\math\divFP.asm
                jNoAdjust   0x017958    program     static C:\Program Files\mcc18\src\traditional\math\divFP.asm
                  jNoExch   0x017c7c    program     static C:\Program Files\mcc18\src\traditional\math\compFP.asm
             jNotBothZero   0x0177fc    program     static C:\Program Files\mcc18\src\traditional\math\addFP.asm
                  jNotInf   0x017b4c    program     static C:\Program Files\mcc18\src\traditional\math\castFP08.asm
                  jNotInf   0x017ba4    program     static C:\Program Files\mcc18\src\traditional\math\castFP32.asm
                jNullLoop   0x019516    program     static C:\Program Files\mcc18\src\traditional\stdclib\scatp2r.asm
                  jPkLoop   0x017d06    program     static C:\Program Files\mcc18\src\traditional\math\packFP.asm
             jPkRoundDone   0x017d50    program     static C:\Program Files\mcc18\src\traditional\math\packFP.asm
               jPkRoundIt   0x017d38    program     static C:\Program Files\mcc18\src\traditional\math\packFP.asm
             jPkShiftDone   0x017d22    program     static C:\Program Files\mcc18\src\traditional\math\packFP.asm
           jReturnPosInf0   0x017cdc    program     static C:\Program Files\mcc18\src\traditional\math\packFP.asm
                  jRotate   0x017cae    program     static C:\Program Files\mcc18\src\traditional\math\compFP.asm
                   jShift   0x017c98    program     static C:\Program Files\mcc18\src\traditional\math\compFP.asm
               jShiftDone   0x017892    program     static C:\Program Files\mcc18\src\traditional\math\addFP.asm
               jShiftLoop   0x017884    program     static C:\Program Files\mcc18\src\traditional\math\addFP.asm
                jSignDone   0x0178c2    program     static C:\Program Files\mcc18\src\traditional\math\addFP.asm
              jSignedZero   0x017902    program     static C:\Program Files\mcc18\src\traditional\math\divFP.asm
                 jSignsEQ   0x017c38    program     static C:\Program Files\mcc18\src\traditional\math\compFP.asm
                    jSkip   0x019744    program     static C:\Program Files\mcc18\src\traditional\stdclib\strupr.asm
                  jSkipWS   0x01c2ca    program     static C:\Program Files\mcc18\src\traditional\stdclib\atol.asm
                 jSkipWS1   0x01c2dc    program     static C:\Program Files\mcc18\src\traditional\stdclib\atol.asm
                 jTstSign   0x01c2e0    program     static C:\Program Files\mcc18\src\traditional\stdclib\atol.asm
                jTstSign1   0x01c2ec    program     static C:\Program Files\mcc18\src\traditional\stdclib\atol.asm
                jTstSign2   0x01c2f2    program     static C:\Program Files\mcc18\src\traditional\stdclib\atol.asm
                jTstSign3   0x01c2f4    program     static C:\Program Files\mcc18\src\traditional\stdclib\atol.asm
                  jUnpkA1   0x017d7a    program     static C:\Program Files\mcc18\src\traditional\math\UnpackFP.asm
                  jUnpkA2   0x017d92    program     static C:\Program Files\mcc18\src\traditional\math\UnpackFP.asm
                 jUnpkANZ   0x017d88    program     static C:\Program Files\mcc18\src\traditional\math\UnpackFP.asm
                  jUnpkB1   0x017daa    program     static C:\Program Files\mcc18\src\traditional\math\UnpackFP.asm
                  jUnpkB2   0x017dc2    program     static C:\Program Files\mcc18\src\traditional\math\UnpackFP.asm
                 jUnpkBNZ   0x017db8    program     static C:\Program Files\mcc18\src\traditional\math\UnpackFP.asm
                 jUnpkNaN   0x017d9c    program     static C:\Program Files\mcc18\src\traditional\math\UnpackFP.asm
                 jWNotNeg   0x01787e    program     static C:\Program Files\mcc18\src\traditional\math\addFP.asm
                   jWr123   0x017b90    program     static C:\Program Files\mcc18\src\traditional\math\castFP32.asm
                  jWrZ123   0x017ba0    program     static C:\Program Files\mcc18\src\traditional\math\castFP32.asm
                    jZero   0x017b48    program     static C:\Program Files\mcc18\src\traditional\math\castFP08.asm
                    jZero   0x017b9e    program     static C:\Program Files\mcc18\src\traditional\math\castFP32.asm
               jZero1and2   0x017ce0    program     static C:\Program Files\mcc18\src\traditional\math\packFP.asm
          leftRotateDWORD   0x011f6a    program     extern C:\pavan\1+1RCUTx\1-1-RCU-T-NewArch_svn_web_changes\Microchip\TCPIP Stack\Helpers.c
                     loop   0x01d16e    program     static                          
                     loop   0x01d0d0    program     static                          
                     loop   0x01d114    program     static                          
                     main   0x01c5d2    program     extern C:\pavan\1+1RCUTx\1-1-RCU-T-NewArch_svn_web_changes\Main\Main.c
                   memcmp   0x01931e    program     extern C:\Program Files\mcc18\src\traditional\stdclib\memcmp.asm
                memcmppgm   0x019370    program     extern C:\Program Files\mcc18\src\traditional\stdclib\mcmpp2p.asm
            memcmppgm2ram   0x0193e2    program     extern C:\Program Files\mcc18\src\traditional\stdclib\mcmpp2r.asm
                   memcpy   0x019420    program     extern C:\Program Files\mcc18\src\traditional\stdclib\memcpy.asm
            memcpypgm2ram   0x019476    program     extern C:\Program Files\mcc18\src\traditional\stdclib\mcpyp2r.asm
                   memset   0x0194bc    program     extern C:\Program Files\mcc18\src\traditional\stdclib\memset.asm
                putsUSART   0x01cb72    program     extern C:\pavan\1+1RCUTx\1-1-RCU-T-NewArch_svn_web_changes\Microchip\TCPIP Stack\UART.c
               putsUSART2   0x01cbc6    program     extern C:\pavan\1+1RCUTx\1-1-RCU-T-NewArch_svn_web_changes\Microchip\TCPIP Stack\UART.c
                     rand   0x01c3f8    program     extern C:\Program Files\mcc18\src\traditional\stdclib\rand.asm
           snmp_trap_task   0x00d620    program     extern C:\pavan\1+1RCUTx\1-1-RCU-T-NewArch_svn_web_changes\App\SNMP\AgilisSNMPApp.c
                    srand   0x01c3ea    program     extern C:\Program Files\mcc18\src\traditional\stdclib\rand.asm
            strcatpgm2ram   0x0194f0    program     extern C:\Program Files\mcc18\src\traditional\stdclib\scatp2r.asm
                   strcmp   0x019528    program     extern C:\Program Files\mcc18\src\traditional\stdclib\strcmp.asm
            strcmppgm2ram   0x019568    program     extern C:\Program Files\mcc18\src\traditional\stdclib\scmpp2r.asm
                   strcpy   0x019594    program     extern C:\Program Files\mcc18\src\traditional\stdclib\strcpy.asm
            strcpypgm2ram   0x0195d6    program     extern C:\Program Files\mcc18\src\traditional\stdclib\scpyp2r.asm
           stricmppgm2ram   0x011d12    program     extern C:\pavan\1+1RCUTx\1-1-RCU-T-NewArch_svn_web_changes\Microchip\TCPIP Stack\Helpers.c
                   strlen   0x019608    program     extern C:\Program Files\mcc18\src\traditional\stdclib\strlen.asm
                strlenpgm   0x019624    program     extern C:\Program Files\mcc18\src\traditional\stdclib\slenpgm.asm
                  strnchr   0x012042    program     extern C:\pavan\1+1RCUTx\1-1-RCU-T-NewArch_svn_web_changes\Microchip\TCPIP Stack\Helpers.c
                  strncmp   0x01966e    program     extern C:\Program Files\mcc18\src\traditional\stdclib\strncmp.asm
                  strncpy   0x0196c4    program     extern C:\Program Files\mcc18\src\traditional\stdclib\strncpy.asm
                   strupr   0x019720    program     extern C:\Program Files\mcc18\src\traditional\stdclib\strupr.asm
                    swapl   0x011e00    program     extern C:\pavan\1+1RCUTx\1-1-RCU-T-NewArch_svn_web_changes\Microchip\TCPIP Stack\Helpers.c
                    swaps   0x011dc2    program     extern C:\pavan\1+1RCUTx\1-1-RCU-T-NewArch_svn_web_changes\Microchip\TCPIP Stack\Helpers.c
                     test   0x01cc3a    program     static                          
                uart0init   0x00e7ca    program     extern C:\pavan\1+1RCUTx\1-1-RCU-T-NewArch_svn_web_changes\Drivers\UARTISR.c
                uart1init   0x00e840    program     extern C:\pavan\1+1RCUTx\1-1-RCU-T-NewArch_svn_web_changes\Drivers\UARTISR.c
                uart2init   0x00e8ac    program     extern C:\pavan\1+1RCUTx\1-1-RCU-T-NewArch_svn_web_changes\Drivers\UARTISR.c
                uart3init   0x00e980    program     extern C:\pavan\1+1RCUTx\1-1-RCU-T-NewArch_svn_web_changes\Drivers\UARTISR.c
                uart4init   0x00ea56    program     extern C:\pavan\1+1RCUTx\1-1-RCU-T-NewArch_svn_web_changes\Drivers\UARTISR.c
                    uitoa   0x011b86    program     extern C:\pavan\1+1RCUTx\1-1-RCU-T-NewArch_svn_web_changes\Microchip\TCPIP Stack\Helpers.c
                 ADCInfo1   0x000b95       data     extern C:\pavan\1+1RCUTx\1-1-RCU-T-NewArch_svn_web_changes\Drivers\MCU-Internal\internalADC.c
                   ADCON0   0x000fc2       data     extern C:\MCC18\src\traditional\proc\p18F97J60.asm
               ADCON0bits   0x000fc2       data     extern C:\MCC18\src\traditional\proc\p18F97J60.asm
                   ADCON1   0x000fc1       data     extern C:\MCC18\src\traditional\proc\p18F97J60.asm
               ADCON1bits   0x000fc1       data     extern C:\MCC18\src\traditional\proc\p18F97J60.asm
                   ADCON2   0x000fc0       data     extern C:\MCC18\src\traditional\proc\p18F97J60.asm
               ADCON2bits   0x000fc0       data     extern C:\MCC18\src\traditional\proc\p18F97J60.asm
               ADC_result   0x000b9d       data     extern C:\pavan\1+1RCUTx\1-1-RCU-T-NewArch_svn_web_changes\Drivers\MCU-Internal\internalADC.c
                    ADRES   0x000fc3       data     extern C:\MCC18\src\traditional\proc\p18F97J60.asm
                   ADRESH   0x000fc4       data     extern C:\MCC18\src\traditional\proc\p18F97J60.asm
                   ADRESL   0x000fc3       data     extern C:\MCC18\src\traditional\proc\p18F97J60.asm
                AppConfig   0x000e00       data     extern C:\pavan\1+1RCUTx\1-1-RCU-T-NewArch_svn_web_changes\Main\Main.c
                  BAUDCON   0x000f7e       data     extern C:\MCC18\src\traditional\proc\p18F97J60.asm
                 BAUDCON1   0x000f7e       data     extern C:\MCC18\src\traditional\proc\p18F97J60.asm
             BAUDCON1bits   0x000f7e       data     extern C:\MCC18\src\traditional\proc\p18F97J60.asm
                 BAUDCON2   0x000f7c       data     extern C:\MCC18\src\traditional\proc\p18F97J60.asm
             BAUDCON2bits   0x000f7c       data     extern C:\MCC18\src\traditional\proc\p18F97J60.asm
              BAUDCONbits   0x000f7e       data     extern C:\MCC18\src\traditional\proc\p18F97J60.asm
                  BAUDCTL   0x000f7e       data     extern C:\MCC18\src\traditional\proc\p18F97J60.asm
                 BAUDCTL1   0x000f7e       data     extern C:\MCC18\src\traditional\proc\p18F97J60.asm
             BAUDCTL1bits   0x000f7e       data     extern C:\MCC18\src\traditional\proc\p18F97J60.asm
                 BAUDCTL2   0x000f7c       data     extern C:\MCC18\src\traditional\proc\p18F97J60.asm
             BAUDCTL2bits   0x000f7c       data     extern C:\MCC18\src\traditional\proc\p18F97J60.asm
              BAUDCTLbits   0x000f7e       data     extern C:\MCC18\src\traditional\proc\p18F97J60.asm
                      BSR   0x000fe0       data     extern C:\MCC18\src\traditional\proc\p18F97J60.asm
                  BUCinfo   0x000426       data     extern C:\pavan\1+1RCUTx\1-1-RCU-T-NewArch_svn_web_changes\AgilisDevices\BUCClient.c
                 BankData   0x000bbd       data     extern C:\pavan\1+1RCUTx\1-1-RCU-T-NewArch_svn_web_changes\AgilisDevices\RCULLAccess.c
                  CCP1CON   0x000fbd       data     extern C:\MCC18\src\traditional\proc\p18F97J60.asm
              CCP1CONbits   0x000fbd       data     extern C:\MCC18\src\traditional\proc\p18F97J60.asm
                  CCP2CON   0x000fba       data     extern C:\MCC18\src\traditional\proc\p18F97J60.asm
              CCP2CONbits   0x000fba       data     extern C:\MCC18\src\traditional\proc\p18F97J60.asm
                  CCP3CON   0x000fb7       data     extern C:\MCC18\src\traditional\proc\p18F97J60.asm
              CCP3CONbits   0x000fb7       data     extern C:\MCC18\src\traditional\proc\p18F97J60.asm
                  CCP4CON   0x000f73       data     extern C:\MCC18\src\traditional\proc\p18F97J60.asm
              CCP4CONbits   0x000f73       data     extern C:\MCC18\src\traditional\proc\p18F97J60.asm
                  CCP5CON   0x000f70       data     extern C:\MCC18\src\traditional\proc\p18F97J60.asm
              CCP5CONbits   0x000f70       data     extern C:\MCC18\src\traditional\proc\p18F97J60.asm
                    CCPR1   0x000fbe       data     extern C:\MCC18\src\traditional\proc\p18F97J60.asm
                   CCPR1H   0x000fbf       data     extern C:\MCC18\src\traditional\proc\p18F97J60.asm
                   CCPR1L   0x000fbe       data     extern C:\MCC18\src\traditional\proc\p18F97J60.asm
                    CCPR2   0x000fbb       data     extern C:\MCC18\src\traditional\proc\p18F97J60.asm
                   CCPR2H   0x000fbc       data     extern C:\MCC18\src\traditional\proc\p18F97J60.asm
                   CCPR2L   0x000fbb       data     extern C:\MCC18\src\traditional\proc\p18F97J60.asm
                    CCPR3   0x000fb8       data     extern C:\MCC18\src\traditional\proc\p18F97J60.asm
                   CCPR3H   0x000fb9       data     extern C:\MCC18\src\traditional\proc\p18F97J60.asm
                   CCPR3L   0x000fb8       data     extern C:\MCC18\src\traditional\proc\p18F97J60.asm
                    CCPR4   0x000f74       data     extern C:\MCC18\src\traditional\proc\p18F97J60.asm
                   CCPR4H   0x000f75       data     extern C:\MCC18\src\traditional\proc\p18F97J60.asm
                   CCPR4L   0x000f74       data     extern C:\MCC18\src\traditional\proc\p18F97J60.asm
                    CCPR5   0x000f71       data     extern C:\MCC18\src\traditional\proc\p18F97J60.asm
                   CCPR5H   0x000f72       data     extern C:\MCC18\src\traditional\proc\p18F97J60.asm
                   CCPR5L   0x000f71       data     extern C:\MCC18\src\traditional\proc\p18F97J60.asm
                    CMCON   0x000fb4       data     extern C:\MCC18\src\traditional\proc\p18F97J60.asm
                CMCONbits   0x000fb4       data     extern C:\MCC18\src\traditional\proc\p18F97J60.asm
                   CVRCON   0x000fb5       data     extern C:\MCC18\src\traditional\proc\p18F97J60.asm
               CVRCONbits   0x000fb5       data     extern C:\MCC18\src\traditional\proc\p18F97J60.asm
                    Cache   0x000e69       data     static C:\pavan\1+1RCUTx\1-1-RCU-T-NewArch_svn_web_changes\Microchip\TCPIP Stack\ARP.c
    CurrentPacketLocation   0x0000fb       data     static C:\pavan\1+1RCUTx\1-1-RCU-T-NewArch_svn_web_changes\Microchip\TCPIP Stack\ETH97J60.c
                     DDRA   0x000f92       data     extern C:\MCC18\src\traditional\proc\p18F97J60.asm
                 DDRAbits   0x000f92       data     extern C:\MCC18\src\traditional\proc\p18F97J60.asm
                     DDRB   0x000f93       data     extern C:\MCC18\src\traditional\proc\p18F97J60.asm
                 DDRBbits   0x000f93       data     extern C:\MCC18\src\traditional\proc\p18F97J60.asm
                     DDRC   0x000f94       data     extern C:\MCC18\src\traditional\proc\p18F97J60.asm
                 DDRCbits   0x000f94       data     extern C:\MCC18\src\traditional\proc\p18F97J60.asm
                     DDRD   0x000f95       data     extern C:\MCC18\src\traditional\proc\p18F97J60.asm
                 DDRDbits   0x000f95       data     extern C:\MCC18\src\traditional\proc\p18F97J60.asm
                     DDRE   0x000f96       data     extern C:\MCC18\src\traditional\proc\p18F97J60.asm
                 DDREbits   0x000f96       data     extern C:\MCC18\src\traditional\proc\p18F97J60.asm
                     DDRF   0x000f97       data     extern C:\MCC18\src\traditional\proc\p18F97J60.asm
                 DDRFbits   0x000f97       data     extern C:\MCC18\src\traditional\proc\p18F97J60.asm
                     DDRG   0x000f98       data     extern C:\MCC18\src\traditional\proc\p18F97J60.asm
                 DDRGbits   0x000f98       data     extern C:\MCC18\src\traditional\proc\p18F97J60.asm
                     DDRH   0x000f99       data     extern C:\MCC18\src\traditional\proc\p18F97J60.asm
                 DDRHbits   0x000f99       data     extern C:\MCC18\src\traditional\proc\p18F97J60.asm
                     DDRJ   0x000f9a       data     extern C:\MCC18\src\traditional\proc\p18F97J60.asm
                 DDRJbits   0x000f9a       data     extern C:\MCC18\src\traditional\proc\p18F97J60.asm
               DHCPClient   0x000ae4       data     static C:\pavan\1+1RCUTx\1-1-RCU-T-NewArch_svn_web_changes\Microchip\TCPIP Stack\DHCP.c
DHCPClientInitializedOnce   0x000bd0       data     extern C:\pavan\1+1RCUTx\1-1-RCU-T-NewArch_svn_web_changes\Microchip\TCPIP Stack\DHCP.c
            DelayCounter1   0x000030       data     extern C:\Program Files\mcc18\src\traditional\delays\delayd1.asm
                  ECCP1AS   0x000fb6       data     extern C:\MCC18\src\traditional\proc\p18F97J60.asm
              ECCP1ASbits   0x000fb6       data     extern C:\MCC18\src\traditional\proc\p18F97J60.asm
                 ECCP1CON   0x000fbd       data     extern C:\MCC18\src\traditional\proc\p18F97J60.asm
             ECCP1CONbits   0x000fbd       data     extern C:\MCC18\src\traditional\proc\p18F97J60.asm
                 ECCP1DEL   0x000f79       data     extern C:\MCC18\src\traditional\proc\p18F97J60.asm
             ECCP1DELbits   0x000f79       data     extern C:\MCC18\src\traditional\proc\p18F97J60.asm
                  ECCP2AS   0x000f68       data     extern C:\MCC18\src\traditional\proc\p18F97J60.asm
              ECCP2ASbits   0x000f68       data     extern C:\MCC18\src\traditional\proc\p18F97J60.asm
                 ECCP2CON   0x000fba       data     extern C:\MCC18\src\traditional\proc\p18F97J60.asm
             ECCP2CONbits   0x000fba       data     extern C:\MCC18\src\traditional\proc\p18F97J60.asm
                 ECCP2DEL   0x000f67       data     extern C:\MCC18\src\traditional\proc\p18F97J60.asm
             ECCP2DELbits   0x000f67       data     extern C:\MCC18\src\traditional\proc\p18F97J60.asm
                  ECCP3AS   0x000f6a       data     extern C:\MCC18\src\traditional\proc\p18F97J60.asm
              ECCP3ASbits   0x000f6a       data     extern C:\MCC18\src\traditional\proc\p18F97J60.asm
                 ECCP3CON   0x000fb7       data     extern C:\MCC18\src\traditional\proc\p18F97J60.asm
             ECCP3CONbits   0x000fb7       data     extern C:\MCC18\src\traditional\proc\p18F97J60.asm
                 ECCP3DEL   0x000f69       data     extern C:\MCC18\src\traditional\proc\p18F97J60.asm
             ECCP3DELbits   0x000f69       data     extern C:\MCC18\src\traditional\proc\p18F97J60.asm
                    ECON1   0x000fd2       data     extern C:\MCC18\src\traditional\proc\p18F97J60.asm
                ECON1bits   0x000fd2       data     extern C:\MCC18\src\traditional\proc\p18F97J60.asm
                    ECON2   0x000efe       data     extern C:\MCC18\src\traditional\proc\p18F97J60.asm
                ECON2bits   0x000efe       data     extern C:\MCC18\src\traditional\proc\p18F97J60.asm
                    EDATA   0x000f61       data     extern C:\MCC18\src\traditional\proc\p18F97J60.asm
                EDATAbits   0x000f61       data     extern C:\MCC18\src\traditional\proc\p18F97J60.asm
                   EDMACS   0x000ef6       data     extern C:\MCC18\src\traditional\proc\p18F97J60.asm
                  EDMACSH   0x000ef7       data     extern C:\MCC18\src\traditional\proc\p18F97J60.asm
                  EDMACSL   0x000ef6       data     extern C:\MCC18\src\traditional\proc\p18F97J60.asm
                  EDMADST   0x000ef4       data     extern C:\MCC18\src\traditional\proc\p18F97J60.asm
                 EDMADSTH   0x000ef5       data     extern C:\MCC18\src\traditional\proc\p18F97J60.asm
                 EDMADSTL   0x000ef4       data     extern C:\MCC18\src\traditional\proc\p18F97J60.asm
                   EDMAND   0x000ef2       data     extern C:\MCC18\src\traditional\proc\p18F97J60.asm
                  EDMANDH   0x000ef3       data     extern C:\MCC18\src\traditional\proc\p18F97J60.asm
                  EDMANDL   0x000ef2       data     extern C:\MCC18\src\traditional\proc\p18F97J60.asm
                   EDMAST   0x000ef0       data     extern C:\MCC18\src\traditional\proc\p18F97J60.asm
                  EDMASTH   0x000ef1       data     extern C:\MCC18\src\traditional\proc\p18F97J60.asm
                  EDMASTL   0x000ef0       data     extern C:\MCC18\src\traditional\proc\p18F97J60.asm
                   EECON1   0x000fa6       data     extern C:\MCC18\src\traditional\proc\p18F97J60.asm
               EECON1bits   0x000fa6       data     extern C:\MCC18\src\traditional\proc\p18F97J60.asm
                   EECON2   0x000fa7       data     extern C:\MCC18\src\traditional\proc\p18F97J60.asm
            EEPROMAddress   0x000b2b       data     static C:\pavan\1+1RCUTx\1-1-RCU-T-NewArch_svn_web_changes\Microchip\TCPIP Stack\SPIEEPROM.c
             EEPROMBuffer   0x000b2f       data     static C:\pavan\1+1RCUTx\1-1-RCU-T-NewArch_svn_web_changes\Microchip\TCPIP Stack\SPIEEPROM.c
                  EFLOCON   0x000e97       data     extern C:\MCC18\src\traditional\proc\p18F97J60.asm
              EFLOCONbits   0x000e97       data     extern C:\MCC18\src\traditional\proc\p18F97J60.asm
                     EHT0   0x000ec0       data     extern C:\MCC18\src\traditional\proc\p18F97J60.asm
                     EHT1   0x000ec1       data     extern C:\MCC18\src\traditional\proc\p18F97J60.asm
                     EHT2   0x000ec2       data     extern C:\MCC18\src\traditional\proc\p18F97J60.asm
                     EHT3   0x000ec3       data     extern C:\MCC18\src\traditional\proc\p18F97J60.asm
                     EHT4   0x000ec4       data     extern C:\MCC18\src\traditional\proc\p18F97J60.asm
                     EHT5   0x000ec5       data     extern C:\MCC18\src\traditional\proc\p18F97J60.asm
                     EHT6   0x000ec6       data     extern C:\MCC18\src\traditional\proc\p18F97J60.asm
                     EHT7   0x000ec7       data     extern C:\MCC18\src\traditional\proc\p18F97J60.asm
                      EIE   0x000efb       data     extern C:\MCC18\src\traditional\proc\p18F97J60.asm
                  EIEbits   0x000efb       data     extern C:\MCC18\src\traditional\proc\p18F97J60.asm
                      EIR   0x000f60       data     extern C:\MCC18\src\traditional\proc\p18F97J60.asm
                  EIRbits   0x000f60       data     extern C:\MCC18\src\traditional\proc\p18F97J60.asm
                    EPAUS   0x000e98       data     extern C:\MCC18\src\traditional\proc\p18F97J60.asm
                   EPAUSH   0x000e99       data     extern C:\MCC18\src\traditional\proc\p18F97J60.asm
                   EPAUSL   0x000e98       data     extern C:\MCC18\src\traditional\proc\p18F97J60.asm
                  EPKTCNT   0x000ed9       data     extern C:\MCC18\src\traditional\proc\p18F97J60.asm
                    EPMCS   0x000ed0       data     extern C:\MCC18\src\traditional\proc\p18F97J60.asm
                   EPMCSH   0x000ed1       data     extern C:\MCC18\src\traditional\proc\p18F97J60.asm
                   EPMCSL   0x000ed0       data     extern C:\MCC18\src\traditional\proc\p18F97J60.asm
                    EPMM0   0x000ec8       data     extern C:\MCC18\src\traditional\proc\p18F97J60.asm
                    EPMM1   0x000ec9       data     extern C:\MCC18\src\traditional\proc\p18F97J60.asm
                    EPMM2   0x000eca       data     extern C:\MCC18\src\traditional\proc\p18F97J60.asm
                    EPMM3   0x000ecb       data     extern C:\MCC18\src\traditional\proc\p18F97J60.asm
                    EPMM4   0x000ecc       data     extern C:\MCC18\src\traditional\proc\p18F97J60.asm
                    EPMM5   0x000ecd       data     extern C:\MCC18\src\traditional\proc\p18F97J60.asm
                    EPMM6   0x000ece       data     extern C:\MCC18\src\traditional\proc\p18F97J60.asm
                    EPMM7   0x000ecf       data     extern C:\MCC18\src\traditional\proc\p18F97J60.asm
                     EPMO   0x000ed4       data     extern C:\MCC18\src\traditional\proc\p18F97J60.asm
                    EPMOH   0x000ed5       data     extern C:\MCC18\src\traditional\proc\p18F97J60.asm
                    EPMOL   0x000ed4       data     extern C:\MCC18\src\traditional\proc\p18F97J60.asm
                    ERDPT   0x000f7a       data     extern C:\MCC18\src\traditional\proc\p18F97J60.asm
                   ERDPTH   0x000f7b       data     extern C:\MCC18\src\traditional\proc\p18F97J60.asm
                   ERDPTL   0x000f7a       data     extern C:\MCC18\src\traditional\proc\p18F97J60.asm
                  ERXFCON   0x000ed8       data     extern C:\MCC18\src\traditional\proc\p18F97J60.asm
              ERXFCONbits   0x000ed8       data     extern C:\MCC18\src\traditional\proc\p18F97J60.asm
                    ERXND   0x000eea       data     extern C:\MCC18\src\traditional\proc\p18F97J60.asm
                   ERXNDH   0x000eeb       data     extern C:\MCC18\src\traditional\proc\p18F97J60.asm
                   ERXNDL   0x000eea       data     extern C:\MCC18\src\traditional\proc\p18F97J60.asm
                  ERXRDPT   0x000eec       data     extern C:\MCC18\src\traditional\proc\p18F97J60.asm
                 ERXRDPTH   0x000eed       data     extern C:\MCC18\src\traditional\proc\p18F97J60.asm
                 ERXRDPTL   0x000eec       data     extern C:\MCC18\src\traditional\proc\p18F97J60.asm
                    ERXST   0x000ee8       data     extern C:\MCC18\src\traditional\proc\p18F97J60.asm
                   ERXSTH   0x000ee9       data     extern C:\MCC18\src\traditional\proc\p18F97J60.asm
                   ERXSTL   0x000ee8       data     extern C:\MCC18\src\traditional\proc\p18F97J60.asm
                  ERXWRPT   0x000eee       data     extern C:\MCC18\src\traditional\proc\p18F97J60.asm
                 ERXWRPTH   0x000eef       data     extern C:\MCC18\src\traditional\proc\p18F97J60.asm
                 ERXWRPTL   0x000eee       data     extern C:\MCC18\src\traditional\proc\p18F97J60.asm
                    ESTAT   0x000efd       data     extern C:\MCC18\src\traditional\proc\p18F97J60.asm
                ESTATbits   0x000efd       data     extern C:\MCC18\src\traditional\proc\p18F97J60.asm
                    ETXND   0x000ee6       data     extern C:\MCC18\src\traditional\proc\p18F97J60.asm
                   ETXNDH   0x000ee7       data     extern C:\MCC18\src\traditional\proc\p18F97J60.asm
                   ETXNDL   0x000ee6       data     extern C:\MCC18\src\traditional\proc\p18F97J60.asm
                    ETXST   0x000ee4       data     extern C:\MCC18\src\traditional\proc\p18F97J60.asm
                   ETXSTH   0x000ee5       data     extern C:\MCC18\src\traditional\proc\p18F97J60.asm
                   ETXSTL   0x000ee4       data     extern C:\MCC18\src\traditional\proc\p18F97J60.asm
                    EWRPT   0x000ee2       data     extern C:\MCC18\src\traditional\proc\p18F97J60.asm
                   EWRPTH   0x000ee3       data     extern C:\MCC18\src\traditional\proc\p18F97J60.asm
                   EWRPTL   0x000ee2       data     extern C:\MCC18\src\traditional\proc\p18F97J60.asm
     FMBUCOnOffRetryCount   0x0007a7       data     extern C:\pavan\1+1RCUTx\1-1-RCU-T-NewArch_svn_web_changes\AgilisDevices\BUCClient.c
                     FSR0   0x000fe9       data     extern C:\MCC18\src\traditional\proc\p18F97J60.asm
                    FSR0H   0x000fea       data     extern C:\MCC18\src\traditional\proc\p18F97J60.asm
                    FSR0L   0x000fe9       data     extern C:\MCC18\src\traditional\proc\p18F97J60.asm
                     FSR1   0x000fe1       data     extern C:\MCC18\src\traditional\proc\p18F97J60.asm
                    FSR1H   0x000fe2       data     extern C:\MCC18\src\traditional\proc\p18F97J60.asm
                    FSR1L   0x000fe1       data     extern C:\MCC18\src\traditional\proc\p18F97J60.asm
                     FSR2   0x000fd9       data     extern C:\MCC18\src\traditional\proc\p18F97J60.asm
                    FSR2H   0x000fda       data     extern C:\MCC18\src\traditional\proc\p18F97J60.asm
                    FSR2L   0x000fd9       data     extern C:\MCC18\src\traditional\proc\p18F97J60.asm
                    Flags   0x0001ef       data     static C:\pavan\1+1RCUTx\1-1-RCU-T-NewArch_svn_web_changes\Microchip\TCPIP Stack\UDP.c
              HardwareWDT   0x0004fb       data     extern C:\pavan\1+1RCUTx\1-1-RCU-T-NewArch_svn_web_changes\Main\Main.c
                      IIR   0x0002e2       data     static C:\pavan\1+1RCUTx\1-1-RCU-T-NewArch_svn_web_changes\Drivers\UARTISR.c
                      IIR   0x0002df       data     static C:\pavan\1+1RCUTx\1-1-RCU-T-NewArch_svn_web_changes\Drivers\UARTISR.c
                      IIR   0x0002dc       data     static C:\pavan\1+1RCUTx\1-1-RCU-T-NewArch_svn_web_changes\Drivers\UARTISR.c
                    INDF0   0x000fef       data     extern C:\MCC18\src\traditional\proc\p18F97J60.asm
                    INDF1   0x000fe7       data     extern C:\MCC18\src\traditional\proc\p18F97J60.asm
                    INDF2   0x000fdf       data     extern C:\MCC18\src\traditional\proc\p18F97J60.asm
                   INTCON   0x000ff2       data     extern C:\MCC18\src\traditional\proc\p18F97J60.asm
                  INTCON2   0x000ff1       data     extern C:\MCC18\src\traditional\proc\p18F97J60.asm
              INTCON2bits   0x000ff1       data     extern C:\MCC18\src\traditional\proc\p18F97J60.asm
                  INTCON3   0x000ff0       data     extern C:\MCC18\src\traditional\proc\p18F97J60.asm
              INTCON3bits   0x000ff0       data     extern C:\MCC18\src\traditional\proc\p18F97J60.asm
               INTCONbits   0x000ff2       data     extern C:\MCC18\src\traditional\proc\p18F97J60.asm
              IPHeaderLen   0x0003ff       data     static C:\pavan\1+1RCUTx\1-1-RCU-T-NewArch_svn_web_changes\Microchip\TCPIP Stack\IP.c
                     IPR1   0x000f9f       data     extern C:\MCC18\src\traditional\proc\p18F97J60.asm
                 IPR1bits   0x000f9f       data     extern C:\MCC18\src\traditional\proc\p18F97J60.asm
                     IPR2   0x000fa2       data     extern C:\MCC18\src\traditional\proc\p18F97J60.asm
                 IPR2bits   0x000fa2       data     extern C:\MCC18\src\traditional\proc\p18F97J60.asm
                     IPR3   0x000fa5       data     extern C:\MCC18\src\traditional\proc\p18F97J60.asm
                 IPR3bits   0x000fa5       data     extern C:\MCC18\src\traditional\proc\p18F97J60.asm
                        L   0x000e7d       data     extern C:\pavan\1+1RCUTx\1-1-RCU-T-NewArch_svn_web_changes\Agilis-SysLib\util.c
                     LATA   0x000f89       data     extern C:\MCC18\src\traditional\proc\p18F97J60.asm
                 LATAbits   0x000f89       data     extern C:\MCC18\src\traditional\proc\p18F97J60.asm
                     LATB   0x000f8a       data     extern C:\MCC18\src\traditional\proc\p18F97J60.asm
                 LATBbits   0x000f8a       data     extern C:\MCC18\src\traditional\proc\p18F97J60.asm
                     LATC   0x000f8b       data     extern C:\MCC18\src\traditional\proc\p18F97J60.asm
                 LATCbits   0x000f8b       data     extern C:\MCC18\src\traditional\proc\p18F97J60.asm
                     LATD   0x000f8c       data     extern C:\MCC18\src\traditional\proc\p18F97J60.asm
                 LATDbits   0x000f8c       data     extern C:\MCC18\src\traditional\proc\p18F97J60.asm
                     LATE   0x000f8d       data     extern C:\MCC18\src\traditional\proc\p18F97J60.asm
                 LATEbits   0x000f8d       data     extern C:\MCC18\src\traditional\proc\p18F97J60.asm
                     LATF   0x000f8e       data     extern C:\MCC18\src\traditional\proc\p18F97J60.asm
                 LATFbits   0x000f8e       data     extern C:\MCC18\src\traditional\proc\p18F97J60.asm
                     LATG   0x000f8f       data     extern C:\MCC18\src\traditional\proc\p18F97J60.asm
                 LATGbits   0x000f8f       data     extern C:\MCC18\src\traditional\proc\p18F97J60.asm
                     LATH   0x000f90       data     extern C:\MCC18\src\traditional\proc\p18F97J60.asm
                 LATHbits   0x000f90       data     extern C:\MCC18\src\traditional\proc\p18F97J60.asm
                     LATJ   0x000f91       data     extern C:\MCC18\src\traditional\proc\p18F97J60.asm
                 LATJbits   0x000f91       data     extern C:\MCC18\src\traditional\proc\p18F97J60.asm
            LastPutSocket   0x000bc8       data     static C:\pavan\1+1RCUTx\1-1-RCU-T-NewArch_svn_web_changes\Microchip\TCPIP Stack\UDP.c
                   MAADR1   0x000e84       data     extern C:\MCC18\src\traditional\proc\p18F97J60.asm
                   MAADR2   0x000e85       data     extern C:\MCC18\src\traditional\proc\p18F97J60.asm
                   MAADR3   0x000e82       data     extern C:\MCC18\src\traditional\proc\p18F97J60.asm
                   MAADR4   0x000e83       data     extern C:\MCC18\src\traditional\proc\p18F97J60.asm
                   MAADR5   0x000e80       data     extern C:\MCC18\src\traditional\proc\p18F97J60.asm
                   MAADR6   0x000e81       data     extern C:\MCC18\src\traditional\proc\p18F97J60.asm
                  MABBIPG   0x000ea4       data     extern C:\MCC18\src\traditional\proc\p18F97J60.asm
                   MACON1   0x000ea0       data     extern C:\MCC18\src\traditional\proc\p18F97J60.asm
               MACON1bits   0x000ea0       data     extern C:\MCC18\src\traditional\proc\p18F97J60.asm
                   MACON3   0x000ea2       data     extern C:\MCC18\src\traditional\proc\p18F97J60.asm
               MACON3bits   0x000ea2       data     extern C:\MCC18\src\traditional\proc\p18F97J60.asm
                   MACON4   0x000ea3       data     extern C:\MCC18\src\traditional\proc\p18F97J60.asm
               MACON4bits   0x000ea3       data     extern C:\MCC18\src\traditional\proc\p18F97J60.asm
                    MAIPG   0x000ea6       data     extern C:\MCC18\src\traditional\proc\p18F97J60.asm
                   MAIPGH   0x000ea7       data     extern C:\MCC18\src\traditional\proc\p18F97J60.asm
                   MAIPGL   0x000ea6       data     extern C:\MCC18\src\traditional\proc\p18F97J60.asm
                   MAMXFL   0x000eaa       data     extern C:\MCC18\src\traditional\proc\p18F97J60.asm
                  MAMXFLH   0x000eab       data     extern C:\MCC18\src\traditional\proc\p18F97J60.asm
                  MAMXFLL   0x000eaa       data     extern C:\MCC18\src\traditional\proc\p18F97J60.asm
                   MEMCON   0x000f9c       data     extern C:\MCC18\src\traditional\proc\p18F97J60.asm
               MEMCONbits   0x000f9c       data     extern C:\MCC18\src\traditional\proc\p18F97J60.asm
                    MICMD   0x000eb2       data     extern C:\MCC18\src\traditional\proc\p18F97J60.asm
                MICMDbits   0x000eb2       data     extern C:\MCC18\src\traditional\proc\p18F97J60.asm
                     MIRD   0x000eb8       data     extern C:\MCC18\src\traditional\proc\p18F97J60.asm
                    MIRDH   0x000eb9       data     extern C:\MCC18\src\traditional\proc\p18F97J60.asm
                    MIRDL   0x000eb8       data     extern C:\MCC18\src\traditional\proc\p18F97J60.asm
                 MIREGADR   0x000eb4       data     extern C:\MCC18\src\traditional\proc\p18F97J60.asm
                   MISTAT   0x000e8a       data     extern C:\MCC18\src\traditional\proc\p18F97J60.asm
               MISTATbits   0x000e8a       data     extern C:\MCC18\src\traditional\proc\p18F97J60.asm
                     MIWR   0x000eb6       data     extern C:\MCC18\src\traditional\proc\p18F97J60.asm
                    MIWRH   0x000eb7       data     extern C:\MCC18\src\traditional\proc\p18F97J60.asm
                    MIWRL   0x000eb6       data     extern C:\MCC18\src\traditional\proc\p18F97J60.asm
                MPFSStubs   0x000684       data     static C:\pavan\1+1RCUTx\1-1-RCU-T-NewArch_svn_web_changes\Microchip\TCPIP Stack\MPFS2.c
               Manager_IP   0x0009fa       data     extern C:\pavan\1+1RCUTx\1-1-RCU-T-NewArch_svn_web_changes\Bootstrap\Initialization.c
           MyStaticIPAddr   0x000b6f       data     extern C:\pavan\1+1RCUTx\1-1-RCU-T-NewArch_svn_web_changes\Main\Main.c
                    MyTCB   0x000702       data     static C:\pavan\1+1RCUTx\1-1-RCU-T-NewArch_svn_web_changes\Microchip\TCPIP Stack\TCP.c
                MyTCBStub   0x000727       data     static C:\pavan\1+1RCUTx\1-1-RCU-T-NewArch_svn_web_changes\Microchip\TCPIP Stack\TCP.c
       NextPacketLocation   0x0000f9       data     static C:\pavan\1+1RCUTx\1-1-RCU-T-NewArch_svn_web_changes\Microchip\TCPIP Stack\ETH97J60.c
                 NextPort   0x000700       data     static C:\pavan\1+1RCUTx\1-1-RCU-T-NewArch_svn_web_changes\Microchip\TCPIP Stack\TCP.c
                 NextPort   0x0001f0       data     static C:\pavan\1+1RCUTx\1-1-RCU-T-NewArch_svn_web_changes\Microchip\TCPIP Stack\UDP.c
                   OSCCON   0x000fd3       data     extern C:\MCC18\src\traditional\proc\p18F97J60.asm
               OSCCONbits   0x000fd3       data     extern C:\MCC18\src\traditional\proc\p18F97J60.asm
                  OSCTUNE   0x000f9b       data     extern C:\MCC18\src\traditional\proc\p18F97J60.asm
              OSCTUNEbits   0x000f9b       data     extern C:\MCC18\src\traditional\proc\p18F97J60.asm
                       PC   0x000ff9       data     extern C:\MCC18\src\traditional\proc\p18F97J60.asm
                      PCL   0x000ff9       data     extern C:\MCC18\src\traditional\proc\p18F97J60.asm
                   PCLATH   0x000ffa       data     extern C:\MCC18\src\traditional\proc\p18F97J60.asm
                   PCLATU   0x000ffb       data     extern C:\MCC18\src\traditional\proc\p18F97J60.asm
                     PIE1   0x000f9d       data     extern C:\MCC18\src\traditional\proc\p18F97J60.asm
                 PIE1bits   0x000f9d       data     extern C:\MCC18\src\traditional\proc\p18F97J60.asm
                     PIE2   0x000fa0       data     extern C:\MCC18\src\traditional\proc\p18F97J60.asm
                 PIE2bits   0x000fa0       data     extern C:\MCC18\src\traditional\proc\p18F97J60.asm
                     PIE3   0x000fa3       data     extern C:\MCC18\src\traditional\proc\p18F97J60.asm
                 PIE3bits   0x000fa3       data     extern C:\MCC18\src\traditional\proc\p18F97J60.asm
                     PIR1   0x000f9e       data     extern C:\MCC18\src\traditional\proc\p18F97J60.asm
                 PIR1bits   0x000f9e       data     extern C:\MCC18\src\traditional\proc\p18F97J60.asm
                     PIR2   0x000fa1       data     extern C:\MCC18\src\traditional\proc\p18F97J60.asm
                 PIR2bits   0x000fa1       data     extern C:\MCC18\src\traditional\proc\p18F97J60.asm
                     PIR3   0x000fa4       data     extern C:\MCC18\src\traditional\proc\p18F97J60.asm
                 PIR3bits   0x000fa4       data     extern C:\MCC18\src\traditional\proc\p18F97J60.asm
                   PLUSW0   0x000feb       data     extern C:\MCC18\src\traditional\proc\p18F97J60.asm
                   PLUSW1   0x000fe3       data     extern C:\MCC18\src\traditional\proc\p18F97J60.asm
                   PLUSW2   0x000fdb       data     extern C:\MCC18\src\traditional\proc\p18F97J60.asm
                    PORTA   0x000f80       data     extern C:\MCC18\src\traditional\proc\p18F97J60.asm
                PORTAbits   0x000f80       data     extern C:\MCC18\src\traditional\proc\p18F97J60.asm
                    PORTB   0x000f81       data     extern C:\MCC18\src\traditional\proc\p18F97J60.asm
                PORTBbits   0x000f81       data     extern C:\MCC18\src\traditional\proc\p18F97J60.asm
                    PORTC   0x000f82       data     extern C:\MCC18\src\traditional\proc\p18F97J60.asm
                PORTCbits   0x000f82       data     extern C:\MCC18\src\traditional\proc\p18F97J60.asm
                    PORTD   0x000f83       data     extern C:\MCC18\src\traditional\proc\p18F97J60.asm
                PORTDbits   0x000f83       data     extern C:\MCC18\src\traditional\proc\p18F97J60.asm
                    PORTE   0x000f84       data     extern C:\MCC18\src\traditional\proc\p18F97J60.asm
                PORTEbits   0x000f84       data     extern C:\MCC18\src\traditional\proc\p18F97J60.asm
                    PORTF   0x000f85       data     extern C:\MCC18\src\traditional\proc\p18F97J60.asm
                PORTFbits   0x000f85       data     extern C:\MCC18\src\traditional\proc\p18F97J60.asm
                    PORTG   0x000f86       data     extern C:\MCC18\src\traditional\proc\p18F97J60.asm
                PORTGbits   0x000f86       data     extern C:\MCC18\src\traditional\proc\p18F97J60.asm
                    PORTH   0x000f87       data     extern C:\MCC18\src\traditional\proc\p18F97J60.asm
                PORTHbits   0x000f87       data     extern C:\MCC18\src\traditional\proc\p18F97J60.asm
                    PORTJ   0x000f88       data     extern C:\MCC18\src\traditional\proc\p18F97J60.asm
                PORTJbits   0x000f88       data     extern C:\MCC18\src\traditional\proc\p18F97J60.asm
                 POSTDEC0   0x000fed       data     extern C:\MCC18\src\traditional\proc\p18F97J60.asm
                 POSTDEC1   0x000fe5       data     extern C:\MCC18\src\traditional\proc\p18F97J60.asm
                 POSTDEC2   0x000fdd       data     extern C:\MCC18\src\traditional\proc\p18F97J60.asm
                 POSTINC0   0x000fee       data     extern C:\MCC18\src\traditional\proc\p18F97J60.asm
                 POSTINC1   0x000fe6       data     extern C:\MCC18\src\traditional\proc\p18F97J60.asm
                 POSTINC2   0x000fde       data     extern C:\MCC18\src\traditional\proc\p18F97J60.asm
                      PR2   0x000fcb       data     extern C:\MCC18\src\traditional\proc\p18F97J60.asm
                      PR4   0x000f77       data     extern C:\MCC18\src\traditional\proc\p18F97J60.asm
                  PREINC0   0x000fec       data     extern C:\MCC18\src\traditional\proc\p18F97J60.asm
                  PREINC1   0x000fe4       data     extern C:\MCC18\src\traditional\proc\p18F97J60.asm
                  PREINC2   0x000fdc       data     extern C:\MCC18\src\traditional\proc\p18F97J60.asm
                     PROD   0x000ff3       data     extern C:\MCC18\src\traditional\proc\p18F97J60.asm
                    PRODH   0x000ff4       data     extern C:\MCC18\src\traditional\proc\p18F97J60.asm
                    PRODL   0x000ff3       data     extern C:\MCC18\src\traditional\proc\p18F97J60.asm
                   PSPCON   0x000fb0       data     extern C:\MCC18\src\traditional\proc\p18F97J60.asm
               PSPCONbits   0x000fb0       data     extern C:\MCC18\src\traditional\proc\p18F97J60.asm
                     RCON   0x000fd0       data     extern C:\MCC18\src\traditional\proc\p18F97J60.asm
                 RCONbits   0x000fd0       data     extern C:\MCC18\src\traditional\proc\p18F97J60.asm
                    RCREG   0x000fae       data     extern C:\MCC18\src\traditional\proc\p18F97J60.asm
                   RCREG1   0x000fae       data     extern C:\MCC18\src\traditional\proc\p18F97J60.asm
                   RCREG2   0x000f6e       data     extern C:\MCC18\src\traditional\proc\p18F97J60.asm
                    RCSTA   0x000fab       data     extern C:\MCC18\src\traditional\proc\p18F97J60.asm
                   RCSTA1   0x000fab       data     extern C:\MCC18\src\traditional\proc\p18F97J60.asm
               RCSTA1bits   0x000fab       data     extern C:\MCC18\src\traditional\proc\p18F97J60.asm
                   RCSTA2   0x000f6b       data     extern C:\MCC18\src\traditional\proc\p18F97J60.asm
               RCSTA2bits   0x000f6b       data     extern C:\MCC18\src\traditional\proc\p18F97J60.asm
                RCSTAbits   0x000fab       data     extern C:\MCC18\src\traditional\proc\p18F97J60.asm
                     RCU0   0x0007e1       data     extern C:\pavan\1+1RCUTx\1-1-RCU-T-NewArch_svn_web_changes\AgilisDevices\RCULLAccess.c
                  RCUinfo   0x0004c6       data     extern C:\pavan\1+1RCUTx\1-1-RCU-T-NewArch_svn_web_changes\AgilisDevices\RCUHLAccess.c
                RXHeadPtr   0x000ba9       data     static C:\pavan\1+1RCUTx\1-1-RCU-T-NewArch_svn_web_changes\Microchip\TCPIP Stack\UART2TCPBridge.c
                RXTailPtr   0x000bab       data     static C:\pavan\1+1RCUTx\1-1-RCU-T-NewArch_svn_web_changes\Microchip\TCPIP Stack\UART2TCPBridge.c
                    Read2   0x000b76       data     extern C:\pavan\1+1RCUTx\1-1-RCU-T-NewArch_svn_web_changes\Main\Main.c
               RemoteInfo   0x000743       data     static C:\pavan\1+1RCUTx\1-1-RCU-T-NewArch_svn_web_changes\Microchip\TCPIP Stack\TCP.c
                     SIGN   0x00001a       data     extern C:\Program Files\mcc18\src\traditional\math\cmath18.asm
          SNMPAgentSocket   0x000abc       data     static C:\pavan\1+1RCUTx\1-1-RCU-T-NewArch_svn_web_changes\Microchip\TCPIP Stack\SNMP.c
           SNMPNotifyInfo   0x000b0a       data     extern C:\pavan\1+1RCUTx\1-1-RCU-T-NewArch_svn_web_changes\Microchip\TCPIP Stack\SNMP.c
             SNMPRxOffset   0x000aba       data     static C:\pavan\1+1RCUTx\1-1-RCU-T-NewArch_svn_web_changes\Microchip\TCPIP Stack\SNMP.c
               SNMPStatus   0x000b00       data     static C:\pavan\1+1RCUTx\1-1-RCU-T-NewArch_svn_web_changes\Microchip\TCPIP Stack\SNMP.c
             SNMPTxOffset   0x000ab8       data     extern C:\pavan\1+1RCUTx\1-1-RCU-T-NewArch_svn_web_changes\Microchip\TCPIP Stack\SNMP.c
             SNMP_cmd_tbl   0x000800       data     extern C:\pavan\1+1RCUTx\1-1-RCU-T-NewArch_svn_web_changes\App\SNMP\AgilisSNMPMibRegistry.h
                    SPBRG   0x000faf       data     extern C:\MCC18\src\traditional\proc\p18F97J60.asm
                   SPBRG1   0x000faf       data     extern C:\MCC18\src\traditional\proc\p18F97J60.asm
                   SPBRG2   0x000f6f       data     extern C:\MCC18\src\traditional\proc\p18F97J60.asm
                   SPBRGH   0x000f7f       data     extern C:\MCC18\src\traditional\proc\p18F97J60.asm
                  SPBRGH1   0x000f7f       data     extern C:\MCC18\src\traditional\proc\p18F97J60.asm
                  SPBRGH2   0x000f7d       data     extern C:\MCC18\src\traditional\proc\p18F97J60.asm
                  SSP1ADD   0x000fc8       data     extern C:\MCC18\src\traditional\proc\p18F97J60.asm
                  SSP1BUF   0x000fc9       data     extern C:\MCC18\src\traditional\proc\p18F97J60.asm
                 SSP1CON1   0x000fc6       data     extern C:\MCC18\src\traditional\proc\p18F97J60.asm
             SSP1CON1bits   0x000fc6       data     extern C:\MCC18\src\traditional\proc\p18F97J60.asm
                 SSP1CON2   0x000fc5       data     extern C:\MCC18\src\traditional\proc\p18F97J60.asm
             SSP1CON2bits   0x000fc5       data     extern C:\MCC18\src\traditional\proc\p18F97J60.asm
                 SSP1STAT   0x000fc7       data     extern C:\MCC18\src\traditional\proc\p18F97J60.asm
             SSP1STATbits   0x000fc7       data     extern C:\MCC18\src\traditional\proc\p18F97J60.asm
                  SSP2ADD   0x000f65       data     extern C:\MCC18\src\traditional\proc\p18F97J60.asm
                  SSP2BUF   0x000f66       data     extern C:\MCC18\src\traditional\proc\p18F97J60.asm
                 SSP2CON1   0x000f63       data     extern C:\MCC18\src\traditional\proc\p18F97J60.asm
             SSP2CON1bits   0x000f63       data     extern C:\MCC18\src\traditional\proc\p18F97J60.asm
                 SSP2CON2   0x000f62       data     extern C:\MCC18\src\traditional\proc\p18F97J60.asm
             SSP2CON2bits   0x000f62       data     extern C:\MCC18\src\traditional\proc\p18F97J60.asm
                 SSP2STAT   0x000f64       data     extern C:\MCC18\src\traditional\proc\p18F97J60.asm
             SSP2STATbits   0x000f64       data     extern C:\MCC18\src\traditional\proc\p18F97J60.asm
                   SSPADD   0x000fc8       data     extern C:\MCC18\src\traditional\proc\p18F97J60.asm
      SSPAOnOffRetryCount   0x0007a3       data     extern C:\pavan\1+1RCUTx\1-1-RCU-T-NewArch_svn_web_changes\AgilisDevices\BUCClient.c
                   SSPBUF   0x000fc9       data     extern C:\MCC18\src\traditional\proc\p18F97J60.asm
                  SSPCON1   0x000fc6       data     extern C:\MCC18\src\traditional\proc\p18F97J60.asm
              SSPCON1bits   0x000fc6       data     extern C:\MCC18\src\traditional\proc\p18F97J60.asm
                  SSPCON2   0x000fc5       data     extern C:\MCC18\src\traditional\proc\p18F97J60.asm
              SSPCON2bits   0x000fc5       data     extern C:\MCC18\src\traditional\proc\p18F97J60.asm
                  SSPSTAT   0x000fc7       data     extern C:\MCC18\src\traditional\proc\p18F97J60.asm
              SSPSTATbits   0x000fc7       data     extern C:\MCC18\src\traditional\proc\p18F97J60.asm
                   STATUS   0x000fd8       data     extern C:\MCC18\src\traditional\proc\p18F97J60.asm
               STATUSbits   0x000fd8       data     extern C:\MCC18\src\traditional\proc\p18F97J60.asm
                   STKPTR   0x000ffc       data     extern C:\MCC18\src\traditional\proc\p18F97J60.asm
               STKPTRbits   0x000ffc       data     extern C:\MCC18\src\traditional\proc\p18F97J60.asm
                 SYNQueue   0x000a40       data     static C:\pavan\1+1RCUTx\1-1-RCU-T-NewArch_svn_web_changes\Microchip\TCPIP Stack\TCP.c
                     Seed   0x0001fe       data     static C:\Program Files\mcc18\src\traditional\stdclib\rand.asm
         SocketWithRxData   0x000bc9       data     static C:\pavan\1+1RCUTx\1-1-RCU-T-NewArch_svn_web_changes\Microchip\TCPIP Stack\UDP.c
                    T0CON   0x000fd5       data     extern C:\MCC18\src\traditional\proc\p18F97J60.asm
                T0CONbits   0x000fd5       data     extern C:\MCC18\src\traditional\proc\p18F97J60.asm
                    T1CON   0x000fcd       data     extern C:\MCC18\src\traditional\proc\p18F97J60.asm
                T1CONbits   0x000fcd       data     extern C:\MCC18\src\traditional\proc\p18F97J60.asm
                    T2CON   0x000fca       data     extern C:\MCC18\src\traditional\proc\p18F97J60.asm
                T2CONbits   0x000fca       data     extern C:\MCC18\src\traditional\proc\p18F97J60.asm
                    T3CON   0x000fb1       data     extern C:\MCC18\src\traditional\proc\p18F97J60.asm
                T3CONbits   0x000fb1       data     extern C:\MCC18\src\traditional\proc\p18F97J60.asm
                    T4CON   0x000f76       data     extern C:\MCC18\src\traditional\proc\p18F97J60.asm
                T4CONbits   0x000f76       data     extern C:\MCC18\src\traditional\proc\p18F97J60.asm
                   TABLAT   0x000ff5       data     extern C:\MCC18\src\traditional\proc\p18F97J60.asm
                   TBLPTR   0x000ff6       data     extern C:\MCC18\src\traditional\proc\p18F97J60.asm
                  TBLPTRH   0x000ff7       data     extern C:\MCC18\src\traditional\proc\p18F97J60.asm
                  TBLPTRL   0x000ff6       data     extern C:\MCC18\src\traditional\proc\p18F97J60.asm
                  TBLPTRU   0x000ff8       data     extern C:\MCC18\src\traditional\proc\p18F97J60.asm
                 TCBStubs   0x000500       data     static C:\pavan\1+1RCUTx\1-1-RCU-T-NewArch_svn_web_changes\Microchip\TCPIP Stack\TCP.c
                    TMR0H   0x000fd7       data     extern C:\MCC18\src\traditional\proc\p18F97J60.asm
                    TMR0L   0x000fd6       data     extern C:\MCC18\src\traditional\proc\p18F97J60.asm
                    TMR1H   0x000fcf       data     extern C:\MCC18\src\traditional\proc\p18F97J60.asm
                    TMR1L   0x000fce       data     extern C:\MCC18\src\traditional\proc\p18F97J60.asm
                     TMR2   0x000fcc       data     extern C:\MCC18\src\traditional\proc\p18F97J60.asm
                    TMR3H   0x000fb3       data     extern C:\MCC18\src\traditional\proc\p18F97J60.asm
                    TMR3L   0x000fb2       data     extern C:\MCC18\src\traditional\proc\p18F97J60.asm
                     TMR4   0x000f78       data     extern C:\MCC18\src\traditional\proc\p18F97J60.asm
                      TOS   0x000ffd       data     extern C:\MCC18\src\traditional\proc\p18F97J60.asm
                     TOSH   0x000ffe       data     extern C:\MCC18\src\traditional\proc\p18F97J60.asm
                     TOSL   0x000ffd       data     extern C:\MCC18\src\traditional\proc\p18F97J60.asm
                     TOSU   0x000fff       data     extern C:\MCC18\src\traditional\proc\p18F97J60.asm
                    TRISA   0x000f92       data     extern C:\MCC18\src\traditional\proc\p18F97J60.asm
                TRISAbits   0x000f92       data     extern C:\MCC18\src\traditional\proc\p18F97J60.asm
                    TRISB   0x000f93       data     extern C:\MCC18\src\traditional\proc\p18F97J60.asm
                TRISBbits   0x000f93       data     extern C:\MCC18\src\traditional\proc\p18F97J60.asm
                    TRISC   0x000f94       data     extern C:\MCC18\src\traditional\proc\p18F97J60.asm
                TRISCbits   0x000f94       data     extern C:\MCC18\src\traditional\proc\p18F97J60.asm
                    TRISD   0x000f95       data     extern C:\MCC18\src\traditional\proc\p18F97J60.asm
                TRISDbits   0x000f95       data     extern C:\MCC18\src\traditional\proc\p18F97J60.asm
                    TRISE   0x000f96       data     extern C:\MCC18\src\traditional\proc\p18F97J60.asm
                TRISEbits   0x000f96       data     extern C:\MCC18\src\traditional\proc\p18F97J60.asm
                    TRISF   0x000f97       data     extern C:\MCC18\src\traditional\proc\p18F97J60.asm
                TRISFbits   0x000f97       data     extern C:\MCC18\src\traditional\proc\p18F97J60.asm
                    TRISG   0x000f98       data     extern C:\MCC18\src\traditional\proc\p18F97J60.asm
                TRISGbits   0x000f98       data     extern C:\MCC18\src\traditional\proc\p18F97J60.asm
                    TRISH   0x000f99       data     extern C:\MCC18\src\traditional\proc\p18F97J60.asm
                TRISHbits   0x000f99       data     extern C:\MCC18\src\traditional\proc\p18F97J60.asm
                    TRISJ   0x000f9a       data     extern C:\MCC18\src\traditional\proc\p18F97J60.asm
                TRISJbits   0x000f9a       data     extern C:\MCC18\src\traditional\proc\p18F97J60.asm
                TXHeadPtr   0x000bad       data     static C:\pavan\1+1RCUTx\1-1-RCU-T-NewArch_svn_web_changes\Microchip\TCPIP Stack\UART2TCPBridge.c
                    TXREG   0x000fad       data     extern C:\MCC18\src\traditional\proc\p18F97J60.asm
                   TXREG1   0x000fad       data     extern C:\MCC18\src\traditional\proc\p18F97J60.asm
                   TXREG2   0x000f6d       data     extern C:\MCC18\src\traditional\proc\p18F97J60.asm
                    TXSTA   0x000fac       data     extern C:\MCC18\src\traditional\proc\p18F97J60.asm
                   TXSTA1   0x000fac       data     extern C:\MCC18\src\traditional\proc\p18F97J60.asm
               TXSTA1bits   0x000fac       data     extern C:\MCC18\src\traditional\proc\p18F97J60.asm
                   TXSTA2   0x000f6c       data     extern C:\MCC18\src\traditional\proc\p18F97J60.asm
               TXSTA2bits   0x000f6c       data     extern C:\MCC18\src\traditional\proc\p18F97J60.asm
                TXSTAbits   0x000fac       data     extern C:\MCC18\src\traditional\proc\p18F97J60.asm
                TXTailPtr   0x000baf       data     static C:\pavan\1+1RCUTx\1-1-RCU-T-NewArch_svn_web_changes\Microchip\TCPIP Stack\UART2TCPBridge.c
                   Target   0x000e73       data     static C:\pavan\1+1RCUTx\1-1-RCU-T-NewArch_svn_web_changes\Microchip\TCPIP Stack\ARP.c
               UDPRxCount   0x0001e9       data     extern C:\pavan\1+1RCUTx\1-1-RCU-T-NewArch_svn_web_changes\Microchip\TCPIP Stack\UDP.c
            UDPSocketInfo   0x000100       data     extern C:\pavan\1+1RCUTx\1-1-RCU-T-NewArch_svn_web_changes\Microchip\TCPIP Stack\UDP.c
               UDPTxCount   0x0001e7       data     extern C:\pavan\1+1RCUTx\1-1-RCU-T-NewArch_svn_web_changes\Microchip\TCPIP Stack\UDP.c
                    Uart0   0x000f00       data     extern C:\pavan\1+1RCUTx\1-1-RCU-T-NewArch_svn_web_changes\Drivers\AgilisUart.c
                    Uart1   0x000f13       data     extern C:\pavan\1+1RCUTx\1-1-RCU-T-NewArch_svn_web_changes\Drivers\AgilisUart.c
                    Uart2   0x000f26       data     extern C:\pavan\1+1RCUTx\1-1-RCU-T-NewArch_svn_web_changes\Drivers\AgilisUart.c
            Uart2THREmpty   0x000bc5       data     extern C:\pavan\1+1RCUTx\1-1-RCU-T-NewArch_svn_web_changes\Drivers\UARTISR.c
                    Uart3   0x000f39       data     extern C:\pavan\1+1RCUTx\1-1-RCU-T-NewArch_svn_web_changes\Drivers\AgilisUart.c
            Uart3THREmpty   0x000bc6       data     extern C:\pavan\1+1RCUTx\1-1-RCU-T-NewArch_svn_web_changes\Drivers\UARTISR.c
                    Uart4   0x000f4c       data     extern C:\pavan\1+1RCUTx\1-1-RCU-T-NewArch_svn_web_changes\Drivers\AgilisUart.c
            Uart4THREmpty   0x000bc7       data     extern C:\pavan\1+1RCUTx\1-1-RCU-T-NewArch_svn_web_changes\Drivers\UARTISR.c
                   WDTCON   0x000fd1       data     extern C:\MCC18\src\traditional\proc\p18F97J60.asm
               WDTCONbits   0x000fd1       data     extern C:\MCC18\src\traditional\proc\p18F97J60.asm
                  WIFI_EN   0x000b50       data     extern C:\pavan\1+1RCUTx\1-1-RCU-T-NewArch_svn_web_changes\App\WebUI\AgilisHTTPGetDevInfo.c
                     WREG   0x000fe8       data     extern C:\MCC18\src\traditional\proc\p18F97J60.asm
             WasDiscarded   0x0000fd       data     static C:\pavan\1+1RCUTx\1-1-RCU-T-NewArch_svn_web_changes\Microchip\TCPIP Stack\ETH97J60.c
              _Identifier   0x000bcc       data     static C:\pavan\1+1RCUTx\1-1-RCU-T-NewArch_svn_web_changes\Microchip\TCPIP Stack\IP.c
                 __AARGB0   0x000023       data     extern C:\Program Files\mcc18\src\traditional\math\aarg.asm
                 __AARGB1   0x000022       data     extern C:\Program Files\mcc18\src\traditional\math\aarg.asm
                 __AARGB2   0x000021       data     extern C:\Program Files\mcc18\src\traditional\math\aarg.asm
                 __AARGB3   0x000020       data     extern C:\Program Files\mcc18\src\traditional\math\aarg.asm
                 __AARGB4   0x00001f       data     extern C:\Program Files\mcc18\src\traditional\math\aarg.asm
                 __AARGB5   0x00001e       data     extern C:\Program Files\mcc18\src\traditional\math\aarg.asm
                 __AARGB6   0x00001d       data     extern C:\Program Files\mcc18\src\traditional\math\aarg.asm
                 __AARGB7   0x00001c       data     extern C:\Program Files\mcc18\src\traditional\math\aarg.asm
                   __AEXP   0x000024       data     extern C:\Program Files\mcc18\src\traditional\math\aarg.asm
                 __BARGB0   0x000028       data     extern C:\Program Files\mcc18\src\traditional\math\barg.asm
                 __BARGB1   0x000027       data     extern C:\Program Files\mcc18\src\traditional\math\barg.asm
                 __BARGB2   0x000026       data     extern C:\Program Files\mcc18\src\traditional\math\barg.asm
                 __BARGB3   0x000025       data     extern C:\Program Files\mcc18\src\traditional\math\barg.asm
                   __BEXP   0x000029       data     extern C:\Program Files\mcc18\src\traditional\math\barg.asm
                __FPFLAGS   0x00001b       data     extern C:\Program Files\mcc18\src\traditional\math\cmath18.asm
            __FPFLAGSbits   0x00001b       data     extern C:\Program Files\mcc18\src\traditional\math\cmath18.asm
                  __REMB0   0x00001f       data     extern C:\Program Files\mcc18\src\traditional\math\aarg.asm
                  __REMB1   0x00001e       data     extern C:\Program Files\mcc18\src\traditional\math\aarg.asm
                  __REMB2   0x00001d       data     extern C:\Program Files\mcc18\src\traditional\math\aarg.asm
                  __REMB3   0x00001c       data     extern C:\Program Files\mcc18\src\traditional\math\aarg.asm
                   __TEMP   0x00002d       data     extern C:\Program Files\mcc18\src\traditional\math\temparg.asm
                 __TEMPB0   0x00002d       data     extern C:\Program Files\mcc18\src\traditional\math\temparg.asm
                 __TEMPB1   0x00002c       data     extern C:\Program Files\mcc18\src\traditional\math\temparg.asm
                 __TEMPB2   0x00002b       data     extern C:\Program Files\mcc18\src\traditional\math\temparg.asm
                 __TEMPB3   0x00002a       data     extern C:\Program Files\mcc18\src\traditional\math\temparg.asm
                  __tmp_0   0x000000       data     static C:\MCC18\src\pmc_common\USART\u2open.c
                  __tmp_0   0x000000       data     static C:\pavan\1+1RCUTx\1-1-RCU-T-NewArch_svn_web_changes\Microchip\TCPIP Stack\ETH97J60.c
                  __tmp_0   0x000000       data     static C:\pavan\1+1RCUTx\1-1-RCU-T-NewArch_svn_web_changes\Drivers\UARTISR.c
                  __tmp_0   0x000000       data     static C:\pavan\1+1RCUTx\1-1-RCU-T-NewArch_svn_web_changes\Microchip\TCPIP Stack\ARP.c
                  __tmp_0   0x000000       data     static C:\pavan\1+1RCUTx\1-1-RCU-T-NewArch_svn_web_changes\Drivers\MCU-Internal\internalADC.c
                  __tmp_0   0x000000       data     static C:\MCC18\src\pmc_common\ADC\adcopen.c
                  __tmp_0   0x000000       data     static C:\pavan\1+1RCUTx\1-1-RCU-T-NewArch_svn_web_changes\AgilisDevices\AgilisDeviceManager.c
                  __tmp_0   0x000000       data     static C:\pavan\1+1RCUTx\1-1-RCU-T-NewArch_svn_web_changes\Microchip\TCPIP Stack\UDP.c
                  __tmp_0   0x000000       data     static C:\pavan\1+1RCUTx\1-1-RCU-T-NewArch_svn_web_changes\Agilis-SysLib\util.c
                  __tmp_0   0x000000       data     static C:\pavan\1+1RCUTx\1-1-RCU-T-NewArch_svn_web_changes\Microchip\TCPIP Stack\TCP.c
                  __tmp_0   0x000000       data     static C:\pavan\1+1RCUTx\1-1-RCU-T-NewArch_svn_web_changes\Microchip\TCPIP Stack\StackTsk.c
                  __tmp_0   0x000000       data     static C:\pavan\1+1RCUTx\1-1-RCU-T-NewArch_svn_web_changes\App\WebUI\AgilisHTTPApp.c
                  __tmp_0   0x000000       data     static C:\pavan\1+1RCUTx\1-1-RCU-T-NewArch_svn_web_changes\Bootstrap\Initialization.c
                  __tmp_0   0x000000       data     static C:\pavan\1+1RCUTx\1-1-RCU-T-NewArch_svn_web_changes\Main\Main.c
                  __tmp_0   0x000000       data     static C:\pavan\1+1RCUTx\1-1-RCU-T-NewArch_svn_web_changes\Microchip\TCPIP Stack\IP.c
                  __tmp_0   0x000000       data     static C:\pavan\1+1RCUTx\1-1-RCU-T-NewArch_svn_web_changes\Agilis-SysLib\list.c
                  __tmp_0   0x000000       data     static C:\pavan\1+1RCUTx\1-1-RCU-T-NewArch_svn_web_changes\Microchip\TCPIP Stack\Helpers.c
                  __tmp_0   0x000000       data     static C:\MCC18\src\pmc_common\USART\u1open.c
                  __tmp_0   0x000000       data     static C:\pavan\1+1RCUTx\1-1-RCU-T-NewArch_svn_web_changes\Agilis-SysLib\task.c
                  __tmp_0   0x000000       data     static C:\pavan\1+1RCUTx\1-1-RCU-T-NewArch_svn_web_changes\Microchip\TCPIP Stack\DHCP.c
                  __tmp_0   0x000000       data     static C:\pavan\1+1RCUTx\1-1-RCU-T-NewArch_svn_web_changes\Microchip\TCPIP Stack\HTTP2.c
                  __tmp_0   0x000000       data     static C:\pavan\1+1RCUTx\1-1-RCU-T-NewArch_svn_web_changes\Microchip\TCPIP Stack\MPFS2.c
                  __tmp_0   0x000000       data     static C:\pavan\1+1RCUTx\1-1-RCU-T-NewArch_svn_web_changes\Microchip\TCPIP Stack\ICMP.c
                  __tmp_0   0x000000       data     static C:\pavan\1+1RCUTx\1-1-RCU-T-NewArch_svn_web_changes\Drivers\External-Peripherals\devadc.c
                  __tmp_0   0x000000       data     static C:\pavan\1+1RCUTx\1-1-RCU-T-NewArch_svn_web_changes\Microchip\TCPIP Stack\SPIEEPROM.c
                  __tmp_0   0x000000       data     static C:\pavan\1+1RCUTx\1-1-RCU-T-NewArch_svn_web_changes\Drivers\MCU-Internal\devspi.c
                  __tmp_0   0x000000       data     static C:\pavan\1+1RCUTx\1-1-RCU-T-NewArch_svn_web_changes\App\SerialIntf\AgilisProtocol\AgilisProtocol.c
                  __tmp_0   0x000000       data     static C:\pavan\1+1RCUTx\1-1-RCU-T-NewArch_svn_web_changes\Drivers\AgilisDriverManager.c
                  __tmp_0   0x000000       data     static C:\pavan\1+1RCUTx\1-1-RCU-T-NewArch_svn_web_changes\Drivers\AgilisUart.c
                  __tmp_0   0x000000       data     static C:\pavan\1+1RCUTx\1-1-RCU-T-NewArch_svn_web_changes\AgilisDevices\RCUServer.c
                  __tmp_0   0x000000       data     static C:\pavan\1+1RCUTx\1-1-RCU-T-NewArch_svn_web_changes\App\Util\AgilisAppUtil.c
                  __tmp_0   0x000000       data     static C:\pavan\1+1RCUTx\1-1-RCU-T-NewArch_svn_web_changes\App\WebUI\AgilisHTTPGetDevInfo.c
                  __tmp_0   0x000000       data     static C:\pavan\1+1RCUTx\1-1-RCU-T-NewArch_svn_web_changes\AgilisDevices\BUCClient.c
                  __tmp_0   0x000000       data     static C:\pavan\1+1RCUTx\1-1-RCU-T-NewArch_svn_web_changes\App\SNMP\AgilisSNMPLLBucDevInfo.c
                  __tmp_0   0x000000       data     static C:\pavan\1+1RCUTx\1-1-RCU-T-NewArch_svn_web_changes\AgilisDevices\RCUHLAccess.c
                  __tmp_0   0x000000       data     static C:\pavan\1+1RCUTx\1-1-RCU-T-NewArch_svn_web_changes\App\WebUI\AgilisHTTPPrint.c
                  __tmp_0   0x000000       data     static C:\pavan\1+1RCUTx\1-1-RCU-T-NewArch_svn_web_changes\App\SNMP\AgilisSNMPApp.c
                  __tmp_0   0x000000       data     static C:\pavan\1+1RCUTx\1-1-RCU-T-NewArch_svn_web_changes\App\Task\AgilisTaskManager.c
                  __tmp_0   0x000000       data     static C:\pavan\1+1RCUTx\1-1-RCU-T-NewArch_svn_web_changes\App\SNMP\AgilisSNMPLLBUCOp.c
                  __tmp_0   0x000000       data     static C:\pavan\1+1RCUTx\1-1-RCU-T-NewArch_svn_web_changes\App\SNMP\AgilisSNMPLLBUCStatus.c
                  __tmp_0   0x000000       data     static C:\pavan\1+1RCUTx\1-1-RCU-T-NewArch_svn_web_changes\App\SNMP\AgilisSNMPLLRCUCmds.c
                  __tmp_0   0x000000       data     static C:\pavan\1+1RCUTx\1-1-RCU-T-NewArch_svn_web_changes\AgilisDevices\RCULLAccess.c
                  __tmp_0   0x000000       data     static C:\pavan\1+1RCUTx\1-1-RCU-T-NewArch_svn_web_changes\Microchip\TCPIP Stack\SNMP.c
                  __tmp_1   0x00002e       data     static C:\pavan\1+1RCUTx\1-1-RCU-T-NewArch_svn_web_changes\Drivers\MCU-Internal\ISR.c
          activeUDPSocket   0x0001e6       data     extern C:\pavan\1+1RCUTx\1-1-RCU-T-NewArch_svn_web_changes\Microchip\TCPIP Stack\UDP.c
     agilisUART0RxCircBuf   0x00096a       data     extern C:\pavan\1+1RCUTx\1-1-RCU-T-NewArch_svn_web_changes\Drivers\UARTISR.c
     agilisUART1RxCircBuf   0x0009b2       data     extern C:\pavan\1+1RCUTx\1-1-RCU-T-NewArch_svn_web_changes\Drivers\UARTISR.c
     agilisUART2RxCircBuf   0x000200       data     extern C:\pavan\1+1RCUTx\1-1-RCU-T-NewArch_svn_web_changes\Drivers\UARTISR.c
     agilisUART3RxCircBuf   0x000248       data     extern C:\pavan\1+1RCUTx\1-1-RCU-T-NewArch_svn_web_changes\Drivers\UARTISR.c
     agilisUART4RxCircBuf   0x000290       data     extern C:\pavan\1+1RCUTx\1-1-RCU-T-NewArch_svn_web_changes\Drivers\UARTISR.c
          appendZeroToOID   0x000abe       data     extern C:\pavan\1+1RCUTx\1-1-RCU-T-NewArch_svn_web_changes\Microchip\TCPIP Stack\SNMP.c
           attnRetryCount   0x00079f       data     extern C:\pavan\1+1RCUTx\1-1-RCU-T-NewArch_svn_web_changes\AgilisDevices\BUCClient.c
             bAttnChanged   0x00079d       data     extern C:\pavan\1+1RCUTx\1-1-RCU-T-NewArch_svn_web_changes\AgilisDevices\BUCClient.c
       bFMBUCOnOffChanged   0x0007a5       data     extern C:\pavan\1+1RCUTx\1-1-RCU-T-NewArch_svn_web_changes\AgilisDevices\BUCClient.c
           bLastLinkState   0x000f5f       data     static C:\pavan\1+1RCUTx\1-1-RCU-T-NewArch_svn_web_changes\Microchip\TCPIP Stack\StackTsk.c
        bSSPAOnOffChanged   0x0007a1       data     extern C:\pavan\1+1RCUTx\1-1-RCU-T-NewArch_svn_web_changes\AgilisDevices\BUCClient.c
                    ctemp   0x000b75       data     extern C:\pavan\1+1RCUTx\1-1-RCU-T-NewArch_svn_web_changes\Main\Main.c
                  curHTTP   0x000600       data     extern C:\pavan\1+1RCUTx\1-1-RCU-T-NewArch_svn_web_changes\Microchip\TCPIP Stack\HTTP2.c
                curHTTPID   0x000683       data     extern C:\pavan\1+1RCUTx\1-1-RCU-T-NewArch_svn_web_changes\Microchip\TCPIP Stack\HTTP2.c
                curr_byte   0x000ba2       data     static C:\mcc18\src\traditional\startup\c018iz.c
               curr_entry   0x000ba4       data     static C:\mcc18\src\traditional\startup\c018iz.c
                 data_ptr   0x000ba6       data     static C:\mcc18\src\traditional\startup\c018iz.c
                       dw   0x0000f1       data     extern C:\pavan\1+1RCUTx\1-1-RCU-T-NewArch_svn_web_changes\App\SNMP\AgilisSNMPSysInfo.c
              dw10msTicks   0x0000f5       data     extern C:\pavan\1+1RCUTx\1-1-RCU-T-NewArch_svn_web_changes\App\SNMP\AgilisSNMPSysInfo.c
          dwInternalTicks   0x000bb9       data     static C:\pavan\1+1RCUTx\1-1-RCU-T-NewArch_svn_web_changes\Microchip\TCPIP Stack\Tick.c
                 dwLastIP   0x000bb5       data     extern C:\pavan\1+1RCUTx\1-1-RCU-T-NewArch_svn_web_changes\Agilis-SysLib\util.c
                  dwvHigh   0x0000e9       data     extern C:\pavan\1+1RCUTx\1-1-RCU-T-NewArch_svn_web_changes\App\SNMP\AgilisSNMPSysInfo.c
                   dwvLow   0x0000ed       data     extern C:\pavan\1+1RCUTx\1-1-RCU-T-NewArch_svn_web_changes\App\SNMP\AgilisSNMPSysInfo.c
                 fatCache   0x0006d5       data     static C:\pavan\1+1RCUTx\1-1-RCU-T-NewArch_svn_web_changes\Microchip\TCPIP Stack\MPFS2.c
               fatCacheID   0x0006eb       data     static C:\pavan\1+1RCUTx\1-1-RCU-T-NewArch_svn_web_changes\Microchip\TCPIP Stack\MPFS2.c
         gAgilisClientNum   0x000066       data     extern C:\pavan\1+1RCUTx\1-1-RCU-T-NewArch_svn_web_changes\AgilisDevices\AgilisDeviceManager.c
           gAgilisReadBuf   0x000068       data     extern C:\pavan\1+1RCUTx\1-1-RCU-T-NewArch_svn_web_changes\AgilisDevices\AgilisDeviceManager.c
         gAgilisServerNum   0x000067       data     extern C:\pavan\1+1RCUTx\1-1-RCU-T-NewArch_svn_web_changes\AgilisDevices\AgilisDeviceManager.c
              gAgilisTask   0x0002f3       data     extern C:\pavan\1+1RCUTx\1-1-RCU-T-NewArch_svn_web_changes\App\Task\AgilisTaskManager.c
           gAgilisTaskNum   0x0002ff       data     extern C:\pavan\1+1RCUTx\1-1-RCU-T-NewArch_svn_web_changes\App\Task\AgilisTaskManager.c
          gAgilisWriteBuf   0x0000a8       data     extern C:\pavan\1+1RCUTx\1-1-RCU-T-NewArch_svn_web_changes\AgilisDevices\AgilisDeviceManager.c
               gBUCClient   0x000400       data     extern C:\pavan\1+1RCUTx\1-1-RCU-T-NewArch_svn_web_changes\AgilisDevices\BUCClient.c
         gBUCClientCmdTbl   0x0007a9       data     extern C:\pavan\1+1RCUTx\1-1-RCU-T-NewArch_svn_web_changes\AgilisDevices\BUCClient.c
 gGenericTrapNotification   0x00090d       data     extern C:\pavan\1+1RCUTx\1-1-RCU-T-NewArch_svn_web_changes\App\SNMP\AgilisSNMPApp.c
gOIDCorrespondingSnmpMibID   0x00090c       data     extern C:\pavan\1+1RCUTx\1-1-RCU-T-NewArch_svn_web_changes\App\SNMP\AgilisSNMPApp.c
               gRCUServer   0x0002e3       data     extern C:\pavan\1+1RCUTx\1-1-RCU-T-NewArch_svn_web_changes\AgilisDevices\RCUServer.c
         gRCUServerCmdTbl   0x000300       data     extern C:\pavan\1+1RCUTx\1-1-RCU-T-NewArch_svn_web_changes\AgilisDevices\RCUServer.c
            gSendTrapFlag   0x00090b       data     extern C:\pavan\1+1RCUTx\1-1-RCU-T-NewArch_svn_web_changes\App\SNMP\AgilisSNMPApp.c
         gSetTrapSendFlag   0x000942       data     extern C:\pavan\1+1RCUTx\1-1-RCU-T-NewArch_svn_web_changes\App\SNMP\AgilisSNMPApp.c
       gSnmpNonMibRecInfo   0x00090f       data     extern C:\pavan\1+1RCUTx\1-1-RCU-T-NewArch_svn_web_changes\App\SNMP\AgilisSNMPApp.c
gSpecificTrapNotification   0x00090e       data     extern C:\pavan\1+1RCUTx\1-1-RCU-T-NewArch_svn_web_changes\App\SNMP\AgilisSNMPApp.c
              gUart0Table   0x000a7c       data     extern C:\pavan\1+1RCUTx\1-1-RCU-T-NewArch_svn_web_changes\Drivers\AgilisUart.c
              gUart1Table   0x000a88       data     extern C:\pavan\1+1RCUTx\1-1-RCU-T-NewArch_svn_web_changes\Drivers\AgilisUart.c
              gUart2Table   0x000a94       data     extern C:\pavan\1+1RCUTx\1-1-RCU-T-NewArch_svn_web_changes\Drivers\AgilisUart.c
              gUart3Table   0x000aa0       data     extern C:\pavan\1+1RCUTx\1-1-RCU-T-NewArch_svn_web_changes\Drivers\AgilisUart.c
              gUart4Table   0x000aac       data     extern C:\pavan\1+1RCUTx\1-1-RCU-T-NewArch_svn_web_changes\Drivers\AgilisUart.c
            gaDeviceTable   0x000b7e       data     extern C:\pavan\1+1RCUTx\1-1-RCU-T-NewArch_svn_web_changes\Drivers\AgilisDriverManager.c
             gen_trap_oid   0x000ac1       data     static C:\pavan\1+1RCUTx\1-1-RCU-T-NewArch_svn_web_changes\Microchip\TCPIP Stack\SNMP.c
          getZeroInstance   0x000abd       data     extern C:\pavan\1+1RCUTx\1-1-RCU-T-NewArch_svn_web_changes\Microchip\TCPIP Stack\SNMP.c
         global_char_temp   0x0001f2       data     extern C:\pavan\1+1RCUTx\1-1-RCU-T-NewArch_svn_web_changes\App\WebUI\AgilisHTTPPrint.c
                gu8DevNum   0x000bd1       data     extern C:\pavan\1+1RCUTx\1-1-RCU-T-NewArch_svn_web_changes\Drivers\AgilisDriverManager.c
              hCurrentTCP   0x000bca       data     static C:\pavan\1+1RCUTx\1-1-RCU-T-NewArch_svn_web_changes\Microchip\TCPIP Stack\TCP.c
                 hLastTCB   0x000bcb       data     static C:\pavan\1+1RCUTx\1-1-RCU-T-NewArch_svn_web_changes\Microchip\TCPIP Stack\TCP.c
                    hMPFS   0x000b01       data     extern C:\pavan\1+1RCUTx\1-1-RCU-T-NewArch_svn_web_changes\Microchip\TCPIP Stack\SNMP.c
                   hMPFS1   0x000e7f       data     extern C:\pavan\1+1RCUTx\1-1-RCU-T-NewArch_svn_web_changes\Agilis-SysLib\util.c
                httpStubs   0x00067f       data     extern C:\pavan\1+1RCUTx\1-1-RCU-T-NewArch_svn_web_changes\Microchip\TCPIP Stack\HTTP2.c
                        i   0x0002e0       data     static C:\pavan\1+1RCUTx\1-1-RCU-T-NewArch_svn_web_changes\Drivers\UARTISR.c
                        i   0x0002dd       data     static C:\pavan\1+1RCUTx\1-1-RCU-T-NewArch_svn_web_changes\Drivers\UARTISR.c
                        i   0x0002da       data     static C:\pavan\1+1RCUTx\1-1-RCU-T-NewArch_svn_web_changes\Drivers\UARTISR.c
                        i   0x0002d9       data     static C:\pavan\1+1RCUTx\1-1-RCU-T-NewArch_svn_web_changes\Drivers\UARTISR.c
                        i   0x0002d8       data     static C:\pavan\1+1RCUTx\1-1-RCU-T-NewArch_svn_web_changes\Drivers\UARTISR.c
               indexBytes   0x000b24       data     static C:\pavan\1+1RCUTx\1-1-RCU-T-NewArch_svn_web_changes\Microchip\TCPIP Stack\SNMP.c
               indexBytes   0x000b26       data     static C:\pavan\1+1RCUTx\1-1-RCU-T-NewArch_svn_web_changes\Microchip\TCPIP Stack\SNMP.c
             isMPFSLocked   0x0006d4       data     static C:\pavan\1+1RCUTx\1-1-RCU-T-NewArch_svn_web_changes\Microchip\TCPIP Stack\MPFS2.c
              lastFailure   0x000bcf       data     extern C:\pavan\1+1RCUTx\1-1-RCU-T-NewArch_svn_web_changes\App\WebUI\AgilisHTTPApp.c
                 lastRead   0x0006ef       data     extern C:\pavan\1+1RCUTx\1-1-RCU-T-NewArch_svn_web_changes\Microchip\TCPIP Stack\MPFS2.c
              lastSuccess   0x000bce       data     extern C:\pavan\1+1RCUTx\1-1-RCU-T-NewArch_svn_web_changes\App\WebUI\AgilisHTTPApp.c
         maxTryToSendTrap   0x000969       data     static C:\pavan\1+1RCUTx\1-1-RCU-T-NewArch_svn_web_changes\App\SNMP\AgilisSNMPApp.c
  msgSecrtyParamLenOffset   0x000abf       data     extern C:\pavan\1+1RCUTx\1-1-RCU-T-NewArch_svn_web_changes\Microchip\TCPIP Stack\SNMP.c
                    myRef   0x0000e8       data     extern C:\pavan\1+1RCUTx\1-1-RCU-T-NewArch_svn_web_changes\App\SNMP\AgilisSNMPSysInfo.c
                     newp   0x000b5b       data     extern C:\pavan\1+1RCUTx\1-1-RCU-T-NewArch_svn_web_changes\App\WebUI\AgilisHTTPGetDevInfo.c
                 numFiles   0x0006ed       data     static C:\pavan\1+1RCUTx\1-1-RCU-T-NewArch_svn_web_changes\Microchip\TCPIP Stack\MPFS2.c
                     oend   0x000b74       data     extern C:\pavan\1+1RCUTx\1-1-RCU-T-NewArch_svn_web_changes\Main\Main.c
                     oldp   0x000b51       data     extern C:\pavan\1+1RCUTx\1-1-RCU-T-NewArch_svn_web_changes\App\WebUI\AgilisHTTPGetDevInfo.c
                   ostart   0x000b73       data     extern C:\pavan\1+1RCUTx\1-1-RCU-T-NewArch_svn_web_changes\Main\Main.c
    packetStructLenOffset   0x000ad7       data     static C:\pavan\1+1RCUTx\1-1-RCU-T-NewArch_svn_web_changes\Microchip\TCPIP Stack\SNMP.c
       pduStructLenOffset   0x000ad9       data     static C:\pavan\1+1RCUTx\1-1-RCU-T-NewArch_svn_web_changes\Microchip\TCPIP Stack\SNMP.c
           pgAgilisClient   0x000062       data     extern C:\pavan\1+1RCUTx\1-1-RCU-T-NewArch_svn_web_changes\AgilisDevices\AgilisDeviceManager.c
           pgAgilisServer   0x000060       data     extern C:\pavan\1+1RCUTx\1-1-RCU-T-NewArch_svn_web_changes\AgilisDevices\AgilisDeviceManager.c
             pollingcount   0x000bc1       data     static C:\pavan\1+1RCUTx\1-1-RCU-T-NewArch_svn_web_changes\AgilisDevices\AgilisDeviceManager.c
               prevOffset   0x000adf       data     static C:\pavan\1+1RCUTx\1-1-RCU-T-NewArch_svn_web_changes\Microchip\TCPIP Stack\SNMP.c
                     prom   0x000b9f       data     static C:\mcc18\src\traditional\startup\c018iz.c
               queue_head   0x0003f3       data     extern C:\pavan\1+1RCUTx\1-1-RCU-T-NewArch_svn_web_changes\Agilis-SysLib\task.c
              queue_index   0x0003fc       data     extern C:\pavan\1+1RCUTx\1-1-RCU-T-NewArch_svn_web_changes\Agilis-SysLib\task.c
         remHostIpAddrPtr   0x000b1d       data     static C:\pavan\1+1RCUTx\1-1-RCU-T-NewArch_svn_web_changes\Microchip\TCPIP Stack\SNMP.c
               remoteNode   0x000b8b       data     extern C:\pavan\1+1RCUTx\1-1-RCU-T-NewArch_svn_web_changes\Microchip\TCPIP Stack\StackTsk.c
                      rep   0x000b65       data     extern C:\pavan\1+1RCUTx\1-1-RCU-T-NewArch_svn_web_changes\App\WebUI\AgilisHTTPGetDevInfo.c
             respondcount   0x000bc3       data     static C:\pavan\1+1RCUTx\1-1-RCU-T-NewArch_svn_web_changes\AgilisDevices\AgilisDeviceManager.c
                semaphore   0x0003fe       data     extern C:\pavan\1+1RCUTx\1-1-RCU-T-NewArch_svn_web_changes\Agilis-SysLib\task.c
                    smARP   0x000bd2       data     static C:\pavan\1+1RCUTx\1-1-RCU-T-NewArch_svn_web_changes\Microchip\TCPIP Stack\ARP.c
                   smSnmp   0x000ae3       data     static C:\pavan\1+1RCUTx\1-1-RCU-T-NewArch_svn_web_changes\Microchip\TCPIP Stack\SNMP.c
                  smStack   0x000b8a       data     static C:\pavan\1+1RCUTx\1-1-RCU-T-NewArch_svn_web_changes\Microchip\TCPIP Stack\StackTsk.c
                  smState   0x000963       data     static C:\pavan\1+1RCUTx\1-1-RCU-T-NewArch_svn_web_changes\App\SNMP\AgilisSNMPApp.c
      snmpReqVarErrStatus   0x000b02       data     extern C:\pavan\1+1RCUTx\1-1-RCU-T-NewArch_svn_web_changes\Microchip\TCPIP Stack\SNMP.c
            snmp_get_type   0x00090a       data     extern C:\pavan\1+1RCUTx\1-1-RCU-T-NewArch_svn_web_changes\App\SNMP\AgilisSNMPApp.c
                snmp_trap   0x00078f       data     extern C:\pavan\1+1RCUTx\1-1-RCU-T-NewArch_svn_web_changes\App\SNMP\AgilisSNMPApp.c
            snmptrap_oids   0x000aca       data     static C:\pavan\1+1RCUTx\1-1-RCU-T-NewArch_svn_web_changes\Microchip\TCPIP Stack\SNMP.c
              systeminfo1   0x00074f       data     extern C:\pavan\1+1RCUTx\1-1-RCU-T-NewArch_svn_web_changes\Main\Main.c
              systeminfo2   0x000a00       data     extern C:\pavan\1+1RCUTx\1-1-RCU-T-NewArch_svn_web_changes\Main\Main.c
                        t   0x0004fc       data     static C:\pavan\1+1RCUTx\1-1-RCU-T-NewArch_svn_web_changes\Main\Main.c
                task_list   0x0003d8       data     extern C:\pavan\1+1RCUTx\1-1-RCU-T-NewArch_svn_web_changes\Agilis-SysLib\task.c
                    temp1   0x0007fc       data     extern C:\pavan\1+1RCUTx\1-1-RCU-T-NewArch_svn_web_changes\AgilisDevices\RCULLAccess.c
                    temp2   0x0007fd       data     extern C:\pavan\1+1RCUTx\1-1-RCU-T-NewArch_svn_web_changes\AgilisDevices\RCULLAccess.c
                    temp3   0x0007fe       data     extern C:\pavan\1+1RCUTx\1-1-RCU-T-NewArch_svn_web_changes\AgilisDevices\RCULLAccess.c
                    temp4   0x0007ff       data     extern C:\pavan\1+1RCUTx\1-1-RCU-T-NewArch_svn_web_changes\AgilisDevices\RCULLAccess.c
            tempTimerRead   0x000964       data     static C:\pavan\1+1RCUTx\1-1-RCU-T-NewArch_svn_web_changes\App\SNMP\AgilisSNMPApp.c
                tempvalue   0x000e7e       data     extern C:\pavan\1+1RCUTx\1-1-RCU-T-NewArch_svn_web_changes\Agilis-SysLib\util.c
                 timeLock   0x000968       data     static C:\pavan\1+1RCUTx\1-1-RCU-T-NewArch_svn_web_changes\App\SNMP\AgilisSNMPApp.c
            timer_counter   0x0009fe       data     extern C:\pavan\1+1RCUTx\1-1-RCU-T-NewArch_svn_web_changes\Agilis-SysLib\task.c
                 toRotate   0x000bb1       data     extern C:\pavan\1+1RCUTx\1-1-RCU-T-NewArch_svn_web_changes\Microchip\TCPIP Stack\Helpers.c
                 trapInfo   0x000943       data     extern C:\pavan\1+1RCUTx\1-1-RCU-T-NewArch_svn_web_changes\App\SNMP\AgilisSNMPApp.c
                  trap_en   0x000962       data     extern C:\pavan\1+1RCUTx\1-1-RCU-T-NewArch_svn_web_changes\App\SNMP\AgilisSNMPApp.c
                        v   0x000b1f       data     static C:\pavan\1+1RCUTx\1-1-RCU-T-NewArch_svn_web_changes\Microchip\TCPIP Stack\SNMP.c
                        v   0x000b27       data     static C:\pavan\1+1RCUTx\1-1-RCU-T-NewArch_svn_web_changes\Microchip\TCPIP Stack\SNMP.c
           vBytesInBuffer   0x000b4f       data     static C:\pavan\1+1RCUTx\1-1-RCU-T-NewArch_svn_web_changes\Microchip\TCPIP Stack\SPIEEPROM.c
             vTickReading   0x0005fa       data     static C:\pavan\1+1RCUTx\1-1-RCU-T-NewArch_svn_web_changes\Microchip\TCPIP Stack\Tick.c
              vUARTRXFIFO   0x0005a8       data     static C:\pavan\1+1RCUTx\1-1-RCU-T-NewArch_svn_web_changes\Microchip\TCPIP Stack\UART2TCPBridge.c
              vUARTTXFIFO   0x0005e9       data     static C:\pavan\1+1RCUTx\1-1-RCU-T-NewArch_svn_web_changes\Microchip\TCPIP Stack\UART2TCPBridge.c
                  val_lsr   0x0002db       data     static C:\pavan\1+1RCUTx\1-1-RCU-T-NewArch_svn_web_changes\Drivers\UARTISR.c
                  val_lsr   0x0002e1       data     static C:\pavan\1+1RCUTx\1-1-RCU-T-NewArch_svn_web_changes\Drivers\UARTISR.c
                  val_lsr   0x0002de       data     static C:\pavan\1+1RCUTx\1-1-RCU-T-NewArch_svn_web_changes\Drivers\UARTISR.c
               varBindLen   0x000ae1       data     static C:\pavan\1+1RCUTx\1-1-RCU-T-NewArch_svn_web_changes\Microchip\TCPIP Stack\SNMP.c
   varBindStructLenOffset   0x000adb       data     static C:\pavan\1+1RCUTx\1-1-RCU-T-NewArch_svn_web_changes\Microchip\TCPIP Stack\SNMP.c
              varDataType   0x000b25       data     static C:\pavan\1+1RCUTx\1-1-RCU-T-NewArch_svn_web_changes\Microchip\TCPIP Stack\SNMP.c
              varDataType   0x000b23       data     static C:\pavan\1+1RCUTx\1-1-RCU-T-NewArch_svn_web_changes\Microchip\TCPIP Stack\SNMP.c
   varPairStructLenOffset   0x000add       data     static C:\pavan\1+1RCUTx\1-1-RCU-T-NewArch_svn_web_changes\Microchip\TCPIP Stack\SNMP.c
               varbindlen   0x000ad3       data     static C:\pavan\1+1RCUTx\1-1-RCU-T-NewArch_svn_web_changes\Microchip\TCPIP Stack\SNMP.c
               wGetOffset   0x0001ed       data     static C:\pavan\1+1RCUTx\1-1-RCU-T-NewArch_svn_web_changes\Microchip\TCPIP Stack\UDP.c
               wPutOffset   0x0001eb       data     static C:\pavan\1+1RCUTx\1-1-RCU-T-NewArch_svn_web_changes\Microchip\TCPIP Stack\UDP.c
              wTXWatchdog   0x0000fe       data     static C:\pavan\1+1RCUTx\1-1-RCU-T-NewArch_svn_web_changes\Microchip\TCPIP Stack\ETH97J60.c
              webpassinfo   0x0006f3       data     extern C:\pavan\1+1RCUTx\1-1-RCU-T-NewArch_svn_web_changes\App\WebUI\AgilisHTTPApp.c



                              Symbols - Sorted by Address
                     Name    Address   Location    Storage File                     
                ---------  ---------  ---------  --------- ---------                
                   _entry   0x000000    program     extern C:\mcc18\src\traditional\startup\c018iz.c
       ___return_lbl00000   0x000004    program     static                          
               HighVector   0x000008    program     extern C:\pavan\1+1RCUTx\1-1-RCU-T-NewArch_svn_web_changes\Drivers\MCU-Internal\ISR.c
       ___return_lbl00008   0x00000c    program     static                          
                LowVector   0x000018    program     extern C:\pavan\1+1RCUTx\1-1-RCU-T-NewArch_svn_web_changes\Drivers\MCU-Internal\ISR.c
       ___return_lbl00007   0x00001c    program     static                          
              SyncTCBStub   0x000134    program     static C:\pavan\1+1RCUTx\1-1-RCU-T-NewArch_svn_web_changes\Microchip\TCPIP Stack\TCP.c
                  SyncTCB   0x00019e    program     static C:\pavan\1+1RCUTx\1-1-RCU-T-NewArch_svn_web_changes\Microchip\TCPIP Stack\TCP.c
                  TCPInit   0x00021c    program     extern C:\pavan\1+1RCUTx\1-1-RCU-T-NewArch_svn_web_changes\Microchip\TCPIP Stack\TCP.c
                  TCPOpen   0x0003cc    program     extern C:\pavan\1+1RCUTx\1-1-RCU-T-NewArch_svn_web_changes\Microchip\TCPIP Stack\TCP.c
              TCPWasReset   0x000500    program     extern C:\pavan\1+1RCUTx\1-1-RCU-T-NewArch_svn_web_changes\Microchip\TCPIP Stack\TCP.c
           TCPIsConnected   0x000516    program     extern C:\pavan\1+1RCUTx\1-1-RCU-T-NewArch_svn_web_changes\Microchip\TCPIP Stack\TCP.c
            TCPDisconnect   0x00052c    program     extern C:\pavan\1+1RCUTx\1-1-RCU-T-NewArch_svn_web_changes\Microchip\TCPIP Stack\TCP.c
                 TCPClose   0x0005a8    program     extern C:\pavan\1+1RCUTx\1-1-RCU-T-NewArch_svn_web_changes\Microchip\TCPIP Stack\TCP.c
         TCPGetRemoteInfo   0x0005bc    program     extern C:\pavan\1+1RCUTx\1-1-RCU-T-NewArch_svn_web_changes\Microchip\TCPIP Stack\TCP.c
                 TCPFlush   0x0005f6    program     extern C:\pavan\1+1RCUTx\1-1-RCU-T-NewArch_svn_web_changes\Microchip\TCPIP Stack\TCP.c
            TCPIsPutReady   0x000612    program     extern C:\pavan\1+1RCUTx\1-1-RCU-T-NewArch_svn_web_changes\Microchip\TCPIP Stack\TCP.c
                   TCPPut   0x000678    program     extern C:\pavan\1+1RCUTx\1-1-RCU-T-NewArch_svn_web_changes\Microchip\TCPIP Stack\TCP.c
              TCPPutArray   0x000706    program     extern C:\pavan\1+1RCUTx\1-1-RCU-T-NewArch_svn_web_changes\Microchip\TCPIP Stack\TCP.c
           TCPPutROMArray   0x0007aa    program     extern C:\pavan\1+1RCUTx\1-1-RCU-T-NewArch_svn_web_changes\Microchip\TCPIP Stack\TCP.c
             TCPPutString   0x00085c    program     extern C:\pavan\1+1RCUTx\1-1-RCU-T-NewArch_svn_web_changes\Microchip\TCPIP Stack\TCP.c
          TCPPutROMString   0x0008bc    program     extern C:\pavan\1+1RCUTx\1-1-RCU-T-NewArch_svn_web_changes\Microchip\TCPIP Stack\TCP.c
         TCPGetTxFIFOFull   0x000926    program     extern C:\pavan\1+1RCUTx\1-1-RCU-T-NewArch_svn_web_changes\Microchip\TCPIP Stack\TCP.c
               TCPDiscard   0x00094e    program     extern C:\pavan\1+1RCUTx\1-1-RCU-T-NewArch_svn_web_changes\Microchip\TCPIP Stack\TCP.c
            TCPIsGetReady   0x000970    program     extern C:\pavan\1+1RCUTx\1-1-RCU-T-NewArch_svn_web_changes\Microchip\TCPIP Stack\TCP.c
                   TCPGet   0x0009b6    program     extern C:\pavan\1+1RCUTx\1-1-RCU-T-NewArch_svn_web_changes\Microchip\TCPIP Stack\TCP.c
              TCPGetArray   0x000a22    program     extern C:\pavan\1+1RCUTx\1-1-RCU-T-NewArch_svn_web_changes\Microchip\TCPIP Stack\TCP.c
         TCPGetRxFIFOFree   0x000b5a    program     extern C:\pavan\1+1RCUTx\1-1-RCU-T-NewArch_svn_web_changes\Microchip\TCPIP Stack\TCP.c
             TCPPeekArray   0x000b82    program     extern C:\pavan\1+1RCUTx\1-1-RCU-T-NewArch_svn_web_changes\Microchip\TCPIP Stack\TCP.c
                  TCPPeek   0x000cb2    program     extern C:\pavan\1+1RCUTx\1-1-RCU-T-NewArch_svn_web_changes\Microchip\TCPIP Stack\TCP.c
           TCPFindArrayEx   0x000cde    program     extern C:\pavan\1+1RCUTx\1-1-RCU-T-NewArch_svn_web_changes\Microchip\TCPIP Stack\TCP.c
        TCPFindROMArrayEx   0x000f5c    program     extern C:\pavan\1+1RCUTx\1-1-RCU-T-NewArch_svn_web_changes\Microchip\TCPIP Stack\TCP.c
                TCPFindEx   0x0011ac    program     extern C:\pavan\1+1RCUTx\1-1-RCU-T-NewArch_svn_web_changes\Microchip\TCPIP Stack\TCP.c
                  TCPTick   0x0011e2    program     extern C:\pavan\1+1RCUTx\1-1-RCU-T-NewArch_svn_web_changes\Microchip\TCPIP Stack\TCP.c
               TCPProcess   0x0015b6    program     extern C:\pavan\1+1RCUTx\1-1-RCU-T-NewArch_svn_web_changes\Microchip\TCPIP Stack\TCP.c
                  SendTCP   0x001710    program     static C:\pavan\1+1RCUTx\1-1-RCU-T-NewArch_svn_web_changes\Microchip\TCPIP Stack\TCP.c
       FindMatchingSocket   0x001c76    program     static C:\pavan\1+1RCUTx\1-1-RCU-T-NewArch_svn_web_changes\Microchip\TCPIP Stack\TCP.c
            SwapTCPHeader   0x001f14    program     static C:\pavan\1+1RCUTx\1-1-RCU-T-NewArch_svn_web_changes\Microchip\TCPIP Stack\TCP.c
              CloseSocket   0x001f90    program     static C:\pavan\1+1RCUTx\1-1-RCU-T-NewArch_svn_web_changes\Microchip\TCPIP Stack\TCP.c
             HandleTCPSeg   0x00200e    program     static C:\pavan\1+1RCUTx\1-1-RCU-T-NewArch_svn_web_changes\Microchip\TCPIP Stack\TCP.c
             __tmplbl_155   0x002a88    program     static                          
             __tmplbl_157   0x002a88    program     static                          
             __tmplbl_174   0x002a8e    program     static                          
             __tmplbl_164   0x002a96    program     static                          
             __tmplbl_158   0x002a96    program     static                          
             __tmplbl_166   0x002a96    program     static                          
             __tmplbl_167   0x002a96    program     static                          
        TCPAdjustFIFOSize   0x002aa4    program     extern C:\pavan\1+1RCUTx\1-1-RCU-T-NewArch_svn_web_changes\Microchip\TCPIP Stack\TCP.c
               TCPRAMCopy   0x002c5e    program     static C:\pavan\1+1RCUTx\1-1-RCU-T-NewArch_svn_web_changes\Microchip\TCPIP Stack\TCP.c
            TCPRAMCopyROM   0x002cec    program     static C:\pavan\1+1RCUTx\1-1-RCU-T-NewArch_svn_web_changes\Microchip\TCPIP Stack\TCP.c
                   __pa_0   0x002dcc    program     static C:\pavan\1+1RCUTx\1-1-RCU-T-NewArch_svn_web_changes\Microchip\TCPIP Stack\TCP.c
                   __pa_1   0x002df4    program     static C:\pavan\1+1RCUTx\1-1-RCU-T-NewArch_svn_web_changes\Microchip\TCPIP Stack\TCP.c
                   __pa_2   0x002e02    program     static C:\pavan\1+1RCUTx\1-1-RCU-T-NewArch_svn_web_changes\Microchip\TCPIP Stack\TCP.c
             __tmplbl_130   0x002e10    program     static                          
              __tmplbl_99   0x002e10    program     static                          
             __tmplbl_152   0x002e10    program     static                          
             __tmplbl_151   0x002e10    program     static                          
             __tmplbl_131   0x002e10    program     static                          
             __tmplbl_148   0x002e10    program     static                          
             __tmplbl_109   0x002e10    program     static                          
             __tmplbl_110   0x002e10    program     static                          
             __tmplbl_111   0x002e10    program     static                          
             __tmplbl_114   0x002e10    program     static                          
             __tmplbl_118   0x002e10    program     static                          
             __tmplbl_117   0x002e10    program     static                          
             __tmplbl_102   0x002e10    program     static                          
             __tmplbl_103   0x002e10    program     static                          
             __tmplbl_101   0x002e10    program     static                          
                   __pa_3   0x002e10    program     static C:\pavan\1+1RCUTx\1-1-RCU-T-NewArch_svn_web_changes\Microchip\TCPIP Stack\TCP.c
              __tmplbl_91   0x002e10    program     static                          
              __tmplbl_81   0x002e10    program     static                          
             __tmplbl_100   0x002e10    program     static                          
             __tmplbl_108   0x002e10    program     static                          
             __tmplbl_104   0x002e10    program     static                          
             __tmplbl_106   0x002e10    program     static                          
              __tmplbl_79   0x002e10    program     static                          
              __tmplbl_90   0x002e10    program     static                          
              __tmplbl_97   0x002e10    program     static                          
              __tmplbl_95   0x002e10    program     static                          
              __tmplbl_89   0x002e10    program     static                          
              __tmplbl_88   0x002e10    program     static                          
              __tmplbl_87   0x002e10    program     static                          
              __tmplbl_93   0x002e10    program     static                          
              __tmplbl_92   0x002e10    program     static                          
              __tmplbl_85   0x002e10    program     static                          
                   __pa_4   0x002e1c    program     static C:\pavan\1+1RCUTx\1-1-RCU-T-NewArch_svn_web_changes\Microchip\TCPIP Stack\TCP.c
                   __pa_5   0x002e26    program     static C:\pavan\1+1RCUTx\1-1-RCU-T-NewArch_svn_web_changes\Microchip\TCPIP Stack\TCP.c
                   __pa_6   0x002eba    program     static C:\pavan\1+1RCUTx\1-1-RCU-T-NewArch_svn_web_changes\Microchip\TCPIP Stack\TCP.c
                   __pa_7   0x002ec6    program     static C:\pavan\1+1RCUTx\1-1-RCU-T-NewArch_svn_web_changes\Microchip\TCPIP Stack\TCP.c
                   __pa_8   0x002ee8    program     static C:\pavan\1+1RCUTx\1-1-RCU-T-NewArch_svn_web_changes\Microchip\TCPIP Stack\TCP.c
                   __pa_9   0x002f10    program     static C:\pavan\1+1RCUTx\1-1-RCU-T-NewArch_svn_web_changes\Microchip\TCPIP Stack\TCP.c
                  __pa_10   0x002f16    program     static C:\pavan\1+1RCUTx\1-1-RCU-T-NewArch_svn_web_changes\Microchip\TCPIP Stack\TCP.c
                  __pa_11   0x002f42    program     static C:\pavan\1+1RCUTx\1-1-RCU-T-NewArch_svn_web_changes\Microchip\TCPIP Stack\TCP.c
                  __pa_12   0x002f4a    program     static C:\pavan\1+1RCUTx\1-1-RCU-T-NewArch_svn_web_changes\Microchip\TCPIP Stack\TCP.c
                  __pa_13   0x002f52    program     static C:\pavan\1+1RCUTx\1-1-RCU-T-NewArch_svn_web_changes\Microchip\TCPIP Stack\TCP.c
                  __pa_14   0x002f5e    program     static C:\pavan\1+1RCUTx\1-1-RCU-T-NewArch_svn_web_changes\Microchip\TCPIP Stack\TCP.c
                  __pa_15   0x002f68    program     static C:\pavan\1+1RCUTx\1-1-RCU-T-NewArch_svn_web_changes\Microchip\TCPIP Stack\TCP.c
                  __pa_16   0x002f72    program     static C:\pavan\1+1RCUTx\1-1-RCU-T-NewArch_svn_web_changes\Microchip\TCPIP Stack\TCP.c
                  __pa_17   0x002f7e    program     static C:\pavan\1+1RCUTx\1-1-RCU-T-NewArch_svn_web_changes\Microchip\TCPIP Stack\TCP.c
                  __pa_18   0x002f8c    program     static C:\pavan\1+1RCUTx\1-1-RCU-T-NewArch_svn_web_changes\Microchip\TCPIP Stack\TCP.c
                  __pa_19   0x002f96    program     static C:\pavan\1+1RCUTx\1-1-RCU-T-NewArch_svn_web_changes\Microchip\TCPIP Stack\TCP.c
                  __pa_20   0x002fb2    program     static C:\pavan\1+1RCUTx\1-1-RCU-T-NewArch_svn_web_changes\Microchip\TCPIP Stack\TCP.c
                  __pa_21   0x002fbe    program     static C:\pavan\1+1RCUTx\1-1-RCU-T-NewArch_svn_web_changes\Microchip\TCPIP Stack\TCP.c
                  __pa_22   0x002fcc    program     static C:\pavan\1+1RCUTx\1-1-RCU-T-NewArch_svn_web_changes\Microchip\TCPIP Stack\TCP.c
                  __pa_23   0x002fea    program     static C:\pavan\1+1RCUTx\1-1-RCU-T-NewArch_svn_web_changes\Microchip\TCPIP Stack\TCP.c
                  __pa_24   0x002ff4    program     static C:\pavan\1+1RCUTx\1-1-RCU-T-NewArch_svn_web_changes\Microchip\TCPIP Stack\TCP.c
                  __pa_25   0x002ffe    program     static C:\pavan\1+1RCUTx\1-1-RCU-T-NewArch_svn_web_changes\Microchip\TCPIP Stack\TCP.c
                  __pa_26   0x00300a    program     static C:\pavan\1+1RCUTx\1-1-RCU-T-NewArch_svn_web_changes\Microchip\TCPIP Stack\TCP.c
                  __pa_27   0x003020    program     static C:\pavan\1+1RCUTx\1-1-RCU-T-NewArch_svn_web_changes\Microchip\TCPIP Stack\TCP.c
                  __pa_28   0x00302e    program     static C:\pavan\1+1RCUTx\1-1-RCU-T-NewArch_svn_web_changes\Microchip\TCPIP Stack\TCP.c
                  __pa_29   0x00303c    program     static C:\pavan\1+1RCUTx\1-1-RCU-T-NewArch_svn_web_changes\Microchip\TCPIP Stack\TCP.c
                  __pa_30   0x00304a    program     static C:\pavan\1+1RCUTx\1-1-RCU-T-NewArch_svn_web_changes\Microchip\TCPIP Stack\TCP.c
                  __pa_31   0x003056    program     static C:\pavan\1+1RCUTx\1-1-RCU-T-NewArch_svn_web_changes\Microchip\TCPIP Stack\TCP.c
                  __pa_32   0x00305e    program     static C:\pavan\1+1RCUTx\1-1-RCU-T-NewArch_svn_web_changes\Microchip\TCPIP Stack\TCP.c
                  __pa_33   0x003088    program     static C:\pavan\1+1RCUTx\1-1-RCU-T-NewArch_svn_web_changes\Microchip\TCPIP Stack\TCP.c
                  __pa_34   0x00309c    program     static C:\pavan\1+1RCUTx\1-1-RCU-T-NewArch_svn_web_changes\Microchip\TCPIP Stack\TCP.c
                  __pa_35   0x0030b8    program     static C:\pavan\1+1RCUTx\1-1-RCU-T-NewArch_svn_web_changes\Microchip\TCPIP Stack\TCP.c
                  __pa_36   0x0030d2    program     static C:\pavan\1+1RCUTx\1-1-RCU-T-NewArch_svn_web_changes\Microchip\TCPIP Stack\TCP.c
                  __pa_37   0x0030da    program     static C:\pavan\1+1RCUTx\1-1-RCU-T-NewArch_svn_web_changes\Microchip\TCPIP Stack\TCP.c
                  __pa_38   0x0030ea    program     static C:\pavan\1+1RCUTx\1-1-RCU-T-NewArch_svn_web_changes\Microchip\TCPIP Stack\TCP.c
                  __pa_39   0x0030fa    program     static C:\pavan\1+1RCUTx\1-1-RCU-T-NewArch_svn_web_changes\Microchip\TCPIP Stack\TCP.c
                  __pa_40   0x003108    program     static C:\pavan\1+1RCUTx\1-1-RCU-T-NewArch_svn_web_changes\Microchip\TCPIP Stack\TCP.c
                  __pa_41   0x003124    program     static C:\pavan\1+1RCUTx\1-1-RCU-T-NewArch_svn_web_changes\Microchip\TCPIP Stack\TCP.c
                  __pa_42   0x00312c    program     static C:\pavan\1+1RCUTx\1-1-RCU-T-NewArch_svn_web_changes\Microchip\TCPIP Stack\TCP.c
                  __pa_43   0x003144    program     static C:\pavan\1+1RCUTx\1-1-RCU-T-NewArch_svn_web_changes\Microchip\TCPIP Stack\TCP.c
                  __pa_44   0x003156    program     static C:\pavan\1+1RCUTx\1-1-RCU-T-NewArch_svn_web_changes\Microchip\TCPIP Stack\TCP.c
                  __pa_45   0x003160    program     static C:\pavan\1+1RCUTx\1-1-RCU-T-NewArch_svn_web_changes\Microchip\TCPIP Stack\TCP.c
                  __pa_46   0x003172    program     static C:\pavan\1+1RCUTx\1-1-RCU-T-NewArch_svn_web_changes\Microchip\TCPIP Stack\TCP.c
                  __pa_47   0x003198    program     static C:\pavan\1+1RCUTx\1-1-RCU-T-NewArch_svn_web_changes\Microchip\TCPIP Stack\TCP.c
                  __pa_48   0x0031b6    program     static C:\pavan\1+1RCUTx\1-1-RCU-T-NewArch_svn_web_changes\Microchip\TCPIP Stack\TCP.c
                  __pa_49   0x0031d6    program     static C:\pavan\1+1RCUTx\1-1-RCU-T-NewArch_svn_web_changes\Microchip\TCPIP Stack\TCP.c
                  __pa_50   0x0031ec    program     static C:\pavan\1+1RCUTx\1-1-RCU-T-NewArch_svn_web_changes\Microchip\TCPIP Stack\TCP.c
                  __pa_51   0x003202    program     static C:\pavan\1+1RCUTx\1-1-RCU-T-NewArch_svn_web_changes\Microchip\TCPIP Stack\TCP.c
                  __pa_52   0x00320e    program     static C:\pavan\1+1RCUTx\1-1-RCU-T-NewArch_svn_web_changes\Microchip\TCPIP Stack\TCP.c
                  __pa_53   0x00321c    program     static C:\pavan\1+1RCUTx\1-1-RCU-T-NewArch_svn_web_changes\Microchip\TCPIP Stack\TCP.c
                  __pa_54   0x003224    program     static C:\pavan\1+1RCUTx\1-1-RCU-T-NewArch_svn_web_changes\Microchip\TCPIP Stack\TCP.c
                  __pa_55   0x003232    program     static C:\pavan\1+1RCUTx\1-1-RCU-T-NewArch_svn_web_changes\Microchip\TCPIP Stack\TCP.c
                  __pa_56   0x003240    program     static C:\pavan\1+1RCUTx\1-1-RCU-T-NewArch_svn_web_changes\Microchip\TCPIP Stack\TCP.c
                  __pa_57   0x00324a    program     static C:\pavan\1+1RCUTx\1-1-RCU-T-NewArch_svn_web_changes\Microchip\TCPIP Stack\TCP.c
                  __pa_58   0x003268    program     static C:\pavan\1+1RCUTx\1-1-RCU-T-NewArch_svn_web_changes\Microchip\TCPIP Stack\TCP.c
                  __pa_59   0x00328c    program     static C:\pavan\1+1RCUTx\1-1-RCU-T-NewArch_svn_web_changes\Microchip\TCPIP Stack\TCP.c
                  __pa_60   0x00329c    program     static C:\pavan\1+1RCUTx\1-1-RCU-T-NewArch_svn_web_changes\Microchip\TCPIP Stack\TCP.c
                  __pa_61   0x0032a6    program     static C:\pavan\1+1RCUTx\1-1-RCU-T-NewArch_svn_web_changes\Microchip\TCPIP Stack\TCP.c
                  __pa_62   0x0032b0    program     static C:\pavan\1+1RCUTx\1-1-RCU-T-NewArch_svn_web_changes\Microchip\TCPIP Stack\TCP.c
                  __pa_63   0x0032d0    program     static C:\pavan\1+1RCUTx\1-1-RCU-T-NewArch_svn_web_changes\Microchip\TCPIP Stack\TCP.c
                  __pa_64   0x0032e6    program     static C:\pavan\1+1RCUTx\1-1-RCU-T-NewArch_svn_web_changes\Microchip\TCPIP Stack\TCP.c
                  __pa_65   0x0032fa    program     static C:\pavan\1+1RCUTx\1-1-RCU-T-NewArch_svn_web_changes\Microchip\TCPIP Stack\TCP.c
                  __pa_66   0x003310    program     static C:\pavan\1+1RCUTx\1-1-RCU-T-NewArch_svn_web_changes\Microchip\TCPIP Stack\TCP.c
                  __pa_67   0x00332e    program     static C:\pavan\1+1RCUTx\1-1-RCU-T-NewArch_svn_web_changes\Microchip\TCPIP Stack\TCP.c
                  __pa_68   0x003344    program     static C:\pavan\1+1RCUTx\1-1-RCU-T-NewArch_svn_web_changes\Microchip\TCPIP Stack\TCP.c
                  __pa_69   0x003352    program     static C:\pavan\1+1RCUTx\1-1-RCU-T-NewArch_svn_web_changes\Microchip\TCPIP Stack\TCP.c
                  __pa_70   0x003364    program     static C:\pavan\1+1RCUTx\1-1-RCU-T-NewArch_svn_web_changes\Microchip\TCPIP Stack\TCP.c
                  __pa_71   0x003376    program     static C:\pavan\1+1RCUTx\1-1-RCU-T-NewArch_svn_web_changes\Microchip\TCPIP Stack\TCP.c
                  __pa_72   0x003388    program     static C:\pavan\1+1RCUTx\1-1-RCU-T-NewArch_svn_web_changes\Microchip\TCPIP Stack\TCP.c
                  __pa_73   0x00339a    program     static C:\pavan\1+1RCUTx\1-1-RCU-T-NewArch_svn_web_changes\Microchip\TCPIP Stack\TCP.c
                  __pa_74   0x0033a4    program     static C:\pavan\1+1RCUTx\1-1-RCU-T-NewArch_svn_web_changes\Microchip\TCPIP Stack\TCP.c
                  __pa_75   0x0033b6    program     static C:\pavan\1+1RCUTx\1-1-RCU-T-NewArch_svn_web_changes\Microchip\TCPIP Stack\TCP.c
                  __pa_76   0x0033c0    program     static C:\pavan\1+1RCUTx\1-1-RCU-T-NewArch_svn_web_changes\Microchip\TCPIP Stack\TCP.c
                  __pa_77   0x0033ce    program     static C:\pavan\1+1RCUTx\1-1-RCU-T-NewArch_svn_web_changes\Microchip\TCPIP Stack\TCP.c
                  __pa_78   0x0033dc    program     static C:\pavan\1+1RCUTx\1-1-RCU-T-NewArch_svn_web_changes\Microchip\TCPIP Stack\TCP.c
                  __pa_79   0x0033ea    program     static C:\pavan\1+1RCUTx\1-1-RCU-T-NewArch_svn_web_changes\Microchip\TCPIP Stack\TCP.c
                  __pa_80   0x0033f8    program     static C:\pavan\1+1RCUTx\1-1-RCU-T-NewArch_svn_web_changes\Microchip\TCPIP Stack\TCP.c
                  __pa_81   0x003400    program     static C:\pavan\1+1RCUTx\1-1-RCU-T-NewArch_svn_web_changes\Microchip\TCPIP Stack\TCP.c
                  __pa_82   0x00340c    program     static C:\pavan\1+1RCUTx\1-1-RCU-T-NewArch_svn_web_changes\Microchip\TCPIP Stack\TCP.c
                  __pa_83   0x003416    program     static C:\pavan\1+1RCUTx\1-1-RCU-T-NewArch_svn_web_changes\Microchip\TCPIP Stack\TCP.c
                  __pa_84   0x003420    program     static C:\pavan\1+1RCUTx\1-1-RCU-T-NewArch_svn_web_changes\Microchip\TCPIP Stack\TCP.c
                  __pa_85   0x00342a    program     static C:\pavan\1+1RCUTx\1-1-RCU-T-NewArch_svn_web_changes\Microchip\TCPIP Stack\TCP.c
                  __pa_86   0x003434    program     static C:\pavan\1+1RCUTx\1-1-RCU-T-NewArch_svn_web_changes\Microchip\TCPIP Stack\TCP.c
                  __pa_87   0x003444    program     static C:\pavan\1+1RCUTx\1-1-RCU-T-NewArch_svn_web_changes\Microchip\TCPIP Stack\TCP.c
                  __pa_88   0x003452    program     static C:\pavan\1+1RCUTx\1-1-RCU-T-NewArch_svn_web_changes\Microchip\TCPIP Stack\TCP.c
                  __pa_89   0x00346c    program     static C:\pavan\1+1RCUTx\1-1-RCU-T-NewArch_svn_web_changes\Microchip\TCPIP Stack\TCP.c
                  __pa_90   0x003474    program     static C:\pavan\1+1RCUTx\1-1-RCU-T-NewArch_svn_web_changes\Microchip\TCPIP Stack\TCP.c
                  __pa_91   0x00347e    program     static C:\pavan\1+1RCUTx\1-1-RCU-T-NewArch_svn_web_changes\Microchip\TCPIP Stack\TCP.c
                  __pa_92   0x003488    program     static C:\pavan\1+1RCUTx\1-1-RCU-T-NewArch_svn_web_changes\Microchip\TCPIP Stack\TCP.c
                  __pa_93   0x003492    program     static C:\pavan\1+1RCUTx\1-1-RCU-T-NewArch_svn_web_changes\Microchip\TCPIP Stack\TCP.c
                  __pa_94   0x00349c    program     static C:\pavan\1+1RCUTx\1-1-RCU-T-NewArch_svn_web_changes\Microchip\TCPIP Stack\TCP.c
                  __pa_95   0x0034a6    program     static C:\pavan\1+1RCUTx\1-1-RCU-T-NewArch_svn_web_changes\Microchip\TCPIP Stack\TCP.c
                  __pa_96   0x0034be    program     static C:\pavan\1+1RCUTx\1-1-RCU-T-NewArch_svn_web_changes\Microchip\TCPIP Stack\TCP.c
                  __pa_97   0x0034cc    program     static C:\pavan\1+1RCUTx\1-1-RCU-T-NewArch_svn_web_changes\Microchip\TCPIP Stack\TCP.c
                  __pa_98   0x0034e4    program     static C:\pavan\1+1RCUTx\1-1-RCU-T-NewArch_svn_web_changes\Microchip\TCPIP Stack\TCP.c
                  __pa_99   0x0034f4    program     static C:\pavan\1+1RCUTx\1-1-RCU-T-NewArch_svn_web_changes\Microchip\TCPIP Stack\TCP.c
                 __pa_100   0x00350c    program     static C:\pavan\1+1RCUTx\1-1-RCU-T-NewArch_svn_web_changes\Microchip\TCPIP Stack\TCP.c
                 __pa_101   0x003524    program     static C:\pavan\1+1RCUTx\1-1-RCU-T-NewArch_svn_web_changes\Microchip\TCPIP Stack\TCP.c
                 __pa_102   0x003530    program     static C:\pavan\1+1RCUTx\1-1-RCU-T-NewArch_svn_web_changes\Microchip\TCPIP Stack\TCP.c
                 __pa_103   0x00353c    program     static C:\pavan\1+1RCUTx\1-1-RCU-T-NewArch_svn_web_changes\Microchip\TCPIP Stack\TCP.c
                 __pa_104   0x003548    program     static C:\pavan\1+1RCUTx\1-1-RCU-T-NewArch_svn_web_changes\Microchip\TCPIP Stack\TCP.c
                 __pa_105   0x00355e    program     static C:\pavan\1+1RCUTx\1-1-RCU-T-NewArch_svn_web_changes\Microchip\TCPIP Stack\TCP.c
                 __pa_106   0x00356e    program     static C:\pavan\1+1RCUTx\1-1-RCU-T-NewArch_svn_web_changes\Microchip\TCPIP Stack\TCP.c
                 __pa_107   0x003584    program     static C:\pavan\1+1RCUTx\1-1-RCU-T-NewArch_svn_web_changes\Microchip\TCPIP Stack\TCP.c
                 __pa_108   0x00359a    program     static C:\pavan\1+1RCUTx\1-1-RCU-T-NewArch_svn_web_changes\Microchip\TCPIP Stack\TCP.c
                 __pa_109   0x0035a8    program     static C:\pavan\1+1RCUTx\1-1-RCU-T-NewArch_svn_web_changes\Microchip\TCPIP Stack\TCP.c
                 __pa_110   0x0035b6    program     static C:\pavan\1+1RCUTx\1-1-RCU-T-NewArch_svn_web_changes\Microchip\TCPIP Stack\TCP.c
                 __pa_111   0x0035be    program     static C:\pavan\1+1RCUTx\1-1-RCU-T-NewArch_svn_web_changes\Microchip\TCPIP Stack\TCP.c
                 __pa_112   0x0035cc    program     static C:\pavan\1+1RCUTx\1-1-RCU-T-NewArch_svn_web_changes\Microchip\TCPIP Stack\TCP.c
                 __pa_113   0x0035d4    program     static C:\pavan\1+1RCUTx\1-1-RCU-T-NewArch_svn_web_changes\Microchip\TCPIP Stack\TCP.c
                 __pa_114   0x0035e2    program     static C:\pavan\1+1RCUTx\1-1-RCU-T-NewArch_svn_web_changes\Microchip\TCPIP Stack\TCP.c
                 __pa_115   0x0035f0    program     static C:\pavan\1+1RCUTx\1-1-RCU-T-NewArch_svn_web_changes\Microchip\TCPIP Stack\TCP.c
                 __pa_116   0x0035fe    program     static C:\pavan\1+1RCUTx\1-1-RCU-T-NewArch_svn_web_changes\Microchip\TCPIP Stack\TCP.c
                 __pa_117   0x003608    program     static C:\pavan\1+1RCUTx\1-1-RCU-T-NewArch_svn_web_changes\Microchip\TCPIP Stack\TCP.c
                 __pa_118   0x003612    program     static C:\pavan\1+1RCUTx\1-1-RCU-T-NewArch_svn_web_changes\Microchip\TCPIP Stack\TCP.c
                 __pa_119   0x00361c    program     static C:\pavan\1+1RCUTx\1-1-RCU-T-NewArch_svn_web_changes\Microchip\TCPIP Stack\TCP.c
                 __pa_120   0x003626    program     static C:\pavan\1+1RCUTx\1-1-RCU-T-NewArch_svn_web_changes\Microchip\TCPIP Stack\TCP.c
                 __pa_121   0x003630    program     static C:\pavan\1+1RCUTx\1-1-RCU-T-NewArch_svn_web_changes\Microchip\TCPIP Stack\TCP.c
                 __pa_122   0x003638    program     static C:\pavan\1+1RCUTx\1-1-RCU-T-NewArch_svn_web_changes\Microchip\TCPIP Stack\TCP.c
                 __pa_123   0x00364c    program     static C:\pavan\1+1RCUTx\1-1-RCU-T-NewArch_svn_web_changes\Microchip\TCPIP Stack\TCP.c
                 __pa_124   0x003660    program     static C:\pavan\1+1RCUTx\1-1-RCU-T-NewArch_svn_web_changes\Microchip\TCPIP Stack\TCP.c
                 __pa_125   0x003674    program     static C:\pavan\1+1RCUTx\1-1-RCU-T-NewArch_svn_web_changes\Microchip\TCPIP Stack\TCP.c
                 __pa_126   0x00367c    program     static C:\pavan\1+1RCUTx\1-1-RCU-T-NewArch_svn_web_changes\Microchip\TCPIP Stack\TCP.c
                 __pa_127   0x003686    program     static C:\pavan\1+1RCUTx\1-1-RCU-T-NewArch_svn_web_changes\Microchip\TCPIP Stack\TCP.c
                 __pa_128   0x003698    program     static C:\pavan\1+1RCUTx\1-1-RCU-T-NewArch_svn_web_changes\Microchip\TCPIP Stack\TCP.c
                 __pa_129   0x0036aa    program     static C:\pavan\1+1RCUTx\1-1-RCU-T-NewArch_svn_web_changes\Microchip\TCPIP Stack\TCP.c
                 __pa_130   0x0036bc    program     static C:\pavan\1+1RCUTx\1-1-RCU-T-NewArch_svn_web_changes\Microchip\TCPIP Stack\TCP.c
                 __pa_131   0x0036ce    program     static C:\pavan\1+1RCUTx\1-1-RCU-T-NewArch_svn_web_changes\Microchip\TCPIP Stack\TCP.c
                 __pa_132   0x0036e0    program     static C:\pavan\1+1RCUTx\1-1-RCU-T-NewArch_svn_web_changes\Microchip\TCPIP Stack\TCP.c
                 __pa_133   0x0036f2    program     static C:\pavan\1+1RCUTx\1-1-RCU-T-NewArch_svn_web_changes\Microchip\TCPIP Stack\TCP.c
                 __pa_134   0x003704    program     static C:\pavan\1+1RCUTx\1-1-RCU-T-NewArch_svn_web_changes\Microchip\TCPIP Stack\TCP.c
                 __pa_135   0x003716    program     static C:\pavan\1+1RCUTx\1-1-RCU-T-NewArch_svn_web_changes\Microchip\TCPIP Stack\TCP.c
                 __pa_136   0x003728    program     static C:\pavan\1+1RCUTx\1-1-RCU-T-NewArch_svn_web_changes\Microchip\TCPIP Stack\TCP.c
                 __pa_137   0x003730    program     static C:\pavan\1+1RCUTx\1-1-RCU-T-NewArch_svn_web_changes\Microchip\TCPIP Stack\TCP.c
                 __pa_138   0x00373e    program     static C:\pavan\1+1RCUTx\1-1-RCU-T-NewArch_svn_web_changes\Microchip\TCPIP Stack\TCP.c
                 __pa_139   0x00374a    program     static C:\pavan\1+1RCUTx\1-1-RCU-T-NewArch_svn_web_changes\Microchip\TCPIP Stack\TCP.c
                 __pa_140   0x003756    program     static C:\pavan\1+1RCUTx\1-1-RCU-T-NewArch_svn_web_changes\Microchip\TCPIP Stack\TCP.c
                 __pa_141   0x003760    program     static C:\pavan\1+1RCUTx\1-1-RCU-T-NewArch_svn_web_changes\Microchip\TCPIP Stack\TCP.c
                 __pa_142   0x00376a    program     static C:\pavan\1+1RCUTx\1-1-RCU-T-NewArch_svn_web_changes\Microchip\TCPIP Stack\TCP.c
                 __pa_143   0x003774    program     static C:\pavan\1+1RCUTx\1-1-RCU-T-NewArch_svn_web_changes\Microchip\TCPIP Stack\TCP.c
                 __pa_144   0x003784    program     static C:\pavan\1+1RCUTx\1-1-RCU-T-NewArch_svn_web_changes\Microchip\TCPIP Stack\TCP.c
                 __pa_145   0x003794    program     static C:\pavan\1+1RCUTx\1-1-RCU-T-NewArch_svn_web_changes\Microchip\TCPIP Stack\TCP.c
                 __pa_146   0x0037a4    program     static C:\pavan\1+1RCUTx\1-1-RCU-T-NewArch_svn_web_changes\Microchip\TCPIP Stack\TCP.c
                 __pa_147   0x0037b4    program     static C:\pavan\1+1RCUTx\1-1-RCU-T-NewArch_svn_web_changes\Microchip\TCPIP Stack\TCP.c
                 __pa_148   0x0037c4    program     static C:\pavan\1+1RCUTx\1-1-RCU-T-NewArch_svn_web_changes\Microchip\TCPIP Stack\TCP.c
                 __pa_149   0x0037ca    program     static C:\pavan\1+1RCUTx\1-1-RCU-T-NewArch_svn_web_changes\Microchip\TCPIP Stack\TCP.c
                 __pa_150   0x0037d8    program     static C:\pavan\1+1RCUTx\1-1-RCU-T-NewArch_svn_web_changes\Microchip\TCPIP Stack\TCP.c
                 __pa_151   0x0037e6    program     static C:\pavan\1+1RCUTx\1-1-RCU-T-NewArch_svn_web_changes\Microchip\TCPIP Stack\TCP.c
                 __pa_152   0x0037f4    program     static C:\pavan\1+1RCUTx\1-1-RCU-T-NewArch_svn_web_changes\Microchip\TCPIP Stack\TCP.c
                 __pa_153   0x003802    program     static C:\pavan\1+1RCUTx\1-1-RCU-T-NewArch_svn_web_changes\Microchip\TCPIP Stack\TCP.c
                 __pa_154   0x003810    program     static C:\pavan\1+1RCUTx\1-1-RCU-T-NewArch_svn_web_changes\Microchip\TCPIP Stack\TCP.c
                 __pa_155   0x00381e    program     static C:\pavan\1+1RCUTx\1-1-RCU-T-NewArch_svn_web_changes\Microchip\TCPIP Stack\TCP.c
                 __pa_156   0x00382c    program     static C:\pavan\1+1RCUTx\1-1-RCU-T-NewArch_svn_web_changes\Microchip\TCPIP Stack\TCP.c
                 __pa_157   0x00383a    program     static C:\pavan\1+1RCUTx\1-1-RCU-T-NewArch_svn_web_changes\Microchip\TCPIP Stack\TCP.c
                 __pa_158   0x003848    program     static C:\pavan\1+1RCUTx\1-1-RCU-T-NewArch_svn_web_changes\Microchip\TCPIP Stack\TCP.c
                 __pa_159   0x003856    program     static C:\pavan\1+1RCUTx\1-1-RCU-T-NewArch_svn_web_changes\Microchip\TCPIP Stack\TCP.c
                 __pa_160   0x003864    program     static C:\pavan\1+1RCUTx\1-1-RCU-T-NewArch_svn_web_changes\Microchip\TCPIP Stack\TCP.c
                 __pa_161   0x003872    program     static C:\pavan\1+1RCUTx\1-1-RCU-T-NewArch_svn_web_changes\Microchip\TCPIP Stack\TCP.c
                 __pa_162   0x003880    program     static C:\pavan\1+1RCUTx\1-1-RCU-T-NewArch_svn_web_changes\Microchip\TCPIP Stack\TCP.c
                 __pa_163   0x00388e    program     static C:\pavan\1+1RCUTx\1-1-RCU-T-NewArch_svn_web_changes\Microchip\TCPIP Stack\TCP.c
                 __pa_164   0x00389c    program     static C:\pavan\1+1RCUTx\1-1-RCU-T-NewArch_svn_web_changes\Microchip\TCPIP Stack\TCP.c
                 __pa_165   0x0038a6    program     static C:\pavan\1+1RCUTx\1-1-RCU-T-NewArch_svn_web_changes\Microchip\TCPIP Stack\TCP.c
                 __pa_166   0x0038b0    program     static C:\pavan\1+1RCUTx\1-1-RCU-T-NewArch_svn_web_changes\Microchip\TCPIP Stack\TCP.c
                 __pa_167   0x0038ba    program     static C:\pavan\1+1RCUTx\1-1-RCU-T-NewArch_svn_web_changes\Microchip\TCPIP Stack\TCP.c
                 __pa_168   0x0038c4    program     static C:\pavan\1+1RCUTx\1-1-RCU-T-NewArch_svn_web_changes\Microchip\TCPIP Stack\TCP.c
                 __pa_169   0x0038ce    program     static C:\pavan\1+1RCUTx\1-1-RCU-T-NewArch_svn_web_changes\Microchip\TCPIP Stack\TCP.c
                 __pa_170   0x0038d8    program     static C:\pavan\1+1RCUTx\1-1-RCU-T-NewArch_svn_web_changes\Microchip\TCPIP Stack\TCP.c
                 __pa_171   0x0038e2    program     static C:\pavan\1+1RCUTx\1-1-RCU-T-NewArch_svn_web_changes\Microchip\TCPIP Stack\TCP.c
                 __pa_172   0x0038ec    program     static C:\pavan\1+1RCUTx\1-1-RCU-T-NewArch_svn_web_changes\Microchip\TCPIP Stack\TCP.c
                 __pa_173   0x0038f4    program     static C:\pavan\1+1RCUTx\1-1-RCU-T-NewArch_svn_web_changes\Microchip\TCPIP Stack\TCP.c
                 __pa_174   0x0038fe    program     static C:\pavan\1+1RCUTx\1-1-RCU-T-NewArch_svn_web_changes\Microchip\TCPIP Stack\TCP.c
                 __pa_175   0x00390c    program     static C:\pavan\1+1RCUTx\1-1-RCU-T-NewArch_svn_web_changes\Microchip\TCPIP Stack\TCP.c
                 __pa_176   0x003934    program     static C:\pavan\1+1RCUTx\1-1-RCU-T-NewArch_svn_web_changes\Microchip\TCPIP Stack\TCP.c
                 __pa_177   0x003942    program     static C:\pavan\1+1RCUTx\1-1-RCU-T-NewArch_svn_web_changes\Microchip\TCPIP Stack\TCP.c
                 __pa_178   0x00394a    program     static C:\pavan\1+1RCUTx\1-1-RCU-T-NewArch_svn_web_changes\Microchip\TCPIP Stack\TCP.c
                 __pa_179   0x003954    program     static C:\pavan\1+1RCUTx\1-1-RCU-T-NewArch_svn_web_changes\Microchip\TCPIP Stack\TCP.c
                 __pa_180   0x003962    program     static C:\pavan\1+1RCUTx\1-1-RCU-T-NewArch_svn_web_changes\Microchip\TCPIP Stack\TCP.c
                 __pa_181   0x00396c    program     static C:\pavan\1+1RCUTx\1-1-RCU-T-NewArch_svn_web_changes\Microchip\TCPIP Stack\TCP.c
                 __pa_182   0x00397a    program     static C:\pavan\1+1RCUTx\1-1-RCU-T-NewArch_svn_web_changes\Microchip\TCPIP Stack\TCP.c
                 __pa_183   0x003986    program     static C:\pavan\1+1RCUTx\1-1-RCU-T-NewArch_svn_web_changes\Microchip\TCPIP Stack\TCP.c
                 __pa_184   0x003990    program     static C:\pavan\1+1RCUTx\1-1-RCU-T-NewArch_svn_web_changes\Microchip\TCPIP Stack\TCP.c
                 __pa_185   0x0039a0    program     static C:\pavan\1+1RCUTx\1-1-RCU-T-NewArch_svn_web_changes\Microchip\TCPIP Stack\TCP.c
                 __pa_186   0x0039aa    program     static C:\pavan\1+1RCUTx\1-1-RCU-T-NewArch_svn_web_changes\Microchip\TCPIP Stack\TCP.c
                 __pa_187   0x0039c8    program     static C:\pavan\1+1RCUTx\1-1-RCU-T-NewArch_svn_web_changes\Microchip\TCPIP Stack\TCP.c
                 __pa_188   0x0039de    program     static C:\pavan\1+1RCUTx\1-1-RCU-T-NewArch_svn_web_changes\Microchip\TCPIP Stack\TCP.c
                 __pa_189   0x0039f4    program     static C:\pavan\1+1RCUTx\1-1-RCU-T-NewArch_svn_web_changes\Microchip\TCPIP Stack\TCP.c
                 __pa_190   0x003a10    program     static C:\pavan\1+1RCUTx\1-1-RCU-T-NewArch_svn_web_changes\Microchip\TCPIP Stack\TCP.c
                 __pa_191   0x003a2c    program     static C:\pavan\1+1RCUTx\1-1-RCU-T-NewArch_svn_web_changes\Microchip\TCPIP Stack\TCP.c
                 __pa_192   0x003a38    program     static C:\pavan\1+1RCUTx\1-1-RCU-T-NewArch_svn_web_changes\Microchip\TCPIP Stack\TCP.c
                 __pa_193   0x003a46    program     static C:\pavan\1+1RCUTx\1-1-RCU-T-NewArch_svn_web_changes\Microchip\TCPIP Stack\TCP.c
                 __pa_194   0x003a50    program     static C:\pavan\1+1RCUTx\1-1-RCU-T-NewArch_svn_web_changes\Microchip\TCPIP Stack\TCP.c
                 __pa_195   0x003a5a    program     static C:\pavan\1+1RCUTx\1-1-RCU-T-NewArch_svn_web_changes\Microchip\TCPIP Stack\TCP.c
                 __pa_196   0x003a62    program     static C:\pavan\1+1RCUTx\1-1-RCU-T-NewArch_svn_web_changes\Microchip\TCPIP Stack\TCP.c
                 __pa_197   0x003a6c    program     static C:\pavan\1+1RCUTx\1-1-RCU-T-NewArch_svn_web_changes\Microchip\TCPIP Stack\TCP.c
                 __pa_198   0x003a76    program     static C:\pavan\1+1RCUTx\1-1-RCU-T-NewArch_svn_web_changes\Microchip\TCPIP Stack\TCP.c
                 __pa_199   0x003a80    program     static C:\pavan\1+1RCUTx\1-1-RCU-T-NewArch_svn_web_changes\Microchip\TCPIP Stack\TCP.c
                 __pa_200   0x003a8a    program     static C:\pavan\1+1RCUTx\1-1-RCU-T-NewArch_svn_web_changes\Microchip\TCPIP Stack\TCP.c
                 __pa_201   0x003aa0    program     static C:\pavan\1+1RCUTx\1-1-RCU-T-NewArch_svn_web_changes\Microchip\TCPIP Stack\TCP.c
                 __pa_202   0x003aac    program     static C:\pavan\1+1RCUTx\1-1-RCU-T-NewArch_svn_web_changes\Microchip\TCPIP Stack\TCP.c
                 __pa_203   0x003ab8    program     static C:\pavan\1+1RCUTx\1-1-RCU-T-NewArch_svn_web_changes\Microchip\TCPIP Stack\TCP.c
                 __pa_204   0x003abe    program     static C:\pavan\1+1RCUTx\1-1-RCU-T-NewArch_svn_web_changes\Microchip\TCPIP Stack\TCP.c
                 __pa_205   0x003aca    program     static C:\pavan\1+1RCUTx\1-1-RCU-T-NewArch_svn_web_changes\Microchip\TCPIP Stack\TCP.c
                 __pa_206   0x003ade    program     static C:\pavan\1+1RCUTx\1-1-RCU-T-NewArch_svn_web_changes\Microchip\TCPIP Stack\TCP.c
                 __pa_207   0x003af2    program     static C:\pavan\1+1RCUTx\1-1-RCU-T-NewArch_svn_web_changes\Microchip\TCPIP Stack\TCP.c
                 __pa_208   0x003b00    program     static C:\pavan\1+1RCUTx\1-1-RCU-T-NewArch_svn_web_changes\Microchip\TCPIP Stack\TCP.c
                 __pa_209   0x003b0a    program     static C:\pavan\1+1RCUTx\1-1-RCU-T-NewArch_svn_web_changes\Microchip\TCPIP Stack\TCP.c
                 __pa_210   0x003b12    program     static C:\pavan\1+1RCUTx\1-1-RCU-T-NewArch_svn_web_changes\Microchip\TCPIP Stack\TCP.c
                 __pa_211   0x003b1c    program     static C:\pavan\1+1RCUTx\1-1-RCU-T-NewArch_svn_web_changes\Microchip\TCPIP Stack\TCP.c
                 __pa_212   0x003b26    program     static C:\pavan\1+1RCUTx\1-1-RCU-T-NewArch_svn_web_changes\Microchip\TCPIP Stack\TCP.c
                 __pa_213   0x003b2e    program     static C:\pavan\1+1RCUTx\1-1-RCU-T-NewArch_svn_web_changes\Microchip\TCPIP Stack\TCP.c
                 __pa_214   0x003b3c    program     static C:\pavan\1+1RCUTx\1-1-RCU-T-NewArch_svn_web_changes\Microchip\TCPIP Stack\TCP.c
                 __pa_215   0x003b46    program     static C:\pavan\1+1RCUTx\1-1-RCU-T-NewArch_svn_web_changes\Microchip\TCPIP Stack\TCP.c
                 __pa_216   0x003b52    program     static C:\pavan\1+1RCUTx\1-1-RCU-T-NewArch_svn_web_changes\Microchip\TCPIP Stack\TCP.c
                 __pa_217   0x003b64    program     static C:\pavan\1+1RCUTx\1-1-RCU-T-NewArch_svn_web_changes\Microchip\TCPIP Stack\TCP.c
                 __pa_218   0x003b6a    program     static C:\pavan\1+1RCUTx\1-1-RCU-T-NewArch_svn_web_changes\Microchip\TCPIP Stack\TCP.c
                 __pa_219   0x003b72    program     static C:\pavan\1+1RCUTx\1-1-RCU-T-NewArch_svn_web_changes\Microchip\TCPIP Stack\TCP.c
                 __pa_220   0x003b84    program     static C:\pavan\1+1RCUTx\1-1-RCU-T-NewArch_svn_web_changes\Microchip\TCPIP Stack\TCP.c
                 __pa_221   0x003b92    program     static C:\pavan\1+1RCUTx\1-1-RCU-T-NewArch_svn_web_changes\Microchip\TCPIP Stack\TCP.c
                 __pa_222   0x003b9c    program     static C:\pavan\1+1RCUTx\1-1-RCU-T-NewArch_svn_web_changes\Microchip\TCPIP Stack\TCP.c
                 __pa_223   0x003ba6    program     static C:\pavan\1+1RCUTx\1-1-RCU-T-NewArch_svn_web_changes\Microchip\TCPIP Stack\TCP.c
             __tmplbl_214   0x003ba6    program     static                          
                 __pa_224   0x003bb0    program     static C:\pavan\1+1RCUTx\1-1-RCU-T-NewArch_svn_web_changes\Microchip\TCPIP Stack\TCP.c
                 __pa_225   0x003bb8    program     static C:\pavan\1+1RCUTx\1-1-RCU-T-NewArch_svn_web_changes\Microchip\TCPIP Stack\TCP.c
                 __pa_226   0x003bc2    program     static C:\pavan\1+1RCUTx\1-1-RCU-T-NewArch_svn_web_changes\Microchip\TCPIP Stack\TCP.c
                 __pa_227   0x003bcc    program     static C:\pavan\1+1RCUTx\1-1-RCU-T-NewArch_svn_web_changes\Microchip\TCPIP Stack\TCP.c
                 __pa_228   0x003bd4    program     static C:\pavan\1+1RCUTx\1-1-RCU-T-NewArch_svn_web_changes\Microchip\TCPIP Stack\TCP.c
                 __pa_229   0x003bde    program     static C:\pavan\1+1RCUTx\1-1-RCU-T-NewArch_svn_web_changes\Microchip\TCPIP Stack\TCP.c
                 __pa_230   0x003bec    program     static C:\pavan\1+1RCUTx\1-1-RCU-T-NewArch_svn_web_changes\Microchip\TCPIP Stack\TCP.c
                 __pa_231   0x003bfc    program     static C:\pavan\1+1RCUTx\1-1-RCU-T-NewArch_svn_web_changes\Microchip\TCPIP Stack\TCP.c
                 __pa_232   0x003c0c    program     static C:\pavan\1+1RCUTx\1-1-RCU-T-NewArch_svn_web_changes\Microchip\TCPIP Stack\TCP.c
                 __pa_233   0x003c1a    program     static C:\pavan\1+1RCUTx\1-1-RCU-T-NewArch_svn_web_changes\Microchip\TCPIP Stack\TCP.c
             __tmplbl_215   0x003c1a    program     static                          
                 __pa_234   0x003c28    program     static C:\pavan\1+1RCUTx\1-1-RCU-T-NewArch_svn_web_changes\Microchip\TCPIP Stack\TCP.c
                 __pa_235   0x003c34    program     static C:\pavan\1+1RCUTx\1-1-RCU-T-NewArch_svn_web_changes\Microchip\TCPIP Stack\TCP.c
                 __pa_236   0x003c40    program     static C:\pavan\1+1RCUTx\1-1-RCU-T-NewArch_svn_web_changes\Microchip\TCPIP Stack\TCP.c
                 __pa_237   0x003c4a    program     static C:\pavan\1+1RCUTx\1-1-RCU-T-NewArch_svn_web_changes\Microchip\TCPIP Stack\TCP.c
                 __pa_238   0x003c56    program     static C:\pavan\1+1RCUTx\1-1-RCU-T-NewArch_svn_web_changes\Microchip\TCPIP Stack\TCP.c
                 __pa_239   0x003c64    program     static C:\pavan\1+1RCUTx\1-1-RCU-T-NewArch_svn_web_changes\Microchip\TCPIP Stack\TCP.c
                 __pa_240   0x003c72    program     static C:\pavan\1+1RCUTx\1-1-RCU-T-NewArch_svn_web_changes\Microchip\TCPIP Stack\TCP.c
                 __pa_241   0x003c80    program     static C:\pavan\1+1RCUTx\1-1-RCU-T-NewArch_svn_web_changes\Microchip\TCPIP Stack\TCP.c
                 __pa_242   0x003c8e    program     static C:\pavan\1+1RCUTx\1-1-RCU-T-NewArch_svn_web_changes\Microchip\TCPIP Stack\TCP.c
                 __pa_243   0x003c9c    program     static C:\pavan\1+1RCUTx\1-1-RCU-T-NewArch_svn_web_changes\Microchip\TCPIP Stack\TCP.c
                 __pa_244   0x003caa    program     static C:\pavan\1+1RCUTx\1-1-RCU-T-NewArch_svn_web_changes\Microchip\TCPIP Stack\TCP.c
                 __pa_245   0x003cb8    program     static C:\pavan\1+1RCUTx\1-1-RCU-T-NewArch_svn_web_changes\Microchip\TCPIP Stack\TCP.c
                 __pa_246   0x003cc6    program     static C:\pavan\1+1RCUTx\1-1-RCU-T-NewArch_svn_web_changes\Microchip\TCPIP Stack\TCP.c
                 __pa_247   0x003cd4    program     static C:\pavan\1+1RCUTx\1-1-RCU-T-NewArch_svn_web_changes\Microchip\TCPIP Stack\TCP.c
                 __pa_248   0x003ce2    program     static C:\pavan\1+1RCUTx\1-1-RCU-T-NewArch_svn_web_changes\Microchip\TCPIP Stack\TCP.c
                 __pa_249   0x003cf0    program     static C:\pavan\1+1RCUTx\1-1-RCU-T-NewArch_svn_web_changes\Microchip\TCPIP Stack\TCP.c
                 __pa_250   0x003cfe    program     static C:\pavan\1+1RCUTx\1-1-RCU-T-NewArch_svn_web_changes\Microchip\TCPIP Stack\TCP.c
                 __pa_251   0x003d06    program     static C:\pavan\1+1RCUTx\1-1-RCU-T-NewArch_svn_web_changes\Microchip\TCPIP Stack\TCP.c
                 __pa_252   0x003d10    program     static C:\pavan\1+1RCUTx\1-1-RCU-T-NewArch_svn_web_changes\Microchip\TCPIP Stack\TCP.c
                 __pa_253   0x003d1a    program     static C:\pavan\1+1RCUTx\1-1-RCU-T-NewArch_svn_web_changes\Microchip\TCPIP Stack\TCP.c
                 __pa_254   0x003d24    program     static C:\pavan\1+1RCUTx\1-1-RCU-T-NewArch_svn_web_changes\Microchip\TCPIP Stack\TCP.c
                 __pa_255   0x003d2e    program     static C:\pavan\1+1RCUTx\1-1-RCU-T-NewArch_svn_web_changes\Microchip\TCPIP Stack\TCP.c
                 __pa_256   0x003d36    program     static C:\pavan\1+1RCUTx\1-1-RCU-T-NewArch_svn_web_changes\Microchip\TCPIP Stack\TCP.c
                 __pa_257   0x003d40    program     static C:\pavan\1+1RCUTx\1-1-RCU-T-NewArch_svn_web_changes\Microchip\TCPIP Stack\TCP.c
                 __pa_258   0x003d4a    program     static C:\pavan\1+1RCUTx\1-1-RCU-T-NewArch_svn_web_changes\Microchip\TCPIP Stack\TCP.c
                 __pa_259   0x003d54    program     static C:\pavan\1+1RCUTx\1-1-RCU-T-NewArch_svn_web_changes\Microchip\TCPIP Stack\TCP.c
                 __pa_260   0x003d5e    program     static C:\pavan\1+1RCUTx\1-1-RCU-T-NewArch_svn_web_changes\Microchip\TCPIP Stack\TCP.c
                 __pa_261   0x003d66    program     static C:\pavan\1+1RCUTx\1-1-RCU-T-NewArch_svn_web_changes\Microchip\TCPIP Stack\TCP.c
                 __pa_262   0x003d72    program     static C:\pavan\1+1RCUTx\1-1-RCU-T-NewArch_svn_web_changes\Microchip\TCPIP Stack\TCP.c
                 __pa_263   0x003d82    program     static C:\pavan\1+1RCUTx\1-1-RCU-T-NewArch_svn_web_changes\Microchip\TCPIP Stack\TCP.c
                 __pa_264   0x003d8c    program     static C:\pavan\1+1RCUTx\1-1-RCU-T-NewArch_svn_web_changes\Microchip\TCPIP Stack\TCP.c
                 __pa_265   0x003d9e    program     static C:\pavan\1+1RCUTx\1-1-RCU-T-NewArch_svn_web_changes\Microchip\TCPIP Stack\TCP.c
                 __pa_266   0x003dae    program     static C:\pavan\1+1RCUTx\1-1-RCU-T-NewArch_svn_web_changes\Microchip\TCPIP Stack\TCP.c
                 __pa_267   0x003dbc    program     static C:\pavan\1+1RCUTx\1-1-RCU-T-NewArch_svn_web_changes\Microchip\TCPIP Stack\TCP.c
                 __pa_268   0x003dc2    program     static C:\pavan\1+1RCUTx\1-1-RCU-T-NewArch_svn_web_changes\Microchip\TCPIP Stack\TCP.c
                 __pa_269   0x003dd0    program     static C:\pavan\1+1RCUTx\1-1-RCU-T-NewArch_svn_web_changes\Microchip\TCPIP Stack\TCP.c
                 __pa_270   0x003dd8    program     static C:\pavan\1+1RCUTx\1-1-RCU-T-NewArch_svn_web_changes\Microchip\TCPIP Stack\TCP.c
                 __pa_271   0x003de2    program     static C:\pavan\1+1RCUTx\1-1-RCU-T-NewArch_svn_web_changes\Microchip\TCPIP Stack\TCP.c
                 __pa_272   0x003dea    program     static C:\pavan\1+1RCUTx\1-1-RCU-T-NewArch_svn_web_changes\Microchip\TCPIP Stack\TCP.c
                 __pa_273   0x003df2    program     static C:\pavan\1+1RCUTx\1-1-RCU-T-NewArch_svn_web_changes\Microchip\TCPIP Stack\TCP.c
                 __pa_274   0x003dfe    program     static C:\pavan\1+1RCUTx\1-1-RCU-T-NewArch_svn_web_changes\Microchip\TCPIP Stack\TCP.c
                 __pa_275   0x003e0a    program     static C:\pavan\1+1RCUTx\1-1-RCU-T-NewArch_svn_web_changes\Microchip\TCPIP Stack\TCP.c
                 __pa_276   0x003e16    program     static C:\pavan\1+1RCUTx\1-1-RCU-T-NewArch_svn_web_changes\Microchip\TCPIP Stack\TCP.c
                 __pa_277   0x003e22    program     static C:\pavan\1+1RCUTx\1-1-RCU-T-NewArch_svn_web_changes\Microchip\TCPIP Stack\TCP.c
             __tmplbl_213   0x003e22    program     static                          
                 __pa_278   0x003e2e    program     static C:\pavan\1+1RCUTx\1-1-RCU-T-NewArch_svn_web_changes\Microchip\TCPIP Stack\TCP.c
                 __pa_279   0x003e36    program     static C:\pavan\1+1RCUTx\1-1-RCU-T-NewArch_svn_web_changes\Microchip\TCPIP Stack\TCP.c
                 __pa_280   0x003e3e    program     static C:\pavan\1+1RCUTx\1-1-RCU-T-NewArch_svn_web_changes\Microchip\TCPIP Stack\TCP.c
                 __pa_281   0x003e46    program     static C:\pavan\1+1RCUTx\1-1-RCU-T-NewArch_svn_web_changes\Microchip\TCPIP Stack\TCP.c
                 __pa_282   0x003e4e    program     static C:\pavan\1+1RCUTx\1-1-RCU-T-NewArch_svn_web_changes\Microchip\TCPIP Stack\TCP.c
                 __pa_283   0x003e58    program     static C:\pavan\1+1RCUTx\1-1-RCU-T-NewArch_svn_web_changes\Microchip\TCPIP Stack\TCP.c
             __tmplbl_216   0x003e60    program     static                          
                 __pa_284   0x003e60    program     static C:\pavan\1+1RCUTx\1-1-RCU-T-NewArch_svn_web_changes\Microchip\TCPIP Stack\TCP.c
                 __pa_285   0x003e68    program     static C:\pavan\1+1RCUTx\1-1-RCU-T-NewArch_svn_web_changes\Microchip\TCPIP Stack\TCP.c
                 __pa_286   0x003e70    program     static C:\pavan\1+1RCUTx\1-1-RCU-T-NewArch_svn_web_changes\Microchip\TCPIP Stack\TCP.c
                 __pa_287   0x003e78    program     static C:\pavan\1+1RCUTx\1-1-RCU-T-NewArch_svn_web_changes\Microchip\TCPIP Stack\TCP.c
                 _SNMPGet   0x003e82    program     extern C:\pavan\1+1RCUTx\1-1-RCU-T-NewArch_svn_web_changes\Microchip\TCPIP Stack\SNMP.c
            IsValidLength   0x003ebc    program     extern C:\pavan\1+1RCUTx\1-1-RCU-T-NewArch_svn_web_changes\Microchip\TCPIP Stack\SNMP.c
         IsValidCommunity   0x003f3a    program     static C:\pavan\1+1RCUTx\1-1-RCU-T-NewArch_svn_web_changes\Microchip\TCPIP Stack\SNMP.c
               IsValidInt   0x003f92    program     extern C:\pavan\1+1RCUTx\1-1-RCU-T-NewArch_svn_web_changes\Microchip\TCPIP Stack\SNMP.c
               IsValidPDU   0x004024    program     static C:\pavan\1+1RCUTx\1-1-RCU-T-NewArch_svn_web_changes\Microchip\TCPIP Stack\SNMP.c
                IsASNNull   0x004064    program     static C:\pavan\1+1RCUTx\1-1-RCU-T-NewArch_svn_web_changes\Microchip\TCPIP Stack\SNMP.c
               IsValidOID   0x004084    program     static C:\pavan\1+1RCUTx\1-1-RCU-T-NewArch_svn_web_changes\Microchip\TCPIP Stack\SNMP.c
         IsValidStructure   0x0040e8    program     extern C:\pavan\1+1RCUTx\1-1-RCU-T-NewArch_svn_web_changes\Microchip\TCPIP Stack\SNMP.c
          _SNMPDuplexInit   0x00412e    program     extern C:\pavan\1+1RCUTx\1-1-RCU-T-NewArch_svn_web_changes\Microchip\TCPIP Stack\SNMP.c
                 _SNMPPut   0x004150    program     extern C:\pavan\1+1RCUTx\1-1-RCU-T-NewArch_svn_web_changes\Microchip\TCPIP Stack\SNMP.c
                 SNMPInit   0x00417c    program     extern C:\pavan\1+1RCUTx\1-1-RCU-T-NewArch_svn_web_changes\Microchip\TCPIP Stack\SNMP.c
          GetDataTypeInfo   0x0041b0    program     extern C:\pavan\1+1RCUTx\1-1-RCU-T-NewArch_svn_web_changes\Microchip\TCPIP Stack\SNMP.c
                 SNMPTask   0x004220    program     extern C:\pavan\1+1RCUTx\1-1-RCU-T-NewArch_svn_web_changes\Microchip\TCPIP Stack\SNMP.c
        SNMPNotifyPrepare   0x00430a    program     extern C:\pavan\1+1RCUTx\1-1-RCU-T-NewArch_svn_web_changes\Microchip\TCPIP Stack\SNMP.c
        SNMPIsNotifyReady   0x004368    program     extern C:\pavan\1+1RCUTx\1-1-RCU-T-NewArch_svn_web_changes\Microchip\TCPIP Stack\SNMP.c
      getSnmpV2GenTrapOid   0x0043f0    program     extern C:\pavan\1+1RCUTx\1-1-RCU-T-NewArch_svn_web_changes\Microchip\TCPIP Stack\SNMP.c
               SNMPNotify   0x004460    program     extern C:\pavan\1+1RCUTx\1-1-RCU-T-NewArch_svn_web_changes\Microchip\TCPIP Stack\SNMP.c
         GetOIDStringByID   0x004a66    program     extern C:\pavan\1+1RCUTx\1-1-RCU-T-NewArch_svn_web_changes\Microchip\TCPIP Stack\SNMP.c
       GetOIDStringByAddr   0x004b32    program     extern C:\pavan\1+1RCUTx\1-1-RCU-T-NewArch_svn_web_changes\Microchip\TCPIP Stack\SNMP.c
            ProcessHeader   0x004cae    program     static C:\pavan\1+1RCUTx\1-1-RCU-T-NewArch_svn_web_changes\Microchip\TCPIP Stack\SNMP.c
      ProcessGetSetHeader   0x004e52    program     static C:\pavan\1+1RCUTx\1-1-RCU-T-NewArch_svn_web_changes\Microchip\TCPIP Stack\SNMP.c
            ProcessSetVar   0x004eca    program     extern C:\pavan\1+1RCUTx\1-1-RCU-T-NewArch_svn_web_changes\Microchip\TCPIP Stack\SNMP.c
            ProcessGetVar   0x00514c    program     extern C:\pavan\1+1RCUTx\1-1-RCU-T-NewArch_svn_web_changes\Microchip\TCPIP Stack\SNMP.c
        ProcessGetNextVar   0x0052c4    program     extern C:\pavan\1+1RCUTx\1-1-RCU-T-NewArch_svn_web_changes\Microchip\TCPIP Stack\SNMP.c
        ProcessGetBulkVar   0x0055c2    program     extern C:\pavan\1+1RCUTx\1-1-RCU-T-NewArch_svn_web_changes\Microchip\TCPIP Stack\SNMP.c
                OIDLookup   0x005976    program     extern C:\pavan\1+1RCUTx\1-1-RCU-T-NewArch_svn_web_changes\Microchip\TCPIP Stack\SNMP.c
              GetNextLeaf   0x005d42    program     extern C:\pavan\1+1RCUTx\1-1-RCU-T-NewArch_svn_web_changes\Microchip\TCPIP Stack\SNMP.c
            ReadMIBRecord   0x005eaa    program     static C:\pavan\1+1RCUTx\1-1-RCU-T-NewArch_svn_web_changes\Microchip\TCPIP Stack\SNMP.c
           SetErrorStatus   0x005ff0    program     extern C:\pavan\1+1RCUTx\1-1-RCU-T-NewArch_svn_web_changes\Microchip\TCPIP Stack\SNMP.c
        FindOIDsInRequest   0x006034    program     static C:\pavan\1+1RCUTx\1-1-RCU-T-NewArch_svn_web_changes\Microchip\TCPIP Stack\SNMP.c
SNMPCheckIfPvtMibObjRequested   0x0060f4    program     static C:\pavan\1+1RCUTx\1-1-RCU-T-NewArch_svn_web_changes\Microchip\TCPIP Stack\SNMP.c
         ProcessVariables   0x006172    program     static C:\pavan\1+1RCUTx\1-1-RCU-T-NewArch_svn_web_changes\Microchip\TCPIP Stack\SNMP.c
             __tmplbl_204   0x006262    program     static                          
             __tmplbl_205   0x006262    program     static                          
             __tmplbl_179   0x006a72    program     static                          
             __tmplbl_188   0x006c8a    program     static                          
             __tmplbl_190   0x006d06    program     static                          
                   __pa_0   0x006d84    program     static C:\pavan\1+1RCUTx\1-1-RCU-T-NewArch_svn_web_changes\Microchip\TCPIP Stack\SNMP.c
                   __pa_1   0x006d92    program     static C:\pavan\1+1RCUTx\1-1-RCU-T-NewArch_svn_web_changes\Microchip\TCPIP Stack\SNMP.c
                   __pa_2   0x006d98    program     static C:\pavan\1+1RCUTx\1-1-RCU-T-NewArch_svn_web_changes\Microchip\TCPIP Stack\SNMP.c
                   __pa_3   0x006d9c    program     static C:\pavan\1+1RCUTx\1-1-RCU-T-NewArch_svn_web_changes\Microchip\TCPIP Stack\SNMP.c
                   __pa_4   0x006da8    program     static C:\pavan\1+1RCUTx\1-1-RCU-T-NewArch_svn_web_changes\Microchip\TCPIP Stack\SNMP.c
                   __pa_5   0x006dac    program     static C:\pavan\1+1RCUTx\1-1-RCU-T-NewArch_svn_web_changes\Microchip\TCPIP Stack\SNMP.c
             __tmplbl_127   0x006dac    program     static                          
             __tmplbl_146   0x006dac    program     static                          
             __tmplbl_130   0x006dac    program     static                          
             __tmplbl_145   0x006dac    program     static                          
             __tmplbl_131   0x006dac    program     static                          
             __tmplbl_132   0x006dac    program     static                          
             __tmplbl_133   0x006dac    program     static                          
             __tmplbl_134   0x006dac    program     static                          
             __tmplbl_135   0x006dac    program     static                          
             __tmplbl_136   0x006dac    program     static                          
             __tmplbl_137   0x006dac    program     static                          
             __tmplbl_144   0x006dac    program     static                          
             __tmplbl_141   0x006dac    program     static                          
             __tmplbl_143   0x006dac    program     static                          
             __tmplbl_162   0x006dac    program     static                          
             __tmplbl_164   0x006dac    program     static                          
             __tmplbl_160   0x006dac    program     static                          
             __tmplbl_165   0x006dac    program     static                          
             __tmplbl_166   0x006dac    program     static                          
             __tmplbl_173   0x006dac    program     static                          
             __tmplbl_174   0x006dac    program     static                          
             __tmplbl_159   0x006dac    program     static                          
             __tmplbl_175   0x006dac    program     static                          
             __tmplbl_176   0x006dac    program     static                          
             __tmplbl_177   0x006dac    program     static                          
             __tmplbl_129   0x006dac    program     static                          
             __tmplbl_178   0x006dac    program     static                          
             __tmplbl_154   0x006dac    program     static                          
             __tmplbl_156   0x006dac    program     static                          
             __tmplbl_155   0x006dac    program     static                          
                   __pa_6   0x006db8    program     static C:\pavan\1+1RCUTx\1-1-RCU-T-NewArch_svn_web_changes\Microchip\TCPIP Stack\SNMP.c
                   __pa_7   0x006dc0    program     static C:\pavan\1+1RCUTx\1-1-RCU-T-NewArch_svn_web_changes\Microchip\TCPIP Stack\SNMP.c
                   __pa_8   0x006dce    program     static C:\pavan\1+1RCUTx\1-1-RCU-T-NewArch_svn_web_changes\Microchip\TCPIP Stack\SNMP.c
                   __pa_9   0x006ddc    program     static C:\pavan\1+1RCUTx\1-1-RCU-T-NewArch_svn_web_changes\Microchip\TCPIP Stack\SNMP.c
                  __pa_10   0x006dfc    program     static C:\pavan\1+1RCUTx\1-1-RCU-T-NewArch_svn_web_changes\Microchip\TCPIP Stack\SNMP.c
                  __pa_11   0x006e0a    program     static C:\pavan\1+1RCUTx\1-1-RCU-T-NewArch_svn_web_changes\Microchip\TCPIP Stack\SNMP.c
                  __pa_12   0x006e14    program     static C:\pavan\1+1RCUTx\1-1-RCU-T-NewArch_svn_web_changes\Microchip\TCPIP Stack\SNMP.c
                  __pa_13   0x006e32    program     static C:\pavan\1+1RCUTx\1-1-RCU-T-NewArch_svn_web_changes\Microchip\TCPIP Stack\SNMP.c
                  __pa_14   0x006e3e    program     static C:\pavan\1+1RCUTx\1-1-RCU-T-NewArch_svn_web_changes\Microchip\TCPIP Stack\SNMP.c
                  __pa_15   0x006e4c    program     static C:\pavan\1+1RCUTx\1-1-RCU-T-NewArch_svn_web_changes\Microchip\TCPIP Stack\SNMP.c
                  __pa_16   0x006e58    program     static C:\pavan\1+1RCUTx\1-1-RCU-T-NewArch_svn_web_changes\Microchip\TCPIP Stack\SNMP.c
                  __pa_17   0x006e66    program     static C:\pavan\1+1RCUTx\1-1-RCU-T-NewArch_svn_web_changes\Microchip\TCPIP Stack\SNMP.c
                  __pa_18   0x006e6c    program     static C:\pavan\1+1RCUTx\1-1-RCU-T-NewArch_svn_web_changes\Microchip\TCPIP Stack\SNMP.c
                  __pa_19   0x006e74    program     static C:\pavan\1+1RCUTx\1-1-RCU-T-NewArch_svn_web_changes\Microchip\TCPIP Stack\SNMP.c
                  __pa_20   0x006e82    program     static C:\pavan\1+1RCUTx\1-1-RCU-T-NewArch_svn_web_changes\Microchip\TCPIP Stack\SNMP.c
                  __pa_21   0x006e92    program     static C:\pavan\1+1RCUTx\1-1-RCU-T-NewArch_svn_web_changes\Microchip\TCPIP Stack\SNMP.c
                  __pa_22   0x006e98    program     static C:\pavan\1+1RCUTx\1-1-RCU-T-NewArch_svn_web_changes\Microchip\TCPIP Stack\SNMP.c
                  __pa_23   0x006ea6    program     static C:\pavan\1+1RCUTx\1-1-RCU-T-NewArch_svn_web_changes\Microchip\TCPIP Stack\SNMP.c
                  __pa_24   0x006eae    program     static C:\pavan\1+1RCUTx\1-1-RCU-T-NewArch_svn_web_changes\Microchip\TCPIP Stack\SNMP.c
                  __pa_25   0x006eb8    program     static C:\pavan\1+1RCUTx\1-1-RCU-T-NewArch_svn_web_changes\Microchip\TCPIP Stack\SNMP.c
                  __pa_26   0x006ec4    program     static C:\pavan\1+1RCUTx\1-1-RCU-T-NewArch_svn_web_changes\Microchip\TCPIP Stack\SNMP.c
                  __pa_27   0x006edc    program     static C:\pavan\1+1RCUTx\1-1-RCU-T-NewArch_svn_web_changes\Microchip\TCPIP Stack\SNMP.c
                  __pa_28   0x006ee8    program     static C:\pavan\1+1RCUTx\1-1-RCU-T-NewArch_svn_web_changes\Microchip\TCPIP Stack\SNMP.c
                  __pa_29   0x006eee    program     static C:\pavan\1+1RCUTx\1-1-RCU-T-NewArch_svn_web_changes\Microchip\TCPIP Stack\SNMP.c
                  __pa_30   0x006efa    program     static C:\pavan\1+1RCUTx\1-1-RCU-T-NewArch_svn_web_changes\Microchip\TCPIP Stack\SNMP.c
                  __pa_31   0x006f06    program     static C:\pavan\1+1RCUTx\1-1-RCU-T-NewArch_svn_web_changes\Microchip\TCPIP Stack\SNMP.c
                  __pa_32   0x006f1c    program     static C:\pavan\1+1RCUTx\1-1-RCU-T-NewArch_svn_web_changes\Microchip\TCPIP Stack\SNMP.c
                  __pa_33   0x006f2a    program     static C:\pavan\1+1RCUTx\1-1-RCU-T-NewArch_svn_web_changes\Microchip\TCPIP Stack\SNMP.c
                  __pa_34   0x006f38    program     static C:\pavan\1+1RCUTx\1-1-RCU-T-NewArch_svn_web_changes\Microchip\TCPIP Stack\SNMP.c
                  __pa_35   0x006f46    program     static C:\pavan\1+1RCUTx\1-1-RCU-T-NewArch_svn_web_changes\Microchip\TCPIP Stack\SNMP.c
                  __pa_36   0x006f4c    program     static C:\pavan\1+1RCUTx\1-1-RCU-T-NewArch_svn_web_changes\Microchip\TCPIP Stack\SNMP.c
                  __pa_37   0x006f58    program     static C:\pavan\1+1RCUTx\1-1-RCU-T-NewArch_svn_web_changes\Microchip\TCPIP Stack\SNMP.c
                  __pa_38   0x006f62    program     static C:\pavan\1+1RCUTx\1-1-RCU-T-NewArch_svn_web_changes\Microchip\TCPIP Stack\SNMP.c
                  __pa_39   0x006f68    program     static C:\pavan\1+1RCUTx\1-1-RCU-T-NewArch_svn_web_changes\Microchip\TCPIP Stack\SNMP.c
                  __pa_40   0x006f78    program     static C:\pavan\1+1RCUTx\1-1-RCU-T-NewArch_svn_web_changes\Microchip\TCPIP Stack\SNMP.c
                  __pa_41   0x006f86    program     static C:\pavan\1+1RCUTx\1-1-RCU-T-NewArch_svn_web_changes\Microchip\TCPIP Stack\SNMP.c
                  __pa_42   0x006f94    program     static C:\pavan\1+1RCUTx\1-1-RCU-T-NewArch_svn_web_changes\Microchip\TCPIP Stack\SNMP.c
                  __pa_43   0x006fb8    program     static C:\pavan\1+1RCUTx\1-1-RCU-T-NewArch_svn_web_changes\Microchip\TCPIP Stack\SNMP.c
                  __pa_44   0x006fd2    program     static C:\pavan\1+1RCUTx\1-1-RCU-T-NewArch_svn_web_changes\Microchip\TCPIP Stack\SNMP.c
                  __pa_45   0x006fec    program     static C:\pavan\1+1RCUTx\1-1-RCU-T-NewArch_svn_web_changes\Microchip\TCPIP Stack\SNMP.c
                  __pa_46   0x006ff8    program     static C:\pavan\1+1RCUTx\1-1-RCU-T-NewArch_svn_web_changes\Microchip\TCPIP Stack\SNMP.c
                  __pa_47   0x007000    program     static C:\pavan\1+1RCUTx\1-1-RCU-T-NewArch_svn_web_changes\Microchip\TCPIP Stack\SNMP.c
                  __pa_48   0x00700a    program     static C:\pavan\1+1RCUTx\1-1-RCU-T-NewArch_svn_web_changes\Microchip\TCPIP Stack\SNMP.c
                  __pa_49   0x007014    program     static C:\pavan\1+1RCUTx\1-1-RCU-T-NewArch_svn_web_changes\Microchip\TCPIP Stack\SNMP.c
                  __pa_50   0x007032    program     static C:\pavan\1+1RCUTx\1-1-RCU-T-NewArch_svn_web_changes\Microchip\TCPIP Stack\SNMP.c
                  __pa_51   0x00703e    program     static C:\pavan\1+1RCUTx\1-1-RCU-T-NewArch_svn_web_changes\Microchip\TCPIP Stack\SNMP.c
                  __pa_52   0x007050    program     static C:\pavan\1+1RCUTx\1-1-RCU-T-NewArch_svn_web_changes\Microchip\TCPIP Stack\SNMP.c
                  __pa_53   0x007058    program     static C:\pavan\1+1RCUTx\1-1-RCU-T-NewArch_svn_web_changes\Microchip\TCPIP Stack\SNMP.c
                  __pa_54   0x007066    program     static C:\pavan\1+1RCUTx\1-1-RCU-T-NewArch_svn_web_changes\Microchip\TCPIP Stack\SNMP.c
                  __pa_55   0x007074    program     static C:\pavan\1+1RCUTx\1-1-RCU-T-NewArch_svn_web_changes\Microchip\TCPIP Stack\SNMP.c
                  __pa_56   0x00707c    program     static C:\pavan\1+1RCUTx\1-1-RCU-T-NewArch_svn_web_changes\Microchip\TCPIP Stack\SNMP.c
                  __pa_57   0x00708a    program     static C:\pavan\1+1RCUTx\1-1-RCU-T-NewArch_svn_web_changes\Microchip\TCPIP Stack\SNMP.c
                  __pa_58   0x007092    program     static C:\pavan\1+1RCUTx\1-1-RCU-T-NewArch_svn_web_changes\Microchip\TCPIP Stack\SNMP.c
                  __pa_59   0x007098    program     static C:\pavan\1+1RCUTx\1-1-RCU-T-NewArch_svn_web_changes\Microchip\TCPIP Stack\SNMP.c
                  __pa_60   0x0070a0    program     static C:\pavan\1+1RCUTx\1-1-RCU-T-NewArch_svn_web_changes\Microchip\TCPIP Stack\SNMP.c
                  __pa_61   0x0070aa    program     static C:\pavan\1+1RCUTx\1-1-RCU-T-NewArch_svn_web_changes\Microchip\TCPIP Stack\SNMP.c
                  __pa_62   0x0070b2    program     static C:\pavan\1+1RCUTx\1-1-RCU-T-NewArch_svn_web_changes\Microchip\TCPIP Stack\SNMP.c
                  __pa_63   0x0070ba    program     static C:\pavan\1+1RCUTx\1-1-RCU-T-NewArch_svn_web_changes\Microchip\TCPIP Stack\SNMP.c
                  __pa_64   0x0070c2    program     static C:\pavan\1+1RCUTx\1-1-RCU-T-NewArch_svn_web_changes\Microchip\TCPIP Stack\SNMP.c
                  __pa_65   0x0070dc    program     static C:\pavan\1+1RCUTx\1-1-RCU-T-NewArch_svn_web_changes\Microchip\TCPIP Stack\SNMP.c
                  __pa_66   0x0070e8    program     static C:\pavan\1+1RCUTx\1-1-RCU-T-NewArch_svn_web_changes\Microchip\TCPIP Stack\SNMP.c
                  __pa_67   0x0070f2    program     static C:\pavan\1+1RCUTx\1-1-RCU-T-NewArch_svn_web_changes\Microchip\TCPIP Stack\SNMP.c
                  __pa_68   0x0070fc    program     static C:\pavan\1+1RCUTx\1-1-RCU-T-NewArch_svn_web_changes\Microchip\TCPIP Stack\SNMP.c
                  __pa_69   0x007106    program     static C:\pavan\1+1RCUTx\1-1-RCU-T-NewArch_svn_web_changes\Microchip\TCPIP Stack\SNMP.c
                  __pa_70   0x00710c    program     static C:\pavan\1+1RCUTx\1-1-RCU-T-NewArch_svn_web_changes\Microchip\TCPIP Stack\SNMP.c
                  __pa_71   0x007124    program     static C:\pavan\1+1RCUTx\1-1-RCU-T-NewArch_svn_web_changes\Microchip\TCPIP Stack\SNMP.c
                  __pa_72   0x00713c    program     static C:\pavan\1+1RCUTx\1-1-RCU-T-NewArch_svn_web_changes\Microchip\TCPIP Stack\SNMP.c
                  __pa_73   0x007154    program     static C:\pavan\1+1RCUTx\1-1-RCU-T-NewArch_svn_web_changes\Microchip\TCPIP Stack\SNMP.c
                  __pa_74   0x007158    program     static C:\pavan\1+1RCUTx\1-1-RCU-T-NewArch_svn_web_changes\Microchip\TCPIP Stack\SNMP.c
                  __pa_75   0x00715e    program     static C:\pavan\1+1RCUTx\1-1-RCU-T-NewArch_svn_web_changes\Microchip\TCPIP Stack\SNMP.c
                  __pa_76   0x007168    program     static C:\pavan\1+1RCUTx\1-1-RCU-T-NewArch_svn_web_changes\Microchip\TCPIP Stack\SNMP.c
                  __pa_77   0x00717e    program     static C:\pavan\1+1RCUTx\1-1-RCU-T-NewArch_svn_web_changes\Microchip\TCPIP Stack\SNMP.c
                  __pa_78   0x00718a    program     static C:\pavan\1+1RCUTx\1-1-RCU-T-NewArch_svn_web_changes\Microchip\TCPIP Stack\SNMP.c
                  __pa_79   0x007198    program     static C:\pavan\1+1RCUTx\1-1-RCU-T-NewArch_svn_web_changes\Microchip\TCPIP Stack\SNMP.c
                  __pa_80   0x0071a6    program     static C:\pavan\1+1RCUTx\1-1-RCU-T-NewArch_svn_web_changes\Microchip\TCPIP Stack\SNMP.c
                  __pa_81   0x0071b4    program     static C:\pavan\1+1RCUTx\1-1-RCU-T-NewArch_svn_web_changes\Microchip\TCPIP Stack\SNMP.c
                  __pa_82   0x0071c2    program     static C:\pavan\1+1RCUTx\1-1-RCU-T-NewArch_svn_web_changes\Microchip\TCPIP Stack\SNMP.c
                  __pa_83   0x0071d0    program     static C:\pavan\1+1RCUTx\1-1-RCU-T-NewArch_svn_web_changes\Microchip\TCPIP Stack\SNMP.c
                  __pa_84   0x0071da    program     static C:\pavan\1+1RCUTx\1-1-RCU-T-NewArch_svn_web_changes\Microchip\TCPIP Stack\SNMP.c
                  __pa_85   0x0071e4    program     static C:\pavan\1+1RCUTx\1-1-RCU-T-NewArch_svn_web_changes\Microchip\TCPIP Stack\SNMP.c
                  __pa_86   0x0071ea    program     static C:\pavan\1+1RCUTx\1-1-RCU-T-NewArch_svn_web_changes\Microchip\TCPIP Stack\SNMP.c
                  __pa_87   0x0071f4    program     static C:\pavan\1+1RCUTx\1-1-RCU-T-NewArch_svn_web_changes\Microchip\TCPIP Stack\SNMP.c
                  __pa_88   0x0071fc    program     static C:\pavan\1+1RCUTx\1-1-RCU-T-NewArch_svn_web_changes\Microchip\TCPIP Stack\SNMP.c
                  __pa_89   0x007204    program     static C:\pavan\1+1RCUTx\1-1-RCU-T-NewArch_svn_web_changes\Microchip\TCPIP Stack\SNMP.c
                  __pa_90   0x00720c    program     static C:\pavan\1+1RCUTx\1-1-RCU-T-NewArch_svn_web_changes\Microchip\TCPIP Stack\SNMP.c
                  __pa_91   0x007218    program     static C:\pavan\1+1RCUTx\1-1-RCU-T-NewArch_svn_web_changes\Microchip\TCPIP Stack\SNMP.c
                  __pa_92   0x007220    program     static C:\pavan\1+1RCUTx\1-1-RCU-T-NewArch_svn_web_changes\Microchip\TCPIP Stack\SNMP.c
                  __pa_93   0x00722c    program     static C:\pavan\1+1RCUTx\1-1-RCU-T-NewArch_svn_web_changes\Microchip\TCPIP Stack\SNMP.c
                  __pa_94   0x007232    program     static C:\pavan\1+1RCUTx\1-1-RCU-T-NewArch_svn_web_changes\Microchip\TCPIP Stack\SNMP.c
                  __pa_95   0x00723a    program     static C:\pavan\1+1RCUTx\1-1-RCU-T-NewArch_svn_web_changes\Microchip\TCPIP Stack\SNMP.c
                  __pa_96   0x007240    program     static C:\pavan\1+1RCUTx\1-1-RCU-T-NewArch_svn_web_changes\Microchip\TCPIP Stack\SNMP.c
                  __pa_97   0x007246    program     static C:\pavan\1+1RCUTx\1-1-RCU-T-NewArch_svn_web_changes\Microchip\TCPIP Stack\SNMP.c
                  __pa_98   0x007252    program     static C:\pavan\1+1RCUTx\1-1-RCU-T-NewArch_svn_web_changes\Microchip\TCPIP Stack\SNMP.c
                  __pa_99   0x00725e    program     static C:\pavan\1+1RCUTx\1-1-RCU-T-NewArch_svn_web_changes\Microchip\TCPIP Stack\SNMP.c
                 __pa_100   0x007268    program     static C:\pavan\1+1RCUTx\1-1-RCU-T-NewArch_svn_web_changes\Microchip\TCPIP Stack\SNMP.c
                 __pa_101   0x007272    program     static C:\pavan\1+1RCUTx\1-1-RCU-T-NewArch_svn_web_changes\Microchip\TCPIP Stack\SNMP.c
                 __pa_102   0x00727c    program     static C:\pavan\1+1RCUTx\1-1-RCU-T-NewArch_svn_web_changes\Microchip\TCPIP Stack\SNMP.c
                 __pa_103   0x007284    program     static C:\pavan\1+1RCUTx\1-1-RCU-T-NewArch_svn_web_changes\Microchip\TCPIP Stack\SNMP.c
                 __pa_104   0x00728c    program     static C:\pavan\1+1RCUTx\1-1-RCU-T-NewArch_svn_web_changes\Microchip\TCPIP Stack\SNMP.c
                 __pa_105   0x007298    program     static C:\pavan\1+1RCUTx\1-1-RCU-T-NewArch_svn_web_changes\Microchip\TCPIP Stack\SNMP.c
                 __pa_106   0x0072a8    program     static C:\pavan\1+1RCUTx\1-1-RCU-T-NewArch_svn_web_changes\Microchip\TCPIP Stack\SNMP.c
                 __pa_107   0x0072b8    program     static C:\pavan\1+1RCUTx\1-1-RCU-T-NewArch_svn_web_changes\Microchip\TCPIP Stack\SNMP.c
                 __pa_108   0x0072c0    program     static C:\pavan\1+1RCUTx\1-1-RCU-T-NewArch_svn_web_changes\Microchip\TCPIP Stack\SNMP.c
                 __pa_109   0x0072c8    program     static C:\pavan\1+1RCUTx\1-1-RCU-T-NewArch_svn_web_changes\Microchip\TCPIP Stack\SNMP.c
                 __pa_110   0x0072d0    program     static C:\pavan\1+1RCUTx\1-1-RCU-T-NewArch_svn_web_changes\Microchip\TCPIP Stack\SNMP.c
                 __pa_111   0x0072de    program     static C:\pavan\1+1RCUTx\1-1-RCU-T-NewArch_svn_web_changes\Microchip\TCPIP Stack\SNMP.c
                 __pa_112   0x0072ec    program     static C:\pavan\1+1RCUTx\1-1-RCU-T-NewArch_svn_web_changes\Microchip\TCPIP Stack\SNMP.c
                 __pa_113   0x0072fa    program     static C:\pavan\1+1RCUTx\1-1-RCU-T-NewArch_svn_web_changes\Microchip\TCPIP Stack\SNMP.c
                 __pa_114   0x007308    program     static C:\pavan\1+1RCUTx\1-1-RCU-T-NewArch_svn_web_changes\Microchip\TCPIP Stack\SNMP.c
                 __pa_115   0x007316    program     static C:\pavan\1+1RCUTx\1-1-RCU-T-NewArch_svn_web_changes\Microchip\TCPIP Stack\SNMP.c
                 __pa_116   0x00731e    program     static C:\pavan\1+1RCUTx\1-1-RCU-T-NewArch_svn_web_changes\Microchip\TCPIP Stack\SNMP.c
                 __pa_117   0x00732c    program     static C:\pavan\1+1RCUTx\1-1-RCU-T-NewArch_svn_web_changes\Microchip\TCPIP Stack\SNMP.c
                 __pa_118   0x00733a    program     static C:\pavan\1+1RCUTx\1-1-RCU-T-NewArch_svn_web_changes\Microchip\TCPIP Stack\SNMP.c
                 __pa_119   0x007344    program     static C:\pavan\1+1RCUTx\1-1-RCU-T-NewArch_svn_web_changes\Microchip\TCPIP Stack\SNMP.c
                 __pa_120   0x00734e    program     static C:\pavan\1+1RCUTx\1-1-RCU-T-NewArch_svn_web_changes\Microchip\TCPIP Stack\SNMP.c
                 __pa_121   0x00735c    program     static C:\pavan\1+1RCUTx\1-1-RCU-T-NewArch_svn_web_changes\Microchip\TCPIP Stack\SNMP.c
                 __pa_122   0x00736a    program     static C:\pavan\1+1RCUTx\1-1-RCU-T-NewArch_svn_web_changes\Microchip\TCPIP Stack\SNMP.c
                 __pa_123   0x007378    program     static C:\pavan\1+1RCUTx\1-1-RCU-T-NewArch_svn_web_changes\Microchip\TCPIP Stack\SNMP.c
                 __pa_124   0x007382    program     static C:\pavan\1+1RCUTx\1-1-RCU-T-NewArch_svn_web_changes\Microchip\TCPIP Stack\SNMP.c
                 __pa_125   0x00738c    program     static C:\pavan\1+1RCUTx\1-1-RCU-T-NewArch_svn_web_changes\Microchip\TCPIP Stack\SNMP.c
                 __pa_126   0x007396    program     static C:\pavan\1+1RCUTx\1-1-RCU-T-NewArch_svn_web_changes\Microchip\TCPIP Stack\SNMP.c
                 __pa_127   0x0073a0    program     static C:\pavan\1+1RCUTx\1-1-RCU-T-NewArch_svn_web_changes\Microchip\TCPIP Stack\SNMP.c
                 __pa_128   0x0073a6    program     static C:\pavan\1+1RCUTx\1-1-RCU-T-NewArch_svn_web_changes\Microchip\TCPIP Stack\SNMP.c
                 __pa_129   0x0073b0    program     static C:\pavan\1+1RCUTx\1-1-RCU-T-NewArch_svn_web_changes\Microchip\TCPIP Stack\SNMP.c
                 __pa_130   0x0073ba    program     static C:\pavan\1+1RCUTx\1-1-RCU-T-NewArch_svn_web_changes\Microchip\TCPIP Stack\SNMP.c
                 __pa_131   0x0073c4    program     static C:\pavan\1+1RCUTx\1-1-RCU-T-NewArch_svn_web_changes\Microchip\TCPIP Stack\SNMP.c
                 __pa_132   0x0073ce    program     static C:\pavan\1+1RCUTx\1-1-RCU-T-NewArch_svn_web_changes\Microchip\TCPIP Stack\SNMP.c
                 __pa_133   0x0073d6    program     static C:\pavan\1+1RCUTx\1-1-RCU-T-NewArch_svn_web_changes\Microchip\TCPIP Stack\SNMP.c
                 __pa_134   0x0073de    program     static C:\pavan\1+1RCUTx\1-1-RCU-T-NewArch_svn_web_changes\Microchip\TCPIP Stack\SNMP.c
                 __pa_135   0x0073e6    program     static C:\pavan\1+1RCUTx\1-1-RCU-T-NewArch_svn_web_changes\Microchip\TCPIP Stack\SNMP.c
                 __pa_136   0x0073ec    program     static C:\pavan\1+1RCUTx\1-1-RCU-T-NewArch_svn_web_changes\Microchip\TCPIP Stack\SNMP.c
                 __pa_137   0x0073f4    program     static C:\pavan\1+1RCUTx\1-1-RCU-T-NewArch_svn_web_changes\Microchip\TCPIP Stack\SNMP.c
                 __pa_138   0x0073fe    program     static C:\pavan\1+1RCUTx\1-1-RCU-T-NewArch_svn_web_changes\Microchip\TCPIP Stack\SNMP.c
                 __pa_139   0x007402    program     static C:\pavan\1+1RCUTx\1-1-RCU-T-NewArch_svn_web_changes\Microchip\TCPIP Stack\SNMP.c
                 __pa_140   0x00740a    program     static C:\pavan\1+1RCUTx\1-1-RCU-T-NewArch_svn_web_changes\Microchip\TCPIP Stack\SNMP.c
                 __pa_141   0x007410    program     static C:\pavan\1+1RCUTx\1-1-RCU-T-NewArch_svn_web_changes\Microchip\TCPIP Stack\SNMP.c
                 __pa_142   0x00741c    program     static C:\pavan\1+1RCUTx\1-1-RCU-T-NewArch_svn_web_changes\Microchip\TCPIP Stack\SNMP.c
                 __pa_143   0x00742e    program     static C:\pavan\1+1RCUTx\1-1-RCU-T-NewArch_svn_web_changes\Microchip\TCPIP Stack\SNMP.c
                 __pa_144   0x007432    program     static C:\pavan\1+1RCUTx\1-1-RCU-T-NewArch_svn_web_changes\Microchip\TCPIP Stack\SNMP.c
                 __pa_145   0x00743a    program     static C:\pavan\1+1RCUTx\1-1-RCU-T-NewArch_svn_web_changes\Microchip\TCPIP Stack\SNMP.c
                 __pa_146   0x00744a    program     static C:\pavan\1+1RCUTx\1-1-RCU-T-NewArch_svn_web_changes\Microchip\TCPIP Stack\SNMP.c
                 __pa_147   0x007456    program     static C:\pavan\1+1RCUTx\1-1-RCU-T-NewArch_svn_web_changes\Microchip\TCPIP Stack\SNMP.c
                 __pa_148   0x00745c    program     static C:\pavan\1+1RCUTx\1-1-RCU-T-NewArch_svn_web_changes\Microchip\TCPIP Stack\SNMP.c
                 __pa_149   0x007460    program     static C:\pavan\1+1RCUTx\1-1-RCU-T-NewArch_svn_web_changes\Microchip\TCPIP Stack\SNMP.c
                 __pa_150   0x00746c    program     static C:\pavan\1+1RCUTx\1-1-RCU-T-NewArch_svn_web_changes\Microchip\TCPIP Stack\SNMP.c
                 __pa_151   0x00748a    program     static C:\pavan\1+1RCUTx\1-1-RCU-T-NewArch_svn_web_changes\Microchip\TCPIP Stack\SNMP.c
                 __pa_152   0x0074a4    program     static C:\pavan\1+1RCUTx\1-1-RCU-T-NewArch_svn_web_changes\Microchip\TCPIP Stack\SNMP.c
                 __pa_153   0x0074b2    program     static C:\pavan\1+1RCUTx\1-1-RCU-T-NewArch_svn_web_changes\Microchip\TCPIP Stack\SNMP.c
                 __pa_154   0x0074ba    program     static C:\pavan\1+1RCUTx\1-1-RCU-T-NewArch_svn_web_changes\Microchip\TCPIP Stack\SNMP.c
                 __pa_155   0x0074c8    program     static C:\pavan\1+1RCUTx\1-1-RCU-T-NewArch_svn_web_changes\Microchip\TCPIP Stack\SNMP.c
                 __pa_156   0x0074d2    program     static C:\pavan\1+1RCUTx\1-1-RCU-T-NewArch_svn_web_changes\Microchip\TCPIP Stack\SNMP.c
                 __pa_157   0x0074dc    program     static C:\pavan\1+1RCUTx\1-1-RCU-T-NewArch_svn_web_changes\Microchip\TCPIP Stack\SNMP.c
                 __pa_158   0x0074ea    program     static C:\pavan\1+1RCUTx\1-1-RCU-T-NewArch_svn_web_changes\Microchip\TCPIP Stack\SNMP.c
                 __pa_159   0x0074f8    program     static C:\pavan\1+1RCUTx\1-1-RCU-T-NewArch_svn_web_changes\Microchip\TCPIP Stack\SNMP.c
                 __pa_160   0x007506    program     static C:\pavan\1+1RCUTx\1-1-RCU-T-NewArch_svn_web_changes\Microchip\TCPIP Stack\SNMP.c
                 __pa_161   0x00750e    program     static C:\pavan\1+1RCUTx\1-1-RCU-T-NewArch_svn_web_changes\Microchip\TCPIP Stack\SNMP.c
                 __pa_162   0x00751a    program     static C:\pavan\1+1RCUTx\1-1-RCU-T-NewArch_svn_web_changes\Microchip\TCPIP Stack\SNMP.c
                 __pa_163   0x007520    program     static C:\pavan\1+1RCUTx\1-1-RCU-T-NewArch_svn_web_changes\Microchip\TCPIP Stack\SNMP.c
                 __pa_164   0x00752a    program     static C:\pavan\1+1RCUTx\1-1-RCU-T-NewArch_svn_web_changes\Microchip\TCPIP Stack\SNMP.c
                 __pa_165   0x00753e    program     static C:\pavan\1+1RCUTx\1-1-RCU-T-NewArch_svn_web_changes\Microchip\TCPIP Stack\SNMP.c
                 __pa_166   0x007548    program     static C:\pavan\1+1RCUTx\1-1-RCU-T-NewArch_svn_web_changes\Microchip\TCPIP Stack\SNMP.c
                 __pa_167   0x007552    program     static C:\pavan\1+1RCUTx\1-1-RCU-T-NewArch_svn_web_changes\Microchip\TCPIP Stack\SNMP.c
                 __pa_168   0x00755c    program     static C:\pavan\1+1RCUTx\1-1-RCU-T-NewArch_svn_web_changes\Microchip\TCPIP Stack\SNMP.c
                 __pa_169   0x007564    program     static C:\pavan\1+1RCUTx\1-1-RCU-T-NewArch_svn_web_changes\Microchip\TCPIP Stack\SNMP.c
                 __pa_170   0x00756c    program     static C:\pavan\1+1RCUTx\1-1-RCU-T-NewArch_svn_web_changes\Microchip\TCPIP Stack\SNMP.c
                 __pa_171   0x007572    program     static C:\pavan\1+1RCUTx\1-1-RCU-T-NewArch_svn_web_changes\Microchip\TCPIP Stack\SNMP.c
                 __pa_172   0x007576    program     static C:\pavan\1+1RCUTx\1-1-RCU-T-NewArch_svn_web_changes\Microchip\TCPIP Stack\SNMP.c
                 __pa_173   0x007584    program     static C:\pavan\1+1RCUTx\1-1-RCU-T-NewArch_svn_web_changes\Microchip\TCPIP Stack\SNMP.c
                 __pa_174   0x007596    program     static C:\pavan\1+1RCUTx\1-1-RCU-T-NewArch_svn_web_changes\Microchip\TCPIP Stack\SNMP.c
                 __pa_175   0x0075a6    program     static C:\pavan\1+1RCUTx\1-1-RCU-T-NewArch_svn_web_changes\Microchip\TCPIP Stack\SNMP.c
                 __pa_176   0x0075b0    program     static C:\pavan\1+1RCUTx\1-1-RCU-T-NewArch_svn_web_changes\Microchip\TCPIP Stack\SNMP.c
                 __pa_177   0x0075bc    program     static C:\pavan\1+1RCUTx\1-1-RCU-T-NewArch_svn_web_changes\Microchip\TCPIP Stack\SNMP.c
                 __pa_178   0x0075c8    program     static C:\pavan\1+1RCUTx\1-1-RCU-T-NewArch_svn_web_changes\Microchip\TCPIP Stack\SNMP.c
                 __pa_179   0x0075d0    program     static C:\pavan\1+1RCUTx\1-1-RCU-T-NewArch_svn_web_changes\Microchip\TCPIP Stack\SNMP.c
                 __pa_180   0x0075d6    program     static C:\pavan\1+1RCUTx\1-1-RCU-T-NewArch_svn_web_changes\Microchip\TCPIP Stack\SNMP.c
                 __pa_181   0x0075de    program     static C:\pavan\1+1RCUTx\1-1-RCU-T-NewArch_svn_web_changes\Microchip\TCPIP Stack\SNMP.c
                 __pa_182   0x0075ec    program     static C:\pavan\1+1RCUTx\1-1-RCU-T-NewArch_svn_web_changes\Microchip\TCPIP Stack\SNMP.c
                 __pa_183   0x0075f4    program     static C:\pavan\1+1RCUTx\1-1-RCU-T-NewArch_svn_web_changes\Microchip\TCPIP Stack\SNMP.c
                 __pa_184   0x007602    program     static C:\pavan\1+1RCUTx\1-1-RCU-T-NewArch_svn_web_changes\Microchip\TCPIP Stack\SNMP.c
                 __pa_185   0x00760e    program     static C:\pavan\1+1RCUTx\1-1-RCU-T-NewArch_svn_web_changes\Microchip\TCPIP Stack\SNMP.c
                 __pa_186   0x00761e    program     static C:\pavan\1+1RCUTx\1-1-RCU-T-NewArch_svn_web_changes\Microchip\TCPIP Stack\SNMP.c
                 __pa_187   0x00762a    program     static C:\pavan\1+1RCUTx\1-1-RCU-T-NewArch_svn_web_changes\Microchip\TCPIP Stack\SNMP.c
                 __pa_188   0x007638    program     static C:\pavan\1+1RCUTx\1-1-RCU-T-NewArch_svn_web_changes\Microchip\TCPIP Stack\SNMP.c
                 __pa_189   0x007640    program     static C:\pavan\1+1RCUTx\1-1-RCU-T-NewArch_svn_web_changes\Microchip\TCPIP Stack\SNMP.c
                 __pa_190   0x007648    program     static C:\pavan\1+1RCUTx\1-1-RCU-T-NewArch_svn_web_changes\Microchip\TCPIP Stack\SNMP.c
                 __pa_191   0x00764e    program     static C:\pavan\1+1RCUTx\1-1-RCU-T-NewArch_svn_web_changes\Microchip\TCPIP Stack\SNMP.c
                 __pa_192   0x007654    program     static C:\pavan\1+1RCUTx\1-1-RCU-T-NewArch_svn_web_changes\Microchip\TCPIP Stack\SNMP.c
                 __pa_193   0x007660    program     static C:\pavan\1+1RCUTx\1-1-RCU-T-NewArch_svn_web_changes\Microchip\TCPIP Stack\SNMP.c
                 __pa_194   0x00766e    program     static C:\pavan\1+1RCUTx\1-1-RCU-T-NewArch_svn_web_changes\Microchip\TCPIP Stack\SNMP.c
                 __pa_195   0x00767c    program     static C:\pavan\1+1RCUTx\1-1-RCU-T-NewArch_svn_web_changes\Microchip\TCPIP Stack\SNMP.c
                 __pa_196   0x00768a    program     static C:\pavan\1+1RCUTx\1-1-RCU-T-NewArch_svn_web_changes\Microchip\TCPIP Stack\SNMP.c
                 __pa_197   0x007698    program     static C:\pavan\1+1RCUTx\1-1-RCU-T-NewArch_svn_web_changes\Microchip\TCPIP Stack\SNMP.c
                 __pa_198   0x0076a6    program     static C:\pavan\1+1RCUTx\1-1-RCU-T-NewArch_svn_web_changes\Microchip\TCPIP Stack\SNMP.c
                 __pa_199   0x0076b4    program     static C:\pavan\1+1RCUTx\1-1-RCU-T-NewArch_svn_web_changes\Microchip\TCPIP Stack\SNMP.c
                 __pa_200   0x0076c2    program     static C:\pavan\1+1RCUTx\1-1-RCU-T-NewArch_svn_web_changes\Microchip\TCPIP Stack\SNMP.c
                 __pa_201   0x0076d0    program     static C:\pavan\1+1RCUTx\1-1-RCU-T-NewArch_svn_web_changes\Microchip\TCPIP Stack\SNMP.c
                 __pa_202   0x0076d8    program     static C:\pavan\1+1RCUTx\1-1-RCU-T-NewArch_svn_web_changes\Microchip\TCPIP Stack\SNMP.c
                 __pa_203   0x0076dc    program     static C:\pavan\1+1RCUTx\1-1-RCU-T-NewArch_svn_web_changes\Microchip\TCPIP Stack\SNMP.c
                 __pa_204   0x0076e6    program     static C:\pavan\1+1RCUTx\1-1-RCU-T-NewArch_svn_web_changes\Microchip\TCPIP Stack\SNMP.c
                 __pa_205   0x0076ee    program     static C:\pavan\1+1RCUTx\1-1-RCU-T-NewArch_svn_web_changes\Microchip\TCPIP Stack\SNMP.c
                 __pa_206   0x0076f6    program     static C:\pavan\1+1RCUTx\1-1-RCU-T-NewArch_svn_web_changes\Microchip\TCPIP Stack\SNMP.c
                 __pa_207   0x0076fe    program     static C:\pavan\1+1RCUTx\1-1-RCU-T-NewArch_svn_web_changes\Microchip\TCPIP Stack\SNMP.c
                 __pa_208   0x007706    program     static C:\pavan\1+1RCUTx\1-1-RCU-T-NewArch_svn_web_changes\Microchip\TCPIP Stack\SNMP.c
                 __pa_209   0x00770e    program     static C:\pavan\1+1RCUTx\1-1-RCU-T-NewArch_svn_web_changes\Microchip\TCPIP Stack\SNMP.c
                 __pa_210   0x00772c    program     static C:\pavan\1+1RCUTx\1-1-RCU-T-NewArch_svn_web_changes\Microchip\TCPIP Stack\SNMP.c
                 __pa_211   0x007736    program     static C:\pavan\1+1RCUTx\1-1-RCU-T-NewArch_svn_web_changes\Microchip\TCPIP Stack\SNMP.c
                 __pa_212   0x00773c    program     static C:\pavan\1+1RCUTx\1-1-RCU-T-NewArch_svn_web_changes\Microchip\TCPIP Stack\SNMP.c
                 __pa_213   0x007746    program     static C:\pavan\1+1RCUTx\1-1-RCU-T-NewArch_svn_web_changes\Microchip\TCPIP Stack\SNMP.c
                 __pa_214   0x007750    program     static C:\pavan\1+1RCUTx\1-1-RCU-T-NewArch_svn_web_changes\Microchip\TCPIP Stack\SNMP.c
                 __pa_215   0x007756    program     static C:\pavan\1+1RCUTx\1-1-RCU-T-NewArch_svn_web_changes\Microchip\TCPIP Stack\SNMP.c
                 __pa_216   0x007764    program     static C:\pavan\1+1RCUTx\1-1-RCU-T-NewArch_svn_web_changes\Microchip\TCPIP Stack\SNMP.c
                 __pa_217   0x00776a    program     static C:\pavan\1+1RCUTx\1-1-RCU-T-NewArch_svn_web_changes\Microchip\TCPIP Stack\SNMP.c
                 __pa_218   0x007770    program     static C:\pavan\1+1RCUTx\1-1-RCU-T-NewArch_svn_web_changes\Microchip\TCPIP Stack\SNMP.c
                 __pa_219   0x007778    program     static C:\pavan\1+1RCUTx\1-1-RCU-T-NewArch_svn_web_changes\Microchip\TCPIP Stack\SNMP.c
                 __pa_220   0x00777e    program     static C:\pavan\1+1RCUTx\1-1-RCU-T-NewArch_svn_web_changes\Microchip\TCPIP Stack\SNMP.c
                 __pa_221   0x007786    program     static C:\pavan\1+1RCUTx\1-1-RCU-T-NewArch_svn_web_changes\Microchip\TCPIP Stack\SNMP.c
                 __pa_222   0x00778e    program     static C:\pavan\1+1RCUTx\1-1-RCU-T-NewArch_svn_web_changes\Microchip\TCPIP Stack\SNMP.c
                 __pa_223   0x007798    program     static C:\pavan\1+1RCUTx\1-1-RCU-T-NewArch_svn_web_changes\Microchip\TCPIP Stack\SNMP.c
                 __pa_224   0x00779e    program     static C:\pavan\1+1RCUTx\1-1-RCU-T-NewArch_svn_web_changes\Microchip\TCPIP Stack\SNMP.c
                 __pa_225   0x0077ae    program     static C:\pavan\1+1RCUTx\1-1-RCU-T-NewArch_svn_web_changes\Microchip\TCPIP Stack\SNMP.c
                 __pa_226   0x0077b8    program     static C:\pavan\1+1RCUTx\1-1-RCU-T-NewArch_svn_web_changes\Microchip\TCPIP Stack\SNMP.c
                 __pa_227   0x0077c8    program     static C:\pavan\1+1RCUTx\1-1-RCU-T-NewArch_svn_web_changes\Microchip\TCPIP Stack\SNMP.c
                 __pa_228   0x0077d6    program     static C:\pavan\1+1RCUTx\1-1-RCU-T-NewArch_svn_web_changes\Microchip\TCPIP Stack\SNMP.c
                 __pa_229   0x0077e4    program     static C:\pavan\1+1RCUTx\1-1-RCU-T-NewArch_svn_web_changes\Microchip\TCPIP Stack\SNMP.c
                 __pa_230   0x0077f2    program     static C:\pavan\1+1RCUTx\1-1-RCU-T-NewArch_svn_web_changes\Microchip\TCPIP Stack\SNMP.c
                 __pa_231   0x007804    program     static C:\pavan\1+1RCUTx\1-1-RCU-T-NewArch_svn_web_changes\Microchip\TCPIP Stack\SNMP.c
                 __pa_232   0x00780a    program     static C:\pavan\1+1RCUTx\1-1-RCU-T-NewArch_svn_web_changes\Microchip\TCPIP Stack\SNMP.c
                 __pa_233   0x007814    program     static C:\pavan\1+1RCUTx\1-1-RCU-T-NewArch_svn_web_changes\Microchip\TCPIP Stack\SNMP.c
                 __pa_234   0x00781a    program     static C:\pavan\1+1RCUTx\1-1-RCU-T-NewArch_svn_web_changes\Microchip\TCPIP Stack\SNMP.c
                 __pa_235   0x007822    program     static C:\pavan\1+1RCUTx\1-1-RCU-T-NewArch_svn_web_changes\Microchip\TCPIP Stack\SNMP.c
                 __pa_236   0x00782a    program     static C:\pavan\1+1RCUTx\1-1-RCU-T-NewArch_svn_web_changes\Microchip\TCPIP Stack\SNMP.c
                 __pa_237   0x007832    program     static C:\pavan\1+1RCUTx\1-1-RCU-T-NewArch_svn_web_changes\Microchip\TCPIP Stack\SNMP.c
                 __pa_238   0x007838    program     static C:\pavan\1+1RCUTx\1-1-RCU-T-NewArch_svn_web_changes\Microchip\TCPIP Stack\SNMP.c
                 __pa_239   0x00783e    program     static C:\pavan\1+1RCUTx\1-1-RCU-T-NewArch_svn_web_changes\Microchip\TCPIP Stack\SNMP.c
                 __pa_240   0x007844    program     static C:\pavan\1+1RCUTx\1-1-RCU-T-NewArch_svn_web_changes\Microchip\TCPIP Stack\SNMP.c
                 __pa_241   0x00784e    program     static C:\pavan\1+1RCUTx\1-1-RCU-T-NewArch_svn_web_changes\Microchip\TCPIP Stack\SNMP.c
                 __pa_242   0x007856    program     static C:\pavan\1+1RCUTx\1-1-RCU-T-NewArch_svn_web_changes\Microchip\TCPIP Stack\SNMP.c
                 __pa_243   0x007860    program     static C:\pavan\1+1RCUTx\1-1-RCU-T-NewArch_svn_web_changes\Microchip\TCPIP Stack\SNMP.c
                 __pa_244   0x00786e    program     static C:\pavan\1+1RCUTx\1-1-RCU-T-NewArch_svn_web_changes\Microchip\TCPIP Stack\SNMP.c
                 __pa_245   0x00787a    program     static C:\pavan\1+1RCUTx\1-1-RCU-T-NewArch_svn_web_changes\Microchip\TCPIP Stack\SNMP.c
                 __pa_246   0x007886    program     static C:\pavan\1+1RCUTx\1-1-RCU-T-NewArch_svn_web_changes\Microchip\TCPIP Stack\SNMP.c
                 __pa_247   0x007892    program     static C:\pavan\1+1RCUTx\1-1-RCU-T-NewArch_svn_web_changes\Microchip\TCPIP Stack\SNMP.c
                 __pa_248   0x007898    program     static C:\pavan\1+1RCUTx\1-1-RCU-T-NewArch_svn_web_changes\Microchip\TCPIP Stack\SNMP.c
                 __pa_249   0x0078a0    program     static C:\pavan\1+1RCUTx\1-1-RCU-T-NewArch_svn_web_changes\Microchip\TCPIP Stack\SNMP.c
                 __pa_250   0x0078a6    program     static C:\pavan\1+1RCUTx\1-1-RCU-T-NewArch_svn_web_changes\Microchip\TCPIP Stack\SNMP.c
                 __pa_251   0x0078ac    program     static C:\pavan\1+1RCUTx\1-1-RCU-T-NewArch_svn_web_changes\Microchip\TCPIP Stack\SNMP.c
                 __pa_252   0x0078be    program     static C:\pavan\1+1RCUTx\1-1-RCU-T-NewArch_svn_web_changes\Microchip\TCPIP Stack\SNMP.c
                 __pa_253   0x0078c8    program     static C:\pavan\1+1RCUTx\1-1-RCU-T-NewArch_svn_web_changes\Microchip\TCPIP Stack\SNMP.c
             __tmplbl_206   0x0078ce    program     static                          
                 __pa_254   0x0078ce    program     static C:\pavan\1+1RCUTx\1-1-RCU-T-NewArch_svn_web_changes\Microchip\TCPIP Stack\SNMP.c
                 __pa_255   0x0078d6    program     static C:\pavan\1+1RCUTx\1-1-RCU-T-NewArch_svn_web_changes\Microchip\TCPIP Stack\SNMP.c
                 __pa_256   0x0078e0    program     static C:\pavan\1+1RCUTx\1-1-RCU-T-NewArch_svn_web_changes\Microchip\TCPIP Stack\SNMP.c
                 __pa_257   0x0078ec    program     static C:\pavan\1+1RCUTx\1-1-RCU-T-NewArch_svn_web_changes\Microchip\TCPIP Stack\SNMP.c
                 __pa_258   0x0078f2    program     static C:\pavan\1+1RCUTx\1-1-RCU-T-NewArch_svn_web_changes\Microchip\TCPIP Stack\SNMP.c
                HTTPPrint   0x0078fa    program     extern C:\pavan\1+1RCUTx\1-1-RCU-T-NewArch_svn_web_changes\Microchip\Include\TCPIP Stack\HTTPPrint.h
             __tmplbl_117   0x008144    program     static                          
             __tmplbl_116   0x008148    program     static                          
               HTTPPrint_   0x008164    program     extern C:\pavan\1+1RCUTx\1-1-RCU-T-NewArch_svn_web_changes\Microchip\Include\TCPIP Stack\HTTPPrint.h
                 HTTPInit   0x008176    program     extern C:\pavan\1+1RCUTx\1-1-RCU-T-NewArch_svn_web_changes\Microchip\TCPIP Stack\HTTP2.c
               HTTPServer   0x0081d8    program     extern C:\pavan\1+1RCUTx\1-1-RCU-T-NewArch_svn_web_changes\Microchip\TCPIP Stack\HTTP2.c
             HTTPLoadConn   0x00825a    program     static C:\pavan\1+1RCUTx\1-1-RCU-T-NewArch_svn_web_changes\Microchip\TCPIP Stack\HTTP2.c
              HTTPProcess   0x0082a2    program     static C:\pavan\1+1RCUTx\1-1-RCU-T-NewArch_svn_web_changes\Microchip\TCPIP Stack\HTTP2.c
             __tmplbl_218   0x0082b2    program     static                          
             __tmplbl_195   0x008b66    program     static                          
             __tmplbl_194   0x008b6c    program     static                          
             __tmplbl_193   0x008b98    program     static                          
             __tmplbl_192   0x008bde    program     static                          
             __tmplbl_204   0x008bfa    program     static                          
             __tmplbl_203   0x008bfa    program     static                          
             __tmplbl_202   0x008bfa    program     static                          
             HTTPSendFile   0x008c14    program     static C:\pavan\1+1RCUTx\1-1-RCU-T-NewArch_svn_web_changes\Microchip\TCPIP Stack\HTTP2.c
    HTTPHeaderParseLookup   0x008d8c    program     static C:\pavan\1+1RCUTx\1-1-RCU-T-NewArch_svn_web_changes\Microchip\TCPIP Stack\HTTP2.c
HTTPHeaderParseAuthorization   0x008da8    program     static C:\pavan\1+1RCUTx\1-1-RCU-T-NewArch_svn_web_changes\Microchip\TCPIP Stack\HTTP2.c
HTTPHeaderParseContentLength   0x008ed4    program     static C:\pavan\1+1RCUTx\1-1-RCU-T-NewArch_svn_web_changes\Microchip\TCPIP Stack\HTTP2.c
            HTTPURLDecode   0x008f5c    program     extern C:\pavan\1+1RCUTx\1-1-RCU-T-NewArch_svn_web_changes\Microchip\TCPIP Stack\HTTP2.c
               HTTPGetArg   0x009096    program     extern C:\pavan\1+1RCUTx\1-1-RCU-T-NewArch_svn_web_changes\Microchip\TCPIP Stack\HTTP2.c
            HTTPGetROMArg   0x0090dc    program     extern C:\pavan\1+1RCUTx\1-1-RCU-T-NewArch_svn_web_changes\Microchip\TCPIP Stack\HTTP2.c
         HTTPReadPostName   0x00913e    program     extern C:\pavan\1+1RCUTx\1-1-RCU-T-NewArch_svn_web_changes\Microchip\TCPIP Stack\HTTP2.c
        HTTPReadPostValue   0x00916e    program     extern C:\pavan\1+1RCUTx\1-1-RCU-T-NewArch_svn_web_changes\Microchip\TCPIP Stack\HTTP2.c
               HTTPReadTo   0x0091de    program     static C:\pavan\1+1RCUTx\1-1-RCU-T-NewArch_svn_web_changes\Microchip\TCPIP Stack\HTTP2.c
           HTTPMPFSUpload   0x00936a    program     static C:\pavan\1+1RCUTx\1-1-RCU-T-NewArch_svn_web_changes\Microchip\TCPIP Stack\HTTP2.c
              HTTPIncFile   0x00959a    program     extern C:\pavan\1+1RCUTx\1-1-RCU-T-NewArch_svn_web_changes\Microchip\TCPIP Stack\HTTP2.c
                   __pa_0   0x0096ac    program     static C:\pavan\1+1RCUTx\1-1-RCU-T-NewArch_svn_web_changes\Microchip\TCPIP Stack\HTTP2.c
                   __pa_1   0x0096b6    program     static C:\pavan\1+1RCUTx\1-1-RCU-T-NewArch_svn_web_changes\Microchip\TCPIP Stack\HTTP2.c
                   __pa_2   0x009708    program     static C:\pavan\1+1RCUTx\1-1-RCU-T-NewArch_svn_web_changes\Microchip\TCPIP Stack\HTTP2.c
                   __pa_3   0x009714    program     static C:\pavan\1+1RCUTx\1-1-RCU-T-NewArch_svn_web_changes\Microchip\TCPIP Stack\HTTP2.c
             __tmplbl_188   0x009730    program     static                          
             __tmplbl_189   0x009730    program     static                          
             __tmplbl_190   0x009730    program     static                          
             __tmplbl_191   0x009730    program     static                          
             __tmplbl_221   0x009730    program     static                          
             __tmplbl_220   0x009730    program     static                          
                   __pa_4   0x009730    program     static C:\pavan\1+1RCUTx\1-1-RCU-T-NewArch_svn_web_changes\Microchip\TCPIP Stack\HTTP2.c
             __tmplbl_219   0x009730    program     static                          
             __tmplbl_223   0x009730    program     static                          
                   __pa_5   0x00973c    program     static C:\pavan\1+1RCUTx\1-1-RCU-T-NewArch_svn_web_changes\Microchip\TCPIP Stack\HTTP2.c
                   __pa_6   0x009764    program     static C:\pavan\1+1RCUTx\1-1-RCU-T-NewArch_svn_web_changes\Microchip\TCPIP Stack\HTTP2.c
                   __pa_7   0x00976c    program     static C:\pavan\1+1RCUTx\1-1-RCU-T-NewArch_svn_web_changes\Microchip\TCPIP Stack\HTTP2.c
                   __pa_8   0x009788    program     static C:\pavan\1+1RCUTx\1-1-RCU-T-NewArch_svn_web_changes\Microchip\TCPIP Stack\HTTP2.c
                   __pa_9   0x009796    program     static C:\pavan\1+1RCUTx\1-1-RCU-T-NewArch_svn_web_changes\Microchip\TCPIP Stack\HTTP2.c
                  __pa_10   0x00979c    program     static C:\pavan\1+1RCUTx\1-1-RCU-T-NewArch_svn_web_changes\Microchip\TCPIP Stack\HTTP2.c
                  __pa_11   0x0097a2    program     static C:\pavan\1+1RCUTx\1-1-RCU-T-NewArch_svn_web_changes\Microchip\TCPIP Stack\HTTP2.c
                  __pa_12   0x0097ac    program     static C:\pavan\1+1RCUTx\1-1-RCU-T-NewArch_svn_web_changes\Microchip\TCPIP Stack\HTTP2.c
                  __pa_13   0x0097d2    program     static C:\pavan\1+1RCUTx\1-1-RCU-T-NewArch_svn_web_changes\Microchip\TCPIP Stack\HTTP2.c
                  __pa_14   0x0097da    program     static C:\pavan\1+1RCUTx\1-1-RCU-T-NewArch_svn_web_changes\Microchip\TCPIP Stack\HTTP2.c
                  __pa_15   0x0097e2    program     static C:\pavan\1+1RCUTx\1-1-RCU-T-NewArch_svn_web_changes\Microchip\TCPIP Stack\HTTP2.c
                  __pa_16   0x0097f0    program     static C:\pavan\1+1RCUTx\1-1-RCU-T-NewArch_svn_web_changes\Microchip\TCPIP Stack\HTTP2.c
                  __pa_17   0x0097fa    program     static C:\pavan\1+1RCUTx\1-1-RCU-T-NewArch_svn_web_changes\Microchip\TCPIP Stack\HTTP2.c
                  __pa_18   0x00980a    program     static C:\pavan\1+1RCUTx\1-1-RCU-T-NewArch_svn_web_changes\Microchip\TCPIP Stack\HTTP2.c
                  __pa_19   0x009818    program     static C:\pavan\1+1RCUTx\1-1-RCU-T-NewArch_svn_web_changes\Microchip\TCPIP Stack\HTTP2.c
                  __pa_20   0x00981e    program     static C:\pavan\1+1RCUTx\1-1-RCU-T-NewArch_svn_web_changes\Microchip\TCPIP Stack\HTTP2.c
                  __pa_21   0x009828    program     static C:\pavan\1+1RCUTx\1-1-RCU-T-NewArch_svn_web_changes\Microchip\TCPIP Stack\HTTP2.c
                  __pa_22   0x009832    program     static C:\pavan\1+1RCUTx\1-1-RCU-T-NewArch_svn_web_changes\Microchip\TCPIP Stack\HTTP2.c
                  __pa_23   0x009846    program     static C:\pavan\1+1RCUTx\1-1-RCU-T-NewArch_svn_web_changes\Microchip\TCPIP Stack\HTTP2.c
                  __pa_24   0x009852    program     static C:\pavan\1+1RCUTx\1-1-RCU-T-NewArch_svn_web_changes\Microchip\TCPIP Stack\HTTP2.c
                  __pa_25   0x009858    program     static C:\pavan\1+1RCUTx\1-1-RCU-T-NewArch_svn_web_changes\Microchip\TCPIP Stack\HTTP2.c
                  __pa_26   0x00985e    program     static C:\pavan\1+1RCUTx\1-1-RCU-T-NewArch_svn_web_changes\Microchip\TCPIP Stack\HTTP2.c
                  __pa_27   0x009864    program     static C:\pavan\1+1RCUTx\1-1-RCU-T-NewArch_svn_web_changes\Microchip\TCPIP Stack\HTTP2.c
                  __pa_28   0x00986a    program     static C:\pavan\1+1RCUTx\1-1-RCU-T-NewArch_svn_web_changes\Microchip\TCPIP Stack\HTTP2.c
                  __pa_29   0x009874    program     static C:\pavan\1+1RCUTx\1-1-RCU-T-NewArch_svn_web_changes\Microchip\TCPIP Stack\HTTP2.c
                  __pa_30   0x009882    program     static C:\pavan\1+1RCUTx\1-1-RCU-T-NewArch_svn_web_changes\Microchip\TCPIP Stack\HTTP2.c
                  __pa_31   0x00988c    program     static C:\pavan\1+1RCUTx\1-1-RCU-T-NewArch_svn_web_changes\Microchip\TCPIP Stack\HTTP2.c
                  __pa_32   0x00989c    program     static C:\pavan\1+1RCUTx\1-1-RCU-T-NewArch_svn_web_changes\Microchip\TCPIP Stack\HTTP2.c
                  __pa_33   0x0098aa    program     static C:\pavan\1+1RCUTx\1-1-RCU-T-NewArch_svn_web_changes\Microchip\TCPIP Stack\HTTP2.c
                  __pa_34   0x0098be    program     static C:\pavan\1+1RCUTx\1-1-RCU-T-NewArch_svn_web_changes\Microchip\TCPIP Stack\HTTP2.c
                  __pa_35   0x0098ce    program     static C:\pavan\1+1RCUTx\1-1-RCU-T-NewArch_svn_web_changes\Microchip\TCPIP Stack\HTTP2.c
                  __pa_36   0x0098e2    program     static C:\pavan\1+1RCUTx\1-1-RCU-T-NewArch_svn_web_changes\Microchip\TCPIP Stack\HTTP2.c
                  __pa_37   0x0098f2    program     static C:\pavan\1+1RCUTx\1-1-RCU-T-NewArch_svn_web_changes\Microchip\TCPIP Stack\HTTP2.c
                  __pa_38   0x009900    program     static C:\pavan\1+1RCUTx\1-1-RCU-T-NewArch_svn_web_changes\Microchip\TCPIP Stack\HTTP2.c
                  __pa_39   0x009908    program     static C:\pavan\1+1RCUTx\1-1-RCU-T-NewArch_svn_web_changes\Microchip\TCPIP Stack\HTTP2.c
                  __pa_40   0x009916    program     static C:\pavan\1+1RCUTx\1-1-RCU-T-NewArch_svn_web_changes\Microchip\TCPIP Stack\HTTP2.c
                  __pa_41   0x009922    program     static C:\pavan\1+1RCUTx\1-1-RCU-T-NewArch_svn_web_changes\Microchip\TCPIP Stack\HTTP2.c
                  __pa_42   0x00992e    program     static C:\pavan\1+1RCUTx\1-1-RCU-T-NewArch_svn_web_changes\Microchip\TCPIP Stack\HTTP2.c
                  __pa_43   0x009938    program     static C:\pavan\1+1RCUTx\1-1-RCU-T-NewArch_svn_web_changes\Microchip\TCPIP Stack\HTTP2.c
                  __pa_44   0x009940    program     static C:\pavan\1+1RCUTx\1-1-RCU-T-NewArch_svn_web_changes\Microchip\TCPIP Stack\HTTP2.c
                  __pa_45   0x009950    program     static C:\pavan\1+1RCUTx\1-1-RCU-T-NewArch_svn_web_changes\Microchip\TCPIP Stack\HTTP2.c
                  __pa_46   0x009960    program     static C:\pavan\1+1RCUTx\1-1-RCU-T-NewArch_svn_web_changes\Microchip\TCPIP Stack\HTTP2.c
                  __pa_47   0x009970    program     static C:\pavan\1+1RCUTx\1-1-RCU-T-NewArch_svn_web_changes\Microchip\TCPIP Stack\HTTP2.c
                  __pa_48   0x009980    program     static C:\pavan\1+1RCUTx\1-1-RCU-T-NewArch_svn_web_changes\Microchip\TCPIP Stack\HTTP2.c
                  __pa_49   0x009986    program     static C:\pavan\1+1RCUTx\1-1-RCU-T-NewArch_svn_web_changes\Microchip\TCPIP Stack\HTTP2.c
                  __pa_50   0x009992    program     static C:\pavan\1+1RCUTx\1-1-RCU-T-NewArch_svn_web_changes\Microchip\TCPIP Stack\HTTP2.c
                  __pa_51   0x00999e    program     static C:\pavan\1+1RCUTx\1-1-RCU-T-NewArch_svn_web_changes\Microchip\TCPIP Stack\HTTP2.c
                  __pa_52   0x0099ae    program     static C:\pavan\1+1RCUTx\1-1-RCU-T-NewArch_svn_web_changes\Microchip\TCPIP Stack\HTTP2.c
                  __pa_53   0x0099be    program     static C:\pavan\1+1RCUTx\1-1-RCU-T-NewArch_svn_web_changes\Microchip\TCPIP Stack\HTTP2.c
                  __pa_54   0x0099d4    program     static C:\pavan\1+1RCUTx\1-1-RCU-T-NewArch_svn_web_changes\Microchip\TCPIP Stack\HTTP2.c
                  __pa_55   0x0099e0    program     static C:\pavan\1+1RCUTx\1-1-RCU-T-NewArch_svn_web_changes\Microchip\TCPIP Stack\HTTP2.c
                  __pa_56   0x0099ee    program     static C:\pavan\1+1RCUTx\1-1-RCU-T-NewArch_svn_web_changes\Microchip\TCPIP Stack\HTTP2.c
                  __pa_57   0x0099fc    program     static C:\pavan\1+1RCUTx\1-1-RCU-T-NewArch_svn_web_changes\Microchip\TCPIP Stack\HTTP2.c
                  __pa_58   0x009a0c    program     static C:\pavan\1+1RCUTx\1-1-RCU-T-NewArch_svn_web_changes\Microchip\TCPIP Stack\HTTP2.c
                  __pa_59   0x009a1a    program     static C:\pavan\1+1RCUTx\1-1-RCU-T-NewArch_svn_web_changes\Microchip\TCPIP Stack\HTTP2.c
                  __pa_60   0x009a2e    program     static C:\pavan\1+1RCUTx\1-1-RCU-T-NewArch_svn_web_changes\Microchip\TCPIP Stack\HTTP2.c
                  __pa_61   0x009a36    program     static C:\pavan\1+1RCUTx\1-1-RCU-T-NewArch_svn_web_changes\Microchip\TCPIP Stack\HTTP2.c
                  __pa_62   0x009a48    program     static C:\pavan\1+1RCUTx\1-1-RCU-T-NewArch_svn_web_changes\Microchip\TCPIP Stack\HTTP2.c
                  __pa_63   0x009a54    program     static C:\pavan\1+1RCUTx\1-1-RCU-T-NewArch_svn_web_changes\Microchip\TCPIP Stack\HTTP2.c
                  __pa_64   0x009a66    program     static C:\pavan\1+1RCUTx\1-1-RCU-T-NewArch_svn_web_changes\Microchip\TCPIP Stack\HTTP2.c
                  __pa_65   0x009a72    program     static C:\pavan\1+1RCUTx\1-1-RCU-T-NewArch_svn_web_changes\Microchip\TCPIP Stack\HTTP2.c
                  __pa_66   0x009a7e    program     static C:\pavan\1+1RCUTx\1-1-RCU-T-NewArch_svn_web_changes\Microchip\TCPIP Stack\HTTP2.c
                  __pa_67   0x009a8a    program     static C:\pavan\1+1RCUTx\1-1-RCU-T-NewArch_svn_web_changes\Microchip\TCPIP Stack\HTTP2.c
                  __pa_68   0x009a90    program     static C:\pavan\1+1RCUTx\1-1-RCU-T-NewArch_svn_web_changes\Microchip\TCPIP Stack\HTTP2.c
                  __pa_69   0x009a96    program     static C:\pavan\1+1RCUTx\1-1-RCU-T-NewArch_svn_web_changes\Microchip\TCPIP Stack\HTTP2.c
                  __pa_70   0x009aa0    program     static C:\pavan\1+1RCUTx\1-1-RCU-T-NewArch_svn_web_changes\Microchip\TCPIP Stack\HTTP2.c
                  __pa_71   0x009aaa    program     static C:\pavan\1+1RCUTx\1-1-RCU-T-NewArch_svn_web_changes\Microchip\TCPIP Stack\HTTP2.c
                  __pa_72   0x009ab6    program     static C:\pavan\1+1RCUTx\1-1-RCU-T-NewArch_svn_web_changes\Microchip\TCPIP Stack\HTTP2.c
                  __pa_73   0x009ac6    program     static C:\pavan\1+1RCUTx\1-1-RCU-T-NewArch_svn_web_changes\Microchip\TCPIP Stack\HTTP2.c
                  __pa_74   0x009ad0    program     static C:\pavan\1+1RCUTx\1-1-RCU-T-NewArch_svn_web_changes\Microchip\TCPIP Stack\HTTP2.c
                  __pa_75   0x009ad8    program     static C:\pavan\1+1RCUTx\1-1-RCU-T-NewArch_svn_web_changes\Microchip\TCPIP Stack\HTTP2.c
                  __pa_76   0x009ae0    program     static C:\pavan\1+1RCUTx\1-1-RCU-T-NewArch_svn_web_changes\Microchip\TCPIP Stack\HTTP2.c
                  __pa_77   0x009ae8    program     static C:\pavan\1+1RCUTx\1-1-RCU-T-NewArch_svn_web_changes\Microchip\TCPIP Stack\HTTP2.c
                  __pa_78   0x009af6    program     static C:\pavan\1+1RCUTx\1-1-RCU-T-NewArch_svn_web_changes\Microchip\TCPIP Stack\HTTP2.c
                  __pa_79   0x009b04    program     static C:\pavan\1+1RCUTx\1-1-RCU-T-NewArch_svn_web_changes\Microchip\TCPIP Stack\HTTP2.c
                  __pa_80   0x009b12    program     static C:\pavan\1+1RCUTx\1-1-RCU-T-NewArch_svn_web_changes\Microchip\TCPIP Stack\HTTP2.c
                  __pa_81   0x009b20    program     static C:\pavan\1+1RCUTx\1-1-RCU-T-NewArch_svn_web_changes\Microchip\TCPIP Stack\HTTP2.c
                  __pa_82   0x009b2e    program     static C:\pavan\1+1RCUTx\1-1-RCU-T-NewArch_svn_web_changes\Microchip\TCPIP Stack\HTTP2.c
                  __pa_83   0x009b3c    program     static C:\pavan\1+1RCUTx\1-1-RCU-T-NewArch_svn_web_changes\Microchip\TCPIP Stack\HTTP2.c
                  __pa_84   0x009b4a    program     static C:\pavan\1+1RCUTx\1-1-RCU-T-NewArch_svn_web_changes\Microchip\TCPIP Stack\HTTP2.c
                  __pa_85   0x009b58    program     static C:\pavan\1+1RCUTx\1-1-RCU-T-NewArch_svn_web_changes\Microchip\TCPIP Stack\HTTP2.c
                  __pa_86   0x009b66    program     static C:\pavan\1+1RCUTx\1-1-RCU-T-NewArch_svn_web_changes\Microchip\TCPIP Stack\HTTP2.c
                  __pa_87   0x009b70    program     static C:\pavan\1+1RCUTx\1-1-RCU-T-NewArch_svn_web_changes\Microchip\TCPIP Stack\HTTP2.c
                  __pa_88   0x009b7a    program     static C:\pavan\1+1RCUTx\1-1-RCU-T-NewArch_svn_web_changes\Microchip\TCPIP Stack\HTTP2.c
                  __pa_89   0x009b90    program     static C:\pavan\1+1RCUTx\1-1-RCU-T-NewArch_svn_web_changes\Microchip\TCPIP Stack\HTTP2.c
                  __pa_90   0x009b96    program     static C:\pavan\1+1RCUTx\1-1-RCU-T-NewArch_svn_web_changes\Microchip\TCPIP Stack\HTTP2.c
                  __pa_91   0x009ba4    program     static C:\pavan\1+1RCUTx\1-1-RCU-T-NewArch_svn_web_changes\Microchip\TCPIP Stack\HTTP2.c
                  __pa_92   0x009bae    program     static C:\pavan\1+1RCUTx\1-1-RCU-T-NewArch_svn_web_changes\Microchip\TCPIP Stack\HTTP2.c
                  __pa_93   0x009bb8    program     static C:\pavan\1+1RCUTx\1-1-RCU-T-NewArch_svn_web_changes\Microchip\TCPIP Stack\HTTP2.c
                  __pa_94   0x009bc2    program     static C:\pavan\1+1RCUTx\1-1-RCU-T-NewArch_svn_web_changes\Microchip\TCPIP Stack\HTTP2.c
                  __pa_95   0x009bd0    program     static C:\pavan\1+1RCUTx\1-1-RCU-T-NewArch_svn_web_changes\Microchip\TCPIP Stack\HTTP2.c
                  __pa_96   0x009bde    program     static C:\pavan\1+1RCUTx\1-1-RCU-T-NewArch_svn_web_changes\Microchip\TCPIP Stack\HTTP2.c
                  __pa_97   0x009be6    program     static C:\pavan\1+1RCUTx\1-1-RCU-T-NewArch_svn_web_changes\Microchip\TCPIP Stack\HTTP2.c
                  __pa_98   0x009bfc    program     static C:\pavan\1+1RCUTx\1-1-RCU-T-NewArch_svn_web_changes\Microchip\TCPIP Stack\HTTP2.c
                  __pa_99   0x009c02    program     static C:\pavan\1+1RCUTx\1-1-RCU-T-NewArch_svn_web_changes\Microchip\TCPIP Stack\HTTP2.c
                 __pa_100   0x009c0c    program     static C:\pavan\1+1RCUTx\1-1-RCU-T-NewArch_svn_web_changes\Microchip\TCPIP Stack\HTTP2.c
                 __pa_101   0x009c14    program     static C:\pavan\1+1RCUTx\1-1-RCU-T-NewArch_svn_web_changes\Microchip\TCPIP Stack\HTTP2.c
                 __pa_102   0x009c22    program     static C:\pavan\1+1RCUTx\1-1-RCU-T-NewArch_svn_web_changes\Microchip\TCPIP Stack\HTTP2.c
                 __pa_103   0x009c30    program     static C:\pavan\1+1RCUTx\1-1-RCU-T-NewArch_svn_web_changes\Microchip\TCPIP Stack\HTTP2.c
                 __pa_104   0x009c38    program     static C:\pavan\1+1RCUTx\1-1-RCU-T-NewArch_svn_web_changes\Microchip\TCPIP Stack\HTTP2.c
                 __pa_105   0x009c46    program     static C:\pavan\1+1RCUTx\1-1-RCU-T-NewArch_svn_web_changes\Microchip\TCPIP Stack\HTTP2.c
                 __pa_106   0x009c50    program     static C:\pavan\1+1RCUTx\1-1-RCU-T-NewArch_svn_web_changes\Microchip\TCPIP Stack\HTTP2.c
                 __pa_107   0x009c5c    program     static C:\pavan\1+1RCUTx\1-1-RCU-T-NewArch_svn_web_changes\Microchip\TCPIP Stack\HTTP2.c
                 __pa_108   0x009c6c    program     static C:\pavan\1+1RCUTx\1-1-RCU-T-NewArch_svn_web_changes\Microchip\TCPIP Stack\HTTP2.c
                 __pa_109   0x009c74    program     static C:\pavan\1+1RCUTx\1-1-RCU-T-NewArch_svn_web_changes\Microchip\TCPIP Stack\HTTP2.c
                 __pa_110   0x009c7e    program     static C:\pavan\1+1RCUTx\1-1-RCU-T-NewArch_svn_web_changes\Microchip\TCPIP Stack\HTTP2.c
                 __pa_111   0x009c86    program     static C:\pavan\1+1RCUTx\1-1-RCU-T-NewArch_svn_web_changes\Microchip\TCPIP Stack\HTTP2.c
                 __pa_112   0x009c94    program     static C:\pavan\1+1RCUTx\1-1-RCU-T-NewArch_svn_web_changes\Microchip\TCPIP Stack\HTTP2.c
                 __pa_113   0x009c9a    program     static C:\pavan\1+1RCUTx\1-1-RCU-T-NewArch_svn_web_changes\Microchip\TCPIP Stack\HTTP2.c
                 __pa_114   0x009ca0    program     static C:\pavan\1+1RCUTx\1-1-RCU-T-NewArch_svn_web_changes\Microchip\TCPIP Stack\HTTP2.c
                 __pa_115   0x009cac    program     static C:\pavan\1+1RCUTx\1-1-RCU-T-NewArch_svn_web_changes\Microchip\TCPIP Stack\HTTP2.c
                 __pa_116   0x009cb8    program     static C:\pavan\1+1RCUTx\1-1-RCU-T-NewArch_svn_web_changes\Microchip\TCPIP Stack\HTTP2.c
                 __pa_117   0x009cc6    program     static C:\pavan\1+1RCUTx\1-1-RCU-T-NewArch_svn_web_changes\Microchip\TCPIP Stack\HTTP2.c
                 __pa_118   0x009cd4    program     static C:\pavan\1+1RCUTx\1-1-RCU-T-NewArch_svn_web_changes\Microchip\TCPIP Stack\HTTP2.c
                 __pa_119   0x009cdc    program     static C:\pavan\1+1RCUTx\1-1-RCU-T-NewArch_svn_web_changes\Microchip\TCPIP Stack\HTTP2.c
                 __pa_120   0x009ce2    program     static C:\pavan\1+1RCUTx\1-1-RCU-T-NewArch_svn_web_changes\Microchip\TCPIP Stack\HTTP2.c
                 __pa_121   0x009cec    program     static C:\pavan\1+1RCUTx\1-1-RCU-T-NewArch_svn_web_changes\Microchip\TCPIP Stack\HTTP2.c
                 __pa_122   0x009cf6    program     static C:\pavan\1+1RCUTx\1-1-RCU-T-NewArch_svn_web_changes\Microchip\TCPIP Stack\HTTP2.c
                 __pa_123   0x009d00    program     static C:\pavan\1+1RCUTx\1-1-RCU-T-NewArch_svn_web_changes\Microchip\TCPIP Stack\HTTP2.c
                 __pa_124   0x009d08    program     static C:\pavan\1+1RCUTx\1-1-RCU-T-NewArch_svn_web_changes\Microchip\TCPIP Stack\HTTP2.c
                 __pa_125   0x009d10    program     static C:\pavan\1+1RCUTx\1-1-RCU-T-NewArch_svn_web_changes\Microchip\TCPIP Stack\HTTP2.c
                 __pa_126   0x009d18    program     static C:\pavan\1+1RCUTx\1-1-RCU-T-NewArch_svn_web_changes\Microchip\TCPIP Stack\HTTP2.c
                 __pa_127   0x009d1e    program     static C:\pavan\1+1RCUTx\1-1-RCU-T-NewArch_svn_web_changes\Microchip\TCPIP Stack\HTTP2.c
                 __pa_128   0x009d38    program     static C:\pavan\1+1RCUTx\1-1-RCU-T-NewArch_svn_web_changes\Microchip\TCPIP Stack\HTTP2.c
                 __pa_129   0x009d40    program     static C:\pavan\1+1RCUTx\1-1-RCU-T-NewArch_svn_web_changes\Microchip\TCPIP Stack\HTTP2.c
                 __pa_130   0x009d46    program     static C:\pavan\1+1RCUTx\1-1-RCU-T-NewArch_svn_web_changes\Microchip\TCPIP Stack\HTTP2.c
                 __pa_131   0x009d4c    program     static C:\pavan\1+1RCUTx\1-1-RCU-T-NewArch_svn_web_changes\Microchip\TCPIP Stack\HTTP2.c
                 __pa_132   0x009d5c    program     static C:\pavan\1+1RCUTx\1-1-RCU-T-NewArch_svn_web_changes\Microchip\TCPIP Stack\HTTP2.c
                 __pa_133   0x009d66    program     static C:\pavan\1+1RCUTx\1-1-RCU-T-NewArch_svn_web_changes\Microchip\TCPIP Stack\HTTP2.c
                 __pa_134   0x009d76    program     static C:\pavan\1+1RCUTx\1-1-RCU-T-NewArch_svn_web_changes\Microchip\TCPIP Stack\HTTP2.c
                 __pa_135   0x009d82    program     static C:\pavan\1+1RCUTx\1-1-RCU-T-NewArch_svn_web_changes\Microchip\TCPIP Stack\HTTP2.c
                 __pa_136   0x009d8c    program     static C:\pavan\1+1RCUTx\1-1-RCU-T-NewArch_svn_web_changes\Microchip\TCPIP Stack\HTTP2.c
                 __pa_137   0x009d9c    program     static C:\pavan\1+1RCUTx\1-1-RCU-T-NewArch_svn_web_changes\Microchip\TCPIP Stack\HTTP2.c
                 __pa_138   0x009da6    program     static C:\pavan\1+1RCUTx\1-1-RCU-T-NewArch_svn_web_changes\Microchip\TCPIP Stack\HTTP2.c
                 __pa_139   0x009db2    program     static C:\pavan\1+1RCUTx\1-1-RCU-T-NewArch_svn_web_changes\Microchip\TCPIP Stack\HTTP2.c
                 __pa_140   0x009dbc    program     static C:\pavan\1+1RCUTx\1-1-RCU-T-NewArch_svn_web_changes\Microchip\TCPIP Stack\HTTP2.c
                 __pa_141   0x009dca    program     static C:\pavan\1+1RCUTx\1-1-RCU-T-NewArch_svn_web_changes\Microchip\TCPIP Stack\HTTP2.c
                 __pa_142   0x009dd8    program     static C:\pavan\1+1RCUTx\1-1-RCU-T-NewArch_svn_web_changes\Microchip\TCPIP Stack\HTTP2.c
                 __pa_143   0x009de4    program     static C:\pavan\1+1RCUTx\1-1-RCU-T-NewArch_svn_web_changes\Microchip\TCPIP Stack\HTTP2.c
                 __pa_144   0x009dec    program     static C:\pavan\1+1RCUTx\1-1-RCU-T-NewArch_svn_web_changes\Microchip\TCPIP Stack\HTTP2.c
                 __pa_145   0x009df2    program     static C:\pavan\1+1RCUTx\1-1-RCU-T-NewArch_svn_web_changes\Microchip\TCPIP Stack\HTTP2.c
                 __pa_146   0x009df8    program     static C:\pavan\1+1RCUTx\1-1-RCU-T-NewArch_svn_web_changes\Microchip\TCPIP Stack\HTTP2.c
                 __pa_147   0x009e00    program     static C:\pavan\1+1RCUTx\1-1-RCU-T-NewArch_svn_web_changes\Microchip\TCPIP Stack\HTTP2.c
                 __pa_148   0x009e08    program     static C:\pavan\1+1RCUTx\1-1-RCU-T-NewArch_svn_web_changes\Microchip\TCPIP Stack\HTTP2.c
                 __pa_149   0x009e12    program     static C:\pavan\1+1RCUTx\1-1-RCU-T-NewArch_svn_web_changes\Microchip\TCPIP Stack\HTTP2.c
    RCUServerDecodeRCUReq   0x009e18    program     extern C:\pavan\1+1RCUTx\1-1-RCU-T-NewArch_svn_web_changes\AgilisDevices\RCUServer.c
              __tmplbl_58   0x00a6c6    program     static                          
  RCUServerDecodeFMBUCReq   0x00a6da    program     extern C:\pavan\1+1RCUTx\1-1-RCU-T-NewArch_svn_web_changes\AgilisDevices\RCUServer.c
      RCUServerForwardCmd   0x00aea0    program     extern C:\pavan\1+1RCUTx\1-1-RCU-T-NewArch_svn_web_changes\AgilisDevices\RCUServer.c
       RCUServerCmdLookUp   0x00b47a    program     extern C:\pavan\1+1RCUTx\1-1-RCU-T-NewArch_svn_web_changes\AgilisDevices\RCUServer.c
         RCUServerRespond   0x00b532    program     extern C:\pavan\1+1RCUTx\1-1-RCU-T-NewArch_svn_web_changes\AgilisDevices\RCUServer.c
            RCUServerInit   0x00b77c    program     extern C:\pavan\1+1RCUTx\1-1-RCU-T-NewArch_svn_web_changes\AgilisDevices\RCUServer.c
                   __pa_0   0x00b83c    program     static C:\pavan\1+1RCUTx\1-1-RCU-T-NewArch_svn_web_changes\AgilisDevices\RCUServer.c
                   __pa_1   0x00b842    program     static C:\pavan\1+1RCUTx\1-1-RCU-T-NewArch_svn_web_changes\AgilisDevices\RCUServer.c
                   __pa_2   0x00b866    program     static C:\pavan\1+1RCUTx\1-1-RCU-T-NewArch_svn_web_changes\AgilisDevices\RCUServer.c
                   __pa_3   0x00b8de    program     static C:\pavan\1+1RCUTx\1-1-RCU-T-NewArch_svn_web_changes\AgilisDevices\RCUServer.c
                   __pa_4   0x00b8f6    program     static C:\pavan\1+1RCUTx\1-1-RCU-T-NewArch_svn_web_changes\AgilisDevices\RCUServer.c
                   __pa_5   0x00b8fc    program     static C:\pavan\1+1RCUTx\1-1-RCU-T-NewArch_svn_web_changes\AgilisDevices\RCUServer.c
                   __pa_6   0x00b900    program     static C:\pavan\1+1RCUTx\1-1-RCU-T-NewArch_svn_web_changes\AgilisDevices\RCUServer.c
                   __pa_7   0x00b906    program     static C:\pavan\1+1RCUTx\1-1-RCU-T-NewArch_svn_web_changes\AgilisDevices\RCUServer.c
                   __pa_8   0x00b910    program     static C:\pavan\1+1RCUTx\1-1-RCU-T-NewArch_svn_web_changes\AgilisDevices\RCUServer.c
                   __pa_9   0x00b91e    program     static C:\pavan\1+1RCUTx\1-1-RCU-T-NewArch_svn_web_changes\AgilisDevices\RCUServer.c
                  __pa_10   0x00b92c    program     static C:\pavan\1+1RCUTx\1-1-RCU-T-NewArch_svn_web_changes\AgilisDevices\RCUServer.c
                  __pa_11   0x00b95e    program     static C:\pavan\1+1RCUTx\1-1-RCU-T-NewArch_svn_web_changes\AgilisDevices\RCUServer.c
                  __pa_12   0x00b966    program     static C:\pavan\1+1RCUTx\1-1-RCU-T-NewArch_svn_web_changes\AgilisDevices\RCUServer.c
                  __pa_13   0x00b988    program     static C:\pavan\1+1RCUTx\1-1-RCU-T-NewArch_svn_web_changes\AgilisDevices\RCUServer.c
                  __pa_14   0x00b9a8    program     static C:\pavan\1+1RCUTx\1-1-RCU-T-NewArch_svn_web_changes\AgilisDevices\RCUServer.c
                  __pa_15   0x00b9b6    program     static C:\pavan\1+1RCUTx\1-1-RCU-T-NewArch_svn_web_changes\AgilisDevices\RCUServer.c
                  __pa_16   0x00b9c4    program     static C:\pavan\1+1RCUTx\1-1-RCU-T-NewArch_svn_web_changes\AgilisDevices\RCUServer.c
                  __pa_17   0x00b9ee    program     static C:\pavan\1+1RCUTx\1-1-RCU-T-NewArch_svn_web_changes\AgilisDevices\RCUServer.c
                  __pa_18   0x00ba14    program     static C:\pavan\1+1RCUTx\1-1-RCU-T-NewArch_svn_web_changes\AgilisDevices\RCUServer.c
                  __pa_19   0x00ba26    program     static C:\pavan\1+1RCUTx\1-1-RCU-T-NewArch_svn_web_changes\AgilisDevices\RCUServer.c
                  __pa_20   0x00ba66    program     static C:\pavan\1+1RCUTx\1-1-RCU-T-NewArch_svn_web_changes\AgilisDevices\RCUServer.c
                  __pa_21   0x00ba78    program     static C:\pavan\1+1RCUTx\1-1-RCU-T-NewArch_svn_web_changes\AgilisDevices\RCUServer.c
                  __pa_22   0x00ba86    program     static C:\pavan\1+1RCUTx\1-1-RCU-T-NewArch_svn_web_changes\AgilisDevices\RCUServer.c
                  __pa_23   0x00ba8e    program     static C:\pavan\1+1RCUTx\1-1-RCU-T-NewArch_svn_web_changes\AgilisDevices\RCUServer.c
                  __pa_24   0x00ba92    program     static C:\pavan\1+1RCUTx\1-1-RCU-T-NewArch_svn_web_changes\AgilisDevices\RCUServer.c
                  __pa_25   0x00ba98    program     static C:\pavan\1+1RCUTx\1-1-RCU-T-NewArch_svn_web_changes\AgilisDevices\RCUServer.c
                  __pa_26   0x00bab2    program     static C:\pavan\1+1RCUTx\1-1-RCU-T-NewArch_svn_web_changes\AgilisDevices\RCUServer.c
                  __pa_27   0x00babe    program     static C:\pavan\1+1RCUTx\1-1-RCU-T-NewArch_svn_web_changes\AgilisDevices\RCUServer.c
                  __pa_28   0x00bace    program     static C:\pavan\1+1RCUTx\1-1-RCU-T-NewArch_svn_web_changes\AgilisDevices\RCUServer.c
             __tmplbl_109   0x00bace    program     static                          
              __tmplbl_78   0x00bace    program     static                          
                  __pa_29   0x00bada    program     static C:\pavan\1+1RCUTx\1-1-RCU-T-NewArch_svn_web_changes\AgilisDevices\RCUServer.c
                  __pa_30   0x00bae4    program     static C:\pavan\1+1RCUTx\1-1-RCU-T-NewArch_svn_web_changes\AgilisDevices\RCUServer.c
                  __pa_31   0x00baf2    program     static C:\pavan\1+1RCUTx\1-1-RCU-T-NewArch_svn_web_changes\AgilisDevices\RCUServer.c
                  __pa_32   0x00bb00    program     static C:\pavan\1+1RCUTx\1-1-RCU-T-NewArch_svn_web_changes\AgilisDevices\RCUServer.c
                  __pa_33   0x00bb08    program     static C:\pavan\1+1RCUTx\1-1-RCU-T-NewArch_svn_web_changes\AgilisDevices\RCUServer.c
                  __pa_34   0x00bb16    program     static C:\pavan\1+1RCUTx\1-1-RCU-T-NewArch_svn_web_changes\AgilisDevices\RCUServer.c
                  __pa_35   0x00bb24    program     static C:\pavan\1+1RCUTx\1-1-RCU-T-NewArch_svn_web_changes\AgilisDevices\RCUServer.c
                  __pa_36   0x00bb2a    program     static C:\pavan\1+1RCUTx\1-1-RCU-T-NewArch_svn_web_changes\AgilisDevices\RCUServer.c
                  __pa_37   0x00bb3c    program     static C:\pavan\1+1RCUTx\1-1-RCU-T-NewArch_svn_web_changes\AgilisDevices\RCUServer.c
                  __pa_38   0x00bb4c    program     static C:\pavan\1+1RCUTx\1-1-RCU-T-NewArch_svn_web_changes\AgilisDevices\RCUServer.c
                  __pa_39   0x00bb52    program     static C:\pavan\1+1RCUTx\1-1-RCU-T-NewArch_svn_web_changes\AgilisDevices\RCUServer.c
                  __pa_40   0x00bb5a    program     static C:\pavan\1+1RCUTx\1-1-RCU-T-NewArch_svn_web_changes\AgilisDevices\RCUServer.c
                  __pa_41   0x00bb62    program     static C:\pavan\1+1RCUTx\1-1-RCU-T-NewArch_svn_web_changes\AgilisDevices\RCUServer.c
                  __pa_42   0x00bb6e    program     static C:\pavan\1+1RCUTx\1-1-RCU-T-NewArch_svn_web_changes\AgilisDevices\RCUServer.c
                  __pa_43   0x00bb7c    program     static C:\pavan\1+1RCUTx\1-1-RCU-T-NewArch_svn_web_changes\AgilisDevices\RCUServer.c
                  __pa_44   0x00bb8a    program     static C:\pavan\1+1RCUTx\1-1-RCU-T-NewArch_svn_web_changes\AgilisDevices\RCUServer.c
                  __pa_45   0x00bb98    program     static C:\pavan\1+1RCUTx\1-1-RCU-T-NewArch_svn_web_changes\AgilisDevices\RCUServer.c
                  __pa_46   0x00bba2    program     static C:\pavan\1+1RCUTx\1-1-RCU-T-NewArch_svn_web_changes\AgilisDevices\RCUServer.c
                  __pa_47   0x00bbaa    program     static C:\pavan\1+1RCUTx\1-1-RCU-T-NewArch_svn_web_changes\AgilisDevices\RCUServer.c
                  __pa_48   0x00bbb0    program     static C:\pavan\1+1RCUTx\1-1-RCU-T-NewArch_svn_web_changes\AgilisDevices\RCUServer.c
                  __pa_49   0x00bbb4    program     static C:\pavan\1+1RCUTx\1-1-RCU-T-NewArch_svn_web_changes\AgilisDevices\RCUServer.c
                  __pa_50   0x00bbbc    program     static C:\pavan\1+1RCUTx\1-1-RCU-T-NewArch_svn_web_changes\AgilisDevices\RCUServer.c
                  __pa_51   0x00bbc4    program     static C:\pavan\1+1RCUTx\1-1-RCU-T-NewArch_svn_web_changes\AgilisDevices\RCUServer.c
                  __pa_52   0x00bbd2    program     static C:\pavan\1+1RCUTx\1-1-RCU-T-NewArch_svn_web_changes\AgilisDevices\RCUServer.c
                  __pa_53   0x00bbe0    program     static C:\pavan\1+1RCUTx\1-1-RCU-T-NewArch_svn_web_changes\AgilisDevices\RCUServer.c
                  __pa_54   0x00bbee    program     static C:\pavan\1+1RCUTx\1-1-RCU-T-NewArch_svn_web_changes\AgilisDevices\RCUServer.c
                  __pa_55   0x00bbfc    program     static C:\pavan\1+1RCUTx\1-1-RCU-T-NewArch_svn_web_changes\AgilisDevices\RCUServer.c
                  __pa_56   0x00bc06    program     static C:\pavan\1+1RCUTx\1-1-RCU-T-NewArch_svn_web_changes\AgilisDevices\RCUServer.c
                  __pa_57   0x00bc10    program     static C:\pavan\1+1RCUTx\1-1-RCU-T-NewArch_svn_web_changes\AgilisDevices\RCUServer.c
                  __pa_58   0x00bc1a    program     static C:\pavan\1+1RCUTx\1-1-RCU-T-NewArch_svn_web_changes\AgilisDevices\RCUServer.c
                  __pa_59   0x00bc22    program     static C:\pavan\1+1RCUTx\1-1-RCU-T-NewArch_svn_web_changes\AgilisDevices\RCUServer.c
                  __pa_60   0x00bc2c    program     static C:\pavan\1+1RCUTx\1-1-RCU-T-NewArch_svn_web_changes\AgilisDevices\RCUServer.c
                  __pa_61   0x00bc3e    program     static C:\pavan\1+1RCUTx\1-1-RCU-T-NewArch_svn_web_changes\AgilisDevices\RCUServer.c
                  __pa_62   0x00bc46    program     static C:\pavan\1+1RCUTx\1-1-RCU-T-NewArch_svn_web_changes\AgilisDevices\RCUServer.c
                  __pa_63   0x00bc4e    program     static C:\pavan\1+1RCUTx\1-1-RCU-T-NewArch_svn_web_changes\AgilisDevices\RCUServer.c
                  __pa_64   0x00bc74    program     static C:\pavan\1+1RCUTx\1-1-RCU-T-NewArch_svn_web_changes\AgilisDevices\RCUServer.c
                  __pa_65   0x00bc7a    program     static C:\pavan\1+1RCUTx\1-1-RCU-T-NewArch_svn_web_changes\AgilisDevices\RCUServer.c
                  __pa_66   0x00bc86    program     static C:\pavan\1+1RCUTx\1-1-RCU-T-NewArch_svn_web_changes\AgilisDevices\RCUServer.c
                  __pa_67   0x00bc8c    program     static C:\pavan\1+1RCUTx\1-1-RCU-T-NewArch_svn_web_changes\AgilisDevices\RCUServer.c
                  __pa_68   0x00bc96    program     static C:\pavan\1+1RCUTx\1-1-RCU-T-NewArch_svn_web_changes\AgilisDevices\RCUServer.c
                  __pa_69   0x00bca0    program     static C:\pavan\1+1RCUTx\1-1-RCU-T-NewArch_svn_web_changes\AgilisDevices\RCUServer.c
                  __pa_70   0x00bcb6    program     static C:\pavan\1+1RCUTx\1-1-RCU-T-NewArch_svn_web_changes\AgilisDevices\RCUServer.c
                  __pa_71   0x00bcbc    program     static C:\pavan\1+1RCUTx\1-1-RCU-T-NewArch_svn_web_changes\AgilisDevices\RCUServer.c
                  __pa_72   0x00bcc4    program     static C:\pavan\1+1RCUTx\1-1-RCU-T-NewArch_svn_web_changes\AgilisDevices\RCUServer.c
                  __pa_73   0x00bcce    program     static C:\pavan\1+1RCUTx\1-1-RCU-T-NewArch_svn_web_changes\AgilisDevices\RCUServer.c
                  __pa_74   0x00bce0    program     static C:\pavan\1+1RCUTx\1-1-RCU-T-NewArch_svn_web_changes\AgilisDevices\RCUServer.c
                  __pa_75   0x00bcf6    program     static C:\pavan\1+1RCUTx\1-1-RCU-T-NewArch_svn_web_changes\AgilisDevices\RCUServer.c
                  __pa_76   0x00bd00    program     static C:\pavan\1+1RCUTx\1-1-RCU-T-NewArch_svn_web_changes\AgilisDevices\RCUServer.c
                  __pa_77   0x00bd0c    program     static C:\pavan\1+1RCUTx\1-1-RCU-T-NewArch_svn_web_changes\AgilisDevices\RCUServer.c
                  __pa_78   0x00bd1a    program     static C:\pavan\1+1RCUTx\1-1-RCU-T-NewArch_svn_web_changes\AgilisDevices\RCUServer.c
                  __pa_79   0x00bd28    program     static C:\pavan\1+1RCUTx\1-1-RCU-T-NewArch_svn_web_changes\AgilisDevices\RCUServer.c
                  __pa_80   0x00bd2e    program     static C:\pavan\1+1RCUTx\1-1-RCU-T-NewArch_svn_web_changes\AgilisDevices\RCUServer.c
                  __pa_81   0x00bd34    program     static C:\pavan\1+1RCUTx\1-1-RCU-T-NewArch_svn_web_changes\AgilisDevices\RCUServer.c
                  __pa_82   0x00bd3a    program     static C:\pavan\1+1RCUTx\1-1-RCU-T-NewArch_svn_web_changes\AgilisDevices\RCUServer.c
                  __pa_83   0x00bd4c    program     static C:\pavan\1+1RCUTx\1-1-RCU-T-NewArch_svn_web_changes\AgilisDevices\RCUServer.c
                  __pa_84   0x00bd58    program     static C:\pavan\1+1RCUTx\1-1-RCU-T-NewArch_svn_web_changes\AgilisDevices\RCUServer.c
                  __pa_85   0x00bd62    program     static C:\pavan\1+1RCUTx\1-1-RCU-T-NewArch_svn_web_changes\AgilisDevices\RCUServer.c
                  __pa_86   0x00bd6e    program     static C:\pavan\1+1RCUTx\1-1-RCU-T-NewArch_svn_web_changes\AgilisDevices\RCUServer.c
                  __pa_87   0x00bd76    program     static C:\pavan\1+1RCUTx\1-1-RCU-T-NewArch_svn_web_changes\AgilisDevices\RCUServer.c
                  __pa_88   0x00bd80    program     static C:\pavan\1+1RCUTx\1-1-RCU-T-NewArch_svn_web_changes\AgilisDevices\RCUServer.c
                  __pa_89   0x00bd8a    program     static C:\pavan\1+1RCUTx\1-1-RCU-T-NewArch_svn_web_changes\AgilisDevices\RCUServer.c
                  __pa_90   0x00bd90    program     static C:\pavan\1+1RCUTx\1-1-RCU-T-NewArch_svn_web_changes\AgilisDevices\RCUServer.c
                  __pa_91   0x00bd9e    program     static C:\pavan\1+1RCUTx\1-1-RCU-T-NewArch_svn_web_changes\AgilisDevices\RCUServer.c
                  __pa_92   0x00bdaa    program     static C:\pavan\1+1RCUTx\1-1-RCU-T-NewArch_svn_web_changes\AgilisDevices\RCUServer.c
                  __pa_93   0x00bdb8    program     static C:\pavan\1+1RCUTx\1-1-RCU-T-NewArch_svn_web_changes\AgilisDevices\RCUServer.c
                  __pa_94   0x00bdc6    program     static C:\pavan\1+1RCUTx\1-1-RCU-T-NewArch_svn_web_changes\AgilisDevices\RCUServer.c
                  __pa_95   0x00bdce    program     static C:\pavan\1+1RCUTx\1-1-RCU-T-NewArch_svn_web_changes\AgilisDevices\RCUServer.c
                  __pa_96   0x00bdd6    program     static C:\pavan\1+1RCUTx\1-1-RCU-T-NewArch_svn_web_changes\AgilisDevices\RCUServer.c
                  __pa_97   0x00bdde    program     static C:\pavan\1+1RCUTx\1-1-RCU-T-NewArch_svn_web_changes\AgilisDevices\RCUServer.c
                  __pa_98   0x00bde4    program     static C:\pavan\1+1RCUTx\1-1-RCU-T-NewArch_svn_web_changes\AgilisDevices\RCUServer.c
                  __pa_99   0x00bdee    program     static C:\pavan\1+1RCUTx\1-1-RCU-T-NewArch_svn_web_changes\AgilisDevices\RCUServer.c
                 __pa_100   0x00bdf8    program     static C:\pavan\1+1RCUTx\1-1-RCU-T-NewArch_svn_web_changes\AgilisDevices\RCUServer.c
                 __pa_101   0x00bdfe    program     static C:\pavan\1+1RCUTx\1-1-RCU-T-NewArch_svn_web_changes\AgilisDevices\RCUServer.c
                 __pa_102   0x00be08    program     static C:\pavan\1+1RCUTx\1-1-RCU-T-NewArch_svn_web_changes\AgilisDevices\RCUServer.c
                 __pa_103   0x00be0e    program     static C:\pavan\1+1RCUTx\1-1-RCU-T-NewArch_svn_web_changes\AgilisDevices\RCUServer.c
                 __pa_104   0x00be16    program     static C:\pavan\1+1RCUTx\1-1-RCU-T-NewArch_svn_web_changes\AgilisDevices\RCUServer.c
                 __pa_105   0x00be1e    program     static C:\pavan\1+1RCUTx\1-1-RCU-T-NewArch_svn_web_changes\AgilisDevices\RCUServer.c
                 __pa_106   0x00be24    program     static C:\pavan\1+1RCUTx\1-1-RCU-T-NewArch_svn_web_changes\AgilisDevices\RCUServer.c
                 __pa_107   0x00be3a    program     static C:\pavan\1+1RCUTx\1-1-RCU-T-NewArch_svn_web_changes\AgilisDevices\RCUServer.c
                 __pa_108   0x00be42    program     static C:\pavan\1+1RCUTx\1-1-RCU-T-NewArch_svn_web_changes\AgilisDevices\RCUServer.c
                 __pa_109   0x00be52    program     static C:\pavan\1+1RCUTx\1-1-RCU-T-NewArch_svn_web_changes\AgilisDevices\RCUServer.c
                 __pa_110   0x00be62    program     static C:\pavan\1+1RCUTx\1-1-RCU-T-NewArch_svn_web_changes\AgilisDevices\RCUServer.c
                 __pa_111   0x00be74    program     static C:\pavan\1+1RCUTx\1-1-RCU-T-NewArch_svn_web_changes\AgilisDevices\RCUServer.c
                 __pa_112   0x00be80    program     static C:\pavan\1+1RCUTx\1-1-RCU-T-NewArch_svn_web_changes\AgilisDevices\RCUServer.c
                 __pa_113   0x00be88    program     static C:\pavan\1+1RCUTx\1-1-RCU-T-NewArch_svn_web_changes\AgilisDevices\RCUServer.c
                 __pa_114   0x00be8e    program     static C:\pavan\1+1RCUTx\1-1-RCU-T-NewArch_svn_web_changes\AgilisDevices\RCUServer.c
                 __pa_115   0x00be94    program     static C:\pavan\1+1RCUTx\1-1-RCU-T-NewArch_svn_web_changes\AgilisDevices\RCUServer.c
                 __pa_116   0x00be9e    program     static C:\pavan\1+1RCUTx\1-1-RCU-T-NewArch_svn_web_changes\AgilisDevices\RCUServer.c
                 __pa_117   0x00bea6    program     static C:\pavan\1+1RCUTx\1-1-RCU-T-NewArch_svn_web_changes\AgilisDevices\RCUServer.c
                 __pa_118   0x00beb2    program     static C:\pavan\1+1RCUTx\1-1-RCU-T-NewArch_svn_web_changes\AgilisDevices\RCUServer.c
                 __pa_119   0x00beb8    program     static C:\pavan\1+1RCUTx\1-1-RCU-T-NewArch_svn_web_changes\AgilisDevices\RCUServer.c
                 __pa_120   0x00bebe    program     static C:\pavan\1+1RCUTx\1-1-RCU-T-NewArch_svn_web_changes\AgilisDevices\RCUServer.c
                 __pa_121   0x00bec6    program     static C:\pavan\1+1RCUTx\1-1-RCU-T-NewArch_svn_web_changes\AgilisDevices\RCUServer.c
            BUCClientPoll   0x00becc    program     extern C:\pavan\1+1RCUTx\1-1-RCU-T-NewArch_svn_web_changes\AgilisDevices\BUCClient.c
      BUCClientDecodeResp   0x00c0a0    program     extern C:\pavan\1+1RCUTx\1-1-RCU-T-NewArch_svn_web_changes\AgilisDevices\BUCClient.c
              __tmplbl_40   0x00c912    program     static                          
              __tmplbl_39   0x00c912    program     static                          
              __tmplbl_41   0x00c926    program     static                          
 BUCClientResetServerInfo   0x00c93a    program     extern C:\pavan\1+1RCUTx\1-1-RCU-T-NewArch_svn_web_changes\AgilisDevices\BUCClient.c
            BUCClientInit   0x00caa8    program     extern C:\pavan\1+1RCUTx\1-1-RCU-T-NewArch_svn_web_changes\AgilisDevices\BUCClient.c
        BUCClientSendData   0x00cb84    program     extern C:\pavan\1+1RCUTx\1-1-RCU-T-NewArch_svn_web_changes\AgilisDevices\BUCClient.c
   BUCClientSetBUCRFOnOff   0x00cd24    program     extern C:\pavan\1+1RCUTx\1-1-RCU-T-NewArch_svn_web_changes\AgilisDevices\BUCClient.c
      BUCClientSetBUCAttn   0x00ce10    program     extern C:\pavan\1+1RCUTx\1-1-RCU-T-NewArch_svn_web_changes\AgilisDevices\BUCClient.c
BUCClientIsBUCServerConnected   0x00cf26    program     extern C:\pavan\1+1RCUTx\1-1-RCU-T-NewArch_svn_web_changes\AgilisDevices\BUCClient.c
                   __pa_0   0x00cf48    program     static C:\pavan\1+1RCUTx\1-1-RCU-T-NewArch_svn_web_changes\AgilisDevices\BUCClient.c
                   __pa_1   0x00cf5e    program     static C:\pavan\1+1RCUTx\1-1-RCU-T-NewArch_svn_web_changes\AgilisDevices\BUCClient.c
                   __pa_2   0x00cf66    program     static C:\pavan\1+1RCUTx\1-1-RCU-T-NewArch_svn_web_changes\AgilisDevices\BUCClient.c
                   __pa_3   0x00cf8a    program     static C:\pavan\1+1RCUTx\1-1-RCU-T-NewArch_svn_web_changes\AgilisDevices\BUCClient.c
                   __pa_4   0x00cf98    program     static C:\pavan\1+1RCUTx\1-1-RCU-T-NewArch_svn_web_changes\AgilisDevices\BUCClient.c
                   __pa_5   0x00cfa2    program     static C:\pavan\1+1RCUTx\1-1-RCU-T-NewArch_svn_web_changes\AgilisDevices\BUCClient.c
                   __pa_6   0x00cfae    program     static C:\pavan\1+1RCUTx\1-1-RCU-T-NewArch_svn_web_changes\AgilisDevices\BUCClient.c
                   __pa_7   0x00cfb8    program     static C:\pavan\1+1RCUTx\1-1-RCU-T-NewArch_svn_web_changes\AgilisDevices\BUCClient.c
                   __pa_8   0x00cfce    program     static C:\pavan\1+1RCUTx\1-1-RCU-T-NewArch_svn_web_changes\AgilisDevices\BUCClient.c
                   __pa_9   0x00cfe0    program     static C:\pavan\1+1RCUTx\1-1-RCU-T-NewArch_svn_web_changes\AgilisDevices\BUCClient.c
                  __pa_10   0x00d008    program     static C:\pavan\1+1RCUTx\1-1-RCU-T-NewArch_svn_web_changes\AgilisDevices\BUCClient.c
                  __pa_11   0x00d016    program     static C:\pavan\1+1RCUTx\1-1-RCU-T-NewArch_svn_web_changes\AgilisDevices\BUCClient.c
                  __pa_12   0x00d02c    program     static C:\pavan\1+1RCUTx\1-1-RCU-T-NewArch_svn_web_changes\AgilisDevices\BUCClient.c
              __tmplbl_38   0x00d03e    program     static                          
                  __pa_13   0x00d03e    program     static C:\pavan\1+1RCUTx\1-1-RCU-T-NewArch_svn_web_changes\AgilisDevices\BUCClient.c
                  __pa_14   0x00d04a    program     static C:\pavan\1+1RCUTx\1-1-RCU-T-NewArch_svn_web_changes\AgilisDevices\BUCClient.c
                  __pa_15   0x00d054    program     static C:\pavan\1+1RCUTx\1-1-RCU-T-NewArch_svn_web_changes\AgilisDevices\BUCClient.c
                  __pa_16   0x00d06e    program     static C:\pavan\1+1RCUTx\1-1-RCU-T-NewArch_svn_web_changes\AgilisDevices\BUCClient.c
                  __pa_17   0x00d078    program     static C:\pavan\1+1RCUTx\1-1-RCU-T-NewArch_svn_web_changes\AgilisDevices\BUCClient.c
                  __pa_18   0x00d0a2    program     static C:\pavan\1+1RCUTx\1-1-RCU-T-NewArch_svn_web_changes\AgilisDevices\BUCClient.c
                  __pa_19   0x00d0b4    program     static C:\pavan\1+1RCUTx\1-1-RCU-T-NewArch_svn_web_changes\AgilisDevices\BUCClient.c
                  __pa_20   0x00d0bc    program     static C:\pavan\1+1RCUTx\1-1-RCU-T-NewArch_svn_web_changes\AgilisDevices\BUCClient.c
                  __pa_21   0x00d0c6    program     static C:\pavan\1+1RCUTx\1-1-RCU-T-NewArch_svn_web_changes\AgilisDevices\BUCClient.c
                  __pa_22   0x00d0ea    program     static C:\pavan\1+1RCUTx\1-1-RCU-T-NewArch_svn_web_changes\AgilisDevices\BUCClient.c
                  __pa_23   0x00d0f6    program     static C:\pavan\1+1RCUTx\1-1-RCU-T-NewArch_svn_web_changes\AgilisDevices\BUCClient.c
                  __pa_24   0x00d0fe    program     static C:\pavan\1+1RCUTx\1-1-RCU-T-NewArch_svn_web_changes\AgilisDevices\BUCClient.c
                  __pa_25   0x00d118    program     static C:\pavan\1+1RCUTx\1-1-RCU-T-NewArch_svn_web_changes\AgilisDevices\BUCClient.c
                  __pa_26   0x00d122    program     static C:\pavan\1+1RCUTx\1-1-RCU-T-NewArch_svn_web_changes\AgilisDevices\BUCClient.c
                  __pa_27   0x00d12a    program     static C:\pavan\1+1RCUTx\1-1-RCU-T-NewArch_svn_web_changes\AgilisDevices\BUCClient.c
                  __pa_28   0x00d136    program     static C:\pavan\1+1RCUTx\1-1-RCU-T-NewArch_svn_web_changes\AgilisDevices\BUCClient.c
                  __pa_29   0x00d14c    program     static C:\pavan\1+1RCUTx\1-1-RCU-T-NewArch_svn_web_changes\AgilisDevices\BUCClient.c
                  __pa_30   0x00d15c    program     static C:\pavan\1+1RCUTx\1-1-RCU-T-NewArch_svn_web_changes\AgilisDevices\BUCClient.c
                  __pa_31   0x00d166    program     static C:\pavan\1+1RCUTx\1-1-RCU-T-NewArch_svn_web_changes\AgilisDevices\BUCClient.c
                  __pa_32   0x00d170    program     static C:\pavan\1+1RCUTx\1-1-RCU-T-NewArch_svn_web_changes\AgilisDevices\BUCClient.c
                  __pa_33   0x00d17a    program     static C:\pavan\1+1RCUTx\1-1-RCU-T-NewArch_svn_web_changes\AgilisDevices\BUCClient.c
                  __pa_34   0x00d182    program     static C:\pavan\1+1RCUTx\1-1-RCU-T-NewArch_svn_web_changes\AgilisDevices\BUCClient.c
                  __pa_35   0x00d194    program     static C:\pavan\1+1RCUTx\1-1-RCU-T-NewArch_svn_web_changes\AgilisDevices\BUCClient.c
                  __pa_36   0x00d19e    program     static C:\pavan\1+1RCUTx\1-1-RCU-T-NewArch_svn_web_changes\AgilisDevices\BUCClient.c
                  __pa_37   0x00d1a8    program     static C:\pavan\1+1RCUTx\1-1-RCU-T-NewArch_svn_web_changes\AgilisDevices\BUCClient.c
                  __pa_38   0x00d1b2    program     static C:\pavan\1+1RCUTx\1-1-RCU-T-NewArch_svn_web_changes\AgilisDevices\BUCClient.c
                  __pa_39   0x00d1c0    program     static C:\pavan\1+1RCUTx\1-1-RCU-T-NewArch_svn_web_changes\AgilisDevices\BUCClient.c
                  __pa_40   0x00d1ce    program     static C:\pavan\1+1RCUTx\1-1-RCU-T-NewArch_svn_web_changes\AgilisDevices\BUCClient.c
                  __pa_41   0x00d1dc    program     static C:\pavan\1+1RCUTx\1-1-RCU-T-NewArch_svn_web_changes\AgilisDevices\BUCClient.c
                  __pa_42   0x00d1e2    program     static C:\pavan\1+1RCUTx\1-1-RCU-T-NewArch_svn_web_changes\AgilisDevices\BUCClient.c
                  __pa_43   0x00d1ec    program     static C:\pavan\1+1RCUTx\1-1-RCU-T-NewArch_svn_web_changes\AgilisDevices\BUCClient.c
                  __pa_44   0x00d1f2    program     static C:\pavan\1+1RCUTx\1-1-RCU-T-NewArch_svn_web_changes\AgilisDevices\BUCClient.c
                  __pa_45   0x00d1fa    program     static C:\pavan\1+1RCUTx\1-1-RCU-T-NewArch_svn_web_changes\AgilisDevices\BUCClient.c
                  __pa_46   0x00d202    program     static C:\pavan\1+1RCUTx\1-1-RCU-T-NewArch_svn_web_changes\AgilisDevices\BUCClient.c
                  __pa_47   0x00d208    program     static C:\pavan\1+1RCUTx\1-1-RCU-T-NewArch_svn_web_changes\AgilisDevices\BUCClient.c
                  __pa_48   0x00d210    program     static C:\pavan\1+1RCUTx\1-1-RCU-T-NewArch_svn_web_changes\AgilisDevices\BUCClient.c
                  __pa_49   0x00d218    program     static C:\pavan\1+1RCUTx\1-1-RCU-T-NewArch_svn_web_changes\AgilisDevices\BUCClient.c
                  __pa_50   0x00d220    program     static C:\pavan\1+1RCUTx\1-1-RCU-T-NewArch_svn_web_changes\AgilisDevices\BUCClient.c
                  __pa_51   0x00d228    program     static C:\pavan\1+1RCUTx\1-1-RCU-T-NewArch_svn_web_changes\AgilisDevices\BUCClient.c
                  __pa_52   0x00d23e    program     static C:\pavan\1+1RCUTx\1-1-RCU-T-NewArch_svn_web_changes\AgilisDevices\BUCClient.c
                  __pa_53   0x00d246    program     static C:\pavan\1+1RCUTx\1-1-RCU-T-NewArch_svn_web_changes\AgilisDevices\BUCClient.c
                  __pa_54   0x00d26e    program     static C:\pavan\1+1RCUTx\1-1-RCU-T-NewArch_svn_web_changes\AgilisDevices\BUCClient.c
                  __pa_55   0x00d274    program     static C:\pavan\1+1RCUTx\1-1-RCU-T-NewArch_svn_web_changes\AgilisDevices\BUCClient.c
                  __pa_56   0x00d27c    program     static C:\pavan\1+1RCUTx\1-1-RCU-T-NewArch_svn_web_changes\AgilisDevices\BUCClient.c
                  __pa_57   0x00d284    program     static C:\pavan\1+1RCUTx\1-1-RCU-T-NewArch_svn_web_changes\AgilisDevices\BUCClient.c
                  __pa_58   0x00d29c    program     static C:\pavan\1+1RCUTx\1-1-RCU-T-NewArch_svn_web_changes\AgilisDevices\BUCClient.c
                  __pa_59   0x00d2a4    program     static C:\pavan\1+1RCUTx\1-1-RCU-T-NewArch_svn_web_changes\AgilisDevices\BUCClient.c
                  __pa_60   0x00d2ac    program     static C:\pavan\1+1RCUTx\1-1-RCU-T-NewArch_svn_web_changes\AgilisDevices\BUCClient.c
                  __pa_61   0x00d2b2    program     static C:\pavan\1+1RCUTx\1-1-RCU-T-NewArch_svn_web_changes\AgilisDevices\BUCClient.c
                  __pa_62   0x00d2bc    program     static C:\pavan\1+1RCUTx\1-1-RCU-T-NewArch_svn_web_changes\AgilisDevices\BUCClient.c
                  __pa_63   0x00d2c2    program     static C:\pavan\1+1RCUTx\1-1-RCU-T-NewArch_svn_web_changes\AgilisDevices\BUCClient.c
                  __pa_64   0x00d2c8    program     static C:\pavan\1+1RCUTx\1-1-RCU-T-NewArch_svn_web_changes\AgilisDevices\BUCClient.c
                  __pa_65   0x00d2d0    program     static C:\pavan\1+1RCUTx\1-1-RCU-T-NewArch_svn_web_changes\AgilisDevices\BUCClient.c
                  __pa_66   0x00d2dc    program     static C:\pavan\1+1RCUTx\1-1-RCU-T-NewArch_svn_web_changes\AgilisDevices\BUCClient.c
                  __pa_67   0x00d2e4    program     static C:\pavan\1+1RCUTx\1-1-RCU-T-NewArch_svn_web_changes\AgilisDevices\BUCClient.c
                  __pa_68   0x00d2ea    program     static C:\pavan\1+1RCUTx\1-1-RCU-T-NewArch_svn_web_changes\AgilisDevices\BUCClient.c
                  __pa_69   0x00d2f0    program     static C:\pavan\1+1RCUTx\1-1-RCU-T-NewArch_svn_web_changes\AgilisDevices\BUCClient.c
                  __pa_70   0x00d2fc    program     static C:\pavan\1+1RCUTx\1-1-RCU-T-NewArch_svn_web_changes\AgilisDevices\BUCClient.c
                  __pa_71   0x00d308    program     static C:\pavan\1+1RCUTx\1-1-RCU-T-NewArch_svn_web_changes\AgilisDevices\BUCClient.c
                  __pa_72   0x00d312    program     static C:\pavan\1+1RCUTx\1-1-RCU-T-NewArch_svn_web_changes\AgilisDevices\BUCClient.c
                  __pa_73   0x00d31c    program     static C:\pavan\1+1RCUTx\1-1-RCU-T-NewArch_svn_web_changes\AgilisDevices\BUCClient.c
                  __pa_74   0x00d322    program     static C:\pavan\1+1RCUTx\1-1-RCU-T-NewArch_svn_web_changes\AgilisDevices\BUCClient.c
                  __pa_75   0x00d330    program     static C:\pavan\1+1RCUTx\1-1-RCU-T-NewArch_svn_web_changes\AgilisDevices\BUCClient.c
                  __pa_76   0x00d340    program     static C:\pavan\1+1RCUTx\1-1-RCU-T-NewArch_svn_web_changes\AgilisDevices\BUCClient.c
                  __pa_77   0x00d346    program     static C:\pavan\1+1RCUTx\1-1-RCU-T-NewArch_svn_web_changes\AgilisDevices\BUCClient.c
                  __pa_78   0x00d354    program     static C:\pavan\1+1RCUTx\1-1-RCU-T-NewArch_svn_web_changes\AgilisDevices\BUCClient.c
                  __pa_79   0x00d35a    program     static C:\pavan\1+1RCUTx\1-1-RCU-T-NewArch_svn_web_changes\AgilisDevices\BUCClient.c
                  __pa_80   0x00d360    program     static C:\pavan\1+1RCUTx\1-1-RCU-T-NewArch_svn_web_changes\AgilisDevices\BUCClient.c
                  __pa_81   0x00d368    program     static C:\pavan\1+1RCUTx\1-1-RCU-T-NewArch_svn_web_changes\AgilisDevices\BUCClient.c
                  __pa_82   0x00d36e    program     static C:\pavan\1+1RCUTx\1-1-RCU-T-NewArch_svn_web_changes\AgilisDevices\BUCClient.c
                  __pa_83   0x00d374    program     static C:\pavan\1+1RCUTx\1-1-RCU-T-NewArch_svn_web_changes\AgilisDevices\BUCClient.c
                  __pa_84   0x00d37a    program     static C:\pavan\1+1RCUTx\1-1-RCU-T-NewArch_svn_web_changes\AgilisDevices\BUCClient.c
                  __pa_85   0x00d380    program     static C:\pavan\1+1RCUTx\1-1-RCU-T-NewArch_svn_web_changes\AgilisDevices\BUCClient.c
                  __pa_86   0x00d386    program     static C:\pavan\1+1RCUTx\1-1-RCU-T-NewArch_svn_web_changes\AgilisDevices\BUCClient.c
                  __pa_87   0x00d390    program     static C:\pavan\1+1RCUTx\1-1-RCU-T-NewArch_svn_web_changes\AgilisDevices\BUCClient.c
                  __pa_88   0x00d396    program     static C:\pavan\1+1RCUTx\1-1-RCU-T-NewArch_svn_web_changes\AgilisDevices\BUCClient.c
                  __pa_89   0x00d3a0    program     static C:\pavan\1+1RCUTx\1-1-RCU-T-NewArch_svn_web_changes\AgilisDevices\BUCClient.c
                  __pa_90   0x00d3a8    program     static C:\pavan\1+1RCUTx\1-1-RCU-T-NewArch_svn_web_changes\AgilisDevices\BUCClient.c
                  __pa_91   0x00d3ae    program     static C:\pavan\1+1RCUTx\1-1-RCU-T-NewArch_svn_web_changes\AgilisDevices\BUCClient.c
                  __pa_92   0x00d3b6    program     static C:\pavan\1+1RCUTx\1-1-RCU-T-NewArch_svn_web_changes\AgilisDevices\BUCClient.c
                  __pa_93   0x00d3c0    program     static C:\pavan\1+1RCUTx\1-1-RCU-T-NewArch_svn_web_changes\AgilisDevices\BUCClient.c
                  __pa_94   0x00d3c8    program     static C:\pavan\1+1RCUTx\1-1-RCU-T-NewArch_svn_web_changes\AgilisDevices\BUCClient.c
                  __pa_95   0x00d3d0    program     static C:\pavan\1+1RCUTx\1-1-RCU-T-NewArch_svn_web_changes\AgilisDevices\BUCClient.c
                  __pa_96   0x00d3d6    program     static C:\pavan\1+1RCUTx\1-1-RCU-T-NewArch_svn_web_changes\AgilisDevices\BUCClient.c
                  __pa_97   0x00d3e0    program     static C:\pavan\1+1RCUTx\1-1-RCU-T-NewArch_svn_web_changes\AgilisDevices\BUCClient.c
                  __pa_98   0x00d3f2    program     static C:\pavan\1+1RCUTx\1-1-RCU-T-NewArch_svn_web_changes\AgilisDevices\BUCClient.c
                  __pa_99   0x00d3f8    program     static C:\pavan\1+1RCUTx\1-1-RCU-T-NewArch_svn_web_changes\AgilisDevices\BUCClient.c
                 __pa_100   0x00d400    program     static C:\pavan\1+1RCUTx\1-1-RCU-T-NewArch_svn_web_changes\AgilisDevices\BUCClient.c
                 __pa_101   0x00d408    program     static C:\pavan\1+1RCUTx\1-1-RCU-T-NewArch_svn_web_changes\AgilisDevices\BUCClient.c
                 __pa_102   0x00d410    program     static C:\pavan\1+1RCUTx\1-1-RCU-T-NewArch_svn_web_changes\AgilisDevices\BUCClient.c
                 __pa_103   0x00d416    program     static C:\pavan\1+1RCUTx\1-1-RCU-T-NewArch_svn_web_changes\AgilisDevices\BUCClient.c
                 __pa_104   0x00d41c    program     static C:\pavan\1+1RCUTx\1-1-RCU-T-NewArch_svn_web_changes\AgilisDevices\BUCClient.c
                 __pa_105   0x00d426    program     static C:\pavan\1+1RCUTx\1-1-RCU-T-NewArch_svn_web_changes\AgilisDevices\BUCClient.c
                 __pa_106   0x00d42c    program     static C:\pavan\1+1RCUTx\1-1-RCU-T-NewArch_svn_web_changes\AgilisDevices\BUCClient.c
                 __pa_107   0x00d432    program     static C:\pavan\1+1RCUTx\1-1-RCU-T-NewArch_svn_web_changes\AgilisDevices\BUCClient.c
                 __pa_108   0x00d438    program     static C:\pavan\1+1RCUTx\1-1-RCU-T-NewArch_svn_web_changes\AgilisDevices\BUCClient.c
                 __pa_109   0x00d43e    program     static C:\pavan\1+1RCUTx\1-1-RCU-T-NewArch_svn_web_changes\AgilisDevices\BUCClient.c
                 __pa_110   0x00d44a    program     static C:\pavan\1+1RCUTx\1-1-RCU-T-NewArch_svn_web_changes\AgilisDevices\BUCClient.c
                 __pa_111   0x00d450    program     static C:\pavan\1+1RCUTx\1-1-RCU-T-NewArch_svn_web_changes\AgilisDevices\BUCClient.c
                 __pa_112   0x00d458    program     static C:\pavan\1+1RCUTx\1-1-RCU-T-NewArch_svn_web_changes\AgilisDevices\BUCClient.c
                 __pa_113   0x00d460    program     static C:\pavan\1+1RCUTx\1-1-RCU-T-NewArch_svn_web_changes\AgilisDevices\BUCClient.c
                 __pa_114   0x00d46a    program     static C:\pavan\1+1RCUTx\1-1-RCU-T-NewArch_svn_web_changes\AgilisDevices\BUCClient.c
                 __pa_115   0x00d470    program     static C:\pavan\1+1RCUTx\1-1-RCU-T-NewArch_svn_web_changes\AgilisDevices\BUCClient.c
                 __pa_116   0x00d476    program     static C:\pavan\1+1RCUTx\1-1-RCU-T-NewArch_svn_web_changes\AgilisDevices\BUCClient.c
                 __pa_117   0x00d47e    program     static C:\pavan\1+1RCUTx\1-1-RCU-T-NewArch_svn_web_changes\AgilisDevices\BUCClient.c
                 __pa_118   0x00d484    program     static C:\pavan\1+1RCUTx\1-1-RCU-T-NewArch_svn_web_changes\AgilisDevices\BUCClient.c
                 __pa_119   0x00d48c    program     static C:\pavan\1+1RCUTx\1-1-RCU-T-NewArch_svn_web_changes\AgilisDevices\BUCClient.c
         SendNotification   0x00d492    program     static C:\pavan\1+1RCUTx\1-1-RCU-T-NewArch_svn_web_changes\App\SNMP\AgilisSNMPApp.c
           SNMPV2TrapDemo   0x00d546    program     extern C:\pavan\1+1RCUTx\1-1-RCU-T-NewArch_svn_web_changes\App\SNMP\AgilisSNMPApp.c
           snmp_trap_task   0x00d620    program     extern C:\pavan\1+1RCUTx\1-1-RCU-T-NewArch_svn_web_changes\App\SNMP\AgilisSNMPApp.c
    SNMPValidateCommunity   0x00da74    program     extern C:\pavan\1+1RCUTx\1-1-RCU-T-NewArch_svn_web_changes\App\SNMP\AgilisSNMPApp.c
        SNMPIsValidSetLen   0x00db20    program     extern C:\pavan\1+1RCUTx\1-1-RCU-T-NewArch_svn_web_changes\App\SNMP\AgilisSNMPApp.c
               SNMPSetVar   0x00dbc4    program     extern C:\pavan\1+1RCUTx\1-1-RCU-T-NewArch_svn_web_changes\App\SNMP\AgilisSNMPApp.c
        SNMPGetExactIndex   0x00dd3c    program     extern C:\pavan\1+1RCUTx\1-1-RCU-T-NewArch_svn_web_changes\App\SNMP\AgilisSNMPApp.c
         SNMPGetNextIndex   0x00dd72    program     extern C:\pavan\1+1RCUTx\1-1-RCU-T-NewArch_svn_web_changes\App\SNMP\AgilisSNMPApp.c
    SNMPIdRecrdValidation   0x00ddea    program     extern C:\pavan\1+1RCUTx\1-1-RCU-T-NewArch_svn_web_changes\App\SNMP\AgilisSNMPApp.c
               SNMPGetVar   0x00e028    program     extern C:\pavan\1+1RCUTx\1-1-RCU-T-NewArch_svn_web_changes\App\SNMP\AgilisSNMPApp.c
         SNMPGetTimeStamp   0x00e28e    program     static C:\pavan\1+1RCUTx\1-1-RCU-T-NewArch_svn_web_changes\App\SNMP\AgilisSNMPApp.c
                   __pa_0   0x00e47a    program     static C:\pavan\1+1RCUTx\1-1-RCU-T-NewArch_svn_web_changes\App\SNMP\AgilisSNMPApp.c
                   __pa_1   0x00e496    program     static C:\pavan\1+1RCUTx\1-1-RCU-T-NewArch_svn_web_changes\App\SNMP\AgilisSNMPApp.c
                   __pa_2   0x00e49e    program     static C:\pavan\1+1RCUTx\1-1-RCU-T-NewArch_svn_web_changes\App\SNMP\AgilisSNMPApp.c
                   __pa_3   0x00e4aa    program     static C:\pavan\1+1RCUTx\1-1-RCU-T-NewArch_svn_web_changes\App\SNMP\AgilisSNMPApp.c
                   __pa_4   0x00e4ba    program     static C:\pavan\1+1RCUTx\1-1-RCU-T-NewArch_svn_web_changes\App\SNMP\AgilisSNMPApp.c
             __tmplbl_131   0x00e4cc    program     static                          
             __tmplbl_129   0x00e4cc    program     static                          
                   __pa_5   0x00e4cc    program     static C:\pavan\1+1RCUTx\1-1-RCU-T-NewArch_svn_web_changes\App\SNMP\AgilisSNMPApp.c
             __tmplbl_123   0x00e4cc    program     static                          
                   __pa_6   0x00e4d8    program     static C:\pavan\1+1RCUTx\1-1-RCU-T-NewArch_svn_web_changes\App\SNMP\AgilisSNMPApp.c
                   __pa_7   0x00e4e8    program     static C:\pavan\1+1RCUTx\1-1-RCU-T-NewArch_svn_web_changes\App\SNMP\AgilisSNMPApp.c
                   __pa_8   0x00e4f6    program     static C:\pavan\1+1RCUTx\1-1-RCU-T-NewArch_svn_web_changes\App\SNMP\AgilisSNMPApp.c
                   __pa_9   0x00e50c    program     static C:\pavan\1+1RCUTx\1-1-RCU-T-NewArch_svn_web_changes\App\SNMP\AgilisSNMPApp.c
                  __pa_10   0x00e52c    program     static C:\pavan\1+1RCUTx\1-1-RCU-T-NewArch_svn_web_changes\App\SNMP\AgilisSNMPApp.c
                  __pa_11   0x00e534    program     static C:\pavan\1+1RCUTx\1-1-RCU-T-NewArch_svn_web_changes\App\SNMP\AgilisSNMPApp.c
                  __pa_12   0x00e554    program     static C:\pavan\1+1RCUTx\1-1-RCU-T-NewArch_svn_web_changes\App\SNMP\AgilisSNMPApp.c
                  __pa_13   0x00e55e    program     static C:\pavan\1+1RCUTx\1-1-RCU-T-NewArch_svn_web_changes\App\SNMP\AgilisSNMPApp.c
                  __pa_14   0x00e568    program     static C:\pavan\1+1RCUTx\1-1-RCU-T-NewArch_svn_web_changes\App\SNMP\AgilisSNMPApp.c
                  __pa_15   0x00e582    program     static C:\pavan\1+1RCUTx\1-1-RCU-T-NewArch_svn_web_changes\App\SNMP\AgilisSNMPApp.c
                  __pa_16   0x00e5a0    program     static C:\pavan\1+1RCUTx\1-1-RCU-T-NewArch_svn_web_changes\App\SNMP\AgilisSNMPApp.c
                  __pa_17   0x00e5a6    program     static C:\pavan\1+1RCUTx\1-1-RCU-T-NewArch_svn_web_changes\App\SNMP\AgilisSNMPApp.c
                  __pa_18   0x00e5b8    program     static C:\pavan\1+1RCUTx\1-1-RCU-T-NewArch_svn_web_changes\App\SNMP\AgilisSNMPApp.c
                  __pa_19   0x00e5c6    program     static C:\pavan\1+1RCUTx\1-1-RCU-T-NewArch_svn_web_changes\App\SNMP\AgilisSNMPApp.c
                  __pa_20   0x00e5d4    program     static C:\pavan\1+1RCUTx\1-1-RCU-T-NewArch_svn_web_changes\App\SNMP\AgilisSNMPApp.c
                  __pa_21   0x00e5e2    program     static C:\pavan\1+1RCUTx\1-1-RCU-T-NewArch_svn_web_changes\App\SNMP\AgilisSNMPApp.c
                  __pa_22   0x00e5ea    program     static C:\pavan\1+1RCUTx\1-1-RCU-T-NewArch_svn_web_changes\App\SNMP\AgilisSNMPApp.c
                  __pa_23   0x00e5fe    program     static C:\pavan\1+1RCUTx\1-1-RCU-T-NewArch_svn_web_changes\App\SNMP\AgilisSNMPApp.c
                  __pa_24   0x00e610    program     static C:\pavan\1+1RCUTx\1-1-RCU-T-NewArch_svn_web_changes\App\SNMP\AgilisSNMPApp.c
                  __pa_25   0x00e622    program     static C:\pavan\1+1RCUTx\1-1-RCU-T-NewArch_svn_web_changes\App\SNMP\AgilisSNMPApp.c
                  __pa_26   0x00e62e    program     static C:\pavan\1+1RCUTx\1-1-RCU-T-NewArch_svn_web_changes\App\SNMP\AgilisSNMPApp.c
                  __pa_27   0x00e634    program     static C:\pavan\1+1RCUTx\1-1-RCU-T-NewArch_svn_web_changes\App\SNMP\AgilisSNMPApp.c
                  __pa_28   0x00e63e    program     static C:\pavan\1+1RCUTx\1-1-RCU-T-NewArch_svn_web_changes\App\SNMP\AgilisSNMPApp.c
                  __pa_29   0x00e64e    program     static C:\pavan\1+1RCUTx\1-1-RCU-T-NewArch_svn_web_changes\App\SNMP\AgilisSNMPApp.c
                  __pa_30   0x00e65e    program     static C:\pavan\1+1RCUTx\1-1-RCU-T-NewArch_svn_web_changes\App\SNMP\AgilisSNMPApp.c
                  __pa_31   0x00e66e    program     static C:\pavan\1+1RCUTx\1-1-RCU-T-NewArch_svn_web_changes\App\SNMP\AgilisSNMPApp.c
                  __pa_32   0x00e67c    program     static C:\pavan\1+1RCUTx\1-1-RCU-T-NewArch_svn_web_changes\App\SNMP\AgilisSNMPApp.c
                  __pa_33   0x00e68a    program     static C:\pavan\1+1RCUTx\1-1-RCU-T-NewArch_svn_web_changes\App\SNMP\AgilisSNMPApp.c
                  __pa_34   0x00e698    program     static C:\pavan\1+1RCUTx\1-1-RCU-T-NewArch_svn_web_changes\App\SNMP\AgilisSNMPApp.c
                  __pa_35   0x00e6a6    program     static C:\pavan\1+1RCUTx\1-1-RCU-T-NewArch_svn_web_changes\App\SNMP\AgilisSNMPApp.c
                  __pa_36   0x00e6ae    program     static C:\pavan\1+1RCUTx\1-1-RCU-T-NewArch_svn_web_changes\App\SNMP\AgilisSNMPApp.c
                  __pa_37   0x00e6bc    program     static C:\pavan\1+1RCUTx\1-1-RCU-T-NewArch_svn_web_changes\App\SNMP\AgilisSNMPApp.c
                  __pa_38   0x00e6ca    program     static C:\pavan\1+1RCUTx\1-1-RCU-T-NewArch_svn_web_changes\App\SNMP\AgilisSNMPApp.c
                  __pa_39   0x00e6d2    program     static C:\pavan\1+1RCUTx\1-1-RCU-T-NewArch_svn_web_changes\App\SNMP\AgilisSNMPApp.c
                  __pa_40   0x00e6e0    program     static C:\pavan\1+1RCUTx\1-1-RCU-T-NewArch_svn_web_changes\App\SNMP\AgilisSNMPApp.c
                  __pa_41   0x00e6f8    program     static C:\pavan\1+1RCUTx\1-1-RCU-T-NewArch_svn_web_changes\App\SNMP\AgilisSNMPApp.c
                  __pa_42   0x00e710    program     static C:\pavan\1+1RCUTx\1-1-RCU-T-NewArch_svn_web_changes\App\SNMP\AgilisSNMPApp.c
                  __pa_43   0x00e726    program     static C:\pavan\1+1RCUTx\1-1-RCU-T-NewArch_svn_web_changes\App\SNMP\AgilisSNMPApp.c
                  __pa_44   0x00e72e    program     static C:\pavan\1+1RCUTx\1-1-RCU-T-NewArch_svn_web_changes\App\SNMP\AgilisSNMPApp.c
                  __pa_45   0x00e736    program     static C:\pavan\1+1RCUTx\1-1-RCU-T-NewArch_svn_web_changes\App\SNMP\AgilisSNMPApp.c
                  __pa_46   0x00e744    program     static C:\pavan\1+1RCUTx\1-1-RCU-T-NewArch_svn_web_changes\App\SNMP\AgilisSNMPApp.c
                  __pa_47   0x00e756    program     static C:\pavan\1+1RCUTx\1-1-RCU-T-NewArch_svn_web_changes\App\SNMP\AgilisSNMPApp.c
                  __pa_48   0x00e768    program     static C:\pavan\1+1RCUTx\1-1-RCU-T-NewArch_svn_web_changes\App\SNMP\AgilisSNMPApp.c
                  __pa_49   0x00e772    program     static C:\pavan\1+1RCUTx\1-1-RCU-T-NewArch_svn_web_changes\App\SNMP\AgilisSNMPApp.c
                  __pa_50   0x00e77c    program     static C:\pavan\1+1RCUTx\1-1-RCU-T-NewArch_svn_web_changes\App\SNMP\AgilisSNMPApp.c
                  __pa_51   0x00e784    program     static C:\pavan\1+1RCUTx\1-1-RCU-T-NewArch_svn_web_changes\App\SNMP\AgilisSNMPApp.c
                  __pa_52   0x00e792    program     static C:\pavan\1+1RCUTx\1-1-RCU-T-NewArch_svn_web_changes\App\SNMP\AgilisSNMPApp.c
             __tmplbl_124   0x00e792    program     static                          
             __tmplbl_130   0x00e792    program     static                          
                  __pa_53   0x00e79a    program     static C:\pavan\1+1RCUTx\1-1-RCU-T-NewArch_svn_web_changes\App\SNMP\AgilisSNMPApp.c
                  __pa_54   0x00e7a2    program     static C:\pavan\1+1RCUTx\1-1-RCU-T-NewArch_svn_web_changes\App\SNMP\AgilisSNMPApp.c
                  __pa_55   0x00e7a8    program     static C:\pavan\1+1RCUTx\1-1-RCU-T-NewArch_svn_web_changes\App\SNMP\AgilisSNMPApp.c
                  __pa_56   0x00e7b0    program     static C:\pavan\1+1RCUTx\1-1-RCU-T-NewArch_svn_web_changes\App\SNMP\AgilisSNMPApp.c
                  __pa_57   0x00e7c0    program     static C:\pavan\1+1RCUTx\1-1-RCU-T-NewArch_svn_web_changes\App\SNMP\AgilisSNMPApp.c
                uart0init   0x00e7ca    program     extern C:\pavan\1+1RCUTx\1-1-RCU-T-NewArch_svn_web_changes\Drivers\UARTISR.c
                uart1init   0x00e840    program     extern C:\pavan\1+1RCUTx\1-1-RCU-T-NewArch_svn_web_changes\Drivers\UARTISR.c
                uart2init   0x00e8ac    program     extern C:\pavan\1+1RCUTx\1-1-RCU-T-NewArch_svn_web_changes\Drivers\UARTISR.c
         ___else_lbl00017   0x00e8e2    program     static                          
         ___else_lbl00015   0x00e8ee    program     static                          
           ___if_lbl00013   0x00e8f8    program     static                          
           ___if_lbl00014   0x00e8f8    program     static                          
           ___if_lbl00016   0x00e8f8    program     static                          
       ___return_lbl00012   0x00e974    program     static                          
                uart3init   0x00e980    program     extern C:\pavan\1+1RCUTx\1-1-RCU-T-NewArch_svn_web_changes\Drivers\UARTISR.c
         ___else_lbl00023   0x00e9b6    program     static                          
         ___else_lbl00021   0x00e9c2    program     static                          
           ___if_lbl00022   0x00e9cc    program     static                          
           ___if_lbl00020   0x00e9cc    program     static                          
           ___if_lbl00019   0x00e9cc    program     static                          
       ___return_lbl00018   0x00ea4a    program     static                          
                uart4init   0x00ea56    program     extern C:\pavan\1+1RCUTx\1-1-RCU-T-NewArch_svn_web_changes\Drivers\UARTISR.c
         ___else_lbl00029   0x00ea8c    program     static                          
         ___else_lbl00027   0x00ea98    program     static                          
           ___if_lbl00025   0x00eaa2    program     static                          
           ___if_lbl00026   0x00eaa2    program     static                          
           ___if_lbl00028   0x00eaa2    program     static                          
       ___return_lbl00024   0x00eb20    program     static                          
                InitFifo0   0x00eb2c    program     extern C:\pavan\1+1RCUTx\1-1-RCU-T-NewArch_svn_web_changes\Drivers\UARTISR.c
                InitFifo1   0x00eb62    program     extern C:\pavan\1+1RCUTx\1-1-RCU-T-NewArch_svn_web_changes\Drivers\UARTISR.c
                InitFifo2   0x00eb98    program     extern C:\pavan\1+1RCUTx\1-1-RCU-T-NewArch_svn_web_changes\Drivers\UARTISR.c
                InitFifo3   0x00ebce    program     extern C:\pavan\1+1RCUTx\1-1-RCU-T-NewArch_svn_web_changes\Drivers\UARTISR.c
                InitFifo4   0x00ec04    program     extern C:\pavan\1+1RCUTx\1-1-RCU-T-NewArch_svn_web_changes\Drivers\UARTISR.c
                 UARTISR0   0x00ec3a    program     extern C:\pavan\1+1RCUTx\1-1-RCU-T-NewArch_svn_web_changes\Drivers\UARTISR.c
                 UARTISR1   0x00ecbe    program     extern C:\pavan\1+1RCUTx\1-1-RCU-T-NewArch_svn_web_changes\Drivers\UARTISR.c
                 UARTISR2   0x00ed42    program     extern C:\pavan\1+1RCUTx\1-1-RCU-T-NewArch_svn_web_changes\Drivers\UARTISR.c
                 UARTISR3   0x00ee26    program     extern C:\pavan\1+1RCUTx\1-1-RCU-T-NewArch_svn_web_changes\Drivers\UARTISR.c
                 UARTISR4   0x00ef04    program     extern C:\pavan\1+1RCUTx\1-1-RCU-T-NewArch_svn_web_changes\Drivers\UARTISR.c
               UART0write   0x00efe0    program     extern C:\pavan\1+1RCUTx\1-1-RCU-T-NewArch_svn_web_changes\Drivers\UARTISR.c
               UART1write   0x00effe    program     extern C:\pavan\1+1RCUTx\1-1-RCU-T-NewArch_svn_web_changes\Drivers\UARTISR.c
               UART2write   0x00f030    program     extern C:\pavan\1+1RCUTx\1-1-RCU-T-NewArch_svn_web_changes\Drivers\UARTISR.c
           ___if_lbl00122   0x00f050    program     static                          
        ___while_lbl00123   0x00f074    program     static                          
              __tmplbl_13   0x00f084    program     static                          
              __tmplbl_12   0x00f09c    program     static                          
        ___while_lbl00126   0x00f0ca    program     static                          
              __tmplbl_15   0x00f0d0    program     static                          
              __tmplbl_14   0x00f0de    program     static                          
        ___while_lbl00127   0x00f0ea    program     static                          
        ___while_lbl00124   0x00f0ec    program     static                          
           ___if_lbl00129   0x00f118    program     static                          
       ___return_lbl00121   0x00f12a    program     static                          
           ___if_lbl00130   0x00f12a    program     static                          
               UART3write   0x00f142    program     extern C:\pavan\1+1RCUTx\1-1-RCU-T-NewArch_svn_web_changes\Drivers\UARTISR.c
           ___if_lbl00132   0x00f162    program     static                          
        ___while_lbl00133   0x00f186    program     static                          
              __tmplbl_17   0x00f196    program     static                          
              __tmplbl_16   0x00f1ae    program     static                          
        ___while_lbl00136   0x00f1e0    program     static                          
              __tmplbl_19   0x00f1e6    program     static                          
              __tmplbl_18   0x00f1f4    program     static                          
        ___while_lbl00137   0x00f200    program     static                          
        ___while_lbl00134   0x00f202    program     static                          
           ___if_lbl00139   0x00f22e    program     static                          
           ___if_lbl00140   0x00f240    program     static                          
       ___return_lbl00131   0x00f240    program     static                          
               UART4write   0x00f258    program     extern C:\pavan\1+1RCUTx\1-1-RCU-T-NewArch_svn_web_changes\Drivers\UARTISR.c
           ___if_lbl00142   0x00f278    program     static                          
        ___while_lbl00143   0x00f29c    program     static                          
              __tmplbl_21   0x00f2ac    program     static                          
              __tmplbl_20   0x00f2c4    program     static                          
        ___while_lbl00146   0x00f2f6    program     static                          
              __tmplbl_23   0x00f2fc    program     static                          
              __tmplbl_22   0x00f30a    program     static                          
        ___while_lbl00147   0x00f316    program     static                          
        ___while_lbl00144   0x00f318    program     static                          
           ___if_lbl00149   0x00f344    program     static                          
       ___return_lbl00141   0x00f356    program     static                          
           ___if_lbl00150   0x00f356    program     static                          
           UARTBufferTask   0x00f36e    program     extern C:\pavan\1+1RCUTx\1-1-RCU-T-NewArch_svn_web_changes\Drivers\UARTISR.c
             Comm0Mode232   0x00f4c6    program     extern C:\pavan\1+1RCUTx\1-1-RCU-T-NewArch_svn_web_changes\Drivers\UARTISR.c
           Comm0Mode485Tx   0x00f4ce    program     extern C:\pavan\1+1RCUTx\1-1-RCU-T-NewArch_svn_web_changes\Drivers\UARTISR.c
           Comm0Mode485Rx   0x00f4da    program     extern C:\pavan\1+1RCUTx\1-1-RCU-T-NewArch_svn_web_changes\Drivers\UARTISR.c
             Comm0Mode422   0x00f4e6    program     extern C:\pavan\1+1RCUTx\1-1-RCU-T-NewArch_svn_web_changes\Drivers\UARTISR.c
           Comm1Mode422Rx   0x00f4f2    program     extern C:\pavan\1+1RCUTx\1-1-RCU-T-NewArch_svn_web_changes\Drivers\UARTISR.c
           Comm1Mode422Tx   0x00f4fc    program     extern C:\pavan\1+1RCUTx\1-1-RCU-T-NewArch_svn_web_changes\Drivers\UARTISR.c
             Comm1Mode232   0x00f50a    program     extern C:\pavan\1+1RCUTx\1-1-RCU-T-NewArch_svn_web_changes\Drivers\UARTISR.c
           Comm1Mode485Tx   0x00f518    program     extern C:\pavan\1+1RCUTx\1-1-RCU-T-NewArch_svn_web_changes\Drivers\UARTISR.c
           Comm1Mode485Rx   0x00f526    program     extern C:\pavan\1+1RCUTx\1-1-RCU-T-NewArch_svn_web_changes\Drivers\UARTISR.c
             Comm3Mode232   0x00f534    program     extern C:\pavan\1+1RCUTx\1-1-RCU-T-NewArch_svn_web_changes\Drivers\UARTISR.c
           Comm3Mode485Tx   0x00f53c    program     extern C:\pavan\1+1RCUTx\1-1-RCU-T-NewArch_svn_web_changes\Drivers\UARTISR.c
           Comm3Mode485Rx   0x00f544    program     extern C:\pavan\1+1RCUTx\1-1-RCU-T-NewArch_svn_web_changes\Drivers\UARTISR.c
             Comm2Mode232   0x00f54c    program     extern C:\pavan\1+1RCUTx\1-1-RCU-T-NewArch_svn_web_changes\Drivers\UARTISR.c
           Comm2Mode485Tx   0x00f550    program     extern C:\pavan\1+1RCUTx\1-1-RCU-T-NewArch_svn_web_changes\Drivers\UARTISR.c
           Comm2Mode485Rx   0x00f568    program     extern C:\pavan\1+1RCUTx\1-1-RCU-T-NewArch_svn_web_changes\Drivers\UARTISR.c
             Comm4Mode232   0x00f56e    program     extern C:\pavan\1+1RCUTx\1-1-RCU-T-NewArch_svn_web_changes\Drivers\UARTISR.c
           Comm4Mode485Tx   0x00f576    program     extern C:\pavan\1+1RCUTx\1-1-RCU-T-NewArch_svn_web_changes\Drivers\UARTISR.c
           Comm4Mode485Rx   0x00f57e    program     extern C:\pavan\1+1RCUTx\1-1-RCU-T-NewArch_svn_web_changes\Drivers\UARTISR.c
                   __pa_0   0x00f586    program     static C:\pavan\1+1RCUTx\1-1-RCU-T-NewArch_svn_web_changes\Drivers\UARTISR.c
                   __pa_1   0x00f598    program     static C:\pavan\1+1RCUTx\1-1-RCU-T-NewArch_svn_web_changes\Drivers\UARTISR.c
                   __pa_2   0x00f5a0    program     static C:\pavan\1+1RCUTx\1-1-RCU-T-NewArch_svn_web_changes\Drivers\UARTISR.c
                   __pa_3   0x00f5ac    program     static C:\pavan\1+1RCUTx\1-1-RCU-T-NewArch_svn_web_changes\Drivers\UARTISR.c
              __tmplbl_25   0x00f5ba    program     static                          
                   __pa_4   0x00f5ba    program     static C:\pavan\1+1RCUTx\1-1-RCU-T-NewArch_svn_web_changes\Drivers\UARTISR.c
              __tmplbl_24   0x00f5ba    program     static                          
                   __pa_5   0x00f5c6    program     static C:\pavan\1+1RCUTx\1-1-RCU-T-NewArch_svn_web_changes\Drivers\UARTISR.c
                   __pa_6   0x00f5d4    program     static C:\pavan\1+1RCUTx\1-1-RCU-T-NewArch_svn_web_changes\Drivers\UARTISR.c
                   __pa_7   0x00f5ee    program     static C:\pavan\1+1RCUTx\1-1-RCU-T-NewArch_svn_web_changes\Drivers\UARTISR.c
                   __pa_8   0x00f5f6    program     static C:\pavan\1+1RCUTx\1-1-RCU-T-NewArch_svn_web_changes\Drivers\UARTISR.c
                   __pa_9   0x00f600    program     static C:\pavan\1+1RCUTx\1-1-RCU-T-NewArch_svn_web_changes\Drivers\UARTISR.c
                  __pa_10   0x00f60c    program     static C:\pavan\1+1RCUTx\1-1-RCU-T-NewArch_svn_web_changes\Drivers\UARTISR.c
                  __pa_11   0x00f61e    program     static C:\pavan\1+1RCUTx\1-1-RCU-T-NewArch_svn_web_changes\Drivers\UARTISR.c
                  __pa_12   0x00f626    program     static C:\pavan\1+1RCUTx\1-1-RCU-T-NewArch_svn_web_changes\Drivers\UARTISR.c
                  __pa_13   0x00f634    program     static C:\pavan\1+1RCUTx\1-1-RCU-T-NewArch_svn_web_changes\Drivers\UARTISR.c
                  __pa_14   0x00f642    program     static C:\pavan\1+1RCUTx\1-1-RCU-T-NewArch_svn_web_changes\Drivers\UARTISR.c
                  __pa_15   0x00f650    program     static C:\pavan\1+1RCUTx\1-1-RCU-T-NewArch_svn_web_changes\Drivers\UARTISR.c
                  __pa_16   0x00f65a    program     static C:\pavan\1+1RCUTx\1-1-RCU-T-NewArch_svn_web_changes\Drivers\UARTISR.c
                  __pa_17   0x00f676    program     static C:\pavan\1+1RCUTx\1-1-RCU-T-NewArch_svn_web_changes\Drivers\UARTISR.c
                  __pa_18   0x00f690    program     static C:\pavan\1+1RCUTx\1-1-RCU-T-NewArch_svn_web_changes\Drivers\UARTISR.c
                  __pa_19   0x00f6a4    program     static C:\pavan\1+1RCUTx\1-1-RCU-T-NewArch_svn_web_changes\Drivers\UARTISR.c
                  __pa_20   0x00f6b2    program     static C:\pavan\1+1RCUTx\1-1-RCU-T-NewArch_svn_web_changes\Drivers\UARTISR.c
                  __pa_21   0x00f6bc    program     static C:\pavan\1+1RCUTx\1-1-RCU-T-NewArch_svn_web_changes\Drivers\UARTISR.c
                  __pa_22   0x00f6c6    program     static C:\pavan\1+1RCUTx\1-1-RCU-T-NewArch_svn_web_changes\Drivers\UARTISR.c
                  __pa_23   0x00f6d0    program     static C:\pavan\1+1RCUTx\1-1-RCU-T-NewArch_svn_web_changes\Drivers\UARTISR.c
                  __pa_24   0x00f6da    program     static C:\pavan\1+1RCUTx\1-1-RCU-T-NewArch_svn_web_changes\Drivers\UARTISR.c
                  __pa_25   0x00f6e6    program     static C:\pavan\1+1RCUTx\1-1-RCU-T-NewArch_svn_web_changes\Drivers\UARTISR.c
                  __pa_26   0x00f6f4    program     static C:\pavan\1+1RCUTx\1-1-RCU-T-NewArch_svn_web_changes\Drivers\UARTISR.c
                  __pa_27   0x00f700    program     static C:\pavan\1+1RCUTx\1-1-RCU-T-NewArch_svn_web_changes\Drivers\UARTISR.c
             HTTPPrint_ID   0x00f70a    program     extern C:\pavan\1+1RCUTx\1-1-RCU-T-NewArch_svn_web_changes\App\WebUI\AgilisHTTPPrint.c
       HTTPPrint_RCUModel   0x00f740    program     extern C:\pavan\1+1RCUTx\1-1-RCU-T-NewArch_svn_web_changes\App\WebUI\AgilisHTTPPrint.c
      HTTPPrint_RCUSerial   0x00f74a    program     extern C:\pavan\1+1RCUTx\1-1-RCU-T-NewArch_svn_web_changes\App\WebUI\AgilisHTTPPrint.c
    HTTPPrint_dhcp_status   0x00f754    program     extern C:\pavan\1+1RCUTx\1-1-RCU-T-NewArch_svn_web_changes\App\WebUI\AgilisHTTPPrint.c
              HTTPPrintIP   0x00f77c    program     extern C:\pavan\1+1RCUTx\1-1-RCU-T-NewArch_svn_web_changes\App\WebUI\AgilisHTTPPrint.c
            HTTPPrint_MIP   0x00f7da    program     extern C:\pavan\1+1RCUTx\1-1-RCU-T-NewArch_svn_web_changes\App\WebUI\AgilisHTTPPrint.c
      HTTPPrint_static_ip   0x00f7ee    program     extern C:\pavan\1+1RCUTx\1-1-RCU-T-NewArch_svn_web_changes\App\WebUI\AgilisHTTPPrint.c
      HTTPPrint_config_ip   0x00f80e    program     extern C:\pavan\1+1RCUTx\1-1-RCU-T-NewArch_svn_web_changes\App\WebUI\AgilisHTTPPrint.c
  HTTPPrint_config_subnet   0x00f816    program     extern C:\pavan\1+1RCUTx\1-1-RCU-T-NewArch_svn_web_changes\App\WebUI\AgilisHTTPPrint.c
      HTTPPrint_config_gw   0x00f82a    program     extern C:\pavan\1+1RCUTx\1-1-RCU-T-NewArch_svn_web_changes\App\WebUI\AgilisHTTPPrint.c
       HTTPPrint_RCUfwver   0x00f83e    program     extern C:\pavan\1+1RCUTx\1-1-RCU-T-NewArch_svn_web_changes\App\WebUI\AgilisHTTPPrint.c
        HTTPPrint_comMode   0x00f860    program     extern C:\pavan\1+1RCUTx\1-1-RCU-T-NewArch_svn_web_changes\App\WebUI\AgilisHTTPPrint.c
         HTTPPrint_buc1id   0x00f88a    program     extern C:\pavan\1+1RCUTx\1-1-RCU-T-NewArch_svn_web_changes\App\WebUI\AgilisHTTPPrint.c
      HTTPPrint_buc1Model   0x00f8c6    program     extern C:\pavan\1+1RCUTx\1-1-RCU-T-NewArch_svn_web_changes\App\WebUI\AgilisHTTPPrint.c
     HTTPPrint_buc1Serial   0x00f8d0    program     extern C:\pavan\1+1RCUTx\1-1-RCU-T-NewArch_svn_web_changes\App\WebUI\AgilisHTTPPrint.c
      HTTPPrint_buc1fwver   0x00f8da    program     extern C:\pavan\1+1RCUTx\1-1-RCU-T-NewArch_svn_web_changes\App\WebUI\AgilisHTTPPrint.c
         HTTPPrint_buc2id   0x00f8fc    program     extern C:\pavan\1+1RCUTx\1-1-RCU-T-NewArch_svn_web_changes\App\WebUI\AgilisHTTPPrint.c
      HTTPPrint_buc2Model   0x00f938    program     extern C:\pavan\1+1RCUTx\1-1-RCU-T-NewArch_svn_web_changes\App\WebUI\AgilisHTTPPrint.c
     HTTPPrint_buc2Serial   0x00f942    program     extern C:\pavan\1+1RCUTx\1-1-RCU-T-NewArch_svn_web_changes\App\WebUI\AgilisHTTPPrint.c
      HTTPPrint_buc2fwver   0x00f94c    program     extern C:\pavan\1+1RCUTx\1-1-RCU-T-NewArch_svn_web_changes\App\WebUI\AgilisHTTPPrint.c
     HTTPPrint_pathselect   0x00f96e    program     extern C:\pavan\1+1RCUTx\1-1-RCU-T-NewArch_svn_web_changes\App\WebUI\AgilisHTTPPrint.c
         HTTPPrint_swmode   0x00f99a    program     extern C:\pavan\1+1RCUTx\1-1-RCU-T-NewArch_svn_web_changes\App\WebUI\AgilisHTTPPrint.c
   HTTPPrint_buc1Outpower   0x00f9de    program     extern C:\pavan\1+1RCUTx\1-1-RCU-T-NewArch_svn_web_changes\App\WebUI\AgilisHTTPPrint.c
        HTTPPrint_maxattn   0x00fa5a    program     extern C:\pavan\1+1RCUTx\1-1-RCU-T-NewArch_svn_web_changes\App\WebUI\AgilisHTTPPrint.c
      HTTPPrint_buc1Atten   0x00fad0    program     extern C:\pavan\1+1RCUTx\1-1-RCU-T-NewArch_svn_web_changes\App\WebUI\AgilisHTTPPrint.c
       HTTPPrint_buc1rfop   0x00fb0a    program     extern C:\pavan\1+1RCUTx\1-1-RCU-T-NewArch_svn_web_changes\App\WebUI\AgilisHTTPPrint.c
       HTTPPrint_buc2rfop   0x00fb36    program     extern C:\pavan\1+1RCUTx\1-1-RCU-T-NewArch_svn_web_changes\App\WebUI\AgilisHTTPPrint.c
       HTTPPrint_buc1temp   0x00fb62    program     extern C:\pavan\1+1RCUTx\1-1-RCU-T-NewArch_svn_web_changes\App\WebUI\AgilisHTTPPrint.c
   HTTPPrint_buc2Outpower   0x00fbbe    program     extern C:\pavan\1+1RCUTx\1-1-RCU-T-NewArch_svn_web_changes\App\WebUI\AgilisHTTPPrint.c
      HTTPPrint_buc2Atten   0x00fc38    program     extern C:\pavan\1+1RCUTx\1-1-RCU-T-NewArch_svn_web_changes\App\WebUI\AgilisHTTPPrint.c
       HTTPPrint_buc2temp   0x00fc6e    program     extern C:\pavan\1+1RCUTx\1-1-RCU-T-NewArch_svn_web_changes\App\WebUI\AgilisHTTPPrint.c
HTTPPrint_comModeSelected   0x00fcc6    program     extern C:\pavan\1+1RCUTx\1-1-RCU-T-NewArch_svn_web_changes\App\WebUI\AgilisHTTPPrint.c
HTTPPrint_config_dhcpchecked   0x00fce2    program     extern C:\pavan\1+1RCUTx\1-1-RCU-T-NewArch_svn_web_changes\App\WebUI\AgilisHTTPPrint.c
 HTTPPrint_swmodeSelected   0x00fd08    program     extern C:\pavan\1+1RCUTx\1-1-RCU-T-NewArch_svn_web_changes\App\WebUI\AgilisHTTPPrint.c
   HTTPPrint_pathSelected   0x00fd24    program     extern C:\pavan\1+1RCUTx\1-1-RCU-T-NewArch_svn_web_changes\App\WebUI\AgilisHTTPPrint.c
 HTTPPrint_buc1rfSelected   0x00fd40    program     extern C:\pavan\1+1RCUTx\1-1-RCU-T-NewArch_svn_web_changes\App\WebUI\AgilisHTTPPrint.c
 HTTPPrint_buc2rfSelected   0x00fd5a    program     extern C:\pavan\1+1RCUTx\1-1-RCU-T-NewArch_svn_web_changes\App\WebUI\AgilisHTTPPrint.c
   HTTPPrint_setpasscolor   0x00fd74    program     extern C:\pavan\1+1RCUTx\1-1-RCU-T-NewArch_svn_web_changes\App\WebUI\AgilisHTTPPrint.c
        HTTPPrint_setpass   0x00fdb8    program     extern C:\pavan\1+1RCUTx\1-1-RCU-T-NewArch_svn_web_changes\App\WebUI\AgilisHTTPPrint.c
     HTTPPrint_pathAalarm   0x00fe60    program     extern C:\pavan\1+1RCUTx\1-1-RCU-T-NewArch_svn_web_changes\App\WebUI\AgilisHTTPPrint.c
     HTTPPrint_pathBalarm   0x00fea0    program     extern C:\pavan\1+1RCUTx\1-1-RCU-T-NewArch_svn_web_changes\App\WebUI\AgilisHTTPPrint.c
       HTTPPrint_PS1alarm   0x00feca    program     extern C:\pavan\1+1RCUTx\1-1-RCU-T-NewArch_svn_web_changes\App\WebUI\AgilisHTTPPrint.c
       HTTPPrint_PS2alarm   0x00fef4    program     extern C:\pavan\1+1RCUTx\1-1-RCU-T-NewArch_svn_web_changes\App\WebUI\AgilisHTTPPrint.c
     HTTPPrint_OCXO1alarm   0x00ff1e    program     extern C:\pavan\1+1RCUTx\1-1-RCU-T-NewArch_svn_web_changes\App\WebUI\AgilisHTTPPrint.c
     HTTPPrint_OCXO2alarm   0x00ff48    program     extern C:\pavan\1+1RCUTx\1-1-RCU-T-NewArch_svn_web_changes\App\WebUI\AgilisHTTPPrint.c
   HTTPPrint_buc1Comalarm   0x00ff72    program     extern C:\pavan\1+1RCUTx\1-1-RCU-T-NewArch_svn_web_changes\App\WebUI\AgilisHTTPPrint.c
   HTTPPrint_buc2Comalarm   0x00ff9e    program     extern C:\pavan\1+1RCUTx\1-1-RCU-T-NewArch_svn_web_changes\App\WebUI\AgilisHTTPPrint.c
            HTTPPrint_led   0x00ffca    program     extern C:\pavan\1+1RCUTx\1-1-RCU-T-NewArch_svn_web_changes\App\WebUI\AgilisHTTPPrint.c
            HTTPPrint_ned   0x0100ce    program     extern C:\pavan\1+1RCUTx\1-1-RCU-T-NewArch_svn_web_changes\App\WebUI\AgilisHTTPPrint.c
            HTTPPrint_maf   0x0101d2    program     extern C:\pavan\1+1RCUTx\1-1-RCU-T-NewArch_svn_web_changes\App\WebUI\AgilisHTTPPrint.c
            HTTPPrint_mas   0x0101ea    program     extern C:\pavan\1+1RCUTx\1-1-RCU-T-NewArch_svn_web_changes\App\WebUI\AgilisHTTPPrint.c
         HTTPPrint_Ostart   0x010202    program     extern C:\pavan\1+1RCUTx\1-1-RCU-T-NewArch_svn_web_changes\App\WebUI\AgilisHTTPPrint.c
           HTTPPrint_Oend   0x010204    program     extern C:\pavan\1+1RCUTx\1-1-RCU-T-NewArch_svn_web_changes\App\WebUI\AgilisHTTPPrint.c
          HTTPPrint_ctemp   0x010206    program     extern C:\pavan\1+1RCUTx\1-1-RCU-T-NewArch_svn_web_changes\App\WebUI\AgilisHTTPPrint.c
     HTTPPrint_config_mac   0x010208    program     extern C:\pavan\1+1RCUTx\1-1-RCU-T-NewArch_svn_web_changes\App\WebUI\AgilisHTTPPrint.c
      HTTPPrint_read_comm   0x010264    program     extern C:\pavan\1+1RCUTx\1-1-RCU-T-NewArch_svn_web_changes\App\WebUI\AgilisHTTPPrint.c
     HTTPPrint_write_comm   0x010276    program     extern C:\pavan\1+1RCUTx\1-1-RCU-T-NewArch_svn_web_changes\App\WebUI\AgilisHTTPPrint.c
                   __pa_0   0x010288    program     static C:\pavan\1+1RCUTx\1-1-RCU-T-NewArch_svn_web_changes\App\WebUI\AgilisHTTPPrint.c
                   __pa_1   0x0102a6    program     static C:\pavan\1+1RCUTx\1-1-RCU-T-NewArch_svn_web_changes\App\WebUI\AgilisHTTPPrint.c
                   __pa_2   0x0102b2    program     static C:\pavan\1+1RCUTx\1-1-RCU-T-NewArch_svn_web_changes\App\WebUI\AgilisHTTPPrint.c
              __tmplbl_62   0x0102c8    program     static                          
                   __pa_3   0x0102c8    program     static C:\pavan\1+1RCUTx\1-1-RCU-T-NewArch_svn_web_changes\App\WebUI\AgilisHTTPPrint.c
              __tmplbl_78   0x0102c8    program     static                          
              __tmplbl_76   0x0102c8    program     static                          
                   __pa_4   0x0102d4    program     static C:\pavan\1+1RCUTx\1-1-RCU-T-NewArch_svn_web_changes\App\WebUI\AgilisHTTPPrint.c
                   __pa_5   0x0102e4    program     static C:\pavan\1+1RCUTx\1-1-RCU-T-NewArch_svn_web_changes\App\WebUI\AgilisHTTPPrint.c
                   __pa_6   0x010312    program     static C:\pavan\1+1RCUTx\1-1-RCU-T-NewArch_svn_web_changes\App\WebUI\AgilisHTTPPrint.c
                   __pa_7   0x010316    program     static C:\pavan\1+1RCUTx\1-1-RCU-T-NewArch_svn_web_changes\App\WebUI\AgilisHTTPPrint.c
                   __pa_8   0x01031c    program     static C:\pavan\1+1RCUTx\1-1-RCU-T-NewArch_svn_web_changes\App\WebUI\AgilisHTTPPrint.c
                   __pa_9   0x010322    program     static C:\pavan\1+1RCUTx\1-1-RCU-T-NewArch_svn_web_changes\App\WebUI\AgilisHTTPPrint.c
                  __pa_10   0x010328    program     static C:\pavan\1+1RCUTx\1-1-RCU-T-NewArch_svn_web_changes\App\WebUI\AgilisHTTPPrint.c
                  __pa_11   0x010334    program     static C:\pavan\1+1RCUTx\1-1-RCU-T-NewArch_svn_web_changes\App\WebUI\AgilisHTTPPrint.c
                  __pa_12   0x010346    program     static C:\pavan\1+1RCUTx\1-1-RCU-T-NewArch_svn_web_changes\App\WebUI\AgilisHTTPPrint.c
                  __pa_13   0x01034e    program     static C:\pavan\1+1RCUTx\1-1-RCU-T-NewArch_svn_web_changes\App\WebUI\AgilisHTTPPrint.c
                  __pa_14   0x010356    program     static C:\pavan\1+1RCUTx\1-1-RCU-T-NewArch_svn_web_changes\App\WebUI\AgilisHTTPPrint.c
                  __pa_15   0x010366    program     static C:\pavan\1+1RCUTx\1-1-RCU-T-NewArch_svn_web_changes\App\WebUI\AgilisHTTPPrint.c
                  __pa_16   0x01036e    program     static C:\pavan\1+1RCUTx\1-1-RCU-T-NewArch_svn_web_changes\App\WebUI\AgilisHTTPPrint.c
                  __pa_17   0x010384    program     static C:\pavan\1+1RCUTx\1-1-RCU-T-NewArch_svn_web_changes\App\WebUI\AgilisHTTPPrint.c
                  __pa_18   0x010392    program     static C:\pavan\1+1RCUTx\1-1-RCU-T-NewArch_svn_web_changes\App\WebUI\AgilisHTTPPrint.c
                  __pa_19   0x0103a0    program     static C:\pavan\1+1RCUTx\1-1-RCU-T-NewArch_svn_web_changes\App\WebUI\AgilisHTTPPrint.c
                  __pa_20   0x0103a6    program     static C:\pavan\1+1RCUTx\1-1-RCU-T-NewArch_svn_web_changes\App\WebUI\AgilisHTTPPrint.c
                  __pa_21   0x0103ae    program     static C:\pavan\1+1RCUTx\1-1-RCU-T-NewArch_svn_web_changes\App\WebUI\AgilisHTTPPrint.c
                  __pa_22   0x0103bc    program     static C:\pavan\1+1RCUTx\1-1-RCU-T-NewArch_svn_web_changes\App\WebUI\AgilisHTTPPrint.c
                  __pa_23   0x0103c8    program     static C:\pavan\1+1RCUTx\1-1-RCU-T-NewArch_svn_web_changes\App\WebUI\AgilisHTTPPrint.c
                  __pa_24   0x0103d4    program     static C:\pavan\1+1RCUTx\1-1-RCU-T-NewArch_svn_web_changes\App\WebUI\AgilisHTTPPrint.c
                  __pa_25   0x0103e0    program     static C:\pavan\1+1RCUTx\1-1-RCU-T-NewArch_svn_web_changes\App\WebUI\AgilisHTTPPrint.c
                  __pa_26   0x0103f4    program     static C:\pavan\1+1RCUTx\1-1-RCU-T-NewArch_svn_web_changes\App\WebUI\AgilisHTTPPrint.c
                  __pa_27   0x010408    program     static C:\pavan\1+1RCUTx\1-1-RCU-T-NewArch_svn_web_changes\App\WebUI\AgilisHTTPPrint.c
                  __pa_28   0x01041c    program     static C:\pavan\1+1RCUTx\1-1-RCU-T-NewArch_svn_web_changes\App\WebUI\AgilisHTTPPrint.c
                  __pa_29   0x01042e    program     static C:\pavan\1+1RCUTx\1-1-RCU-T-NewArch_svn_web_changes\App\WebUI\AgilisHTTPPrint.c
                  __pa_30   0x010440    program     static C:\pavan\1+1RCUTx\1-1-RCU-T-NewArch_svn_web_changes\App\WebUI\AgilisHTTPPrint.c
                  __pa_31   0x01044c    program     static C:\pavan\1+1RCUTx\1-1-RCU-T-NewArch_svn_web_changes\App\WebUI\AgilisHTTPPrint.c
                  __pa_32   0x010456    program     static C:\pavan\1+1RCUTx\1-1-RCU-T-NewArch_svn_web_changes\App\WebUI\AgilisHTTPPrint.c
                  __pa_33   0x010460    program     static C:\pavan\1+1RCUTx\1-1-RCU-T-NewArch_svn_web_changes\App\WebUI\AgilisHTTPPrint.c
                  __pa_34   0x01046a    program     static C:\pavan\1+1RCUTx\1-1-RCU-T-NewArch_svn_web_changes\App\WebUI\AgilisHTTPPrint.c
                  __pa_35   0x010474    program     static C:\pavan\1+1RCUTx\1-1-RCU-T-NewArch_svn_web_changes\App\WebUI\AgilisHTTPPrint.c
                  __pa_36   0x01047c    program     static C:\pavan\1+1RCUTx\1-1-RCU-T-NewArch_svn_web_changes\App\WebUI\AgilisHTTPPrint.c
                  __pa_37   0x010484    program     static C:\pavan\1+1RCUTx\1-1-RCU-T-NewArch_svn_web_changes\App\WebUI\AgilisHTTPPrint.c
                  __pa_38   0x010492    program     static C:\pavan\1+1RCUTx\1-1-RCU-T-NewArch_svn_web_changes\App\WebUI\AgilisHTTPPrint.c
                  __pa_39   0x0104a0    program     static C:\pavan\1+1RCUTx\1-1-RCU-T-NewArch_svn_web_changes\App\WebUI\AgilisHTTPPrint.c
                  __pa_40   0x0104ac    program     static C:\pavan\1+1RCUTx\1-1-RCU-T-NewArch_svn_web_changes\App\WebUI\AgilisHTTPPrint.c
                  __pa_41   0x0104b2    program     static C:\pavan\1+1RCUTx\1-1-RCU-T-NewArch_svn_web_changes\App\WebUI\AgilisHTTPPrint.c
                  __pa_42   0x0104c0    program     static C:\pavan\1+1RCUTx\1-1-RCU-T-NewArch_svn_web_changes\App\WebUI\AgilisHTTPPrint.c
              __tmplbl_58   0x0104c0    program     static                          
              __tmplbl_59   0x0104c0    program     static                          
              __tmplbl_70   0x0104c0    program     static                          
              __tmplbl_71   0x0104c0    program     static                          
              __tmplbl_73   0x0104c0    program     static                          
              __tmplbl_74   0x0104c0    program     static                          
              __tmplbl_83   0x0104c6    program     static                          
              __tmplbl_82   0x0104c6    program     static                          
              __tmplbl_81   0x0104c6    program     static                          
              __tmplbl_80   0x0104c6    program     static                          
                  __pa_43   0x0104c6    program     static C:\pavan\1+1RCUTx\1-1-RCU-T-NewArch_svn_web_changes\App\WebUI\AgilisHTTPPrint.c
              __tmplbl_79   0x0104c6    program     static                          
              __tmplbl_77   0x0104c6    program     static                          
              __tmplbl_57   0x0104c6    program     static                          
                  __pa_44   0x0104ce    program     static C:\pavan\1+1RCUTx\1-1-RCU-T-NewArch_svn_web_changes\App\WebUI\AgilisHTTPPrint.c
                  __pa_45   0x0104dc    program     static C:\pavan\1+1RCUTx\1-1-RCU-T-NewArch_svn_web_changes\App\WebUI\AgilisHTTPPrint.c
              __tmplbl_63   0x0104ec    program     static                          
              __tmplbl_65   0x0104ec    program     static                          
              __tmplbl_66   0x0104ec    program     static                          
                  __pa_46   0x0104ec    program     static C:\pavan\1+1RCUTx\1-1-RCU-T-NewArch_svn_web_changes\App\WebUI\AgilisHTTPPrint.c
              __tmplbl_67   0x0104ec    program     static                          
              __tmplbl_68   0x0104ec    program     static                          
                  __pa_47   0x0104f4    program     static C:\pavan\1+1RCUTx\1-1-RCU-T-NewArch_svn_web_changes\App\WebUI\AgilisHTTPPrint.c
                  __pa_48   0x0104fc    program     static C:\pavan\1+1RCUTx\1-1-RCU-T-NewArch_svn_web_changes\App\WebUI\AgilisHTTPPrint.c
                  __pa_49   0x010504    program     static C:\pavan\1+1RCUTx\1-1-RCU-T-NewArch_svn_web_changes\App\WebUI\AgilisHTTPPrint.c
                  __pa_50   0x01050a    program     static C:\pavan\1+1RCUTx\1-1-RCU-T-NewArch_svn_web_changes\App\WebUI\AgilisHTTPPrint.c
                  __pa_51   0x010512    program     static C:\pavan\1+1RCUTx\1-1-RCU-T-NewArch_svn_web_changes\App\WebUI\AgilisHTTPPrint.c
                  __pa_52   0x01051a    program     static C:\pavan\1+1RCUTx\1-1-RCU-T-NewArch_svn_web_changes\App\WebUI\AgilisHTTPPrint.c
                  __pa_53   0x010522    program     static C:\pavan\1+1RCUTx\1-1-RCU-T-NewArch_svn_web_changes\App\WebUI\AgilisHTTPPrint.c
                  __pa_54   0x01052e    program     static C:\pavan\1+1RCUTx\1-1-RCU-T-NewArch_svn_web_changes\App\WebUI\AgilisHTTPPrint.c
                  __pa_55   0x01053a    program     static C:\pavan\1+1RCUTx\1-1-RCU-T-NewArch_svn_web_changes\App\WebUI\AgilisHTTPPrint.c
                  __pa_56   0x010548    program     static C:\pavan\1+1RCUTx\1-1-RCU-T-NewArch_svn_web_changes\App\WebUI\AgilisHTTPPrint.c
                  __pa_57   0x010556    program     static C:\pavan\1+1RCUTx\1-1-RCU-T-NewArch_svn_web_changes\App\WebUI\AgilisHTTPPrint.c
                  __pa_58   0x01055e    program     static C:\pavan\1+1RCUTx\1-1-RCU-T-NewArch_svn_web_changes\App\WebUI\AgilisHTTPPrint.c
                  __pa_59   0x010566    program     static C:\pavan\1+1RCUTx\1-1-RCU-T-NewArch_svn_web_changes\App\WebUI\AgilisHTTPPrint.c
                  __pa_60   0x01057e    program     static C:\pavan\1+1RCUTx\1-1-RCU-T-NewArch_svn_web_changes\App\WebUI\AgilisHTTPPrint.c
                  __pa_61   0x010596    program     static C:\pavan\1+1RCUTx\1-1-RCU-T-NewArch_svn_web_changes\App\WebUI\AgilisHTTPPrint.c
                  __pa_62   0x0105c6    program     static C:\pavan\1+1RCUTx\1-1-RCU-T-NewArch_svn_web_changes\App\WebUI\AgilisHTTPPrint.c
                  __pa_63   0x0105d4    program     static C:\pavan\1+1RCUTx\1-1-RCU-T-NewArch_svn_web_changes\App\WebUI\AgilisHTTPPrint.c
                  __pa_64   0x0105de    program     static C:\pavan\1+1RCUTx\1-1-RCU-T-NewArch_svn_web_changes\App\WebUI\AgilisHTTPPrint.c
                  __pa_65   0x0105ea    program     static C:\pavan\1+1RCUTx\1-1-RCU-T-NewArch_svn_web_changes\App\WebUI\AgilisHTTPPrint.c
                  __pa_66   0x0105f4    program     static C:\pavan\1+1RCUTx\1-1-RCU-T-NewArch_svn_web_changes\App\WebUI\AgilisHTTPPrint.c
              __tmplbl_75   0x0105fc    program     static                          
              __tmplbl_72   0x0105fc    program     static                          
                  __pa_67   0x0105fc    program     static C:\pavan\1+1RCUTx\1-1-RCU-T-NewArch_svn_web_changes\App\WebUI\AgilisHTTPPrint.c
              __tmplbl_69   0x0105fc    program     static                          
                  __pa_68   0x010608    program     static C:\pavan\1+1RCUTx\1-1-RCU-T-NewArch_svn_web_changes\App\WebUI\AgilisHTTPPrint.c
                  __pa_69   0x010616    program     static C:\pavan\1+1RCUTx\1-1-RCU-T-NewArch_svn_web_changes\App\WebUI\AgilisHTTPPrint.c
                  __pa_70   0x01061a    program     static C:\pavan\1+1RCUTx\1-1-RCU-T-NewArch_svn_web_changes\App\WebUI\AgilisHTTPPrint.c
                  __pa_71   0x010622    program     static C:\pavan\1+1RCUTx\1-1-RCU-T-NewArch_svn_web_changes\App\WebUI\AgilisHTTPPrint.c
                  __pa_72   0x010628    program     static C:\pavan\1+1RCUTx\1-1-RCU-T-NewArch_svn_web_changes\App\WebUI\AgilisHTTPPrint.c
                 MPFSInit   0x010630    program     extern C:\pavan\1+1RCUTx\1-1-RCU-T-NewArch_svn_web_changes\Microchip\TCPIP Stack\MPFS2.c
                 MPFSOpen   0x010666    program     extern C:\pavan\1+1RCUTx\1-1-RCU-T-NewArch_svn_web_changes\Microchip\TCPIP Stack\MPFS2.c
              MPFSOpenROM   0x0107b4    program     extern C:\pavan\1+1RCUTx\1-1-RCU-T-NewArch_svn_web_changes\Microchip\TCPIP Stack\MPFS2.c
               MPFSOpenID   0x0108f8    program     extern C:\pavan\1+1RCUTx\1-1-RCU-T-NewArch_svn_web_changes\Microchip\TCPIP Stack\MPFS2.c
                MPFSClose   0x010976    program     extern C:\pavan\1+1RCUTx\1-1-RCU-T-NewArch_svn_web_changes\Microchip\TCPIP Stack\MPFS2.c
                  MPFSGet   0x01098e    program     extern C:\pavan\1+1RCUTx\1-1-RCU-T-NewArch_svn_web_changes\Microchip\TCPIP Stack\MPFS2.c
             MPFSGetArray   0x010a34    program     extern C:\pavan\1+1RCUTx\1-1-RCU-T-NewArch_svn_web_changes\Microchip\TCPIP Stack\MPFS2.c
              MPFSGetLong   0x010ac4    program     extern C:\pavan\1+1RCUTx\1-1-RCU-T-NewArch_svn_web_changes\Microchip\TCPIP Stack\MPFS2.c
                 MPFSSeek   0x010b04    program     extern C:\pavan\1+1RCUTx\1-1-RCU-T-NewArch_svn_web_changes\Microchip\TCPIP Stack\MPFS2.c
               MPFSFormat   0x010c22    program     extern C:\pavan\1+1RCUTx\1-1-RCU-T-NewArch_svn_web_changes\Microchip\TCPIP Stack\MPFS2.c
             MPFSPutArray   0x010ca4    program     extern C:\pavan\1+1RCUTx\1-1-RCU-T-NewArch_svn_web_changes\Microchip\TCPIP Stack\MPFS2.c
               MPFSPutEnd   0x010d2a    program     extern C:\pavan\1+1RCUTx\1-1-RCU-T-NewArch_svn_web_changes\Microchip\TCPIP Stack\MPFS2.c
           _LoadFATRecord   0x010d46    program     static C:\pavan\1+1RCUTx\1-1-RCU-T-NewArch_svn_web_changes\Microchip\TCPIP Stack\MPFS2.c
         MPFSGetTimestamp   0x010dd2    program     extern C:\pavan\1+1RCUTx\1-1-RCU-T-NewArch_svn_web_changes\Microchip\TCPIP Stack\MPFS2.c
         MPFSGetMicrotime   0x010e04    program     extern C:\pavan\1+1RCUTx\1-1-RCU-T-NewArch_svn_web_changes\Microchip\TCPIP Stack\MPFS2.c
             MPFSGetFlags   0x010e36    program     extern C:\pavan\1+1RCUTx\1-1-RCU-T-NewArch_svn_web_changes\Microchip\TCPIP Stack\MPFS2.c
              MPFSGetSize   0x010e62    program     extern C:\pavan\1+1RCUTx\1-1-RCU-T-NewArch_svn_web_changes\Microchip\TCPIP Stack\MPFS2.c
          MPFSGetBytesRem   0x010e94    program     extern C:\pavan\1+1RCUTx\1-1-RCU-T-NewArch_svn_web_changes\Microchip\TCPIP Stack\MPFS2.c
         MPFSGetStartAddr   0x010ebe    program     extern C:\pavan\1+1RCUTx\1-1-RCU-T-NewArch_svn_web_changes\Microchip\TCPIP Stack\MPFS2.c
           MPFSGetEndAddr   0x010efa    program     extern C:\pavan\1+1RCUTx\1-1-RCU-T-NewArch_svn_web_changes\Microchip\TCPIP Stack\MPFS2.c
          MPFSGetFilename   0x010f48    program     extern C:\pavan\1+1RCUTx\1-1-RCU-T-NewArch_svn_web_changes\Microchip\TCPIP Stack\MPFS2.c
          MPFSGetPosition   0x010fce    program     extern C:\pavan\1+1RCUTx\1-1-RCU-T-NewArch_svn_web_changes\Microchip\TCPIP Stack\MPFS2.c
                MPFSGetID   0x011000    program     extern C:\pavan\1+1RCUTx\1-1-RCU-T-NewArch_svn_web_changes\Microchip\TCPIP Stack\MPFS2.c
                _Validate   0x011012    program     static C:\pavan\1+1RCUTx\1-1-RCU-T-NewArch_svn_web_changes\Microchip\TCPIP Stack\MPFS2.c
                   __pa_0   0x01108a    program     static C:\pavan\1+1RCUTx\1-1-RCU-T-NewArch_svn_web_changes\Microchip\TCPIP Stack\MPFS2.c
                   __pa_1   0x011090    program     static C:\pavan\1+1RCUTx\1-1-RCU-T-NewArch_svn_web_changes\Microchip\TCPIP Stack\MPFS2.c
                   __pa_2   0x011096    program     static C:\pavan\1+1RCUTx\1-1-RCU-T-NewArch_svn_web_changes\Microchip\TCPIP Stack\MPFS2.c
              __tmplbl_61   0x01109a    program     static                          
              __tmplbl_60   0x01109a    program     static                          
                   __pa_3   0x01109a    program     static C:\pavan\1+1RCUTx\1-1-RCU-T-NewArch_svn_web_changes\Microchip\TCPIP Stack\MPFS2.c
                   __pa_4   0x0110a6    program     static C:\pavan\1+1RCUTx\1-1-RCU-T-NewArch_svn_web_changes\Microchip\TCPIP Stack\MPFS2.c
                   __pa_5   0x0110b8    program     static C:\pavan\1+1RCUTx\1-1-RCU-T-NewArch_svn_web_changes\Microchip\TCPIP Stack\MPFS2.c
                   __pa_6   0x0110da    program     static C:\pavan\1+1RCUTx\1-1-RCU-T-NewArch_svn_web_changes\Microchip\TCPIP Stack\MPFS2.c
                   __pa_7   0x01111e    program     static C:\pavan\1+1RCUTx\1-1-RCU-T-NewArch_svn_web_changes\Microchip\TCPIP Stack\MPFS2.c
                   __pa_8   0x011126    program     static C:\pavan\1+1RCUTx\1-1-RCU-T-NewArch_svn_web_changes\Microchip\TCPIP Stack\MPFS2.c
                   __pa_9   0x01112c    program     static C:\pavan\1+1RCUTx\1-1-RCU-T-NewArch_svn_web_changes\Microchip\TCPIP Stack\MPFS2.c
                  __pa_10   0x011136    program     static C:\pavan\1+1RCUTx\1-1-RCU-T-NewArch_svn_web_changes\Microchip\TCPIP Stack\MPFS2.c
                  __pa_11   0x01114c    program     static C:\pavan\1+1RCUTx\1-1-RCU-T-NewArch_svn_web_changes\Microchip\TCPIP Stack\MPFS2.c
                  __pa_12   0x011156    program     static C:\pavan\1+1RCUTx\1-1-RCU-T-NewArch_svn_web_changes\Microchip\TCPIP Stack\MPFS2.c
                  __pa_13   0x011160    program     static C:\pavan\1+1RCUTx\1-1-RCU-T-NewArch_svn_web_changes\Microchip\TCPIP Stack\MPFS2.c
                  __pa_14   0x011174    program     static C:\pavan\1+1RCUTx\1-1-RCU-T-NewArch_svn_web_changes\Microchip\TCPIP Stack\MPFS2.c
                  __pa_15   0x011186    program     static C:\pavan\1+1RCUTx\1-1-RCU-T-NewArch_svn_web_changes\Microchip\TCPIP Stack\MPFS2.c
                  __pa_16   0x0111ac    program     static C:\pavan\1+1RCUTx\1-1-RCU-T-NewArch_svn_web_changes\Microchip\TCPIP Stack\MPFS2.c
                  __pa_17   0x0111c6    program     static C:\pavan\1+1RCUTx\1-1-RCU-T-NewArch_svn_web_changes\Microchip\TCPIP Stack\MPFS2.c
                  __pa_18   0x0111da    program     static C:\pavan\1+1RCUTx\1-1-RCU-T-NewArch_svn_web_changes\Microchip\TCPIP Stack\MPFS2.c
                  __pa_19   0x0111e4    program     static C:\pavan\1+1RCUTx\1-1-RCU-T-NewArch_svn_web_changes\Microchip\TCPIP Stack\MPFS2.c
                  __pa_20   0x0111f2    program     static C:\pavan\1+1RCUTx\1-1-RCU-T-NewArch_svn_web_changes\Microchip\TCPIP Stack\MPFS2.c
                  __pa_21   0x011214    program     static C:\pavan\1+1RCUTx\1-1-RCU-T-NewArch_svn_web_changes\Microchip\TCPIP Stack\MPFS2.c
                  __pa_22   0x011234    program     static C:\pavan\1+1RCUTx\1-1-RCU-T-NewArch_svn_web_changes\Microchip\TCPIP Stack\MPFS2.c
                  __pa_23   0x011246    program     static C:\pavan\1+1RCUTx\1-1-RCU-T-NewArch_svn_web_changes\Microchip\TCPIP Stack\MPFS2.c
                  __pa_24   0x011258    program     static C:\pavan\1+1RCUTx\1-1-RCU-T-NewArch_svn_web_changes\Microchip\TCPIP Stack\MPFS2.c
                  __pa_25   0x011266    program     static C:\pavan\1+1RCUTx\1-1-RCU-T-NewArch_svn_web_changes\Microchip\TCPIP Stack\MPFS2.c
                  __pa_26   0x011282    program     static C:\pavan\1+1RCUTx\1-1-RCU-T-NewArch_svn_web_changes\Microchip\TCPIP Stack\MPFS2.c
                  __pa_27   0x01129c    program     static C:\pavan\1+1RCUTx\1-1-RCU-T-NewArch_svn_web_changes\Microchip\TCPIP Stack\MPFS2.c
                  __pa_28   0x0112b6    program     static C:\pavan\1+1RCUTx\1-1-RCU-T-NewArch_svn_web_changes\Microchip\TCPIP Stack\MPFS2.c
                  __pa_29   0x0112d0    program     static C:\pavan\1+1RCUTx\1-1-RCU-T-NewArch_svn_web_changes\Microchip\TCPIP Stack\MPFS2.c
                  __pa_30   0x0112e0    program     static C:\pavan\1+1RCUTx\1-1-RCU-T-NewArch_svn_web_changes\Microchip\TCPIP Stack\MPFS2.c
                  __pa_31   0x0112f8    program     static C:\pavan\1+1RCUTx\1-1-RCU-T-NewArch_svn_web_changes\Microchip\TCPIP Stack\MPFS2.c
                  __pa_32   0x01130a    program     static C:\pavan\1+1RCUTx\1-1-RCU-T-NewArch_svn_web_changes\Microchip\TCPIP Stack\MPFS2.c
                  __pa_33   0x011320    program     static C:\pavan\1+1RCUTx\1-1-RCU-T-NewArch_svn_web_changes\Microchip\TCPIP Stack\MPFS2.c
                  __pa_34   0x01132e    program     static C:\pavan\1+1RCUTx\1-1-RCU-T-NewArch_svn_web_changes\Microchip\TCPIP Stack\MPFS2.c
                  __pa_35   0x01133c    program     static C:\pavan\1+1RCUTx\1-1-RCU-T-NewArch_svn_web_changes\Microchip\TCPIP Stack\MPFS2.c
                  __pa_36   0x01134a    program     static C:\pavan\1+1RCUTx\1-1-RCU-T-NewArch_svn_web_changes\Microchip\TCPIP Stack\MPFS2.c
                  __pa_37   0x011354    program     static C:\pavan\1+1RCUTx\1-1-RCU-T-NewArch_svn_web_changes\Microchip\TCPIP Stack\MPFS2.c
                  __pa_38   0x011366    program     static C:\pavan\1+1RCUTx\1-1-RCU-T-NewArch_svn_web_changes\Microchip\TCPIP Stack\MPFS2.c
                  __pa_39   0x011374    program     static C:\pavan\1+1RCUTx\1-1-RCU-T-NewArch_svn_web_changes\Microchip\TCPIP Stack\MPFS2.c
                  __pa_40   0x011382    program     static C:\pavan\1+1RCUTx\1-1-RCU-T-NewArch_svn_web_changes\Microchip\TCPIP Stack\MPFS2.c
                  __pa_41   0x01138c    program     static C:\pavan\1+1RCUTx\1-1-RCU-T-NewArch_svn_web_changes\Microchip\TCPIP Stack\MPFS2.c
                  __pa_42   0x011396    program     static C:\pavan\1+1RCUTx\1-1-RCU-T-NewArch_svn_web_changes\Microchip\TCPIP Stack\MPFS2.c
                  __pa_43   0x0113a8    program     static C:\pavan\1+1RCUTx\1-1-RCU-T-NewArch_svn_web_changes\Microchip\TCPIP Stack\MPFS2.c
                  __pa_44   0x0113d0    program     static C:\pavan\1+1RCUTx\1-1-RCU-T-NewArch_svn_web_changes\Microchip\TCPIP Stack\MPFS2.c
                  __pa_45   0x0113da    program     static C:\pavan\1+1RCUTx\1-1-RCU-T-NewArch_svn_web_changes\Microchip\TCPIP Stack\MPFS2.c
                  __pa_46   0x0113f4    program     static C:\pavan\1+1RCUTx\1-1-RCU-T-NewArch_svn_web_changes\Microchip\TCPIP Stack\MPFS2.c
                  __pa_47   0x0113fc    program     static C:\pavan\1+1RCUTx\1-1-RCU-T-NewArch_svn_web_changes\Microchip\TCPIP Stack\MPFS2.c
                  __pa_48   0x01140c    program     static C:\pavan\1+1RCUTx\1-1-RCU-T-NewArch_svn_web_changes\Microchip\TCPIP Stack\MPFS2.c
                  __pa_49   0x011424    program     static C:\pavan\1+1RCUTx\1-1-RCU-T-NewArch_svn_web_changes\Microchip\TCPIP Stack\MPFS2.c
                  __pa_50   0x011432    program     static C:\pavan\1+1RCUTx\1-1-RCU-T-NewArch_svn_web_changes\Microchip\TCPIP Stack\MPFS2.c
                  __pa_51   0x011438    program     static C:\pavan\1+1RCUTx\1-1-RCU-T-NewArch_svn_web_changes\Microchip\TCPIP Stack\MPFS2.c
                  __pa_52   0x011454    program     static C:\pavan\1+1RCUTx\1-1-RCU-T-NewArch_svn_web_changes\Microchip\TCPIP Stack\MPFS2.c
                  __pa_53   0x011464    program     static C:\pavan\1+1RCUTx\1-1-RCU-T-NewArch_svn_web_changes\Microchip\TCPIP Stack\MPFS2.c
                  __pa_54   0x01147c    program     static C:\pavan\1+1RCUTx\1-1-RCU-T-NewArch_svn_web_changes\Microchip\TCPIP Stack\MPFS2.c
                  __pa_55   0x01148a    program     static C:\pavan\1+1RCUTx\1-1-RCU-T-NewArch_svn_web_changes\Microchip\TCPIP Stack\MPFS2.c
                  __pa_56   0x01149e    program     static C:\pavan\1+1RCUTx\1-1-RCU-T-NewArch_svn_web_changes\Microchip\TCPIP Stack\MPFS2.c
                  __pa_57   0x0114ac    program     static C:\pavan\1+1RCUTx\1-1-RCU-T-NewArch_svn_web_changes\Microchip\TCPIP Stack\MPFS2.c
                  __pa_58   0x0114be    program     static C:\pavan\1+1RCUTx\1-1-RCU-T-NewArch_svn_web_changes\Microchip\TCPIP Stack\MPFS2.c
                  __pa_59   0x0114c8    program     static C:\pavan\1+1RCUTx\1-1-RCU-T-NewArch_svn_web_changes\Microchip\TCPIP Stack\MPFS2.c
                  __pa_60   0x0114d4    program     static C:\pavan\1+1RCUTx\1-1-RCU-T-NewArch_svn_web_changes\Microchip\TCPIP Stack\MPFS2.c
                  __pa_61   0x0114e2    program     static C:\pavan\1+1RCUTx\1-1-RCU-T-NewArch_svn_web_changes\Microchip\TCPIP Stack\MPFS2.c
                  __pa_62   0x0114f0    program     static C:\pavan\1+1RCUTx\1-1-RCU-T-NewArch_svn_web_changes\Microchip\TCPIP Stack\MPFS2.c
                  __pa_63   0x0114f8    program     static C:\pavan\1+1RCUTx\1-1-RCU-T-NewArch_svn_web_changes\Microchip\TCPIP Stack\MPFS2.c
                  __pa_64   0x011502    program     static C:\pavan\1+1RCUTx\1-1-RCU-T-NewArch_svn_web_changes\Microchip\TCPIP Stack\MPFS2.c
                  __pa_65   0x011508    program     static C:\pavan\1+1RCUTx\1-1-RCU-T-NewArch_svn_web_changes\Microchip\TCPIP Stack\MPFS2.c
                  __pa_66   0x011522    program     static C:\pavan\1+1RCUTx\1-1-RCU-T-NewArch_svn_web_changes\Microchip\TCPIP Stack\MPFS2.c
                  __pa_67   0x011530    program     static C:\pavan\1+1RCUTx\1-1-RCU-T-NewArch_svn_web_changes\Microchip\TCPIP Stack\MPFS2.c
                  __pa_68   0x01153a    program     static C:\pavan\1+1RCUTx\1-1-RCU-T-NewArch_svn_web_changes\Microchip\TCPIP Stack\MPFS2.c
      GenerateRandomDWORD   0x011542    program     extern C:\pavan\1+1RCUTx\1-1-RCU-T-NewArch_svn_web_changes\Microchip\TCPIP Stack\Helpers.c
              __tmplbl_39   0x0115ba    program     static                          
        ___while_lbl00001   0x0115d2    program     static                          
        ___while_lbl00003   0x0115da    program     static                          
        ___while_lbl00004   0x0115de    program     static                          
               __tmplbl_0   0x011642    program     static                          
              __tmplbl_40   0x01165e    program     static                          
              __tmplbl_41   0x01169e    program     static                          
              __tmplbl_42   0x011702    program     static                          
           ___if_lbl00005   0x011744    program     static                          
           ___if_lbl00006   0x011762    program     static                          
           ___if_lbl00007   0x0117fc    program     static                          
           ___if_lbl00008   0x011802    program     static                          
        ___while_lbl00002   0x011804    program     static                          
       ___return_lbl00000   0x01184c    program     static                          
        StringToIPAddress   0x011864    program     extern C:\pavan\1+1RCUTx\1-1-RCU-T-NewArch_svn_web_changes\Microchip\TCPIP Stack\Helpers.c
     ROMStringToIPAddress   0x011934    program     extern C:\pavan\1+1RCUTx\1-1-RCU-T-NewArch_svn_web_changes\Microchip\TCPIP Stack\Helpers.c
             Base64Decode   0x011a16    program     extern C:\pavan\1+1RCUTx\1-1-RCU-T-NewArch_svn_web_changes\Microchip\TCPIP Stack\Helpers.c
                    uitoa   0x011b86    program     extern C:\pavan\1+1RCUTx\1-1-RCU-T-NewArch_svn_web_changes\Microchip\TCPIP Stack\Helpers.c
                  hexatob   0x011c7c    program     extern C:\pavan\1+1RCUTx\1-1-RCU-T-NewArch_svn_web_changes\Microchip\TCPIP Stack\Helpers.c
             btohexa_high   0x011cc6    program     extern C:\pavan\1+1RCUTx\1-1-RCU-T-NewArch_svn_web_changes\Microchip\TCPIP Stack\Helpers.c
              btohexa_low   0x011cee    program     extern C:\pavan\1+1RCUTx\1-1-RCU-T-NewArch_svn_web_changes\Microchip\TCPIP Stack\Helpers.c
           stricmppgm2ram   0x011d12    program     extern C:\pavan\1+1RCUTx\1-1-RCU-T-NewArch_svn_web_changes\Microchip\TCPIP Stack\Helpers.c
                    swaps   0x011dc2    program     extern C:\pavan\1+1RCUTx\1-1-RCU-T-NewArch_svn_web_changes\Microchip\TCPIP Stack\Helpers.c
                    swapl   0x011e00    program     extern C:\pavan\1+1RCUTx\1-1-RCU-T-NewArch_svn_web_changes\Microchip\TCPIP Stack\Helpers.c
           CalcIPChecksum   0x011e4e    program     extern C:\pavan\1+1RCUTx\1-1-RCU-T-NewArch_svn_web_changes\Microchip\TCPIP Stack\Helpers.c
          leftRotateDWORD   0x011f6a    program     extern C:\pavan\1+1RCUTx\1-1-RCU-T-NewArch_svn_web_changes\Microchip\TCPIP Stack\Helpers.c
          ___for_lbl00124   0x011f9c    program     static                          
          ___for_lbl00122   0x011fba    program     static                          
          ___for_lbl00123   0x011fc0    program     static                          
          ___for_lbl00127   0x011fc0    program     static                          
          ___for_lbl00125   0x011fd4    program     static                          
          ___for_lbl00126   0x011fd8    program     static                          
       ___return_lbl00121   0x011fea    program     static                          
        FormatNetBIOSName   0x011ffa    program     extern C:\pavan\1+1RCUTx\1-1-RCU-T-NewArch_svn_web_changes\Microchip\TCPIP Stack\Helpers.c
                  strnchr   0x012042    program     extern C:\pavan\1+1RCUTx\1-1-RCU-T-NewArch_svn_web_changes\Microchip\TCPIP Stack\Helpers.c
                   __pa_0   0x012082    program     static C:\pavan\1+1RCUTx\1-1-RCU-T-NewArch_svn_web_changes\Microchip\TCPIP Stack\Helpers.c
                   __pa_1   0x012094    program     static C:\pavan\1+1RCUTx\1-1-RCU-T-NewArch_svn_web_changes\Microchip\TCPIP Stack\Helpers.c
                   __pa_2   0x0120b0    program     static C:\pavan\1+1RCUTx\1-1-RCU-T-NewArch_svn_web_changes\Microchip\TCPIP Stack\Helpers.c
                   __pa_3   0x0120bc    program     static C:\pavan\1+1RCUTx\1-1-RCU-T-NewArch_svn_web_changes\Microchip\TCPIP Stack\Helpers.c
                   __pa_4   0x0120de    program     static C:\pavan\1+1RCUTx\1-1-RCU-T-NewArch_svn_web_changes\Microchip\TCPIP Stack\Helpers.c
                   __pa_5   0x0120ec    program     static C:\pavan\1+1RCUTx\1-1-RCU-T-NewArch_svn_web_changes\Microchip\TCPIP Stack\Helpers.c
                   __pa_6   0x012112    program     static C:\pavan\1+1RCUTx\1-1-RCU-T-NewArch_svn_web_changes\Microchip\TCPIP Stack\Helpers.c
                   __pa_7   0x012134    program     static C:\pavan\1+1RCUTx\1-1-RCU-T-NewArch_svn_web_changes\Microchip\TCPIP Stack\Helpers.c
                   __pa_8   0x012146    program     static C:\pavan\1+1RCUTx\1-1-RCU-T-NewArch_svn_web_changes\Microchip\TCPIP Stack\Helpers.c
                   __pa_9   0x012150    program     static C:\pavan\1+1RCUTx\1-1-RCU-T-NewArch_svn_web_changes\Microchip\TCPIP Stack\Helpers.c
                  __pa_10   0x01216a    program     static C:\pavan\1+1RCUTx\1-1-RCU-T-NewArch_svn_web_changes\Microchip\TCPIP Stack\Helpers.c
                  __pa_11   0x012184    program     static C:\pavan\1+1RCUTx\1-1-RCU-T-NewArch_svn_web_changes\Microchip\TCPIP Stack\Helpers.c
                  __pa_12   0x012194    program     static C:\pavan\1+1RCUTx\1-1-RCU-T-NewArch_svn_web_changes\Microchip\TCPIP Stack\Helpers.c
                  __pa_13   0x0121a4    program     static C:\pavan\1+1RCUTx\1-1-RCU-T-NewArch_svn_web_changes\Microchip\TCPIP Stack\Helpers.c
                  __pa_14   0x0121bc    program     static C:\pavan\1+1RCUTx\1-1-RCU-T-NewArch_svn_web_changes\Microchip\TCPIP Stack\Helpers.c
                  __pa_15   0x0121d2    program     static C:\pavan\1+1RCUTx\1-1-RCU-T-NewArch_svn_web_changes\Microchip\TCPIP Stack\Helpers.c
                  __pa_16   0x0121dc    program     static C:\pavan\1+1RCUTx\1-1-RCU-T-NewArch_svn_web_changes\Microchip\TCPIP Stack\Helpers.c
                  __pa_17   0x0121ee    program     static C:\pavan\1+1RCUTx\1-1-RCU-T-NewArch_svn_web_changes\Microchip\TCPIP Stack\Helpers.c
                  __pa_18   0x0121fe    program     static C:\pavan\1+1RCUTx\1-1-RCU-T-NewArch_svn_web_changes\Microchip\TCPIP Stack\Helpers.c
                  __pa_19   0x01220e    program     static C:\pavan\1+1RCUTx\1-1-RCU-T-NewArch_svn_web_changes\Microchip\TCPIP Stack\Helpers.c
                  __pa_20   0x01221e    program     static C:\pavan\1+1RCUTx\1-1-RCU-T-NewArch_svn_web_changes\Microchip\TCPIP Stack\Helpers.c
                  __pa_21   0x012226    program     static C:\pavan\1+1RCUTx\1-1-RCU-T-NewArch_svn_web_changes\Microchip\TCPIP Stack\Helpers.c
                  __pa_22   0x012234    program     static C:\pavan\1+1RCUTx\1-1-RCU-T-NewArch_svn_web_changes\Microchip\TCPIP Stack\Helpers.c
                  __pa_23   0x012242    program     static C:\pavan\1+1RCUTx\1-1-RCU-T-NewArch_svn_web_changes\Microchip\TCPIP Stack\Helpers.c
                  __pa_24   0x012256    program     static C:\pavan\1+1RCUTx\1-1-RCU-T-NewArch_svn_web_changes\Microchip\TCPIP Stack\Helpers.c
                  __pa_25   0x012260    program     static C:\pavan\1+1RCUTx\1-1-RCU-T-NewArch_svn_web_changes\Microchip\TCPIP Stack\Helpers.c
                  __pa_26   0x01226e    program     static C:\pavan\1+1RCUTx\1-1-RCU-T-NewArch_svn_web_changes\Microchip\TCPIP Stack\Helpers.c
                  __pa_27   0x01227c    program     static C:\pavan\1+1RCUTx\1-1-RCU-T-NewArch_svn_web_changes\Microchip\TCPIP Stack\Helpers.c
                  __pa_28   0x01228c    program     static C:\pavan\1+1RCUTx\1-1-RCU-T-NewArch_svn_web_changes\Microchip\TCPIP Stack\Helpers.c
                  __pa_29   0x01229a    program     static C:\pavan\1+1RCUTx\1-1-RCU-T-NewArch_svn_web_changes\Microchip\TCPIP Stack\Helpers.c
                  __pa_30   0x0122a4    program     static C:\pavan\1+1RCUTx\1-1-RCU-T-NewArch_svn_web_changes\Microchip\TCPIP Stack\Helpers.c
                  __pa_31   0x0122ac    program     static C:\pavan\1+1RCUTx\1-1-RCU-T-NewArch_svn_web_changes\Microchip\TCPIP Stack\Helpers.c
                  UDPInit   0x0122ba    program     extern C:\pavan\1+1RCUTx\1-1-RCU-T-NewArch_svn_web_changes\Microchip\TCPIP Stack\UDP.c
                UDPOpenEx   0x0122de    program     extern C:\pavan\1+1RCUTx\1-1-RCU-T-NewArch_svn_web_changes\Microchip\TCPIP Stack\UDP.c
                  UDPTask   0x012448    program     extern C:\pavan\1+1RCUTx\1-1-RCU-T-NewArch_svn_web_changes\Microchip\TCPIP Stack\UDP.c
              UDPIsOpened   0x012554    program     extern C:\pavan\1+1RCUTx\1-1-RCU-T-NewArch_svn_web_changes\Microchip\TCPIP Stack\UDP.c
                 UDPClose   0x01256c    program     extern C:\pavan\1+1RCUTx\1-1-RCU-T-NewArch_svn_web_changes\Microchip\TCPIP Stack\UDP.c
           UDPSetTxBuffer   0x0125a8    program     extern C:\pavan\1+1RCUTx\1-1-RCU-T-NewArch_svn_web_changes\Microchip\TCPIP Stack\UDP.c
           UDPSetRxBuffer   0x0125f6    program     extern C:\pavan\1+1RCUTx\1-1-RCU-T-NewArch_svn_web_changes\Microchip\TCPIP Stack\UDP.c
            UDPIsPutReady   0x012618    program     extern C:\pavan\1+1RCUTx\1-1-RCU-T-NewArch_svn_web_changes\Microchip\TCPIP Stack\UDP.c
                   UDPPut   0x01266e    program     extern C:\pavan\1+1RCUTx\1-1-RCU-T-NewArch_svn_web_changes\Microchip\TCPIP Stack\UDP.c
              UDPPutArray   0x0126b8    program     extern C:\pavan\1+1RCUTx\1-1-RCU-T-NewArch_svn_web_changes\Microchip\TCPIP Stack\UDP.c
           UDPPutROMArray   0x0126de    program     extern C:\pavan\1+1RCUTx\1-1-RCU-T-NewArch_svn_web_changes\Microchip\TCPIP Stack\UDP.c
             UDPPutString   0x01274a    program     extern C:\pavan\1+1RCUTx\1-1-RCU-T-NewArch_svn_web_changes\Microchip\TCPIP Stack\UDP.c
          UDPPutROMString   0x01278a    program     extern C:\pavan\1+1RCUTx\1-1-RCU-T-NewArch_svn_web_changes\Microchip\TCPIP Stack\UDP.c
                 UDPFlush   0x0127f0    program     extern C:\pavan\1+1RCUTx\1-1-RCU-T-NewArch_svn_web_changes\Microchip\TCPIP Stack\UDP.c
            UDPIsGetReady   0x012984    program     extern C:\pavan\1+1RCUTx\1-1-RCU-T-NewArch_svn_web_changes\Microchip\TCPIP Stack\UDP.c
                   UDPGet   0x0129b8    program     extern C:\pavan\1+1RCUTx\1-1-RCU-T-NewArch_svn_web_changes\Microchip\TCPIP Stack\UDP.c
              UDPGetArray   0x0129ec    program     extern C:\pavan\1+1RCUTx\1-1-RCU-T-NewArch_svn_web_changes\Microchip\TCPIP Stack\UDP.c
               UDPDiscard   0x012a4c    program     extern C:\pavan\1+1RCUTx\1-1-RCU-T-NewArch_svn_web_changes\Microchip\TCPIP Stack\UDP.c
               UDPProcess   0x012a66    program     extern C:\pavan\1+1RCUTx\1-1-RCU-T-NewArch_svn_web_changes\Microchip\TCPIP Stack\UDP.c
       FindMatchingSocket   0x012bd8    program     static C:\pavan\1+1RCUTx\1-1-RCU-T-NewArch_svn_web_changes\Microchip\TCPIP Stack\UDP.c
                   __pa_0   0x012cca    program     static C:\pavan\1+1RCUTx\1-1-RCU-T-NewArch_svn_web_changes\Microchip\TCPIP Stack\UDP.c
                   __pa_1   0x012cde    program     static C:\pavan\1+1RCUTx\1-1-RCU-T-NewArch_svn_web_changes\Microchip\TCPIP Stack\UDP.c
              __tmplbl_18   0x012cea    program     static                          
              __tmplbl_15   0x012cea    program     static                          
                   __pa_2   0x012cea    program     static C:\pavan\1+1RCUTx\1-1-RCU-T-NewArch_svn_web_changes\Microchip\TCPIP Stack\UDP.c
                   __pa_3   0x012cf6    program     static C:\pavan\1+1RCUTx\1-1-RCU-T-NewArch_svn_web_changes\Microchip\TCPIP Stack\UDP.c
                   __pa_4   0x012d04    program     static C:\pavan\1+1RCUTx\1-1-RCU-T-NewArch_svn_web_changes\Microchip\TCPIP Stack\UDP.c
                   __pa_5   0x012d2a    program     static C:\pavan\1+1RCUTx\1-1-RCU-T-NewArch_svn_web_changes\Microchip\TCPIP Stack\UDP.c
                   __pa_6   0x012d3c    program     static C:\pavan\1+1RCUTx\1-1-RCU-T-NewArch_svn_web_changes\Microchip\TCPIP Stack\UDP.c
                   __pa_7   0x012d44    program     static C:\pavan\1+1RCUTx\1-1-RCU-T-NewArch_svn_web_changes\Microchip\TCPIP Stack\UDP.c
                   __pa_8   0x012d4a    program     static C:\pavan\1+1RCUTx\1-1-RCU-T-NewArch_svn_web_changes\Microchip\TCPIP Stack\UDP.c
                   __pa_9   0x012d52    program     static C:\pavan\1+1RCUTx\1-1-RCU-T-NewArch_svn_web_changes\Microchip\TCPIP Stack\UDP.c
                  __pa_10   0x012d60    program     static C:\pavan\1+1RCUTx\1-1-RCU-T-NewArch_svn_web_changes\Microchip\TCPIP Stack\UDP.c
                  __pa_11   0x012d6e    program     static C:\pavan\1+1RCUTx\1-1-RCU-T-NewArch_svn_web_changes\Microchip\TCPIP Stack\UDP.c
                  __pa_12   0x012d84    program     static C:\pavan\1+1RCUTx\1-1-RCU-T-NewArch_svn_web_changes\Microchip\TCPIP Stack\UDP.c
                  __pa_13   0x012d98    program     static C:\pavan\1+1RCUTx\1-1-RCU-T-NewArch_svn_web_changes\Microchip\TCPIP Stack\UDP.c
                  __pa_14   0x012da6    program     static C:\pavan\1+1RCUTx\1-1-RCU-T-NewArch_svn_web_changes\Microchip\TCPIP Stack\UDP.c
                  __pa_15   0x012dc0    program     static C:\pavan\1+1RCUTx\1-1-RCU-T-NewArch_svn_web_changes\Microchip\TCPIP Stack\UDP.c
                  __pa_16   0x012dd8    program     static C:\pavan\1+1RCUTx\1-1-RCU-T-NewArch_svn_web_changes\Microchip\TCPIP Stack\UDP.c
                  __pa_17   0x012dee    program     static C:\pavan\1+1RCUTx\1-1-RCU-T-NewArch_svn_web_changes\Microchip\TCPIP Stack\UDP.c
                  __pa_18   0x012dfa    program     static C:\pavan\1+1RCUTx\1-1-RCU-T-NewArch_svn_web_changes\Microchip\TCPIP Stack\UDP.c
                  __pa_19   0x012e10    program     static C:\pavan\1+1RCUTx\1-1-RCU-T-NewArch_svn_web_changes\Microchip\TCPIP Stack\UDP.c
                  __pa_20   0x012e16    program     static C:\pavan\1+1RCUTx\1-1-RCU-T-NewArch_svn_web_changes\Microchip\TCPIP Stack\UDP.c
                  __pa_21   0x012e1e    program     static C:\pavan\1+1RCUTx\1-1-RCU-T-NewArch_svn_web_changes\Microchip\TCPIP Stack\UDP.c
                  __pa_22   0x012e2c    program     static C:\pavan\1+1RCUTx\1-1-RCU-T-NewArch_svn_web_changes\Microchip\TCPIP Stack\UDP.c
                  __pa_23   0x012e36    program     static C:\pavan\1+1RCUTx\1-1-RCU-T-NewArch_svn_web_changes\Microchip\TCPIP Stack\UDP.c
                  __pa_24   0x012e4a    program     static C:\pavan\1+1RCUTx\1-1-RCU-T-NewArch_svn_web_changes\Microchip\TCPIP Stack\UDP.c
                  __pa_25   0x012e58    program     static C:\pavan\1+1RCUTx\1-1-RCU-T-NewArch_svn_web_changes\Microchip\TCPIP Stack\UDP.c
                  __pa_26   0x012e64    program     static C:\pavan\1+1RCUTx\1-1-RCU-T-NewArch_svn_web_changes\Microchip\TCPIP Stack\UDP.c
                  __pa_27   0x012e6e    program     static C:\pavan\1+1RCUTx\1-1-RCU-T-NewArch_svn_web_changes\Microchip\TCPIP Stack\UDP.c
                  __pa_28   0x012e78    program     static C:\pavan\1+1RCUTx\1-1-RCU-T-NewArch_svn_web_changes\Microchip\TCPIP Stack\UDP.c
                  __pa_29   0x012e88    program     static C:\pavan\1+1RCUTx\1-1-RCU-T-NewArch_svn_web_changes\Microchip\TCPIP Stack\UDP.c
                  __pa_30   0x012e98    program     static C:\pavan\1+1RCUTx\1-1-RCU-T-NewArch_svn_web_changes\Microchip\TCPIP Stack\UDP.c
                  __pa_31   0x012ea2    program     static C:\pavan\1+1RCUTx\1-1-RCU-T-NewArch_svn_web_changes\Microchip\TCPIP Stack\UDP.c
                  __pa_32   0x012eb0    program     static C:\pavan\1+1RCUTx\1-1-RCU-T-NewArch_svn_web_changes\Microchip\TCPIP Stack\UDP.c
                  __pa_33   0x012ebe    program     static C:\pavan\1+1RCUTx\1-1-RCU-T-NewArch_svn_web_changes\Microchip\TCPIP Stack\UDP.c
                  __pa_34   0x012ecc    program     static C:\pavan\1+1RCUTx\1-1-RCU-T-NewArch_svn_web_changes\Microchip\TCPIP Stack\UDP.c
                  __pa_35   0x012eda    program     static C:\pavan\1+1RCUTx\1-1-RCU-T-NewArch_svn_web_changes\Microchip\TCPIP Stack\UDP.c
                  __pa_36   0x012ee8    program     static C:\pavan\1+1RCUTx\1-1-RCU-T-NewArch_svn_web_changes\Microchip\TCPIP Stack\UDP.c
                  __pa_37   0x012ef6    program     static C:\pavan\1+1RCUTx\1-1-RCU-T-NewArch_svn_web_changes\Microchip\TCPIP Stack\UDP.c
                  __pa_38   0x012efe    program     static C:\pavan\1+1RCUTx\1-1-RCU-T-NewArch_svn_web_changes\Microchip\TCPIP Stack\UDP.c
                  __pa_39   0x012f08    program     static C:\pavan\1+1RCUTx\1-1-RCU-T-NewArch_svn_web_changes\Microchip\TCPIP Stack\UDP.c
                  __pa_40   0x012f10    program     static C:\pavan\1+1RCUTx\1-1-RCU-T-NewArch_svn_web_changes\Microchip\TCPIP Stack\UDP.c
                  __pa_41   0x012f26    program     static C:\pavan\1+1RCUTx\1-1-RCU-T-NewArch_svn_web_changes\Microchip\TCPIP Stack\UDP.c
                  __pa_42   0x012f34    program     static C:\pavan\1+1RCUTx\1-1-RCU-T-NewArch_svn_web_changes\Microchip\TCPIP Stack\UDP.c
                  __pa_43   0x012f3e    program     static C:\pavan\1+1RCUTx\1-1-RCU-T-NewArch_svn_web_changes\Microchip\TCPIP Stack\UDP.c
                  __pa_44   0x012f4c    program     static C:\pavan\1+1RCUTx\1-1-RCU-T-NewArch_svn_web_changes\Microchip\TCPIP Stack\UDP.c
                  __pa_45   0x012f54    program     static C:\pavan\1+1RCUTx\1-1-RCU-T-NewArch_svn_web_changes\Microchip\TCPIP Stack\UDP.c
                  __pa_46   0x012f62    program     static C:\pavan\1+1RCUTx\1-1-RCU-T-NewArch_svn_web_changes\Microchip\TCPIP Stack\UDP.c
                  __pa_47   0x012f70    program     static C:\pavan\1+1RCUTx\1-1-RCU-T-NewArch_svn_web_changes\Microchip\TCPIP Stack\UDP.c
                  __pa_48   0x012f78    program     static C:\pavan\1+1RCUTx\1-1-RCU-T-NewArch_svn_web_changes\Microchip\TCPIP Stack\UDP.c
                  __pa_49   0x012f80    program     static C:\pavan\1+1RCUTx\1-1-RCU-T-NewArch_svn_web_changes\Microchip\TCPIP Stack\UDP.c
                  __pa_50   0x012f88    program     static C:\pavan\1+1RCUTx\1-1-RCU-T-NewArch_svn_web_changes\Microchip\TCPIP Stack\UDP.c
                  __pa_51   0x012f96    program     static C:\pavan\1+1RCUTx\1-1-RCU-T-NewArch_svn_web_changes\Microchip\TCPIP Stack\UDP.c
                  __pa_52   0x012fa4    program     static C:\pavan\1+1RCUTx\1-1-RCU-T-NewArch_svn_web_changes\Microchip\TCPIP Stack\UDP.c
                  __pa_53   0x012fac    program     static C:\pavan\1+1RCUTx\1-1-RCU-T-NewArch_svn_web_changes\Microchip\TCPIP Stack\UDP.c
                  __pa_54   0x012fba    program     static C:\pavan\1+1RCUTx\1-1-RCU-T-NewArch_svn_web_changes\Microchip\TCPIP Stack\UDP.c
                  __pa_55   0x012fc2    program     static C:\pavan\1+1RCUTx\1-1-RCU-T-NewArch_svn_web_changes\Microchip\TCPIP Stack\UDP.c
                  __pa_56   0x012fcc    program     static C:\pavan\1+1RCUTx\1-1-RCU-T-NewArch_svn_web_changes\Microchip\TCPIP Stack\UDP.c
                  __pa_57   0x012fd6    program     static C:\pavan\1+1RCUTx\1-1-RCU-T-NewArch_svn_web_changes\Microchip\TCPIP Stack\UDP.c
                  __pa_58   0x012fe0    program     static C:\pavan\1+1RCUTx\1-1-RCU-T-NewArch_svn_web_changes\Microchip\TCPIP Stack\UDP.c
                  __pa_59   0x012fea    program     static C:\pavan\1+1RCUTx\1-1-RCU-T-NewArch_svn_web_changes\Microchip\TCPIP Stack\UDP.c
                  __pa_60   0x012ff4    program     static C:\pavan\1+1RCUTx\1-1-RCU-T-NewArch_svn_web_changes\Microchip\TCPIP Stack\UDP.c
                  __pa_61   0x012ffa    program     static C:\pavan\1+1RCUTx\1-1-RCU-T-NewArch_svn_web_changes\Microchip\TCPIP Stack\UDP.c
                  MACInit   0x013000    program     extern C:\pavan\1+1RCUTx\1-1-RCU-T-NewArch_svn_web_changes\Microchip\TCPIP Stack\ETH97J60.c
        ___while_lbl00001   0x01301a    program     static                          
        ___while_lbl00002   0x013020    program     static                          
       ___return_lbl00000   0x013108    program     static                          
              MACIsLinked   0x013116    program     extern C:\pavan\1+1RCUTx\1-1-RCU-T-NewArch_svn_web_changes\Microchip\TCPIP Stack\ETH97J60.c
             MACIsTxReady   0x01312a    program     extern C:\pavan\1+1RCUTx\1-1-RCU-T-NewArch_svn_web_changes\Microchip\TCPIP Stack\ETH97J60.c
             MACDiscardRx   0x013152    program     extern C:\pavan\1+1RCUTx\1-1-RCU-T-NewArch_svn_web_changes\Microchip\TCPIP Stack\ETH97J60.c
         MACGetFreeRxSize   0x0131b2    program     extern C:\pavan\1+1RCUTx\1-1-RCU-T-NewArch_svn_web_changes\Microchip\TCPIP Stack\ETH97J60.c
             MACGetHeader   0x01327a    program     extern C:\pavan\1+1RCUTx\1-1-RCU-T-NewArch_svn_web_changes\Microchip\TCPIP Stack\ETH97J60.c
           ___if_lbl00020   0x0132a0    program     static                          
           ___if_lbl00021   0x0132ac    program     static                          
              __tmplbl_11   0x013312    program     static                          
              __tmplbl_10   0x013314    program     static                          
               __tmplbl_9   0x013322    program     static                          
               __tmplbl_8   0x01333a    program     static                          
               __tmplbl_7   0x013350    program     static                          
               __tmplbl_6   0x013368    program     static                          
               __tmplbl_5   0x01337e    program     static                          
           ___if_lbl00027   0x013380    program     static                          
              __tmplbl_13   0x0133e0    program     static                          
              __tmplbl_14   0x0133e6    program     static                          
              __tmplbl_12   0x0133ee    program     static                          
           ___if_lbl00030   0x013400    program     static                          
       ___return_lbl00019   0x013408    program     static                          
             MACPutHeader   0x013424    program     extern C:\pavan\1+1RCUTx\1-1-RCU-T-NewArch_svn_web_changes\Microchip\TCPIP Stack\ETH97J60.c
                 MACFlush   0x013488    program     extern C:\pavan\1+1RCUTx\1-1-RCU-T-NewArch_svn_web_changes\Microchip\TCPIP Stack\ETH97J60.c
        MACSetReadPtrInRx   0x0134b0    program     extern C:\pavan\1+1RCUTx\1-1-RCU-T-NewArch_svn_web_changes\Microchip\TCPIP Stack\ETH97J60.c
           MACSetWritePtr   0x0134c8    program     extern C:\pavan\1+1RCUTx\1-1-RCU-T-NewArch_svn_web_changes\Microchip\TCPIP Stack\ETH97J60.c
            MACSetReadPtr   0x0134dc    program     extern C:\pavan\1+1RCUTx\1-1-RCU-T-NewArch_svn_web_changes\Microchip\TCPIP Stack\ETH97J60.c
        MACCalcRxChecksum   0x0134f4    program     extern C:\pavan\1+1RCUTx\1-1-RCU-T-NewArch_svn_web_changes\Microchip\TCPIP Stack\ETH97J60.c
     CalcIPBufferChecksum   0x013540    program     extern C:\pavan\1+1RCUTx\1-1-RCU-T-NewArch_svn_web_changes\Microchip\TCPIP Stack\ETH97J60.c
          MACMemCopyAsync   0x0136b0    program     extern C:\pavan\1+1RCUTx\1-1-RCU-T-NewArch_svn_web_changes\Microchip\TCPIP Stack\ETH97J60.c
         MACIsMemCopyDone   0x0137fe    program     extern C:\pavan\1+1RCUTx\1-1-RCU-T-NewArch_svn_web_changes\Microchip\TCPIP Stack\ETH97J60.c
                   MACGet   0x01380a    program     extern C:\pavan\1+1RCUTx\1-1-RCU-T-NewArch_svn_web_changes\Microchip\TCPIP Stack\ETH97J60.c
              MACGetArray   0x01380e    program     extern C:\pavan\1+1RCUTx\1-1-RCU-T-NewArch_svn_web_changes\Microchip\TCPIP Stack\ETH97J60.c
                   MACPut   0x013868    program     extern C:\pavan\1+1RCUTx\1-1-RCU-T-NewArch_svn_web_changes\Microchip\TCPIP Stack\ETH97J60.c
       ___return_lbl00079   0x013882    program     static                          
              MACPutArray   0x01388e    program     extern C:\pavan\1+1RCUTx\1-1-RCU-T-NewArch_svn_web_changes\Microchip\TCPIP Stack\ETH97J60.c
        ___while_lbl00081   0x01389e    program     static                          
        ___while_lbl00082   0x0138d2    program     static                          
       ___return_lbl00080   0x0138d2    program     static                          
           MACPutROMArray   0x0138de    program     extern C:\pavan\1+1RCUTx\1-1-RCU-T-NewArch_svn_web_changes\Microchip\TCPIP Stack\ETH97J60.c
        ___while_lbl00084   0x0138ee    program     static                          
       ___return_lbl00083   0x013934    program     static                          
        ___while_lbl00085   0x013934    program     static                          
               ReadPHYReg   0x013940    program     extern C:\pavan\1+1RCUTx\1-1-RCU-T-NewArch_svn_web_changes\Microchip\TCPIP Stack\ETH97J60.c
        ___while_lbl00087   0x013964    program     static                          
        ___while_lbl00088   0x01396a    program     static                          
       ___return_lbl00086   0x01398e    program     static                          
              WritePHYReg   0x01399e    program     extern C:\pavan\1+1RCUTx\1-1-RCU-T-NewArch_svn_web_changes\Microchip\TCPIP Stack\ETH97J60.c
        ___while_lbl00090   0x0139da    program     static                          
       ___return_lbl00089   0x0139e0    program     static                          
        ___while_lbl00091   0x0139e0    program     static                          
             MACPowerDown   0x0139ee    program     extern C:\pavan\1+1RCUTx\1-1-RCU-T-NewArch_svn_web_changes\Microchip\TCPIP Stack\ETH97J60.c
               MACPowerUp   0x013a00    program     extern C:\pavan\1+1RCUTx\1-1-RCU-T-NewArch_svn_web_changes\Microchip\TCPIP Stack\ETH97J60.c
                   __pa_0   0x013a0e    program     static C:\pavan\1+1RCUTx\1-1-RCU-T-NewArch_svn_web_changes\Microchip\TCPIP Stack\ETH97J60.c
                   __pa_1   0x013a20    program     static C:\pavan\1+1RCUTx\1-1-RCU-T-NewArch_svn_web_changes\Microchip\TCPIP Stack\ETH97J60.c
              __tmplbl_25   0x013a20    program     static                          
                   __pa_2   0x013a2c    program     static C:\pavan\1+1RCUTx\1-1-RCU-T-NewArch_svn_web_changes\Microchip\TCPIP Stack\ETH97J60.c
                   __pa_3   0x013a4a    program     static C:\pavan\1+1RCUTx\1-1-RCU-T-NewArch_svn_web_changes\Microchip\TCPIP Stack\ETH97J60.c
                   __pa_4   0x013a62    program     static C:\pavan\1+1RCUTx\1-1-RCU-T-NewArch_svn_web_changes\Microchip\TCPIP Stack\ETH97J60.c
                   __pa_5   0x013a6c    program     static C:\pavan\1+1RCUTx\1-1-RCU-T-NewArch_svn_web_changes\Microchip\TCPIP Stack\ETH97J60.c
                   __pa_6   0x013a70    program     static C:\pavan\1+1RCUTx\1-1-RCU-T-NewArch_svn_web_changes\Microchip\TCPIP Stack\ETH97J60.c
                   __pa_7   0x013a76    program     static C:\pavan\1+1RCUTx\1-1-RCU-T-NewArch_svn_web_changes\Microchip\TCPIP Stack\ETH97J60.c
                   __pa_8   0x013a80    program     static C:\pavan\1+1RCUTx\1-1-RCU-T-NewArch_svn_web_changes\Microchip\TCPIP Stack\ETH97J60.c
                   __pa_9   0x013a8e    program     static C:\pavan\1+1RCUTx\1-1-RCU-T-NewArch_svn_web_changes\Microchip\TCPIP Stack\ETH97J60.c
                  __pa_10   0x013aa0    program     static C:\pavan\1+1RCUTx\1-1-RCU-T-NewArch_svn_web_changes\Microchip\TCPIP Stack\ETH97J60.c
                  __pa_11   0x013ab0    program     static C:\pavan\1+1RCUTx\1-1-RCU-T-NewArch_svn_web_changes\Microchip\TCPIP Stack\ETH97J60.c
                  __pa_12   0x013abc    program     static C:\pavan\1+1RCUTx\1-1-RCU-T-NewArch_svn_web_changes\Microchip\TCPIP Stack\ETH97J60.c
                  __pa_13   0x013aca    program     static C:\pavan\1+1RCUTx\1-1-RCU-T-NewArch_svn_web_changes\Microchip\TCPIP Stack\ETH97J60.c
                  __pa_14   0x013ad8    program     static C:\pavan\1+1RCUTx\1-1-RCU-T-NewArch_svn_web_changes\Microchip\TCPIP Stack\ETH97J60.c
                  __pa_15   0x013ae6    program     static C:\pavan\1+1RCUTx\1-1-RCU-T-NewArch_svn_web_changes\Microchip\TCPIP Stack\ETH97J60.c
                  __pa_16   0x013af4    program     static C:\pavan\1+1RCUTx\1-1-RCU-T-NewArch_svn_web_changes\Microchip\TCPIP Stack\ETH97J60.c
                  __pa_17   0x013b02    program     static C:\pavan\1+1RCUTx\1-1-RCU-T-NewArch_svn_web_changes\Microchip\TCPIP Stack\ETH97J60.c
                  __pa_18   0x013b0a    program     static C:\pavan\1+1RCUTx\1-1-RCU-T-NewArch_svn_web_changes\Microchip\TCPIP Stack\ETH97J60.c
                  __pa_19   0x013b14    program     static C:\pavan\1+1RCUTx\1-1-RCU-T-NewArch_svn_web_changes\Microchip\TCPIP Stack\ETH97J60.c
                  __pa_20   0x013b1e    program     static C:\pavan\1+1RCUTx\1-1-RCU-T-NewArch_svn_web_changes\Microchip\TCPIP Stack\ETH97J60.c
                  __pa_21   0x013b36    program     static C:\pavan\1+1RCUTx\1-1-RCU-T-NewArch_svn_web_changes\Microchip\TCPIP Stack\ETH97J60.c
                  __pa_22   0x013b3e    program     static C:\pavan\1+1RCUTx\1-1-RCU-T-NewArch_svn_web_changes\Microchip\TCPIP Stack\ETH97J60.c
                  __pa_23   0x013b4c    program     static C:\pavan\1+1RCUTx\1-1-RCU-T-NewArch_svn_web_changes\Microchip\TCPIP Stack\ETH97J60.c
                  __pa_24   0x013b54    program     static C:\pavan\1+1RCUTx\1-1-RCU-T-NewArch_svn_web_changes\Microchip\TCPIP Stack\ETH97J60.c
                  __pa_25   0x013b64    program     static C:\pavan\1+1RCUTx\1-1-RCU-T-NewArch_svn_web_changes\Microchip\TCPIP Stack\ETH97J60.c
                  __pa_26   0x013b70    program     static C:\pavan\1+1RCUTx\1-1-RCU-T-NewArch_svn_web_changes\Microchip\TCPIP Stack\ETH97J60.c
                  __pa_27   0x013b7e    program     static C:\pavan\1+1RCUTx\1-1-RCU-T-NewArch_svn_web_changes\Microchip\TCPIP Stack\ETH97J60.c
                  __pa_28   0x013b8e    program     static C:\pavan\1+1RCUTx\1-1-RCU-T-NewArch_svn_web_changes\Microchip\TCPIP Stack\ETH97J60.c
                  __pa_29   0x013b98    program     static C:\pavan\1+1RCUTx\1-1-RCU-T-NewArch_svn_web_changes\Microchip\TCPIP Stack\ETH97J60.c
                  __pa_30   0x013ba2    program     static C:\pavan\1+1RCUTx\1-1-RCU-T-NewArch_svn_web_changes\Microchip\TCPIP Stack\ETH97J60.c
                  __pa_31   0x013baa    program     static C:\pavan\1+1RCUTx\1-1-RCU-T-NewArch_svn_web_changes\Microchip\TCPIP Stack\ETH97J60.c
               __string_0   0x013bb2    program     static C:\pavan\1+1RCUTx\1-1-RCU-T-NewArch_svn_web_changes\Agilis-SysLib\util.c
               __string_4   0x013bc0    program     static C:\pavan\1+1RCUTx\1-1-RCU-T-NewArch_svn_web_changes\Main\Main.c
               __string_3   0x013bc6    program     static C:\pavan\1+1RCUTx\1-1-RCU-T-NewArch_svn_web_changes\Main\Main.c
               __string_2   0x013bcc    program     static C:\pavan\1+1RCUTx\1-1-RCU-T-NewArch_svn_web_changes\Main\Main.c
               __string_1   0x013bd2    program     static C:\pavan\1+1RCUTx\1-1-RCU-T-NewArch_svn_web_changes\Main\Main.c
               __string_0   0x013bd8    program     static C:\pavan\1+1RCUTx\1-1-RCU-T-NewArch_svn_web_changes\Main\Main.c
               __string_7   0x013bde    program     static C:\pavan\1+1RCUTx\1-1-RCU-T-NewArch_svn_web_changes\Bootstrap\Initialization.c
               __string_6   0x013be8    program     static C:\pavan\1+1RCUTx\1-1-RCU-T-NewArch_svn_web_changes\Bootstrap\Initialization.c
               __string_5   0x013bee    program     static C:\pavan\1+1RCUTx\1-1-RCU-T-NewArch_svn_web_changes\Bootstrap\Initialization.c
               __string_4   0x013bf6    program     static C:\pavan\1+1RCUTx\1-1-RCU-T-NewArch_svn_web_changes\Bootstrap\Initialization.c
               __string_3   0x013bf7    program     static C:\pavan\1+1RCUTx\1-1-RCU-T-NewArch_svn_web_changes\Bootstrap\Initialization.c
               __string_2   0x013bfc    program     static C:\pavan\1+1RCUTx\1-1-RCU-T-NewArch_svn_web_changes\Bootstrap\Initialization.c
               __string_1   0x013c03    program     static C:\pavan\1+1RCUTx\1-1-RCU-T-NewArch_svn_web_changes\Bootstrap\Initialization.c
               __string_0   0x013c07    program     static C:\pavan\1+1RCUTx\1-1-RCU-T-NewArch_svn_web_changes\Bootstrap\Initialization.c
              __string_53   0x013c0d    program     static C:\pavan\1+1RCUTx\1-1-RCU-T-NewArch_svn_web_changes\Microchip\TCPIP Stack\HTTP2.c
              __string_52   0x013c18    program     static C:\pavan\1+1RCUTx\1-1-RCU-T-NewArch_svn_web_changes\Microchip\TCPIP Stack\HTTP2.c
              __string_51   0x013c1d    program     static C:\pavan\1+1RCUTx\1-1-RCU-T-NewArch_svn_web_changes\Microchip\TCPIP Stack\HTTP2.c
              __string_50   0x013c21    program     static C:\pavan\1+1RCUTx\1-1-RCU-T-NewArch_svn_web_changes\Microchip\TCPIP Stack\HTTP2.c
              __string_49   0x013c2a    program     static C:\pavan\1+1RCUTx\1-1-RCU-T-NewArch_svn_web_changes\Microchip\TCPIP Stack\HTTP2.c
              __string_48   0x013c33    program     static C:\pavan\1+1RCUTx\1-1-RCU-T-NewArch_svn_web_changes\Microchip\TCPIP Stack\HTTP2.c
              __string_47   0x013c43    program     static C:\pavan\1+1RCUTx\1-1-RCU-T-NewArch_svn_web_changes\Microchip\TCPIP Stack\HTTP2.c
              __string_46   0x013c5c    program     static C:\pavan\1+1RCUTx\1-1-RCU-T-NewArch_svn_web_changes\Microchip\TCPIP Stack\HTTP2.c
              __string_45   0x013c6b    program     static C:\pavan\1+1RCUTx\1-1-RCU-T-NewArch_svn_web_changes\Microchip\TCPIP Stack\HTTP2.c
              __string_44   0x013c7e    program     static C:\pavan\1+1RCUTx\1-1-RCU-T-NewArch_svn_web_changes\Microchip\TCPIP Stack\HTTP2.c
              __string_43   0x013c88    program     static C:\pavan\1+1RCUTx\1-1-RCU-T-NewArch_svn_web_changes\Microchip\TCPIP Stack\HTTP2.c
              __string_42   0x013c93    program     static C:\pavan\1+1RCUTx\1-1-RCU-T-NewArch_svn_web_changes\Microchip\TCPIP Stack\HTTP2.c
              __string_41   0x013c98    program     static C:\pavan\1+1RCUTx\1-1-RCU-T-NewArch_svn_web_changes\Microchip\TCPIP Stack\HTTP2.c
              __string_40   0x013c9c    program     static C:\pavan\1+1RCUTx\1-1-RCU-T-NewArch_svn_web_changes\Microchip\TCPIP Stack\HTTP2.c
              __string_39   0x013cac    program     static C:\pavan\1+1RCUTx\1-1-RCU-T-NewArch_svn_web_changes\Microchip\TCPIP Stack\HTTP2.c
              __string_38   0x013cbb    program     static C:\pavan\1+1RCUTx\1-1-RCU-T-NewArch_svn_web_changes\Microchip\TCPIP Stack\HTTP2.c
              __string_37   0x013cc3    program     static C:\pavan\1+1RCUTx\1-1-RCU-T-NewArch_svn_web_changes\Microchip\TCPIP Stack\HTTP2.c
              __string_36   0x013d1a    program     static C:\pavan\1+1RCUTx\1-1-RCU-T-NewArch_svn_web_changes\Microchip\TCPIP Stack\HTTP2.c
              __string_35   0x013d4c    program     static C:\pavan\1+1RCUTx\1-1-RCU-T-NewArch_svn_web_changes\Microchip\TCPIP Stack\HTTP2.c
              __string_34   0x013e1f    program     static C:\pavan\1+1RCUTx\1-1-RCU-T-NewArch_svn_web_changes\Microchip\TCPIP Stack\HTTP2.c
              __string_33   0x013ecc    program     static C:\pavan\1+1RCUTx\1-1-RCU-T-NewArch_svn_web_changes\Microchip\TCPIP Stack\HTTP2.c
              __string_32   0x013fec    program     static C:\pavan\1+1RCUTx\1-1-RCU-T-NewArch_svn_web_changes\Microchip\TCPIP Stack\HTTP2.c
              __string_31   0x014052    program     static C:\pavan\1+1RCUTx\1-1-RCU-T-NewArch_svn_web_changes\Microchip\TCPIP Stack\HTTP2.c
              __string_30   0x0140c2    program     static C:\pavan\1+1RCUTx\1-1-RCU-T-NewArch_svn_web_changes\Microchip\TCPIP Stack\HTTP2.c
              __string_29   0x01412f    program     static C:\pavan\1+1RCUTx\1-1-RCU-T-NewArch_svn_web_changes\Microchip\TCPIP Stack\HTTP2.c
              __string_28   0x0141cd    program     static C:\pavan\1+1RCUTx\1-1-RCU-T-NewArch_svn_web_changes\Microchip\TCPIP Stack\HTTP2.c
              __string_27   0x01424e    program     static C:\pavan\1+1RCUTx\1-1-RCU-T-NewArch_svn_web_changes\Microchip\TCPIP Stack\HTTP2.c
              __string_26   0x0142ac    program     static C:\pavan\1+1RCUTx\1-1-RCU-T-NewArch_svn_web_changes\Microchip\TCPIP Stack\HTTP2.c
              __string_25   0x0142d1    program     static C:\pavan\1+1RCUTx\1-1-RCU-T-NewArch_svn_web_changes\Microchip\TCPIP Stack\HTTP2.c
              __string_24   0x0142d2    program     static C:\pavan\1+1RCUTx\1-1-RCU-T-NewArch_svn_web_changes\Microchip\TCPIP Stack\HTTP2.c
              __string_23   0x0142df    program     static C:\pavan\1+1RCUTx\1-1-RCU-T-NewArch_svn_web_changes\Microchip\TCPIP Stack\HTTP2.c
              __string_22   0x0142f3    program     static C:\pavan\1+1RCUTx\1-1-RCU-T-NewArch_svn_web_changes\Microchip\TCPIP Stack\HTTP2.c
              __string_21   0x0142fe    program     static C:\pavan\1+1RCUTx\1-1-RCU-T-NewArch_svn_web_changes\Microchip\TCPIP Stack\HTTP2.c
              __string_20   0x014308    program     static C:\pavan\1+1RCUTx\1-1-RCU-T-NewArch_svn_web_changes\Microchip\TCPIP Stack\HTTP2.c
              __string_19   0x014312    program     static C:\pavan\1+1RCUTx\1-1-RCU-T-NewArch_svn_web_changes\Microchip\TCPIP Stack\HTTP2.c
              __string_18   0x01431b    program     static C:\pavan\1+1RCUTx\1-1-RCU-T-NewArch_svn_web_changes\Microchip\TCPIP Stack\HTTP2.c
              __string_17   0x014324    program     static C:\pavan\1+1RCUTx\1-1-RCU-T-NewArch_svn_web_changes\Microchip\TCPIP Stack\HTTP2.c
              __string_16   0x01432e    program     static C:\pavan\1+1RCUTx\1-1-RCU-T-NewArch_svn_web_changes\Microchip\TCPIP Stack\HTTP2.c
              __string_15   0x014339    program     static C:\pavan\1+1RCUTx\1-1-RCU-T-NewArch_svn_web_changes\Microchip\TCPIP Stack\HTTP2.c
              __string_14   0x01433d    program     static C:\pavan\1+1RCUTx\1-1-RCU-T-NewArch_svn_web_changes\Microchip\TCPIP Stack\HTTP2.c
              __string_13   0x014341    program     static C:\pavan\1+1RCUTx\1-1-RCU-T-NewArch_svn_web_changes\Microchip\TCPIP Stack\HTTP2.c
              __string_12   0x014345    program     static C:\pavan\1+1RCUTx\1-1-RCU-T-NewArch_svn_web_changes\Microchip\TCPIP Stack\HTTP2.c
              __string_11   0x014349    program     static C:\pavan\1+1RCUTx\1-1-RCU-T-NewArch_svn_web_changes\Microchip\TCPIP Stack\HTTP2.c
              __string_10   0x01434d    program     static C:\pavan\1+1RCUTx\1-1-RCU-T-NewArch_svn_web_changes\Microchip\TCPIP Stack\HTTP2.c
               __string_9   0x014351    program     static C:\pavan\1+1RCUTx\1-1-RCU-T-NewArch_svn_web_changes\Microchip\TCPIP Stack\HTTP2.c
               __string_8   0x014355    program     static C:\pavan\1+1RCUTx\1-1-RCU-T-NewArch_svn_web_changes\Microchip\TCPIP Stack\HTTP2.c
               __string_7   0x014359    program     static C:\pavan\1+1RCUTx\1-1-RCU-T-NewArch_svn_web_changes\Microchip\TCPIP Stack\HTTP2.c
               __string_6   0x01435d    program     static C:\pavan\1+1RCUTx\1-1-RCU-T-NewArch_svn_web_changes\Microchip\TCPIP Stack\HTTP2.c
               __string_5   0x014362    program     static C:\pavan\1+1RCUTx\1-1-RCU-T-NewArch_svn_web_changes\Microchip\TCPIP Stack\HTTP2.c
               __string_4   0x014366    program     static C:\pavan\1+1RCUTx\1-1-RCU-T-NewArch_svn_web_changes\Microchip\TCPIP Stack\HTTP2.c
               __string_2   0x01436a    program     static C:\pavan\1+1RCUTx\1-1-RCU-T-NewArch_svn_web_changes\Microchip\TCPIP Stack\HTTP2.c
               __string_1   0x01436f    program     static C:\pavan\1+1RCUTx\1-1-RCU-T-NewArch_svn_web_changes\Microchip\TCPIP Stack\HTTP2.c
               __string_0   0x01437a    program     static C:\pavan\1+1RCUTx\1-1-RCU-T-NewArch_svn_web_changes\Microchip\TCPIP Stack\HTTP2.c
               __string_0   0x014385    program     static C:\pavan\1+1RCUTx\1-1-RCU-T-NewArch_svn_web_changes\Microchip\TCPIP Stack\MPFS2.c
               __string_0   0x01438c    program     static C:\pavan\1+1RCUTx\1-1-RCU-T-NewArch_svn_web_changes\App\SerialIntf\AgilisProtocol\AgilisProtocol.c
               __string_4   0x01438f    program     static C:\pavan\1+1RCUTx\1-1-RCU-T-NewArch_svn_web_changes\Drivers\AgilisUart.c
               __string_3   0x014395    program     static C:\pavan\1+1RCUTx\1-1-RCU-T-NewArch_svn_web_changes\Drivers\AgilisUart.c
               __string_2   0x01439b    program     static C:\pavan\1+1RCUTx\1-1-RCU-T-NewArch_svn_web_changes\Drivers\AgilisUart.c
               __string_1   0x0143a1    program     static C:\pavan\1+1RCUTx\1-1-RCU-T-NewArch_svn_web_changes\Drivers\AgilisUart.c
               __string_0   0x0143a7    program     static C:\pavan\1+1RCUTx\1-1-RCU-T-NewArch_svn_web_changes\Drivers\AgilisUart.c
              __string_19   0x0143ad    program     static C:\pavan\1+1RCUTx\1-1-RCU-T-NewArch_svn_web_changes\App\WebUI\AgilisHTTPApp.c
              __string_18   0x0143b1    program     static C:\pavan\1+1RCUTx\1-1-RCU-T-NewArch_svn_web_changes\App\WebUI\AgilisHTTPApp.c
              __string_17   0x0143b5    program     static C:\pavan\1+1RCUTx\1-1-RCU-T-NewArch_svn_web_changes\App\WebUI\AgilisHTTPApp.c
              __string_16   0x0143c9    program     static C:\pavan\1+1RCUTx\1-1-RCU-T-NewArch_svn_web_changes\App\WebUI\AgilisHTTPApp.c
              __string_15   0x0143de    program     static C:\pavan\1+1RCUTx\1-1-RCU-T-NewArch_svn_web_changes\App\WebUI\AgilisHTTPApp.c
              __string_14   0x0143e3    program     static C:\pavan\1+1RCUTx\1-1-RCU-T-NewArch_svn_web_changes\App\WebUI\AgilisHTTPApp.c
              __string_13   0x0143e8    program     static C:\pavan\1+1RCUTx\1-1-RCU-T-NewArch_svn_web_changes\App\WebUI\AgilisHTTPApp.c
              __string_12   0x0143ec    program     static C:\pavan\1+1RCUTx\1-1-RCU-T-NewArch_svn_web_changes\App\WebUI\AgilisHTTPApp.c
              __string_11   0x0143f1    program     static C:\pavan\1+1RCUTx\1-1-RCU-T-NewArch_svn_web_changes\App\WebUI\AgilisHTTPApp.c
              __string_10   0x0143f6    program     static C:\pavan\1+1RCUTx\1-1-RCU-T-NewArch_svn_web_changes\App\WebUI\AgilisHTTPApp.c
               __string_9   0x0143fa    program     static C:\pavan\1+1RCUTx\1-1-RCU-T-NewArch_svn_web_changes\App\WebUI\AgilisHTTPApp.c
               __string_8   0x0143fd    program     static C:\pavan\1+1RCUTx\1-1-RCU-T-NewArch_svn_web_changes\App\WebUI\AgilisHTTPApp.c
               __string_7   0x014400    program     static C:\pavan\1+1RCUTx\1-1-RCU-T-NewArch_svn_web_changes\App\WebUI\AgilisHTTPApp.c
               __string_6   0x014409    program     static C:\pavan\1+1RCUTx\1-1-RCU-T-NewArch_svn_web_changes\App\WebUI\AgilisHTTPApp.c
               __string_5   0x01440d    program     static C:\pavan\1+1RCUTx\1-1-RCU-T-NewArch_svn_web_changes\App\WebUI\AgilisHTTPApp.c
               __string_4   0x01441d    program     static C:\pavan\1+1RCUTx\1-1-RCU-T-NewArch_svn_web_changes\App\WebUI\AgilisHTTPApp.c
               __string_3   0x014431    program     static C:\pavan\1+1RCUTx\1-1-RCU-T-NewArch_svn_web_changes\App\WebUI\AgilisHTTPApp.c
               __string_2   0x014444    program     static C:\pavan\1+1RCUTx\1-1-RCU-T-NewArch_svn_web_changes\App\WebUI\AgilisHTTPApp.c
               __string_1   0x01444a    program     static C:\pavan\1+1RCUTx\1-1-RCU-T-NewArch_svn_web_changes\App\WebUI\AgilisHTTPApp.c
               __string_0   0x01444f    program     static C:\pavan\1+1RCUTx\1-1-RCU-T-NewArch_svn_web_changes\App\WebUI\AgilisHTTPApp.c
              __string_21   0x014457    program     static C:\pavan\1+1RCUTx\1-1-RCU-T-NewArch_svn_web_changes\App\WebUI\AgilisHTTPGetDevInfo.c
              __string_20   0x01445b    program     static C:\pavan\1+1RCUTx\1-1-RCU-T-NewArch_svn_web_changes\App\WebUI\AgilisHTTPGetDevInfo.c
              __string_19   0x014460    program     static C:\pavan\1+1RCUTx\1-1-RCU-T-NewArch_svn_web_changes\App\WebUI\AgilisHTTPGetDevInfo.c
              __string_18   0x014465    program     static C:\pavan\1+1RCUTx\1-1-RCU-T-NewArch_svn_web_changes\App\WebUI\AgilisHTTPGetDevInfo.c
              __string_17   0x014472    program     static C:\pavan\1+1RCUTx\1-1-RCU-T-NewArch_svn_web_changes\App\WebUI\AgilisHTTPGetDevInfo.c
              __string_16   0x014478    program     static C:\pavan\1+1RCUTx\1-1-RCU-T-NewArch_svn_web_changes\App\WebUI\AgilisHTTPGetDevInfo.c
              __string_15   0x01447d    program     static C:\pavan\1+1RCUTx\1-1-RCU-T-NewArch_svn_web_changes\App\WebUI\AgilisHTTPGetDevInfo.c
              __string_14   0x014482    program     static C:\pavan\1+1RCUTx\1-1-RCU-T-NewArch_svn_web_changes\App\WebUI\AgilisHTTPGetDevInfo.c
              __string_13   0x014492    program     static C:\pavan\1+1RCUTx\1-1-RCU-T-NewArch_svn_web_changes\App\WebUI\AgilisHTTPGetDevInfo.c
              __string_12   0x014496    program     static C:\pavan\1+1RCUTx\1-1-RCU-T-NewArch_svn_web_changes\App\WebUI\AgilisHTTPGetDevInfo.c
              __string_11   0x0144aa    program     static C:\pavan\1+1RCUTx\1-1-RCU-T-NewArch_svn_web_changes\App\WebUI\AgilisHTTPGetDevInfo.c
              __string_10   0x0144b0    program     static C:\pavan\1+1RCUTx\1-1-RCU-T-NewArch_svn_web_changes\App\WebUI\AgilisHTTPGetDevInfo.c
               __string_9   0x0144b6    program     static C:\pavan\1+1RCUTx\1-1-RCU-T-NewArch_svn_web_changes\App\WebUI\AgilisHTTPGetDevInfo.c
               __string_8   0x0144bc    program     static C:\pavan\1+1RCUTx\1-1-RCU-T-NewArch_svn_web_changes\App\WebUI\AgilisHTTPGetDevInfo.c
               __string_7   0x0144c2    program     static C:\pavan\1+1RCUTx\1-1-RCU-T-NewArch_svn_web_changes\App\WebUI\AgilisHTTPGetDevInfo.c
               __string_6   0x0144c7    program     static C:\pavan\1+1RCUTx\1-1-RCU-T-NewArch_svn_web_changes\App\WebUI\AgilisHTTPGetDevInfo.c
               __string_5   0x0144cc    program     static C:\pavan\1+1RCUTx\1-1-RCU-T-NewArch_svn_web_changes\App\WebUI\AgilisHTTPGetDevInfo.c
               __string_4   0x0144d3    program     static C:\pavan\1+1RCUTx\1-1-RCU-T-NewArch_svn_web_changes\App\WebUI\AgilisHTTPGetDevInfo.c
               __string_3   0x0144db    program     static C:\pavan\1+1RCUTx\1-1-RCU-T-NewArch_svn_web_changes\App\WebUI\AgilisHTTPGetDevInfo.c
               __string_2   0x0144df    program     static C:\pavan\1+1RCUTx\1-1-RCU-T-NewArch_svn_web_changes\App\WebUI\AgilisHTTPGetDevInfo.c
               __string_1   0x0144e6    program     static C:\pavan\1+1RCUTx\1-1-RCU-T-NewArch_svn_web_changes\App\WebUI\AgilisHTTPGetDevInfo.c
               __string_0   0x0144e9    program     static C:\pavan\1+1RCUTx\1-1-RCU-T-NewArch_svn_web_changes\App\WebUI\AgilisHTTPGetDevInfo.c
              __string_27   0x0144fc    program     static C:\pavan\1+1RCUTx\1-1-RCU-T-NewArch_svn_web_changes\App\WebUI\AgilisHTTPPrint.c
              __string_26   0x014501    program     static C:\pavan\1+1RCUTx\1-1-RCU-T-NewArch_svn_web_changes\App\WebUI\AgilisHTTPPrint.c
              __string_25   0x01451f    program     static C:\pavan\1+1RCUTx\1-1-RCU-T-NewArch_svn_web_changes\App\WebUI\AgilisHTTPPrint.c
              __string_24   0x014533    program     static C:\pavan\1+1RCUTx\1-1-RCU-T-NewArch_svn_web_changes\App\WebUI\AgilisHTTPPrint.c
              __string_23   0x014546    program     static C:\pavan\1+1RCUTx\1-1-RCU-T-NewArch_svn_web_changes\App\WebUI\AgilisHTTPPrint.c
              __string_22   0x014563    program     static C:\pavan\1+1RCUTx\1-1-RCU-T-NewArch_svn_web_changes\App\WebUI\AgilisHTTPPrint.c
              __string_21   0x014573    program     static C:\pavan\1+1RCUTx\1-1-RCU-T-NewArch_svn_web_changes\App\WebUI\AgilisHTTPPrint.c
              __string_20   0x014579    program     static C:\pavan\1+1RCUTx\1-1-RCU-T-NewArch_svn_web_changes\App\WebUI\AgilisHTTPPrint.c
              __string_19   0x01457d    program     static C:\pavan\1+1RCUTx\1-1-RCU-T-NewArch_svn_web_changes\App\WebUI\AgilisHTTPPrint.c
              __string_18   0x014587    program     static C:\pavan\1+1RCUTx\1-1-RCU-T-NewArch_svn_web_changes\App\WebUI\AgilisHTTPPrint.c
              __string_17   0x01458f    program     static C:\pavan\1+1RCUTx\1-1-RCU-T-NewArch_svn_web_changes\App\WebUI\AgilisHTTPPrint.c
              __string_16   0x014598    program     static C:\pavan\1+1RCUTx\1-1-RCU-T-NewArch_svn_web_changes\App\WebUI\AgilisHTTPPrint.c
              __string_15   0x01459b    program     static C:\pavan\1+1RCUTx\1-1-RCU-T-NewArch_svn_web_changes\App\WebUI\AgilisHTTPPrint.c
              __string_14   0x01459f    program     static C:\pavan\1+1RCUTx\1-1-RCU-T-NewArch_svn_web_changes\App\WebUI\AgilisHTTPPrint.c
              __string_13   0x0145a2    program     static C:\pavan\1+1RCUTx\1-1-RCU-T-NewArch_svn_web_changes\App\WebUI\AgilisHTTPPrint.c
              __string_12   0x0145a5    program     static C:\pavan\1+1RCUTx\1-1-RCU-T-NewArch_svn_web_changes\App\WebUI\AgilisHTTPPrint.c
              __string_11   0x0145aa    program     static C:\pavan\1+1RCUTx\1-1-RCU-T-NewArch_svn_web_changes\App\WebUI\AgilisHTTPPrint.c
              __string_10   0x0145af    program     static C:\pavan\1+1RCUTx\1-1-RCU-T-NewArch_svn_web_changes\App\WebUI\AgilisHTTPPrint.c
               __string_9   0x0145b6    program     static C:\pavan\1+1RCUTx\1-1-RCU-T-NewArch_svn_web_changes\App\WebUI\AgilisHTTPPrint.c
               __string_8   0x0145bc    program     static C:\pavan\1+1RCUTx\1-1-RCU-T-NewArch_svn_web_changes\App\WebUI\AgilisHTTPPrint.c
               __string_7   0x0145c2    program     static C:\pavan\1+1RCUTx\1-1-RCU-T-NewArch_svn_web_changes\App\WebUI\AgilisHTTPPrint.c
               __string_6   0x0145c6    program     static C:\pavan\1+1RCUTx\1-1-RCU-T-NewArch_svn_web_changes\App\WebUI\AgilisHTTPPrint.c
               __string_5   0x0145ca    program     static C:\pavan\1+1RCUTx\1-1-RCU-T-NewArch_svn_web_changes\App\WebUI\AgilisHTTPPrint.c
               __string_4   0x0145ce    program     static C:\pavan\1+1RCUTx\1-1-RCU-T-NewArch_svn_web_changes\App\WebUI\AgilisHTTPPrint.c
               __string_3   0x0145d4    program     static C:\pavan\1+1RCUTx\1-1-RCU-T-NewArch_svn_web_changes\App\WebUI\AgilisHTTPPrint.c
               __string_2   0x0145da    program     static C:\pavan\1+1RCUTx\1-1-RCU-T-NewArch_svn_web_changes\App\WebUI\AgilisHTTPPrint.c
               __string_1   0x0145e3    program     static C:\pavan\1+1RCUTx\1-1-RCU-T-NewArch_svn_web_changes\App\WebUI\AgilisHTTPPrint.c
               __string_0   0x0145eb    program     static C:\pavan\1+1RCUTx\1-1-RCU-T-NewArch_svn_web_changes\App\WebUI\AgilisHTTPPrint.c
               __string_0   0x0145ee    program     static C:\pavan\1+1RCUTx\1-1-RCU-T-NewArch_svn_web_changes\Microchip\TCPIP Stack\SNMP.c
               __string_0   0x0145f7    program     static C:\pavan\1+1RCUTx\1-1-RCU-T-NewArch_svn_web_changes\AgilisDevices\RCULLAccess.c
               __string_0   0x0145fd    program     static C:\pavan\1+1RCUTx\1-1-RCU-T-NewArch_svn_web_changes\AgilisDevices\RCUHLAccess.c
               __string_2   0x014601    program     static C:\pavan\1+1RCUTx\1-1-RCU-T-NewArch_svn_web_changes\App\Util\AgilisAppUtil.c
               __string_1   0x014603    program     static C:\pavan\1+1RCUTx\1-1-RCU-T-NewArch_svn_web_changes\App\Util\AgilisAppUtil.c
               __string_0   0x014605    program     static C:\pavan\1+1RCUTx\1-1-RCU-T-NewArch_svn_web_changes\App\Util\AgilisAppUtil.c
               __string_7   0x014607    program     static C:\pavan\1+1RCUTx\1-1-RCU-T-NewArch_svn_web_changes\AgilisDevices\RCUServer.c
               __string_6   0x01460b    program     static C:\pavan\1+1RCUTx\1-1-RCU-T-NewArch_svn_web_changes\AgilisDevices\RCUServer.c
               __string_5   0x01460f    program     static C:\pavan\1+1RCUTx\1-1-RCU-T-NewArch_svn_web_changes\AgilisDevices\RCUServer.c
               __string_4   0x014613    program     static C:\pavan\1+1RCUTx\1-1-RCU-T-NewArch_svn_web_changes\AgilisDevices\RCUServer.c
               __string_3   0x014617    program     static C:\pavan\1+1RCUTx\1-1-RCU-T-NewArch_svn_web_changes\AgilisDevices\RCUServer.c
               __string_2   0x01461a    program     static C:\pavan\1+1RCUTx\1-1-RCU-T-NewArch_svn_web_changes\AgilisDevices\RCUServer.c
               __string_1   0x01461e    program     static C:\pavan\1+1RCUTx\1-1-RCU-T-NewArch_svn_web_changes\AgilisDevices\RCUServer.c
               __string_0   0x014623    program     static C:\pavan\1+1RCUTx\1-1-RCU-T-NewArch_svn_web_changes\AgilisDevices\RCUServer.c
              __string_19   0x014628    program     static C:\pavan\1+1RCUTx\1-1-RCU-T-NewArch_svn_web_changes\AgilisDevices\BUCClient.c
              __string_18   0x01462b    program     static C:\pavan\1+1RCUTx\1-1-RCU-T-NewArch_svn_web_changes\AgilisDevices\BUCClient.c
              __string_17   0x01462e    program     static C:\pavan\1+1RCUTx\1-1-RCU-T-NewArch_svn_web_changes\AgilisDevices\BUCClient.c
              __string_16   0x014631    program     static C:\pavan\1+1RCUTx\1-1-RCU-T-NewArch_svn_web_changes\AgilisDevices\BUCClient.c
              __string_15   0x014634    program     static C:\pavan\1+1RCUTx\1-1-RCU-T-NewArch_svn_web_changes\AgilisDevices\BUCClient.c
              __string_14   0x014637    program     static C:\pavan\1+1RCUTx\1-1-RCU-T-NewArch_svn_web_changes\AgilisDevices\BUCClient.c
              __string_13   0x01463b    program     static C:\pavan\1+1RCUTx\1-1-RCU-T-NewArch_svn_web_changes\AgilisDevices\BUCClient.c
              __string_12   0x01463e    program     static C:\pavan\1+1RCUTx\1-1-RCU-T-NewArch_svn_web_changes\AgilisDevices\BUCClient.c
              __string_11   0x014641    program     static C:\pavan\1+1RCUTx\1-1-RCU-T-NewArch_svn_web_changes\AgilisDevices\BUCClient.c
              __string_10   0x014644    program     static C:\pavan\1+1RCUTx\1-1-RCU-T-NewArch_svn_web_changes\AgilisDevices\BUCClient.c
               __string_9   0x014647    program     static C:\pavan\1+1RCUTx\1-1-RCU-T-NewArch_svn_web_changes\AgilisDevices\BUCClient.c
               __string_8   0x01464a    program     static C:\pavan\1+1RCUTx\1-1-RCU-T-NewArch_svn_web_changes\AgilisDevices\BUCClient.c
               __string_7   0x01464d    program     static C:\pavan\1+1RCUTx\1-1-RCU-T-NewArch_svn_web_changes\AgilisDevices\BUCClient.c
               __string_6   0x014650    program     static C:\pavan\1+1RCUTx\1-1-RCU-T-NewArch_svn_web_changes\AgilisDevices\BUCClient.c
               __string_5   0x014653    program     static C:\pavan\1+1RCUTx\1-1-RCU-T-NewArch_svn_web_changes\AgilisDevices\BUCClient.c
               __string_4   0x014656    program     static C:\pavan\1+1RCUTx\1-1-RCU-T-NewArch_svn_web_changes\AgilisDevices\BUCClient.c
               __string_3   0x014659    program     static C:\pavan\1+1RCUTx\1-1-RCU-T-NewArch_svn_web_changes\AgilisDevices\BUCClient.c
               __string_2   0x01465c    program     static C:\pavan\1+1RCUTx\1-1-RCU-T-NewArch_svn_web_changes\AgilisDevices\BUCClient.c
               __string_1   0x01465f    program     static C:\pavan\1+1RCUTx\1-1-RCU-T-NewArch_svn_web_changes\AgilisDevices\BUCClient.c
               __string_0   0x014663    program     static C:\pavan\1+1RCUTx\1-1-RCU-T-NewArch_svn_web_changes\AgilisDevices\BUCClient.c
               __string_0   0x014667    program     static C:\pavan\1+1RCUTx\1-1-RCU-T-NewArch_svn_web_changes\App\SNMP\AgilisSNMPLLBUCOp.c
               __string_1   0x01466b    program     static C:\pavan\1+1RCUTx\1-1-RCU-T-NewArch_svn_web_changes\App\SNMP\AgilisSNMPLLBUCStatus.c
               __string_0   0x01466f    program     static C:\pavan\1+1RCUTx\1-1-RCU-T-NewArch_svn_web_changes\App\SNMP\AgilisSNMPLLBUCStatus.c
              SetCPLDGPIO   0x014674    program     extern C:\pavan\1+1RCUTx\1-1-RCU-T-NewArch_svn_web_changes\AgilisDevices\RCULLAccess.c
                RCULLInit   0x014848    program     extern C:\pavan\1+1RCUTx\1-1-RCU-T-NewArch_svn_web_changes\AgilisDevices\RCULLAccess.c
      RCULLSelectAutoMode   0x014992    program     extern C:\pavan\1+1RCUTx\1-1-RCU-T-NewArch_svn_web_changes\AgilisDevices\RCULLAccess.c
    RCULLSelectManualMode   0x01499c    program     extern C:\pavan\1+1RCUTx\1-1-RCU-T-NewArch_svn_web_changes\AgilisDevices\RCULLAccess.c
              TxAActivate   0x0149bc    program     extern C:\pavan\1+1RCUTx\1-1-RCU-T-NewArch_svn_web_changes\AgilisDevices\RCULLAccess.c
              TxBActivate   0x0149c6    program     extern C:\pavan\1+1RCUTx\1-1-RCU-T-NewArch_svn_web_changes\AgilisDevices\RCULLAccess.c
              RxAActivate   0x0149ce    program     extern C:\pavan\1+1RCUTx\1-1-RCU-T-NewArch_svn_web_changes\AgilisDevices\RCULLAccess.c
              RxBActivate   0x0149d8    program     extern C:\pavan\1+1RCUTx\1-1-RCU-T-NewArch_svn_web_changes\AgilisDevices\RCULLAccess.c
             RCULLSetMode   0x0149e0    program     extern C:\pavan\1+1RCUTx\1-1-RCU-T-NewArch_svn_web_changes\AgilisDevices\RCULLAccess.c
             RCULLSetPath   0x014a0c    program     extern C:\pavan\1+1RCUTx\1-1-RCU-T-NewArch_svn_web_changes\AgilisDevices\RCULLAccess.c
          RCULLSetComMode   0x014a48    program     extern C:\pavan\1+1RCUTx\1-1-RCU-T-NewArch_svn_web_changes\AgilisDevices\RCULLAccess.c
   RCULLGetRCUAlarmStatus   0x014a7e    program     extern C:\pavan\1+1RCUTx\1-1-RCU-T-NewArch_svn_web_changes\AgilisDevices\RCULLAccess.c
         RCULLGetDeviceID   0x014b8e    program     extern C:\pavan\1+1RCUTx\1-1-RCU-T-NewArch_svn_web_changes\AgilisDevices\RCULLAccess.c
         RCULLSetDeviceID   0x014bbe    program     extern C:\pavan\1+1RCUTx\1-1-RCU-T-NewArch_svn_web_changes\AgilisDevices\RCULLAccess.c
       RCULLGetPartNumber   0x014bd6    program     extern C:\pavan\1+1RCUTx\1-1-RCU-T-NewArch_svn_web_changes\AgilisDevices\RCULLAccess.c
       RCULLSetPartNumber   0x014c44    program     extern C:\pavan\1+1RCUTx\1-1-RCU-T-NewArch_svn_web_changes\AgilisDevices\RCULLAccess.c
     RCULLGetSerialNumber   0x014cce    program     extern C:\pavan\1+1RCUTx\1-1-RCU-T-NewArch_svn_web_changes\AgilisDevices\RCULLAccess.c
     RCULLSetSerialNumber   0x014d2c    program     extern C:\pavan\1+1RCUTx\1-1-RCU-T-NewArch_svn_web_changes\AgilisDevices\RCULLAccess.c
     RCULLSetDefaultValue   0x014db8    program     extern C:\pavan\1+1RCUTx\1-1-RCU-T-NewArch_svn_web_changes\AgilisDevices\RCULLAccess.c
                   __pa_0   0x014eb4    program     static C:\pavan\1+1RCUTx\1-1-RCU-T-NewArch_svn_web_changes\AgilisDevices\RCULLAccess.c
                   __pa_1   0x014ec0    program     static C:\pavan\1+1RCUTx\1-1-RCU-T-NewArch_svn_web_changes\AgilisDevices\RCULLAccess.c
                   __pa_2   0x014eca    program     static C:\pavan\1+1RCUTx\1-1-RCU-T-NewArch_svn_web_changes\AgilisDevices\RCULLAccess.c
                   __pa_3   0x014ed6    program     static C:\pavan\1+1RCUTx\1-1-RCU-T-NewArch_svn_web_changes\AgilisDevices\RCULLAccess.c
                   __pa_4   0x014ee4    program     static C:\pavan\1+1RCUTx\1-1-RCU-T-NewArch_svn_web_changes\AgilisDevices\RCULLAccess.c
                   __pa_5   0x014eee    program     static C:\pavan\1+1RCUTx\1-1-RCU-T-NewArch_svn_web_changes\AgilisDevices\RCULLAccess.c
                   __pa_6   0x014f0e    program     static C:\pavan\1+1RCUTx\1-1-RCU-T-NewArch_svn_web_changes\AgilisDevices\RCULLAccess.c
                   __pa_7   0x014f24    program     static C:\pavan\1+1RCUTx\1-1-RCU-T-NewArch_svn_web_changes\AgilisDevices\RCULLAccess.c
                   __pa_8   0x014f30    program     static C:\pavan\1+1RCUTx\1-1-RCU-T-NewArch_svn_web_changes\AgilisDevices\RCULLAccess.c
                   __pa_9   0x014f3e    program     static C:\pavan\1+1RCUTx\1-1-RCU-T-NewArch_svn_web_changes\AgilisDevices\RCULLAccess.c
                  __pa_10   0x014f4c    program     static C:\pavan\1+1RCUTx\1-1-RCU-T-NewArch_svn_web_changes\AgilisDevices\RCULLAccess.c
                  __pa_11   0x014f5e    program     static C:\pavan\1+1RCUTx\1-1-RCU-T-NewArch_svn_web_changes\AgilisDevices\RCULLAccess.c
                  __pa_12   0x014f6c    program     static C:\pavan\1+1RCUTx\1-1-RCU-T-NewArch_svn_web_changes\AgilisDevices\RCULLAccess.c
                  __pa_13   0x014f76    program     static C:\pavan\1+1RCUTx\1-1-RCU-T-NewArch_svn_web_changes\AgilisDevices\RCULLAccess.c
                  __pa_14   0x014f82    program     static C:\pavan\1+1RCUTx\1-1-RCU-T-NewArch_svn_web_changes\AgilisDevices\RCULLAccess.c
                  __pa_15   0x014f9a    program     static C:\pavan\1+1RCUTx\1-1-RCU-T-NewArch_svn_web_changes\AgilisDevices\RCULLAccess.c
                  __pa_16   0x014faa    program     static C:\pavan\1+1RCUTx\1-1-RCU-T-NewArch_svn_web_changes\AgilisDevices\RCULLAccess.c
                  __pa_17   0x014fba    program     static C:\pavan\1+1RCUTx\1-1-RCU-T-NewArch_svn_web_changes\AgilisDevices\RCULLAccess.c
                  __pa_18   0x014fc8    program     static C:\pavan\1+1RCUTx\1-1-RCU-T-NewArch_svn_web_changes\AgilisDevices\RCULLAccess.c
                  __pa_19   0x014fdc    program     static C:\pavan\1+1RCUTx\1-1-RCU-T-NewArch_svn_web_changes\AgilisDevices\RCULLAccess.c
                  __pa_20   0x014fe6    program     static C:\pavan\1+1RCUTx\1-1-RCU-T-NewArch_svn_web_changes\AgilisDevices\RCULLAccess.c
                  __pa_21   0x014ff2    program     static C:\pavan\1+1RCUTx\1-1-RCU-T-NewArch_svn_web_changes\AgilisDevices\RCULLAccess.c
                  __pa_22   0x014ffa    program     static C:\pavan\1+1RCUTx\1-1-RCU-T-NewArch_svn_web_changes\AgilisDevices\RCULLAccess.c
                  __pa_23   0x015002    program     static C:\pavan\1+1RCUTx\1-1-RCU-T-NewArch_svn_web_changes\AgilisDevices\RCULLAccess.c
                  __pa_24   0x01500a    program     static C:\pavan\1+1RCUTx\1-1-RCU-T-NewArch_svn_web_changes\AgilisDevices\RCULLAccess.c
                  __pa_25   0x015012    program     static C:\pavan\1+1RCUTx\1-1-RCU-T-NewArch_svn_web_changes\AgilisDevices\RCULLAccess.c
                  __pa_26   0x015020    program     static C:\pavan\1+1RCUTx\1-1-RCU-T-NewArch_svn_web_changes\AgilisDevices\RCULLAccess.c
                  __pa_27   0x015040    program     static C:\pavan\1+1RCUTx\1-1-RCU-T-NewArch_svn_web_changes\AgilisDevices\RCULLAccess.c
                  __pa_28   0x015048    program     static C:\pavan\1+1RCUTx\1-1-RCU-T-NewArch_svn_web_changes\AgilisDevices\RCULLAccess.c
                  __pa_29   0x015052    program     static C:\pavan\1+1RCUTx\1-1-RCU-T-NewArch_svn_web_changes\AgilisDevices\RCULLAccess.c
                  __pa_30   0x015060    program     static C:\pavan\1+1RCUTx\1-1-RCU-T-NewArch_svn_web_changes\AgilisDevices\RCULLAccess.c
                  __pa_31   0x015068    program     static C:\pavan\1+1RCUTx\1-1-RCU-T-NewArch_svn_web_changes\AgilisDevices\RCULLAccess.c
                  __pa_32   0x015078    program     static C:\pavan\1+1RCUTx\1-1-RCU-T-NewArch_svn_web_changes\AgilisDevices\RCULLAccess.c
                  __pa_33   0x01508a    program     static C:\pavan\1+1RCUTx\1-1-RCU-T-NewArch_svn_web_changes\AgilisDevices\RCULLAccess.c
                  __pa_34   0x015094    program     static C:\pavan\1+1RCUTx\1-1-RCU-T-NewArch_svn_web_changes\AgilisDevices\RCULLAccess.c
                  __pa_35   0x01509e    program     static C:\pavan\1+1RCUTx\1-1-RCU-T-NewArch_svn_web_changes\AgilisDevices\RCULLAccess.c
                  __pa_36   0x0150a6    program     static C:\pavan\1+1RCUTx\1-1-RCU-T-NewArch_svn_web_changes\AgilisDevices\RCULLAccess.c
                  __pa_37   0x0150ae    program     static C:\pavan\1+1RCUTx\1-1-RCU-T-NewArch_svn_web_changes\AgilisDevices\RCULLAccess.c
                  __pa_38   0x0150ba    program     static C:\pavan\1+1RCUTx\1-1-RCU-T-NewArch_svn_web_changes\AgilisDevices\RCULLAccess.c
                  __pa_39   0x0150c8    program     static C:\pavan\1+1RCUTx\1-1-RCU-T-NewArch_svn_web_changes\AgilisDevices\RCULLAccess.c
                  __pa_40   0x0150d4    program     static C:\pavan\1+1RCUTx\1-1-RCU-T-NewArch_svn_web_changes\AgilisDevices\RCULLAccess.c
                  __pa_41   0x0150dc    program     static C:\pavan\1+1RCUTx\1-1-RCU-T-NewArch_svn_web_changes\AgilisDevices\RCULLAccess.c
                  __pa_42   0x0150e6    program     static C:\pavan\1+1RCUTx\1-1-RCU-T-NewArch_svn_web_changes\AgilisDevices\RCULLAccess.c
                  __pa_43   0x0150f0    program     static C:\pavan\1+1RCUTx\1-1-RCU-T-NewArch_svn_web_changes\AgilisDevices\RCULLAccess.c
                 DHCPInit   0x0150f8    program     extern C:\pavan\1+1RCUTx\1-1-RCU-T-NewArch_svn_web_changes\Microchip\TCPIP Stack\DHCP.c
              DHCPDisable   0x01512e    program     extern C:\pavan\1+1RCUTx\1-1-RCU-T-NewArch_svn_web_changes\Microchip\TCPIP Stack\DHCP.c
               DHCPEnable   0x01513e    program     extern C:\pavan\1+1RCUTx\1-1-RCU-T-NewArch_svn_web_changes\Microchip\TCPIP Stack\DHCP.c
            DHCPIsEnabled   0x01514a    program     extern C:\pavan\1+1RCUTx\1-1-RCU-T-NewArch_svn_web_changes\Microchip\TCPIP Stack\DHCP.c
              DHCPIsBound   0x015156    program     extern C:\pavan\1+1RCUTx\1-1-RCU-T-NewArch_svn_web_changes\Microchip\TCPIP Stack\DHCP.c
         DHCPStateChanged   0x01515e    program     extern C:\pavan\1+1RCUTx\1-1-RCU-T-NewArch_svn_web_changes\Microchip\TCPIP Stack\DHCP.c
     DHCPIsServerDetected   0x01516e    program     extern C:\pavan\1+1RCUTx\1-1-RCU-T-NewArch_svn_web_changes\Microchip\TCPIP Stack\DHCP.c
                 DHCPTask   0x01517a    program     extern C:\pavan\1+1RCUTx\1-1-RCU-T-NewArch_svn_web_changes\Microchip\TCPIP Stack\DHCP.c
             _DHCPReceive   0x015370    program     static C:\pavan\1+1RCUTx\1-1-RCU-T-NewArch_svn_web_changes\Microchip\TCPIP Stack\DHCP.c
                _DHCPSend   0x0155d4    program     static C:\pavan\1+1RCUTx\1-1-RCU-T-NewArch_svn_web_changes\Microchip\TCPIP Stack\DHCP.c
                   __pa_0   0x015754    program     static C:\pavan\1+1RCUTx\1-1-RCU-T-NewArch_svn_web_changes\Microchip\TCPIP Stack\DHCP.c
                   __pa_1   0x01575a    program     static C:\pavan\1+1RCUTx\1-1-RCU-T-NewArch_svn_web_changes\Microchip\TCPIP Stack\DHCP.c
                   __pa_2   0x015760    program     static C:\pavan\1+1RCUTx\1-1-RCU-T-NewArch_svn_web_changes\Microchip\TCPIP Stack\DHCP.c
                   __pa_3   0x015774    program     static C:\pavan\1+1RCUTx\1-1-RCU-T-NewArch_svn_web_changes\Microchip\TCPIP Stack\DHCP.c
                   __pa_4   0x01578c    program     static C:\pavan\1+1RCUTx\1-1-RCU-T-NewArch_svn_web_changes\Microchip\TCPIP Stack\DHCP.c
                   __pa_5   0x015798    program     static C:\pavan\1+1RCUTx\1-1-RCU-T-NewArch_svn_web_changes\Microchip\TCPIP Stack\DHCP.c
                   __pa_6   0x0157a2    program     static C:\pavan\1+1RCUTx\1-1-RCU-T-NewArch_svn_web_changes\Microchip\TCPIP Stack\DHCP.c
                   __pa_7   0x0157ae    program     static C:\pavan\1+1RCUTx\1-1-RCU-T-NewArch_svn_web_changes\Microchip\TCPIP Stack\DHCP.c
                   __pa_8   0x0157ca    program     static C:\pavan\1+1RCUTx\1-1-RCU-T-NewArch_svn_web_changes\Microchip\TCPIP Stack\DHCP.c
                   __pa_9   0x0157fa    program     static C:\pavan\1+1RCUTx\1-1-RCU-T-NewArch_svn_web_changes\Microchip\TCPIP Stack\DHCP.c
                  __pa_10   0x015800    program     static C:\pavan\1+1RCUTx\1-1-RCU-T-NewArch_svn_web_changes\Microchip\TCPIP Stack\DHCP.c
                  __pa_11   0x015810    program     static C:\pavan\1+1RCUTx\1-1-RCU-T-NewArch_svn_web_changes\Microchip\TCPIP Stack\DHCP.c
                  __pa_12   0x015832    program     static C:\pavan\1+1RCUTx\1-1-RCU-T-NewArch_svn_web_changes\Microchip\TCPIP Stack\DHCP.c
                  __pa_13   0x015846    program     static C:\pavan\1+1RCUTx\1-1-RCU-T-NewArch_svn_web_changes\Microchip\TCPIP Stack\DHCP.c
                  __pa_14   0x015858    program     static C:\pavan\1+1RCUTx\1-1-RCU-T-NewArch_svn_web_changes\Microchip\TCPIP Stack\DHCP.c
                  __pa_15   0x015866    program     static C:\pavan\1+1RCUTx\1-1-RCU-T-NewArch_svn_web_changes\Microchip\TCPIP Stack\DHCP.c
                  __pa_16   0x01586c    program     static C:\pavan\1+1RCUTx\1-1-RCU-T-NewArch_svn_web_changes\Microchip\TCPIP Stack\DHCP.c
                  __pa_17   0x01587a    program     static C:\pavan\1+1RCUTx\1-1-RCU-T-NewArch_svn_web_changes\Microchip\TCPIP Stack\DHCP.c
                  __pa_18   0x015880    program     static C:\pavan\1+1RCUTx\1-1-RCU-T-NewArch_svn_web_changes\Microchip\TCPIP Stack\DHCP.c
                  __pa_19   0x01588a    program     static C:\pavan\1+1RCUTx\1-1-RCU-T-NewArch_svn_web_changes\Microchip\TCPIP Stack\DHCP.c
                  __pa_20   0x015892    program     static C:\pavan\1+1RCUTx\1-1-RCU-T-NewArch_svn_web_changes\Microchip\TCPIP Stack\DHCP.c
                  __pa_21   0x0158a0    program     static C:\pavan\1+1RCUTx\1-1-RCU-T-NewArch_svn_web_changes\Microchip\TCPIP Stack\DHCP.c
                  __pa_22   0x0158ae    program     static C:\pavan\1+1RCUTx\1-1-RCU-T-NewArch_svn_web_changes\Microchip\TCPIP Stack\DHCP.c
                  __pa_23   0x0158ce    program     static C:\pavan\1+1RCUTx\1-1-RCU-T-NewArch_svn_web_changes\Microchip\TCPIP Stack\DHCP.c
                  __pa_24   0x0158d4    program     static C:\pavan\1+1RCUTx\1-1-RCU-T-NewArch_svn_web_changes\Microchip\TCPIP Stack\DHCP.c
                  __pa_25   0x0158de    program     static C:\pavan\1+1RCUTx\1-1-RCU-T-NewArch_svn_web_changes\Microchip\TCPIP Stack\DHCP.c
                  __pa_26   0x0158e6    program     static C:\pavan\1+1RCUTx\1-1-RCU-T-NewArch_svn_web_changes\Microchip\TCPIP Stack\DHCP.c
                  __pa_27   0x0158ee    program     static C:\pavan\1+1RCUTx\1-1-RCU-T-NewArch_svn_web_changes\Microchip\TCPIP Stack\DHCP.c
                  __pa_28   0x0158fa    program     static C:\pavan\1+1RCUTx\1-1-RCU-T-NewArch_svn_web_changes\Microchip\TCPIP Stack\DHCP.c
                  __pa_29   0x015906    program     static C:\pavan\1+1RCUTx\1-1-RCU-T-NewArch_svn_web_changes\Microchip\TCPIP Stack\DHCP.c
                  __pa_30   0x015914    program     static C:\pavan\1+1RCUTx\1-1-RCU-T-NewArch_svn_web_changes\Microchip\TCPIP Stack\DHCP.c
                  __pa_31   0x015922    program     static C:\pavan\1+1RCUTx\1-1-RCU-T-NewArch_svn_web_changes\Microchip\TCPIP Stack\DHCP.c
                  __pa_32   0x01592a    program     static C:\pavan\1+1RCUTx\1-1-RCU-T-NewArch_svn_web_changes\Microchip\TCPIP Stack\DHCP.c
                  __pa_33   0x015932    program     static C:\pavan\1+1RCUTx\1-1-RCU-T-NewArch_svn_web_changes\Microchip\TCPIP Stack\DHCP.c
                  __pa_34   0x015938    program     static C:\pavan\1+1RCUTx\1-1-RCU-T-NewArch_svn_web_changes\Microchip\TCPIP Stack\DHCP.c
            HTTPNeedsAuth   0x015942    program     extern C:\pavan\1+1RCUTx\1-1-RCU-T-NewArch_svn_web_changes\App\WebUI\AgilisHTTPApp.c
            HTTPCheckAuth   0x015988    program     extern C:\pavan\1+1RCUTx\1-1-RCU-T-NewArch_svn_web_changes\App\WebUI\AgilisHTTPApp.c
           HTTPExecuteGet   0x0159d0    program     extern C:\pavan\1+1RCUTx\1-1-RCU-T-NewArch_svn_web_changes\App\WebUI\AgilisHTTPApp.c
          HTTPExecutePost   0x0159d4    program     extern C:\pavan\1+1RCUTx\1-1-RCU-T-NewArch_svn_web_changes\App\WebUI\AgilisHTTPApp.c
              HTTPPostlut   0x015a72    program     static C:\pavan\1+1RCUTx\1-1-RCU-T-NewArch_svn_web_changes\App\WebUI\AgilisHTTPApp.c
           HTTPPostConfig   0x015b0e    program     static C:\pavan\1+1RCUTx\1-1-RCU-T-NewArch_svn_web_changes\App\WebUI\AgilisHTTPApp.c
    HTTPPostSNMPCommunity   0x015f1e    program     static C:\pavan\1+1RCUTx\1-1-RCU-T-NewArch_svn_web_changes\App\WebUI\AgilisHTTPApp.c
                   __pa_0   0x01600a    program     static C:\pavan\1+1RCUTx\1-1-RCU-T-NewArch_svn_web_changes\App\WebUI\AgilisHTTPApp.c
                   __pa_1   0x016018    program     static C:\pavan\1+1RCUTx\1-1-RCU-T-NewArch_svn_web_changes\App\WebUI\AgilisHTTPApp.c
                   __pa_2   0x016024    program     static C:\pavan\1+1RCUTx\1-1-RCU-T-NewArch_svn_web_changes\App\WebUI\AgilisHTTPApp.c
                   __pa_3   0x016030    program     static C:\pavan\1+1RCUTx\1-1-RCU-T-NewArch_svn_web_changes\App\WebUI\AgilisHTTPApp.c
                   __pa_4   0x01603e    program     static C:\pavan\1+1RCUTx\1-1-RCU-T-NewArch_svn_web_changes\App\WebUI\AgilisHTTPApp.c
                   __pa_5   0x01605c    program     static C:\pavan\1+1RCUTx\1-1-RCU-T-NewArch_svn_web_changes\App\WebUI\AgilisHTTPApp.c
                   __pa_6   0x016070    program     static C:\pavan\1+1RCUTx\1-1-RCU-T-NewArch_svn_web_changes\App\WebUI\AgilisHTTPApp.c
                   __pa_7   0x01607c    program     static C:\pavan\1+1RCUTx\1-1-RCU-T-NewArch_svn_web_changes\App\WebUI\AgilisHTTPApp.c
                   __pa_8   0x016088    program     static C:\pavan\1+1RCUTx\1-1-RCU-T-NewArch_svn_web_changes\App\WebUI\AgilisHTTPApp.c
                   __pa_9   0x016096    program     static C:\pavan\1+1RCUTx\1-1-RCU-T-NewArch_svn_web_changes\App\WebUI\AgilisHTTPApp.c
                  __pa_10   0x01609e    program     static C:\pavan\1+1RCUTx\1-1-RCU-T-NewArch_svn_web_changes\App\WebUI\AgilisHTTPApp.c
                  __pa_11   0x0160aa    program     static C:\pavan\1+1RCUTx\1-1-RCU-T-NewArch_svn_web_changes\App\WebUI\AgilisHTTPApp.c
                  __pa_12   0x0160ba    program     static C:\pavan\1+1RCUTx\1-1-RCU-T-NewArch_svn_web_changes\App\WebUI\AgilisHTTPApp.c
                  __pa_13   0x0160ca    program     static C:\pavan\1+1RCUTx\1-1-RCU-T-NewArch_svn_web_changes\App\WebUI\AgilisHTTPApp.c
                  __pa_14   0x0160d0    program     static C:\pavan\1+1RCUTx\1-1-RCU-T-NewArch_svn_web_changes\App\WebUI\AgilisHTTPApp.c
                  __pa_15   0x0160de    program     static C:\pavan\1+1RCUTx\1-1-RCU-T-NewArch_svn_web_changes\App\WebUI\AgilisHTTPApp.c
                  __pa_16   0x0160e8    program     static C:\pavan\1+1RCUTx\1-1-RCU-T-NewArch_svn_web_changes\App\WebUI\AgilisHTTPApp.c
                  __pa_17   0x0160f0    program     static C:\pavan\1+1RCUTx\1-1-RCU-T-NewArch_svn_web_changes\App\WebUI\AgilisHTTPApp.c
                  __pa_18   0x0160fe    program     static C:\pavan\1+1RCUTx\1-1-RCU-T-NewArch_svn_web_changes\App\WebUI\AgilisHTTPApp.c
                  __pa_19   0x016108    program     static C:\pavan\1+1RCUTx\1-1-RCU-T-NewArch_svn_web_changes\App\WebUI\AgilisHTTPApp.c
                  __pa_20   0x016112    program     static C:\pavan\1+1RCUTx\1-1-RCU-T-NewArch_svn_web_changes\App\WebUI\AgilisHTTPApp.c
                  __pa_21   0x01611e    program     static C:\pavan\1+1RCUTx\1-1-RCU-T-NewArch_svn_web_changes\App\WebUI\AgilisHTTPApp.c
                  __pa_22   0x016128    program     static C:\pavan\1+1RCUTx\1-1-RCU-T-NewArch_svn_web_changes\App\WebUI\AgilisHTTPApp.c
                  __pa_23   0x01612e    program     static C:\pavan\1+1RCUTx\1-1-RCU-T-NewArch_svn_web_changes\App\WebUI\AgilisHTTPApp.c
                  __pa_24   0x016134    program     static C:\pavan\1+1RCUTx\1-1-RCU-T-NewArch_svn_web_changes\App\WebUI\AgilisHTTPApp.c
   HTTPExe_get_deviceinfo   0x016140    program     extern C:\pavan\1+1RCUTx\1-1-RCU-T-NewArch_svn_web_changes\App\WebUI\AgilisHTTPGetDevInfo.c
                   __pa_0   0x0166de    program     static C:\pavan\1+1RCUTx\1-1-RCU-T-NewArch_svn_web_changes\App\WebUI\AgilisHTTPGetDevInfo.c
                   __pa_1   0x016700    program     static C:\pavan\1+1RCUTx\1-1-RCU-T-NewArch_svn_web_changes\App\WebUI\AgilisHTTPGetDevInfo.c
                   __pa_2   0x016712    program     static C:\pavan\1+1RCUTx\1-1-RCU-T-NewArch_svn_web_changes\App\WebUI\AgilisHTTPGetDevInfo.c
                   __pa_3   0x016722    program     static C:\pavan\1+1RCUTx\1-1-RCU-T-NewArch_svn_web_changes\App\WebUI\AgilisHTTPGetDevInfo.c
                   __pa_4   0x016780    program     static C:\pavan\1+1RCUTx\1-1-RCU-T-NewArch_svn_web_changes\App\WebUI\AgilisHTTPGetDevInfo.c
                   __pa_5   0x016786    program     static C:\pavan\1+1RCUTx\1-1-RCU-T-NewArch_svn_web_changes\App\WebUI\AgilisHTTPGetDevInfo.c
                   __pa_6   0x016790    program     static C:\pavan\1+1RCUTx\1-1-RCU-T-NewArch_svn_web_changes\App\WebUI\AgilisHTTPGetDevInfo.c
                   __pa_7   0x0167a0    program     static C:\pavan\1+1RCUTx\1-1-RCU-T-NewArch_svn_web_changes\App\WebUI\AgilisHTTPGetDevInfo.c
                   __pa_8   0x0167b0    program     static C:\pavan\1+1RCUTx\1-1-RCU-T-NewArch_svn_web_changes\App\WebUI\AgilisHTTPGetDevInfo.c
                   __pa_9   0x0167c0    program     static C:\pavan\1+1RCUTx\1-1-RCU-T-NewArch_svn_web_changes\App\WebUI\AgilisHTTPGetDevInfo.c
                  __pa_10   0x0167d0    program     static C:\pavan\1+1RCUTx\1-1-RCU-T-NewArch_svn_web_changes\App\WebUI\AgilisHTTPGetDevInfo.c
                  __pa_11   0x0167f2    program     static C:\pavan\1+1RCUTx\1-1-RCU-T-NewArch_svn_web_changes\App\WebUI\AgilisHTTPGetDevInfo.c
                  __pa_12   0x016810    program     static C:\pavan\1+1RCUTx\1-1-RCU-T-NewArch_svn_web_changes\App\WebUI\AgilisHTTPGetDevInfo.c
                  __pa_13   0x016818    program     static C:\pavan\1+1RCUTx\1-1-RCU-T-NewArch_svn_web_changes\App\WebUI\AgilisHTTPGetDevInfo.c
                  __pa_14   0x016830    program     static C:\pavan\1+1RCUTx\1-1-RCU-T-NewArch_svn_web_changes\App\WebUI\AgilisHTTPGetDevInfo.c
                  __pa_15   0x016844    program     static C:\pavan\1+1RCUTx\1-1-RCU-T-NewArch_svn_web_changes\App\WebUI\AgilisHTTPGetDevInfo.c
                  __pa_16   0x01684c    program     static C:\pavan\1+1RCUTx\1-1-RCU-T-NewArch_svn_web_changes\App\WebUI\AgilisHTTPGetDevInfo.c
                  __pa_17   0x016858    program     static C:\pavan\1+1RCUTx\1-1-RCU-T-NewArch_svn_web_changes\App\WebUI\AgilisHTTPGetDevInfo.c
                  __pa_18   0x016864    program     static C:\pavan\1+1RCUTx\1-1-RCU-T-NewArch_svn_web_changes\App\WebUI\AgilisHTTPGetDevInfo.c
                  __pa_19   0x01686c    program     static C:\pavan\1+1RCUTx\1-1-RCU-T-NewArch_svn_web_changes\App\WebUI\AgilisHTTPGetDevInfo.c
                  __pa_20   0x016876    program     static C:\pavan\1+1RCUTx\1-1-RCU-T-NewArch_svn_web_changes\App\WebUI\AgilisHTTPGetDevInfo.c
                  __pa_21   0x016880    program     static C:\pavan\1+1RCUTx\1-1-RCU-T-NewArch_svn_web_changes\App\WebUI\AgilisHTTPGetDevInfo.c
                  __pa_22   0x01688e    program     static C:\pavan\1+1RCUTx\1-1-RCU-T-NewArch_svn_web_changes\App\WebUI\AgilisHTTPGetDevInfo.c
                  __pa_23   0x01689c    program     static C:\pavan\1+1RCUTx\1-1-RCU-T-NewArch_svn_web_changes\App\WebUI\AgilisHTTPGetDevInfo.c
                  __pa_24   0x0168aa    program     static C:\pavan\1+1RCUTx\1-1-RCU-T-NewArch_svn_web_changes\App\WebUI\AgilisHTTPGetDevInfo.c
                  __pa_25   0x0168b4    program     static C:\pavan\1+1RCUTx\1-1-RCU-T-NewArch_svn_web_changes\App\WebUI\AgilisHTTPGetDevInfo.c
                  __pa_26   0x0168c2    program     static C:\pavan\1+1RCUTx\1-1-RCU-T-NewArch_svn_web_changes\App\WebUI\AgilisHTTPGetDevInfo.c
                  __pa_27   0x0168d0    program     static C:\pavan\1+1RCUTx\1-1-RCU-T-NewArch_svn_web_changes\App\WebUI\AgilisHTTPGetDevInfo.c
                  __pa_28   0x0168dc    program     static C:\pavan\1+1RCUTx\1-1-RCU-T-NewArch_svn_web_changes\App\WebUI\AgilisHTTPGetDevInfo.c
                  __pa_29   0x0168e8    program     static C:\pavan\1+1RCUTx\1-1-RCU-T-NewArch_svn_web_changes\App\WebUI\AgilisHTTPGetDevInfo.c
                  __pa_30   0x0168f2    program     static C:\pavan\1+1RCUTx\1-1-RCU-T-NewArch_svn_web_changes\App\WebUI\AgilisHTTPGetDevInfo.c
                  __pa_31   0x0168fa    program     static C:\pavan\1+1RCUTx\1-1-RCU-T-NewArch_svn_web_changes\App\WebUI\AgilisHTTPGetDevInfo.c
                ASC2toHEX   0x016900    program     extern C:\pavan\1+1RCUTx\1-1-RCU-T-NewArch_svn_web_changes\Agilis-SysLib\util.c
                HEXto2ASC   0x016976    program     extern C:\pavan\1+1RCUTx\1-1-RCU-T-NewArch_svn_web_changes\Agilis-SysLib\util.c
                  DelayMS   0x0169be    program     extern C:\pavan\1+1RCUTx\1-1-RCU-T-NewArch_svn_web_changes\Agilis-SysLib\util.c
                  Hex2Int   0x0169f4    program     extern C:\pavan\1+1RCUTx\1-1-RCU-T-NewArch_svn_web_changes\Agilis-SysLib\util.c
                  Int2Hex   0x016a44    program     extern C:\pavan\1+1RCUTx\1-1-RCU-T-NewArch_svn_web_changes\Agilis-SysLib\util.c
                    atof5   0x016aac    program     extern C:\pavan\1+1RCUTx\1-1-RCU-T-NewArch_svn_web_changes\Agilis-SysLib\util.c
                    atof1   0x016b66    program     extern C:\pavan\1+1RCUTx\1-1-RCU-T-NewArch_svn_web_changes\Agilis-SysLib\util.c
              Load_config   0x016c2e    program     extern C:\pavan\1+1RCUTx\1-1-RCU-T-NewArch_svn_web_changes\Agilis-SysLib\util.c
            SaveAppConfig   0x016d4c    program     extern C:\pavan\1+1RCUTx\1-1-RCU-T-NewArch_svn_web_changes\Agilis-SysLib\util.c
              SaveSetting   0x016d70    program     extern C:\pavan\1+1RCUTx\1-1-RCU-T-NewArch_svn_web_changes\Agilis-SysLib\util.c
           DisplayIPValue   0x016d98    program     extern C:\pavan\1+1RCUTx\1-1-RCU-T-NewArch_svn_web_changes\Agilis-SysLib\util.c
                   __pa_0   0x016e20    program     static C:\pavan\1+1RCUTx\1-1-RCU-T-NewArch_svn_web_changes\Agilis-SysLib\util.c
                   __pa_1   0x016e26    program     static C:\pavan\1+1RCUTx\1-1-RCU-T-NewArch_svn_web_changes\Agilis-SysLib\util.c
                   __pa_2   0x016e50    program     static C:\pavan\1+1RCUTx\1-1-RCU-T-NewArch_svn_web_changes\Agilis-SysLib\util.c
                   __pa_3   0x016e5c    program     static C:\pavan\1+1RCUTx\1-1-RCU-T-NewArch_svn_web_changes\Agilis-SysLib\util.c
                   __pa_4   0x016e6c    program     static C:\pavan\1+1RCUTx\1-1-RCU-T-NewArch_svn_web_changes\Agilis-SysLib\util.c
                   __pa_5   0x016e7c    program     static C:\pavan\1+1RCUTx\1-1-RCU-T-NewArch_svn_web_changes\Agilis-SysLib\util.c
                   __pa_6   0x016eba    program     static C:\pavan\1+1RCUTx\1-1-RCU-T-NewArch_svn_web_changes\Agilis-SysLib\util.c
                   __pa_7   0x016ec6    program     static C:\pavan\1+1RCUTx\1-1-RCU-T-NewArch_svn_web_changes\Agilis-SysLib\util.c
                   __pa_8   0x016ed8    program     static C:\pavan\1+1RCUTx\1-1-RCU-T-NewArch_svn_web_changes\Agilis-SysLib\util.c
                   __pa_9   0x016ee8    program     static C:\pavan\1+1RCUTx\1-1-RCU-T-NewArch_svn_web_changes\Agilis-SysLib\util.c
                  __pa_10   0x016f0a    program     static C:\pavan\1+1RCUTx\1-1-RCU-T-NewArch_svn_web_changes\Agilis-SysLib\util.c
                  __pa_11   0x016f18    program     static C:\pavan\1+1RCUTx\1-1-RCU-T-NewArch_svn_web_changes\Agilis-SysLib\util.c
                  __pa_12   0x016f32    program     static C:\pavan\1+1RCUTx\1-1-RCU-T-NewArch_svn_web_changes\Agilis-SysLib\util.c
                  __pa_13   0x016f3e    program     static C:\pavan\1+1RCUTx\1-1-RCU-T-NewArch_svn_web_changes\Agilis-SysLib\util.c
                  __pa_14   0x016f54    program     static C:\pavan\1+1RCUTx\1-1-RCU-T-NewArch_svn_web_changes\Agilis-SysLib\util.c
                  __pa_15   0x016f5c    program     static C:\pavan\1+1RCUTx\1-1-RCU-T-NewArch_svn_web_changes\Agilis-SysLib\util.c
                  __pa_16   0x016f6e    program     static C:\pavan\1+1RCUTx\1-1-RCU-T-NewArch_svn_web_changes\Agilis-SysLib\util.c
                  __pa_17   0x016f7a    program     static C:\pavan\1+1RCUTx\1-1-RCU-T-NewArch_svn_web_changes\Agilis-SysLib\util.c
                  __pa_18   0x016f84    program     static C:\pavan\1+1RCUTx\1-1-RCU-T-NewArch_svn_web_changes\Agilis-SysLib\util.c
                  __pa_19   0x016f92    program     static C:\pavan\1+1RCUTx\1-1-RCU-T-NewArch_svn_web_changes\Agilis-SysLib\util.c
                  __pa_20   0x016fa0    program     static C:\pavan\1+1RCUTx\1-1-RCU-T-NewArch_svn_web_changes\Agilis-SysLib\util.c
                  __pa_21   0x016fae    program     static C:\pavan\1+1RCUTx\1-1-RCU-T-NewArch_svn_web_changes\Agilis-SysLib\util.c
                  __pa_22   0x016fb8    program     static C:\pavan\1+1RCUTx\1-1-RCU-T-NewArch_svn_web_changes\Agilis-SysLib\util.c
                  __pa_23   0x016fc4    program     static C:\pavan\1+1RCUTx\1-1-RCU-T-NewArch_svn_web_changes\Agilis-SysLib\util.c
                  __pa_24   0x016fce    program     static C:\pavan\1+1RCUTx\1-1-RCU-T-NewArch_svn_web_changes\Agilis-SysLib\util.c
                  __pa_25   0x016fdc    program     static C:\pavan\1+1RCUTx\1-1-RCU-T-NewArch_svn_web_changes\Agilis-SysLib\util.c
                  __pa_26   0x016fe4    program     static C:\pavan\1+1RCUTx\1-1-RCU-T-NewArch_svn_web_changes\Agilis-SysLib\util.c
                  __pa_27   0x016ff2    program     static C:\pavan\1+1RCUTx\1-1-RCU-T-NewArch_svn_web_changes\Agilis-SysLib\util.c
                  __pa_28   0x016ffa    program     static C:\pavan\1+1RCUTx\1-1-RCU-T-NewArch_svn_web_changes\Agilis-SysLib\util.c
                  __pa_29   0x01700c    program     static C:\pavan\1+1RCUTx\1-1-RCU-T-NewArch_svn_web_changes\Agilis-SysLib\util.c
                  __pa_30   0x017014    program     static C:\pavan\1+1RCUTx\1-1-RCU-T-NewArch_svn_web_changes\Agilis-SysLib\util.c
                  __pa_31   0x017020    program     static C:\pavan\1+1RCUTx\1-1-RCU-T-NewArch_svn_web_changes\Agilis-SysLib\util.c
                  __pa_32   0x01702a    program     static C:\pavan\1+1RCUTx\1-1-RCU-T-NewArch_svn_web_changes\Agilis-SysLib\util.c
                  __pa_33   0x017034    program     static C:\pavan\1+1RCUTx\1-1-RCU-T-NewArch_svn_web_changes\Agilis-SysLib\util.c
                  __pa_34   0x017042    program     static C:\pavan\1+1RCUTx\1-1-RCU-T-NewArch_svn_web_changes\Agilis-SysLib\util.c
AgilisProtocolCalcChecksum   0x01704c    program     extern C:\pavan\1+1RCUTx\1-1-RCU-T-NewArch_svn_web_changes\App\SerialIntf\AgilisProtocol\AgilisProtocol.c
AgilisProtocolPackChecksum   0x017084    program     extern C:\pavan\1+1RCUTx\1-1-RCU-T-NewArch_svn_web_changes\App\SerialIntf\AgilisProtocol\AgilisProtocol.c
AgilisProtocolVerifyChecksum   0x0170ce    program     extern C:\pavan\1+1RCUTx\1-1-RCU-T-NewArch_svn_web_changes\App\SerialIntf\AgilisProtocol\AgilisProtocol.c
AgilisProtocolZCmdReqCheck   0x017176    program     extern C:\pavan\1+1RCUTx\1-1-RCU-T-NewArch_svn_web_changes\App\SerialIntf\AgilisProtocol\AgilisProtocol.c
AgilisProtocolGCmdReqCheck   0x017218    program     extern C:\pavan\1+1RCUTx\1-1-RCU-T-NewArch_svn_web_changes\App\SerialIntf\AgilisProtocol\AgilisProtocol.c
AgilisProtocolGCmdRespCheck   0x017264    program     extern C:\pavan\1+1RCUTx\1-1-RCU-T-NewArch_svn_web_changes\App\SerialIntf\AgilisProtocol\AgilisProtocol.c
AgilisProtocolGCmdPackRequestPgm   0x017282    program     extern C:\pavan\1+1RCUTx\1-1-RCU-T-NewArch_svn_web_changes\App\SerialIntf\AgilisProtocol\AgilisProtocol.c
AgilisProtocolGCmdPackResponse   0x017392    program     extern C:\pavan\1+1RCUTx\1-1-RCU-T-NewArch_svn_web_changes\App\SerialIntf\AgilisProtocol\AgilisProtocol.c
AgilisProtocolZCmdPackResponse   0x0173e2    program     extern C:\pavan\1+1RCUTx\1-1-RCU-T-NewArch_svn_web_changes\App\SerialIntf\AgilisProtocol\AgilisProtocol.c
  AgilisProtocolCmdLookUp   0x017432    program     extern C:\pavan\1+1RCUTx\1-1-RCU-T-NewArch_svn_web_changes\App\SerialIntf\AgilisProtocol\AgilisProtocol.c
AgilisProtocolGetCmdPacketStartPos   0x0174ec    program     extern C:\pavan\1+1RCUTx\1-1-RCU-T-NewArch_svn_web_changes\App\SerialIntf\AgilisProtocol\AgilisProtocol.c
                   __pa_0   0x017518    program     static C:\pavan\1+1RCUTx\1-1-RCU-T-NewArch_svn_web_changes\App\SerialIntf\AgilisProtocol\AgilisProtocol.c
                   __pa_1   0x017538    program     static C:\pavan\1+1RCUTx\1-1-RCU-T-NewArch_svn_web_changes\App\SerialIntf\AgilisProtocol\AgilisProtocol.c
                   __pa_2   0x017546    program     static C:\pavan\1+1RCUTx\1-1-RCU-T-NewArch_svn_web_changes\App\SerialIntf\AgilisProtocol\AgilisProtocol.c
                   __pa_3   0x017558    program     static C:\pavan\1+1RCUTx\1-1-RCU-T-NewArch_svn_web_changes\App\SerialIntf\AgilisProtocol\AgilisProtocol.c
                   __pa_4   0x017564    program     static C:\pavan\1+1RCUTx\1-1-RCU-T-NewArch_svn_web_changes\App\SerialIntf\AgilisProtocol\AgilisProtocol.c
                   __pa_5   0x017572    program     static C:\pavan\1+1RCUTx\1-1-RCU-T-NewArch_svn_web_changes\App\SerialIntf\AgilisProtocol\AgilisProtocol.c
                   __pa_6   0x017582    program     static C:\pavan\1+1RCUTx\1-1-RCU-T-NewArch_svn_web_changes\App\SerialIntf\AgilisProtocol\AgilisProtocol.c
                   __pa_7   0x01758e    program     static C:\pavan\1+1RCUTx\1-1-RCU-T-NewArch_svn_web_changes\App\SerialIntf\AgilisProtocol\AgilisProtocol.c
                   __pa_8   0x0175b0    program     static C:\pavan\1+1RCUTx\1-1-RCU-T-NewArch_svn_web_changes\App\SerialIntf\AgilisProtocol\AgilisProtocol.c
                   __pa_9   0x0175be    program     static C:\pavan\1+1RCUTx\1-1-RCU-T-NewArch_svn_web_changes\App\SerialIntf\AgilisProtocol\AgilisProtocol.c
                  __pa_10   0x0175cc    program     static C:\pavan\1+1RCUTx\1-1-RCU-T-NewArch_svn_web_changes\App\SerialIntf\AgilisProtocol\AgilisProtocol.c
                  __pa_11   0x0175f8    program     static C:\pavan\1+1RCUTx\1-1-RCU-T-NewArch_svn_web_changes\App\SerialIntf\AgilisProtocol\AgilisProtocol.c
                  __pa_12   0x017606    program     static C:\pavan\1+1RCUTx\1-1-RCU-T-NewArch_svn_web_changes\App\SerialIntf\AgilisProtocol\AgilisProtocol.c
                  __pa_13   0x01760c    program     static C:\pavan\1+1RCUTx\1-1-RCU-T-NewArch_svn_web_changes\App\SerialIntf\AgilisProtocol\AgilisProtocol.c
                  __pa_14   0x017614    program     static C:\pavan\1+1RCUTx\1-1-RCU-T-NewArch_svn_web_changes\App\SerialIntf\AgilisProtocol\AgilisProtocol.c
                  __pa_15   0x017626    program     static C:\pavan\1+1RCUTx\1-1-RCU-T-NewArch_svn_web_changes\App\SerialIntf\AgilisProtocol\AgilisProtocol.c
                  __pa_16   0x017632    program     static C:\pavan\1+1RCUTx\1-1-RCU-T-NewArch_svn_web_changes\App\SerialIntf\AgilisProtocol\AgilisProtocol.c
                  __pa_17   0x01763e    program     static C:\pavan\1+1RCUTx\1-1-RCU-T-NewArch_svn_web_changes\App\SerialIntf\AgilisProtocol\AgilisProtocol.c
                  __pa_18   0x017646    program     static C:\pavan\1+1RCUTx\1-1-RCU-T-NewArch_svn_web_changes\App\SerialIntf\AgilisProtocol\AgilisProtocol.c
                  __pa_19   0x017656    program     static C:\pavan\1+1RCUTx\1-1-RCU-T-NewArch_svn_web_changes\App\SerialIntf\AgilisProtocol\AgilisProtocol.c
                  __pa_20   0x017666    program     static C:\pavan\1+1RCUTx\1-1-RCU-T-NewArch_svn_web_changes\App\SerialIntf\AgilisProtocol\AgilisProtocol.c
                  __pa_21   0x01766e    program     static C:\pavan\1+1RCUTx\1-1-RCU-T-NewArch_svn_web_changes\App\SerialIntf\AgilisProtocol\AgilisProtocol.c
                  __pa_22   0x01767c    program     static C:\pavan\1+1RCUTx\1-1-RCU-T-NewArch_svn_web_changes\App\SerialIntf\AgilisProtocol\AgilisProtocol.c
                  __pa_23   0x01768a    program     static C:\pavan\1+1RCUTx\1-1-RCU-T-NewArch_svn_web_changes\App\SerialIntf\AgilisProtocol\AgilisProtocol.c
                  __pa_24   0x017690    program     static C:\pavan\1+1RCUTx\1-1-RCU-T-NewArch_svn_web_changes\App\SerialIntf\AgilisProtocol\AgilisProtocol.c
                  __pa_25   0x017698    program     static C:\pavan\1+1RCUTx\1-1-RCU-T-NewArch_svn_web_changes\App\SerialIntf\AgilisProtocol\AgilisProtocol.c
                  __pa_26   0x01769e    program     static C:\pavan\1+1RCUTx\1-1-RCU-T-NewArch_svn_web_changes\App\SerialIntf\AgilisProtocol\AgilisProtocol.c
                  __pa_27   0x0176ae    program     static C:\pavan\1+1RCUTx\1-1-RCU-T-NewArch_svn_web_changes\App\SerialIntf\AgilisProtocol\AgilisProtocol.c
                  __pa_28   0x0176b6    program     static C:\pavan\1+1RCUTx\1-1-RCU-T-NewArch_svn_web_changes\App\SerialIntf\AgilisProtocol\AgilisProtocol.c
                  __pa_29   0x0176c6    program     static C:\pavan\1+1RCUTx\1-1-RCU-T-NewArch_svn_web_changes\App\SerialIntf\AgilisProtocol\AgilisProtocol.c
                  __pa_30   0x0176d2    program     static C:\pavan\1+1RCUTx\1-1-RCU-T-NewArch_svn_web_changes\App\SerialIntf\AgilisProtocol\AgilisProtocol.c
                  __pa_31   0x0176d8    program     static C:\pavan\1+1RCUTx\1-1-RCU-T-NewArch_svn_web_changes\App\SerialIntf\AgilisProtocol\AgilisProtocol.c
                  __pa_32   0x0176e4    program     static C:\pavan\1+1RCUTx\1-1-RCU-T-NewArch_svn_web_changes\App\SerialIntf\AgilisProtocol\AgilisProtocol.c
                  __pa_33   0x0176ee    program     static C:\pavan\1+1RCUTx\1-1-RCU-T-NewArch_svn_web_changes\App\SerialIntf\AgilisProtocol\AgilisProtocol.c
                  __pa_34   0x0176f8    program     static C:\pavan\1+1RCUTx\1-1-RCU-T-NewArch_svn_web_changes\App\SerialIntf\AgilisProtocol\AgilisProtocol.c
                  __pa_35   0x0176fe    program     static C:\pavan\1+1RCUTx\1-1-RCU-T-NewArch_svn_web_changes\App\SerialIntf\AgilisProtocol\AgilisProtocol.c
                  __pa_36   0x01770c    program     static C:\pavan\1+1RCUTx\1-1-RCU-T-NewArch_svn_web_changes\App\SerialIntf\AgilisProtocol\AgilisProtocol.c
                  __pa_37   0x01771a    program     static C:\pavan\1+1RCUTx\1-1-RCU-T-NewArch_svn_web_changes\App\SerialIntf\AgilisProtocol\AgilisProtocol.c
                  __pa_38   0x017720    program     static C:\pavan\1+1RCUTx\1-1-RCU-T-NewArch_svn_web_changes\App\SerialIntf\AgilisProtocol\AgilisProtocol.c
                  __pa_39   0x017728    program     static C:\pavan\1+1RCUTx\1-1-RCU-T-NewArch_svn_web_changes\App\SerialIntf\AgilisProtocol\AgilisProtocol.c
                  __pa_40   0x017730    program     static C:\pavan\1+1RCUTx\1-1-RCU-T-NewArch_svn_web_changes\App\SerialIntf\AgilisProtocol\AgilisProtocol.c
                  __pa_41   0x01773a    program     static C:\pavan\1+1RCUTx\1-1-RCU-T-NewArch_svn_web_changes\App\SerialIntf\AgilisProtocol\AgilisProtocol.c
                  __pa_42   0x017742    program     static C:\pavan\1+1RCUTx\1-1-RCU-T-NewArch_svn_web_changes\App\SerialIntf\AgilisProtocol\AgilisProtocol.c
                  __pa_43   0x01774c    program     static C:\pavan\1+1RCUTx\1-1-RCU-T-NewArch_svn_web_changes\App\SerialIntf\AgilisProtocol\AgilisProtocol.c
                  __pa_44   0x017756    program     static C:\pavan\1+1RCUTx\1-1-RCU-T-NewArch_svn_web_changes\App\SerialIntf\AgilisProtocol\AgilisProtocol.c
                 FLO0832U   0x017760    program     extern C:\Program Files\mcc18\src\traditional\math\cast08FP.asm
                 FLO0832S   0x017764    program     extern C:\Program Files\mcc18\src\traditional\math\cast08FP.asm
                jI2F08Beg   0x01776e    program     static C:\Program Files\mcc18\src\traditional\math\cast08FP.asm
                 FLO1632U   0x017782    program     extern C:\Program Files\mcc18\src\traditional\math\cast16FP.asm
                 FLO1632S   0x017786    program     extern C:\Program Files\mcc18\src\traditional\math\cast16FP.asm
                jI2F16Beg   0x017796    program     static C:\Program Files\mcc18\src\traditional\math\cast16FP.asm
                    FPS32   0x0177ac    program     extern C:\Program Files\mcc18\src\traditional\math\addFP.asm
                    FPA32   0x0177ae    program     extern C:\Program Files\mcc18\src\traditional\math\addFP.asm
                jBANotInf   0x0177cc    program     static C:\Program Files\mcc18\src\traditional\math\addFP.asm
                 jANotInf   0x0177d6    program     static C:\Program Files\mcc18\src\traditional\math\addFP.asm
                 jBNotInf   0x0177e4    program     static C:\Program Files\mcc18\src\traditional\math\addFP.asm
            jDifOrPosSign   0x0177f8    program     static C:\Program Files\mcc18\src\traditional\math\addFP.asm
             jNotBothZero   0x0177fc    program     static C:\Program Files\mcc18\src\traditional\math\addFP.asm
                 jAltBexp   0x017828    program     static C:\Program Files\mcc18\src\traditional\math\addFP.asm
              jAandWsetup   0x01783a    program     static C:\Program Files\mcc18\src\traditional\math\addFP.asm
                 jANotNeg   0x01786a    program     static C:\Program Files\mcc18\src\traditional\math\addFP.asm
                 jWNotNeg   0x01787e    program     static C:\Program Files\mcc18\src\traditional\math\addFP.asm
               jShiftLoop   0x017884    program     static C:\Program Files\mcc18\src\traditional\math\addFP.asm
               jShiftDone   0x017892    program     static C:\Program Files\mcc18\src\traditional\math\addFP.asm
                jSignDone   0x0178c2    program     static C:\Program Files\mcc18\src\traditional\math\addFP.asm
               jFinalSign   0x0178d2    program     static C:\Program Files\mcc18\src\traditional\math\addFP.asm
                    FPD32   0x0178da    program     extern C:\Program Files\mcc18\src\traditional\math\divFP.asm
                 jANotInf   0x0178f8    program     static C:\Program Files\mcc18\src\traditional\math\divFP.asm
              jSignedZero   0x017902    program     static C:\Program Files\mcc18\src\traditional\math\divFP.asm
                jANotZero   0x01790c    program     static C:\Program Files\mcc18\src\traditional\math\divFP.asm
                    jLoop   0x017934    program     static C:\Program Files\mcc18\src\traditional\math\divFP.asm
                jNoAdjust   0x017958    program     static C:\Program Files\mcc18\src\traditional\math\divFP.asm
                    jNext   0x01795a    program     static C:\Program Files\mcc18\src\traditional\math\divFP.asm
                    FPM32   0x017980    program     extern C:\Program Files\mcc18\src\traditional\math\mulFP.asm
                 jANotInf   0x01799e    program     static C:\Program Files\mcc18\src\traditional\math\mulFP.asm
              jBothFinite   0x0179ac    program     static C:\Program Files\mcc18\src\traditional\math\mulFP.asm
                jHaveZero   0x0179b4    program     static C:\Program Files\mcc18\src\traditional\math\mulFP.asm
             jBothNotZero   0x0179b8    program     static C:\Program Files\mcc18\src\traditional\math\mulFP.asm
                 FXM1616U   0x017a5a    program     extern C:\Program Files\mcc18\src\traditional\math\fxm1616u.asm
                 FXM2424U   0x017a96    program     extern C:\Program Files\mcc18\src\traditional\math\fxm2424u.asm
                  INT3208   0x017b28    program     extern C:\Program Files\mcc18\src\traditional\math\castFP08.asm
                     jMax   0x017b38    program     static C:\Program Files\mcc18\src\traditional\math\castFP08.asm
                  jMaxPos   0x017b3c    program     static C:\Program Files\mcc18\src\traditional\math\castFP08.asm
                  jMaxNeg   0x017b42    program     static C:\Program Files\mcc18\src\traditional\math\castFP08.asm
                    jZero   0x017b48    program     static C:\Program Files\mcc18\src\traditional\math\castFP08.asm
                  jNotInf   0x017b4c    program     static C:\Program Files\mcc18\src\traditional\math\castFP08.asm
                    jLoop   0x017b5c    program     static C:\Program Files\mcc18\src\traditional\math\castFP08.asm
                jLoopExit   0x017b6a    program     static C:\Program Files\mcc18\src\traditional\math\castFP08.asm
                    jExit   0x017b74    program     static C:\Program Files\mcc18\src\traditional\math\castFP08.asm
                  INT3232   0x017b76    program     extern C:\Program Files\mcc18\src\traditional\math\castFP32.asm
                     jMax   0x017b86    program     static C:\Program Files\mcc18\src\traditional\math\castFP32.asm
                  jMaxPos   0x017b8a    program     static C:\Program Files\mcc18\src\traditional\math\castFP32.asm
                   jWr123   0x017b90    program     static C:\Program Files\mcc18\src\traditional\math\castFP32.asm
                  jMaxNeg   0x017b98    program     static C:\Program Files\mcc18\src\traditional\math\castFP32.asm
                    jZero   0x017b9e    program     static C:\Program Files\mcc18\src\traditional\math\castFP32.asm
                  jWrZ123   0x017ba0    program     static C:\Program Files\mcc18\src\traditional\math\castFP32.asm
                  jNotInf   0x017ba4    program     static C:\Program Files\mcc18\src\traditional\math\castFP32.asm
                    jLoop   0x017bb6    program     static C:\Program Files\mcc18\src\traditional\math\castFP32.asm
                jLoopExit   0x017bca    program     static C:\Program Files\mcc18\src\traditional\math\castFP32.asm
                    jExit   0x017be2    program     static C:\Program Files\mcc18\src\traditional\math\castFP32.asm
                  TAEQB32   0x017be4    program     extern C:\Program Files\mcc18\src\traditional\math\eqFP.asm
                  TAGTB32   0x017bf2    program     extern C:\Program Files\mcc18\src\traditional\math\gtFP.asm
                  TALTB32   0x017c04    program     extern C:\Program Files\mcc18\src\traditional\math\ltFP.asm
              __FpCompare   0x017c16    program     extern C:\Program Files\mcc18\src\traditional\math\compFP.asm
             jBothNotZero   0x017c34    program     static C:\Program Files\mcc18\src\traditional\math\compFP.asm
                 jSignsEQ   0x017c38    program     static C:\Program Files\mcc18\src\traditional\math\compFP.asm
                      jEQ   0x017c50    program     static C:\Program Files\mcc18\src\traditional\math\compFP.asm
                      jNE   0x017c54    program     static C:\Program Files\mcc18\src\traditional\math\compFP.asm
                    jExch   0x017c5c    program     static C:\Program Files\mcc18\src\traditional\math\compFP.asm
                  jNoExch   0x017c7c    program     static C:\Program Files\mcc18\src\traditional\math\compFP.asm
                   jFinal   0x017c86    program     static C:\Program Files\mcc18\src\traditional\math\compFP.asm
                  jAisNeg   0x017c92    program     static C:\Program Files\mcc18\src\traditional\math\compFP.asm
                   jShift   0x017c98    program     static C:\Program Files\mcc18\src\traditional\math\compFP.asm
                   jExpEQ   0x017ca2    program     static C:\Program Files\mcc18\src\traditional\math\compFP.asm
                  jRotate   0x017cae    program     static C:\Program Files\mcc18\src\traditional\math\compFP.asm
            __FpReturnNaN   0x017cc0    program     extern C:\Program Files\mcc18\src\traditional\math\packFP.asm
                 __FpExit   0x017ccc    program     extern C:\Program Files\mcc18\src\traditional\math\packFP.asm
        __FpReturnSignInf   0x017cce    program     extern C:\Program Files\mcc18\src\traditional\math\packFP.asm
         __FpReturnNegInf   0x017cd2    program     extern C:\Program Files\mcc18\src\traditional\math\packFP.asm
         __FpReturnPosInf   0x017cd8    program     extern C:\Program Files\mcc18\src\traditional\math\packFP.asm
           jReturnPosInf0   0x017cdc    program     static C:\Program Files\mcc18\src\traditional\math\packFP.asm
               jZero1and2   0x017ce0    program     static C:\Program Files\mcc18\src\traditional\math\packFP.asm
       __FpReturnSignZero   0x017ce6    program     extern C:\Program Files\mcc18\src\traditional\math\packFP.asm
        __FpReturnNegZero   0x017cea    program     extern C:\Program Files\mcc18\src\traditional\math\packFP.asm
        __FpReturnPosZero   0x017cf2    program     extern C:\Program Files\mcc18\src\traditional\math\packFP.asm
                 __FpPack   0x017cf8    program     extern C:\Program Files\mcc18\src\traditional\math\packFP.asm
                  jPkLoop   0x017d06    program     static C:\Program Files\mcc18\src\traditional\math\packFP.asm
             jPkShiftDone   0x017d22    program     static C:\Program Files\mcc18\src\traditional\math\packFP.asm
               jPkRoundIt   0x017d38    program     static C:\Program Files\mcc18\src\traditional\math\packFP.asm
             jPkRoundDone   0x017d50    program     static C:\Program Files\mcc18\src\traditional\math\packFP.asm
              __FpReturnW   0x017d50    program     extern C:\Program Files\mcc18\src\traditional\math\packFP.asm
              __FpUnPackA   0x017d70    program     extern C:\Program Files\mcc18\src\traditional\math\UnpackFP.asm
                  jUnpkA1   0x017d7a    program     static C:\Program Files\mcc18\src\traditional\math\UnpackFP.asm
                 jUnpkANZ   0x017d88    program     static C:\Program Files\mcc18\src\traditional\math\UnpackFP.asm
                  jUnpkA2   0x017d92    program     static C:\Program Files\mcc18\src\traditional\math\UnpackFP.asm
                 jUnpkNaN   0x017d9c    program     static C:\Program Files\mcc18\src\traditional\math\UnpackFP.asm
              __FpUnPackB   0x017da0    program     extern C:\Program Files\mcc18\src\traditional\math\UnpackFP.asm
                  jUnpkB1   0x017daa    program     static C:\Program Files\mcc18\src\traditional\math\UnpackFP.asm
                 jUnpkBNZ   0x017db8    program     static C:\Program Files\mcc18\src\traditional\math\UnpackFP.asm
                  jUnpkB2   0x017dc2    program     static C:\Program Files\mcc18\src\traditional\math\UnpackFP.asm
  AgilisDeviceManagerInit   0x017dcc    program     extern C:\pavan\1+1RCUTx\1-1-RCU-T-NewArch_svn_web_changes\AgilisDevices\AgilisDeviceManager.c
AgilisDeviceManagerRegisterClient   0x017e0a    program     extern C:\pavan\1+1RCUTx\1-1-RCU-T-NewArch_svn_web_changes\AgilisDevices\AgilisDeviceManager.c
AgilisDeviceManagerRegisterServer   0x017e34    program     extern C:\pavan\1+1RCUTx\1-1-RCU-T-NewArch_svn_web_changes\AgilisDevices\AgilisDeviceManager.c
AgilisDeviceManagerGetBUCClient   0x017e5e    program     extern C:\pavan\1+1RCUTx\1-1-RCU-T-NewArch_svn_web_changes\AgilisDevices\AgilisDeviceManager.c
AgilisDeviceManagerStdClientRespond   0x017e9e    program     extern C:\pavan\1+1RCUTx\1-1-RCU-T-NewArch_svn_web_changes\AgilisDevices\AgilisDeviceManager.c
AgilisDeviceManagerServerRespond   0x018154    program     extern C:\pavan\1+1RCUTx\1-1-RCU-T-NewArch_svn_web_changes\AgilisDevices\AgilisDeviceManager.c
AgilisDeviceManagerClientPoll   0x0181c2    program     extern C:\pavan\1+1RCUTx\1-1-RCU-T-NewArch_svn_web_changes\AgilisDevices\AgilisDeviceManager.c
AgilisDeviceManagerClientRespond   0x018236    program     extern C:\pavan\1+1RCUTx\1-1-RCU-T-NewArch_svn_web_changes\AgilisDevices\AgilisDeviceManager.c
AgilisDeviceManagerHandler   0x0182aa    program     extern C:\pavan\1+1RCUTx\1-1-RCU-T-NewArch_svn_web_changes\AgilisDevices\AgilisDeviceManager.c
                   __pa_0   0x018344    program     static C:\pavan\1+1RCUTx\1-1-RCU-T-NewArch_svn_web_changes\AgilisDevices\AgilisDeviceManager.c
                   __pa_1   0x018356    program     static C:\pavan\1+1RCUTx\1-1-RCU-T-NewArch_svn_web_changes\AgilisDevices\AgilisDeviceManager.c
                   __pa_2   0x018362    program     static C:\pavan\1+1RCUTx\1-1-RCU-T-NewArch_svn_web_changes\AgilisDevices\AgilisDeviceManager.c
                   __pa_3   0x01836c    program     static C:\pavan\1+1RCUTx\1-1-RCU-T-NewArch_svn_web_changes\AgilisDevices\AgilisDeviceManager.c
                   __pa_4   0x01837a    program     static C:\pavan\1+1RCUTx\1-1-RCU-T-NewArch_svn_web_changes\AgilisDevices\AgilisDeviceManager.c
                   __pa_5   0x01838c    program     static C:\pavan\1+1RCUTx\1-1-RCU-T-NewArch_svn_web_changes\AgilisDevices\AgilisDeviceManager.c
                   __pa_6   0x01839e    program     static C:\pavan\1+1RCUTx\1-1-RCU-T-NewArch_svn_web_changes\AgilisDevices\AgilisDeviceManager.c
                   __pa_7   0x0183a6    program     static C:\pavan\1+1RCUTx\1-1-RCU-T-NewArch_svn_web_changes\AgilisDevices\AgilisDeviceManager.c
                   __pa_8   0x0183ae    program     static C:\pavan\1+1RCUTx\1-1-RCU-T-NewArch_svn_web_changes\AgilisDevices\AgilisDeviceManager.c
                 InitData   0x0183b6    program     extern C:\pavan\1+1RCUTx\1-1-RCU-T-NewArch_svn_web_changes\Bootstrap\Initialization.c
          InitializeBoard   0x0185c6    program     extern C:\pavan\1+1RCUTx\1-1-RCU-T-NewArch_svn_web_changes\Bootstrap\Initialization.c
            InitAppConfig   0x018612    program     extern C:\pavan\1+1RCUTx\1-1-RCU-T-NewArch_svn_web_changes\Bootstrap\Initialization.c
                   __pa_0   0x0187a0    program     static C:\pavan\1+1RCUTx\1-1-RCU-T-NewArch_svn_web_changes\Bootstrap\Initialization.c
                   __pa_1   0x0187b6    program     static C:\pavan\1+1RCUTx\1-1-RCU-T-NewArch_svn_web_changes\Bootstrap\Initialization.c
                   __pa_2   0x018826    program     static C:\pavan\1+1RCUTx\1-1-RCU-T-NewArch_svn_web_changes\Bootstrap\Initialization.c
                   __pa_3   0x01882c    program     static C:\pavan\1+1RCUTx\1-1-RCU-T-NewArch_svn_web_changes\Bootstrap\Initialization.c
                   __pa_4   0x01883c    program     static C:\pavan\1+1RCUTx\1-1-RCU-T-NewArch_svn_web_changes\Bootstrap\Initialization.c
                   __pa_5   0x018850    program     static C:\pavan\1+1RCUTx\1-1-RCU-T-NewArch_svn_web_changes\Bootstrap\Initialization.c
                   __pa_6   0x01885c    program     static C:\pavan\1+1RCUTx\1-1-RCU-T-NewArch_svn_web_changes\Bootstrap\Initialization.c
                   __pa_7   0x01887c    program     static C:\pavan\1+1RCUTx\1-1-RCU-T-NewArch_svn_web_changes\Bootstrap\Initialization.c
                   __pa_8   0x01889c    program     static C:\pavan\1+1RCUTx\1-1-RCU-T-NewArch_svn_web_changes\Bootstrap\Initialization.c
                   __pa_9   0x0188a4    program     static C:\pavan\1+1RCUTx\1-1-RCU-T-NewArch_svn_web_changes\Bootstrap\Initialization.c
                  __pa_10   0x0188bc    program     static C:\pavan\1+1RCUTx\1-1-RCU-T-NewArch_svn_web_changes\Bootstrap\Initialization.c
                  __pa_11   0x0188d4    program     static C:\pavan\1+1RCUTx\1-1-RCU-T-NewArch_svn_web_changes\Bootstrap\Initialization.c
                  __pa_12   0x0188e2    program     static C:\pavan\1+1RCUTx\1-1-RCU-T-NewArch_svn_web_changes\Bootstrap\Initialization.c
                  __pa_13   0x0188ee    program     static C:\pavan\1+1RCUTx\1-1-RCU-T-NewArch_svn_web_changes\Bootstrap\Initialization.c
                  __pa_14   0x0188fc    program     static C:\pavan\1+1RCUTx\1-1-RCU-T-NewArch_svn_web_changes\Bootstrap\Initialization.c
                  __pa_15   0x01890a    program     static C:\pavan\1+1RCUTx\1-1-RCU-T-NewArch_svn_web_changes\Bootstrap\Initialization.c
                  __pa_16   0x018910    program     static C:\pavan\1+1RCUTx\1-1-RCU-T-NewArch_svn_web_changes\Bootstrap\Initialization.c
                  __pa_17   0x018920    program     static C:\pavan\1+1RCUTx\1-1-RCU-T-NewArch_svn_web_changes\Bootstrap\Initialization.c
                  __pa_18   0x01892a    program     static C:\pavan\1+1RCUTx\1-1-RCU-T-NewArch_svn_web_changes\Bootstrap\Initialization.c
                  __pa_19   0x01893c    program     static C:\pavan\1+1RCUTx\1-1-RCU-T-NewArch_svn_web_changes\Bootstrap\Initialization.c
                  __pa_20   0x018946    program     static C:\pavan\1+1RCUTx\1-1-RCU-T-NewArch_svn_web_changes\Bootstrap\Initialization.c
                  __pa_21   0x018954    program     static C:\pavan\1+1RCUTx\1-1-RCU-T-NewArch_svn_web_changes\Bootstrap\Initialization.c
                  __pa_22   0x018962    program     static C:\pavan\1+1RCUTx\1-1-RCU-T-NewArch_svn_web_changes\Bootstrap\Initialization.c
                  __pa_23   0x01896a    program     static C:\pavan\1+1RCUTx\1-1-RCU-T-NewArch_svn_web_changes\Bootstrap\Initialization.c
                  __pa_24   0x018970    program     static C:\pavan\1+1RCUTx\1-1-RCU-T-NewArch_svn_web_changes\Bootstrap\Initialization.c
                  __pa_25   0x018976    program     static C:\pavan\1+1RCUTx\1-1-RCU-T-NewArch_svn_web_changes\Bootstrap\Initialization.c
                  __pa_26   0x01897e    program     static C:\pavan\1+1RCUTx\1-1-RCU-T-NewArch_svn_web_changes\Bootstrap\Initialization.c
            ResetDualUart   0x018986    program     extern C:\pavan\1+1RCUTx\1-1-RCU-T-NewArch_svn_web_changes\Drivers\External-Peripherals\AgilisDualUART.c
        WriteDualUartConf   0x018992    program     extern C:\pavan\1+1RCUTx\1-1-RCU-T-NewArch_svn_web_changes\Drivers\External-Peripherals\AgilisDualUART.c
         ReadDualUartConf   0x018a20    program     extern C:\pavan\1+1RCUTx\1-1-RCU-T-NewArch_svn_web_changes\Drivers\External-Peripherals\AgilisDualUART.c
           ___?:_lbl00012   0x018a50    program     static                          
           ___?:_lbl00011   0x018a52    program     static                          
           ___?:_lbl00014   0x018a66    program     static                          
           ___?:_lbl00013   0x018a68    program     static                          
         ___else_lbl00021   0x018a82    program     static                          
         ___else_lbl00019   0x018a94    program     static                          
         ___else_lbl00017   0x018aa6    program     static                          
           ___if_lbl00020   0x018ab6    program     static                          
           ___if_lbl00018   0x018ab6    program     static                          
           ___if_lbl00016   0x018ab6    program     static                          
           ___if_lbl00015   0x018ab6    program     static                          
       ___return_lbl00010   0x018ad6    program     static                          
         ReadDataFromUart   0x018ae4    program     extern C:\pavan\1+1RCUTx\1-1-RCU-T-NewArch_svn_web_changes\Drivers\External-Peripherals\AgilisDualUART.c
         ___else_lbl00024   0x018b0e    program     static                          
           ___if_lbl00023   0x018b12    program     static                          
       ___return_lbl00022   0x018b30    program     static                          
      ReadDataFromUartISR   0x018b3e    program     extern C:\pavan\1+1RCUTx\1-1-RCU-T-NewArch_svn_web_changes\Drivers\External-Peripherals\AgilisDualUART.c
         ___else_lbl00032   0x018b70    program     static                          
         ___else_lbl00030   0x018b82    program     static                          
         ___else_lbl00028   0x018b94    program     static                          
           ___if_lbl00026   0x018ba4    program     static                          
           ___if_lbl00027   0x018ba4    program     static                          
           ___if_lbl00029   0x018ba4    program     static                          
           ___if_lbl00031   0x018ba4    program     static                          
       ___return_lbl00025   0x018bc6    program     static                          
           SendDataToUart   0x018bd4    program     extern C:\pavan\1+1RCUTx\1-1-RCU-T-NewArch_svn_web_changes\Drivers\External-Peripherals\AgilisDualUART.c
     ConfigureUartChannel   0x018c3c    program     extern C:\pavan\1+1RCUTx\1-1-RCU-T-NewArch_svn_web_changes\Drivers\External-Peripherals\AgilisDualUART.c
       InitialiseDualUart   0x018c9c    program     extern C:\pavan\1+1RCUTx\1-1-RCU-T-NewArch_svn_web_changes\Drivers\External-Peripherals\AgilisDualUART.c
     SetDualUartInterrupt   0x018db8    program     extern C:\pavan\1+1RCUTx\1-1-RCU-T-NewArch_svn_web_changes\Drivers\External-Peripherals\AgilisDualUART.c
                   __pa_0   0x018dd4    program     static C:\pavan\1+1RCUTx\1-1-RCU-T-NewArch_svn_web_changes\Drivers\External-Peripherals\AgilisDualUART.c
                   __pa_1   0x018dde    program     static C:\pavan\1+1RCUTx\1-1-RCU-T-NewArch_svn_web_changes\Drivers\External-Peripherals\AgilisDualUART.c
                   __pa_2   0x018de8    program     static C:\pavan\1+1RCUTx\1-1-RCU-T-NewArch_svn_web_changes\Drivers\External-Peripherals\AgilisDualUART.c
                   __pa_3   0x018dfa    program     static C:\pavan\1+1RCUTx\1-1-RCU-T-NewArch_svn_web_changes\Drivers\External-Peripherals\AgilisDualUART.c
                   __pa_4   0x018e12    program     static C:\pavan\1+1RCUTx\1-1-RCU-T-NewArch_svn_web_changes\Drivers\External-Peripherals\AgilisDualUART.c
                   __pa_5   0x018e1e    program     static C:\pavan\1+1RCUTx\1-1-RCU-T-NewArch_svn_web_changes\Drivers\External-Peripherals\AgilisDualUART.c
                   __pa_6   0x018e2e    program     static C:\pavan\1+1RCUTx\1-1-RCU-T-NewArch_svn_web_changes\Drivers\External-Peripherals\AgilisDualUART.c
                   __pa_7   0x018e38    program     static C:\pavan\1+1RCUTx\1-1-RCU-T-NewArch_svn_web_changes\Drivers\External-Peripherals\AgilisDualUART.c
                   __pa_8   0x018e40    program     static C:\pavan\1+1RCUTx\1-1-RCU-T-NewArch_svn_web_changes\Drivers\External-Peripherals\AgilisDualUART.c
                   __pa_9   0x018e48    program     static C:\pavan\1+1RCUTx\1-1-RCU-T-NewArch_svn_web_changes\Drivers\External-Peripherals\AgilisDualUART.c
                  __pa_10   0x018e52    program     static C:\pavan\1+1RCUTx\1-1-RCU-T-NewArch_svn_web_changes\Drivers\External-Peripherals\AgilisDualUART.c
                  __pa_11   0x018e64    program     static C:\pavan\1+1RCUTx\1-1-RCU-T-NewArch_svn_web_changes\Drivers\External-Peripherals\AgilisDualUART.c
                  __pa_12   0x018e70    program     static C:\pavan\1+1RCUTx\1-1-RCU-T-NewArch_svn_web_changes\Drivers\External-Peripherals\AgilisDualUART.c
                  __pa_13   0x018e80    program     static C:\pavan\1+1RCUTx\1-1-RCU-T-NewArch_svn_web_changes\Drivers\External-Peripherals\AgilisDualUART.c
                   ARPPut   0x018e8a    program     static C:\pavan\1+1RCUTx\1-1-RCU-T-NewArch_svn_web_changes\Microchip\TCPIP Stack\ARP.c
                  ARPInit   0x018f52    program     extern C:\pavan\1+1RCUTx\1-1-RCU-T-NewArch_svn_web_changes\Microchip\TCPIP Stack\ARP.c
               ARPProcess   0x018f6a    program     extern C:\pavan\1+1RCUTx\1-1-RCU-T-NewArch_svn_web_changes\Microchip\TCPIP Stack\ARP.c
               ARPResolve   0x019100    program     extern C:\pavan\1+1RCUTx\1-1-RCU-T-NewArch_svn_web_changes\Microchip\TCPIP Stack\ARP.c
            ARPIsResolved   0x0191aa    program     extern C:\pavan\1+1RCUTx\1-1-RCU-T-NewArch_svn_web_changes\Microchip\TCPIP Stack\ARP.c
            SwapARPPacket   0x01924c    program     extern C:\pavan\1+1RCUTx\1-1-RCU-T-NewArch_svn_web_changes\Microchip\TCPIP Stack\ARP.c
                   __pa_0   0x019274    program     static C:\pavan\1+1RCUTx\1-1-RCU-T-NewArch_svn_web_changes\Microchip\TCPIP Stack\ARP.c
                   __pa_1   0x019282    program     static C:\pavan\1+1RCUTx\1-1-RCU-T-NewArch_svn_web_changes\Microchip\TCPIP Stack\ARP.c
                   __pa_2   0x01928e    program     static C:\pavan\1+1RCUTx\1-1-RCU-T-NewArch_svn_web_changes\Microchip\TCPIP Stack\ARP.c
                   __pa_3   0x01929a    program     static C:\pavan\1+1RCUTx\1-1-RCU-T-NewArch_svn_web_changes\Microchip\TCPIP Stack\ARP.c
                   __pa_4   0x0192ae    program     static C:\pavan\1+1RCUTx\1-1-RCU-T-NewArch_svn_web_changes\Microchip\TCPIP Stack\ARP.c
                   __pa_5   0x0192b8    program     static C:\pavan\1+1RCUTx\1-1-RCU-T-NewArch_svn_web_changes\Microchip\TCPIP Stack\ARP.c
                   __pa_6   0x0192c8    program     static C:\pavan\1+1RCUTx\1-1-RCU-T-NewArch_svn_web_changes\Microchip\TCPIP Stack\ARP.c
                   __pa_7   0x0192d4    program     static C:\pavan\1+1RCUTx\1-1-RCU-T-NewArch_svn_web_changes\Microchip\TCPIP Stack\ARP.c
                   __pa_8   0x0192e2    program     static C:\pavan\1+1RCUTx\1-1-RCU-T-NewArch_svn_web_changes\Microchip\TCPIP Stack\ARP.c
                   __pa_9   0x0192f0    program     static C:\pavan\1+1RCUTx\1-1-RCU-T-NewArch_svn_web_changes\Microchip\TCPIP Stack\ARP.c
                  __pa_10   0x01930c    program     static C:\pavan\1+1RCUTx\1-1-RCU-T-NewArch_svn_web_changes\Microchip\TCPIP Stack\ARP.c
                  __pa_11   0x019314    program     static C:\pavan\1+1RCUTx\1-1-RCU-T-NewArch_svn_web_changes\Microchip\TCPIP Stack\ARP.c
                   memcmp   0x01931e    program     extern C:\Program Files\mcc18\src\traditional\stdclib\memcmp.asm
                    jLoop   0x01933e    program     static C:\Program Files\mcc18\src\traditional\stdclib\memcmp.asm
              _4jContinue   0x01934a    program     static C:\Program Files\mcc18\src\traditional\stdclib\memcmp.asm
                   _5jEnd   0x019354    program     static C:\Program Files\mcc18\src\traditional\stdclib\memcmp.asm
                     jEnd   0x01935a    program     static C:\Program Files\mcc18\src\traditional\stdclib\memcmp.asm
                    jLoop   0x019370    program     static C:\Program Files\mcc18\src\traditional\stdclib\mcmpp2p.asm
                memcmppgm   0x019370    program     extern C:\Program Files\mcc18\src\traditional\stdclib\mcmpp2p.asm
              _1jContinue   0x019382    program     static C:\Program Files\mcc18\src\traditional\stdclib\mcmpp2p.asm
                   _2jEnd   0x019392    program     static C:\Program Files\mcc18\src\traditional\stdclib\mcmpp2p.asm
                   _5jEnd   0x0193c8    program     static C:\Program Files\mcc18\src\traditional\stdclib\mcmpp2p.asm
                   _6jEnd   0x0193d8    program     static C:\Program Files\mcc18\src\traditional\stdclib\mcmpp2p.asm
                     jEnd   0x0193e0    program     static C:\Program Files\mcc18\src\traditional\stdclib\mcmpp2p.asm
            memcmppgm2ram   0x0193e2    program     extern C:\Program Files\mcc18\src\traditional\stdclib\mcmpp2r.asm
                    jLoop   0x019400    program     static C:\Program Files\mcc18\src\traditional\stdclib\mcmpp2r.asm
              _3jContinue   0x01940c    program     static C:\Program Files\mcc18\src\traditional\stdclib\mcmpp2r.asm
                   _4jEnd   0x019416    program     static C:\Program Files\mcc18\src\traditional\stdclib\mcmpp2r.asm
                     jEnd   0x01941e    program     static C:\Program Files\mcc18\src\traditional\stdclib\mcmpp2r.asm
                   memcpy   0x019420    program     extern C:\Program Files\mcc18\src\traditional\stdclib\memcpy.asm
                    jLoop   0x019448    program     static C:\Program Files\mcc18\src\traditional\stdclib\memcpy.asm
              _4jContinue   0x019454    program     static C:\Program Files\mcc18\src\traditional\stdclib\memcpy.asm
                   _5jEnd   0x01945e    program     static C:\Program Files\mcc18\src\traditional\stdclib\memcpy.asm
                     jEnd   0x019464    program     static C:\Program Files\mcc18\src\traditional\stdclib\memcpy.asm
            memcpypgm2ram   0x019476    program     extern C:\Program Files\mcc18\src\traditional\stdclib\mcpyp2r.asm
                    jLoop   0x01949c    program     static C:\Program Files\mcc18\src\traditional\stdclib\mcpyp2r.asm
              _3jContinue   0x0194a8    program     static C:\Program Files\mcc18\src\traditional\stdclib\mcpyp2r.asm
                   _4jEnd   0x0194b2    program     static C:\Program Files\mcc18\src\traditional\stdclib\mcpyp2r.asm
                     jEnd   0x0194ba    program     static C:\Program Files\mcc18\src\traditional\stdclib\mcpyp2r.asm
                   memset   0x0194bc    program     extern C:\Program Files\mcc18\src\traditional\stdclib\memset.asm
                    jLoop   0x0194d0    program     static C:\Program Files\mcc18\src\traditional\stdclib\memset.asm
              _2jContinue   0x0194dc    program     static C:\Program Files\mcc18\src\traditional\stdclib\memset.asm
                   _3jEnd   0x0194e6    program     static C:\Program Files\mcc18\src\traditional\stdclib\memset.asm
                     jEnd   0x0194ee    program     static C:\Program Files\mcc18\src\traditional\stdclib\memset.asm
            strcatpgm2ram   0x0194f0    program     extern C:\Program Files\mcc18\src\traditional\stdclib\scatp2r.asm
                jNullLoop   0x019516    program     static C:\Program Files\mcc18\src\traditional\stdclib\scatp2r.asm
                    jLoop   0x01951c    program     static C:\Program Files\mcc18\src\traditional\stdclib\scatp2r.asm
                     jEnd   0x019526    program     static C:\Program Files\mcc18\src\traditional\stdclib\scatp2r.asm
                   strcmp   0x019528    program     extern C:\Program Files\mcc18\src\traditional\stdclib\strcmp.asm
                    jLoop   0x019548    program     static C:\Program Files\mcc18\src\traditional\stdclib\strcmp.asm
                     jEnd   0x019552    program     static C:\Program Files\mcc18\src\traditional\stdclib\strcmp.asm
            strcmppgm2ram   0x019568    program     extern C:\Program Files\mcc18\src\traditional\stdclib\scmpp2r.asm
                    jLoop   0x019586    program     static C:\Program Files\mcc18\src\traditional\stdclib\scmpp2r.asm
                     jEnd   0x019592    program     static C:\Program Files\mcc18\src\traditional\stdclib\scmpp2r.asm
                   strcpy   0x019594    program     extern C:\Program Files\mcc18\src\traditional\stdclib\strcpy.asm
                    jLoop   0x0195bc    program     static C:\Program Files\mcc18\src\traditional\stdclib\strcpy.asm
            strcpypgm2ram   0x0195d6    program     extern C:\Program Files\mcc18\src\traditional\stdclib\scpyp2r.asm
                    jLoop   0x0195fc    program     static C:\Program Files\mcc18\src\traditional\stdclib\scpyp2r.asm
                     jEnd   0x019606    program     static C:\Program Files\mcc18\src\traditional\stdclib\scpyp2r.asm
                   strlen   0x019608    program     extern C:\Program Files\mcc18\src\traditional\stdclib\strlen.asm
                    jLoop   0x019618    program     static C:\Program Files\mcc18\src\traditional\stdclib\strlen.asm
                     jEnd   0x019622    program     static C:\Program Files\mcc18\src\traditional\stdclib\strlen.asm
                strlenpgm   0x019624    program     extern C:\Program Files\mcc18\src\traditional\stdclib\slenpgm.asm
                    jLoop   0x019642    program     static C:\Program Files\mcc18\src\traditional\stdclib\slenpgm.asm
                   _2jEnd   0x019658    program     static C:\Program Files\mcc18\src\traditional\stdclib\slenpgm.asm
                     jEnd   0x01965a    program     static C:\Program Files\mcc18\src\traditional\stdclib\slenpgm.asm
                  strncmp   0x01966e    program     extern C:\Program Files\mcc18\src\traditional\stdclib\strncmp.asm
                    jLoop   0x01968e    program     static C:\Program Files\mcc18\src\traditional\stdclib\strncmp.asm
              _4jContinue   0x01969a    program     static C:\Program Files\mcc18\src\traditional\stdclib\strncmp.asm
                   _5jEnd   0x0196a4    program     static C:\Program Files\mcc18\src\traditional\stdclib\strncmp.asm
                     jEnd   0x0196ae    program     static C:\Program Files\mcc18\src\traditional\stdclib\strncmp.asm
                  strncpy   0x0196c4    program     extern C:\Program Files\mcc18\src\traditional\stdclib\strncpy.asm
                    jLoop   0x0196ec    program     static C:\Program Files\mcc18\src\traditional\stdclib\strncpy.asm
              _4jContinue   0x0196f8    program     static C:\Program Files\mcc18\src\traditional\stdclib\strncpy.asm
                   _5jEnd   0x019702    program     static C:\Program Files\mcc18\src\traditional\stdclib\strncpy.asm
                     jEnd   0x01970e    program     static C:\Program Files\mcc18\src\traditional\stdclib\strncpy.asm
                   strupr   0x019720    program     extern C:\Program Files\mcc18\src\traditional\stdclib\strupr.asm
                    jLoop   0x019734    program     static C:\Program Files\mcc18\src\traditional\stdclib\strupr.asm
                    jSkip   0x019744    program     static C:\Program Files\mcc18\src\traditional\stdclib\strupr.asm
                     jEnd   0x019748    program     static C:\Program Files\mcc18\src\traditional\stdclib\strupr.asm
 Agilissnmp_setSYS_Params   0x01974a    program     extern C:\pavan\1+1RCUTx\1-1-RCU-T-NewArch_svn_web_changes\App\SNMP\AgilisSNMPSysInfo.c
 Agilissnmp_getSYS_Params   0x019810    program     extern C:\pavan\1+1RCUTx\1-1-RCU-T-NewArch_svn_web_changes\App\SNMP\AgilisSNMPSysInfo.c
                   __pa_0   0x019a7a    program     static C:\pavan\1+1RCUTx\1-1-RCU-T-NewArch_svn_web_changes\App\SNMP\AgilisSNMPSysInfo.c
                   __pa_1   0x019a8e    program     static C:\pavan\1+1RCUTx\1-1-RCU-T-NewArch_svn_web_changes\App\SNMP\AgilisSNMPSysInfo.c
                   __pa_2   0x019a9c    program     static C:\pavan\1+1RCUTx\1-1-RCU-T-NewArch_svn_web_changes\App\SNMP\AgilisSNMPSysInfo.c
                   __pa_3   0x019aac    program     static C:\pavan\1+1RCUTx\1-1-RCU-T-NewArch_svn_web_changes\App\SNMP\AgilisSNMPSysInfo.c
                   __pa_4   0x019ab4    program     static C:\pavan\1+1RCUTx\1-1-RCU-T-NewArch_svn_web_changes\App\SNMP\AgilisSNMPSysInfo.c
                   __pa_5   0x019ac4    program     static C:\pavan\1+1RCUTx\1-1-RCU-T-NewArch_svn_web_changes\App\SNMP\AgilisSNMPSysInfo.c
                   __pa_6   0x019ae2    program     static C:\pavan\1+1RCUTx\1-1-RCU-T-NewArch_svn_web_changes\App\SNMP\AgilisSNMPSysInfo.c
                   __pa_7   0x019af0    program     static C:\pavan\1+1RCUTx\1-1-RCU-T-NewArch_svn_web_changes\App\SNMP\AgilisSNMPSysInfo.c
                   __pa_8   0x019b02    program     static C:\pavan\1+1RCUTx\1-1-RCU-T-NewArch_svn_web_changes\App\SNMP\AgilisSNMPSysInfo.c
                   __pa_9   0x019b0e    program     static C:\pavan\1+1RCUTx\1-1-RCU-T-NewArch_svn_web_changes\App\SNMP\AgilisSNMPSysInfo.c
                  __pa_10   0x019b18    program     static C:\pavan\1+1RCUTx\1-1-RCU-T-NewArch_svn_web_changes\App\SNMP\AgilisSNMPSysInfo.c
                  __pa_11   0x019b24    program     static C:\pavan\1+1RCUTx\1-1-RCU-T-NewArch_svn_web_changes\App\SNMP\AgilisSNMPSysInfo.c
                  __pa_12   0x019b32    program     static C:\pavan\1+1RCUTx\1-1-RCU-T-NewArch_svn_web_changes\App\SNMP\AgilisSNMPSysInfo.c
Agilissnmpll_getBUCinpower   0x019b40    program     extern C:\pavan\1+1RCUTx\1-1-RCU-T-NewArch_svn_web_changes\App\SNMP\AgilisSNMPLLBUCStatus.c
Agilissnmpll_getBUCoutpower   0x019b60    program     extern C:\pavan\1+1RCUTx\1-1-RCU-T-NewArch_svn_web_changes\App\SNMP\AgilisSNMPLLBUCStatus.c
Agilissnmpll_getBUCreflectpower   0x019bfe    program     extern C:\pavan\1+1RCUTx\1-1-RCU-T-NewArch_svn_web_changes\App\SNMP\AgilisSNMPLLBUCStatus.c
  Agilissnmpll_getBUCtemp   0x019c1e    program     extern C:\pavan\1+1RCUTx\1-1-RCU-T-NewArch_svn_web_changes\App\SNMP\AgilisSNMPLLBUCStatus.c
Agilissnmpll_alarmBUC_lolock   0x019cc4    program     extern C:\pavan\1+1RCUTx\1-1-RCU-T-NewArch_svn_web_changes\App\SNMP\AgilisSNMPLLBUCStatus.c
Agilissnmpll_alarmBUC_powerAmp   0x019ce2    program     extern C:\pavan\1+1RCUTx\1-1-RCU-T-NewArch_svn_web_changes\App\SNMP\AgilisSNMPLLBUCStatus.c
Agilissnmpll_alarmBUC_TempLevel   0x019cfe    program     extern C:\pavan\1+1RCUTx\1-1-RCU-T-NewArch_svn_web_changes\App\SNMP\AgilisSNMPLLBUCStatus.c
Agilissnmpll_alarmBUC_fetBias   0x019d1a    program     extern C:\pavan\1+1RCUTx\1-1-RCU-T-NewArch_svn_web_changes\App\SNMP\AgilisSNMPLLBUCStatus.c
Agilissnmpll_alarmBUC_rfLow   0x019d1c    program     extern C:\pavan\1+1RCUTx\1-1-RCU-T-NewArch_svn_web_changes\App\SNMP\AgilisSNMPLLBUCStatus.c
Agilissnmpll_alarmBUC_reserved   0x019d38    program     extern C:\pavan\1+1RCUTx\1-1-RCU-T-NewArch_svn_web_changes\App\SNMP\AgilisSNMPLLBUCStatus.c
 Agilissnmp_get_trap_resp   0x019d3a    program     extern C:\pavan\1+1RCUTx\1-1-RCU-T-NewArch_svn_web_changes\App\SNMP\AgilisSNMPLLBUCStatus.c
                   __pa_0   0x019db4    program     static C:\pavan\1+1RCUTx\1-1-RCU-T-NewArch_svn_web_changes\App\SNMP\AgilisSNMPLLBUCStatus.c
                   __pa_1   0x019dcc    program     static C:\pavan\1+1RCUTx\1-1-RCU-T-NewArch_svn_web_changes\App\SNMP\AgilisSNMPLLBUCStatus.c
                   __pa_2   0x019dd8    program     static C:\pavan\1+1RCUTx\1-1-RCU-T-NewArch_svn_web_changes\App\SNMP\AgilisSNMPLLBUCStatus.c
                   __pa_3   0x019de4    program     static C:\pavan\1+1RCUTx\1-1-RCU-T-NewArch_svn_web_changes\App\SNMP\AgilisSNMPLLBUCStatus.c
                   __pa_4   0x019de8    program     static C:\pavan\1+1RCUTx\1-1-RCU-T-NewArch_svn_web_changes\App\SNMP\AgilisSNMPLLBUCStatus.c
                   __pa_5   0x019df6    program     static C:\pavan\1+1RCUTx\1-1-RCU-T-NewArch_svn_web_changes\App\SNMP\AgilisSNMPLLBUCStatus.c
                   __pa_6   0x019dfe    program     static C:\pavan\1+1RCUTx\1-1-RCU-T-NewArch_svn_web_changes\App\SNMP\AgilisSNMPLLBUCStatus.c
                   __pa_7   0x019e0e    program     static C:\pavan\1+1RCUTx\1-1-RCU-T-NewArch_svn_web_changes\App\SNMP\AgilisSNMPLLBUCStatus.c
                   __pa_8   0x019e14    program     static C:\pavan\1+1RCUTx\1-1-RCU-T-NewArch_svn_web_changes\App\SNMP\AgilisSNMPLLBUCStatus.c
                   __pa_9   0x019e2a    program     static C:\pavan\1+1RCUTx\1-1-RCU-T-NewArch_svn_web_changes\App\SNMP\AgilisSNMPLLBUCStatus.c
                  __pa_10   0x019e40    program     static C:\pavan\1+1RCUTx\1-1-RCU-T-NewArch_svn_web_changes\App\SNMP\AgilisSNMPLLBUCStatus.c
                  __pa_11   0x019e52    program     static C:\pavan\1+1RCUTx\1-1-RCU-T-NewArch_svn_web_changes\App\SNMP\AgilisSNMPLLBUCStatus.c
                  __pa_12   0x019e60    program     static C:\pavan\1+1RCUTx\1-1-RCU-T-NewArch_svn_web_changes\App\SNMP\AgilisSNMPLLBUCStatus.c
                  __pa_13   0x019e6e    program     static C:\pavan\1+1RCUTx\1-1-RCU-T-NewArch_svn_web_changes\App\SNMP\AgilisSNMPLLBUCStatus.c
                  __pa_14   0x019e84    program     static C:\pavan\1+1RCUTx\1-1-RCU-T-NewArch_svn_web_changes\App\SNMP\AgilisSNMPLLBUCStatus.c
                  __pa_15   0x019e8c    program     static C:\pavan\1+1RCUTx\1-1-RCU-T-NewArch_svn_web_changes\App\SNMP\AgilisSNMPLLBUCStatus.c
                  __pa_16   0x019e94    program     static C:\pavan\1+1RCUTx\1-1-RCU-T-NewArch_svn_web_changes\App\SNMP\AgilisSNMPLLBUCStatus.c
                  __pa_17   0x019e9e    program     static C:\pavan\1+1RCUTx\1-1-RCU-T-NewArch_svn_web_changes\App\SNMP\AgilisSNMPLLBUCStatus.c
                  __pa_18   0x019eae    program     static C:\pavan\1+1RCUTx\1-1-RCU-T-NewArch_svn_web_changes\App\SNMP\AgilisSNMPLLBUCStatus.c
                  __pa_19   0x019eba    program     static C:\pavan\1+1RCUTx\1-1-RCU-T-NewArch_svn_web_changes\App\SNMP\AgilisSNMPLLBUCStatus.c
                  __pa_20   0x019ec8    program     static C:\pavan\1+1RCUTx\1-1-RCU-T-NewArch_svn_web_changes\App\SNMP\AgilisSNMPLLBUCStatus.c
                  __pa_21   0x019ed0    program     static C:\pavan\1+1RCUTx\1-1-RCU-T-NewArch_svn_web_changes\App\SNMP\AgilisSNMPLLBUCStatus.c
                  __pa_22   0x019ed6    program     static C:\pavan\1+1RCUTx\1-1-RCU-T-NewArch_svn_web_changes\App\SNMP\AgilisSNMPLLBUCStatus.c
                  __pa_23   0x019ee4    program     static C:\pavan\1+1RCUTx\1-1-RCU-T-NewArch_svn_web_changes\App\SNMP\AgilisSNMPLLBUCStatus.c
                  __pa_24   0x019ef0    program     static C:\pavan\1+1RCUTx\1-1-RCU-T-NewArch_svn_web_changes\App\SNMP\AgilisSNMPLLBUCStatus.c
                  __pa_25   0x019efe    program     static C:\pavan\1+1RCUTx\1-1-RCU-T-NewArch_svn_web_changes\App\SNMP\AgilisSNMPLLBUCStatus.c
                  __pa_26   0x019f06    program     static C:\pavan\1+1RCUTx\1-1-RCU-T-NewArch_svn_web_changes\App\SNMP\AgilisSNMPLLBUCStatus.c
                  __pa_27   0x019f10    program     static C:\pavan\1+1RCUTx\1-1-RCU-T-NewArch_svn_web_changes\App\SNMP\AgilisSNMPLLBUCStatus.c
                  __pa_28   0x019f1a    program     static C:\pavan\1+1RCUTx\1-1-RCU-T-NewArch_svn_web_changes\App\SNMP\AgilisSNMPLLBUCStatus.c
                  __pa_29   0x019f24    program     static C:\pavan\1+1RCUTx\1-1-RCU-T-NewArch_svn_web_changes\App\SNMP\AgilisSNMPLLBUCStatus.c
AgilisAppUtil_validate_attenuation   0x019f2a    program     extern C:\pavan\1+1RCUTx\1-1-RCU-T-NewArch_svn_web_changes\App\Util\AgilisAppUtil.c
 AgilisAppUtil_dword_swap   0x019f5e    program     extern C:\pavan\1+1RCUTx\1-1-RCU-T-NewArch_svn_web_changes\App\Util\AgilisAppUtil.c
Agilis_util_convert_ascii   0x01a056    program     extern C:\pavan\1+1RCUTx\1-1-RCU-T-NewArch_svn_web_changes\App\Util\AgilisAppUtil.c
   Agilis_util_parse_attn   0x01a152    program     extern C:\pavan\1+1RCUTx\1-1-RCU-T-NewArch_svn_web_changes\App\Util\AgilisAppUtil.c
                   __pa_0   0x01a214    program     static C:\pavan\1+1RCUTx\1-1-RCU-T-NewArch_svn_web_changes\App\Util\AgilisAppUtil.c
                   __pa_1   0x01a25c    program     static C:\pavan\1+1RCUTx\1-1-RCU-T-NewArch_svn_web_changes\App\Util\AgilisAppUtil.c
                   __pa_2   0x01a26c    program     static C:\pavan\1+1RCUTx\1-1-RCU-T-NewArch_svn_web_changes\App\Util\AgilisAppUtil.c
                   __pa_3   0x01a27c    program     static C:\pavan\1+1RCUTx\1-1-RCU-T-NewArch_svn_web_changes\App\Util\AgilisAppUtil.c
                   __pa_4   0x01a28e    program     static C:\pavan\1+1RCUTx\1-1-RCU-T-NewArch_svn_web_changes\App\Util\AgilisAppUtil.c
                   __pa_5   0x01a29a    program     static C:\pavan\1+1RCUTx\1-1-RCU-T-NewArch_svn_web_changes\App\Util\AgilisAppUtil.c
                   __pa_6   0x01a2a2    program     static C:\pavan\1+1RCUTx\1-1-RCU-T-NewArch_svn_web_changes\App\Util\AgilisAppUtil.c
                   __pa_7   0x01a2b0    program     static C:\pavan\1+1RCUTx\1-1-RCU-T-NewArch_svn_web_changes\App\Util\AgilisAppUtil.c
                   __pa_8   0x01a2be    program     static C:\pavan\1+1RCUTx\1-1-RCU-T-NewArch_svn_web_changes\App\Util\AgilisAppUtil.c
                   __pa_9   0x01a2cc    program     static C:\pavan\1+1RCUTx\1-1-RCU-T-NewArch_svn_web_changes\App\Util\AgilisAppUtil.c
                  __pa_10   0x01a2da    program     static C:\pavan\1+1RCUTx\1-1-RCU-T-NewArch_svn_web_changes\App\Util\AgilisAppUtil.c
                  __pa_11   0x01a2e8    program     static C:\pavan\1+1RCUTx\1-1-RCU-T-NewArch_svn_web_changes\App\Util\AgilisAppUtil.c
                  __pa_12   0x01a2f2    program     static C:\pavan\1+1RCUTx\1-1-RCU-T-NewArch_svn_web_changes\App\Util\AgilisAppUtil.c
Agilissnmpll_getRCUManagerip   0x01a300    program     extern C:\pavan\1+1RCUTx\1-1-RCU-T-NewArch_svn_web_changes\App\SNMP\AgilisSNMPLLRCUCmds.c
Agilissnmpll_getRCUDeviceip   0x01a326    program     extern C:\pavan\1+1RCUTx\1-1-RCU-T-NewArch_svn_web_changes\App\SNMP\AgilisSNMPLLRCUCmds.c
Agilissnmpll_getRCUDeviceipMask   0x01a34c    program     extern C:\pavan\1+1RCUTx\1-1-RCU-T-NewArch_svn_web_changes\App\SNMP\AgilisSNMPLLRCUCmds.c
Agilissnmpll_getRCUDeviceipGateway   0x01a372    program     extern C:\pavan\1+1RCUTx\1-1-RCU-T-NewArch_svn_web_changes\App\SNMP\AgilisSNMPLLRCUCmds.c
Agilissnmpll_getRCUSerialNumber   0x01a398    program     extern C:\pavan\1+1RCUTx\1-1-RCU-T-NewArch_svn_web_changes\App\SNMP\AgilisSNMPLLRCUCmds.c
Agilissnmpll_getRCUDeviceID   0x01a3c0    program     extern C:\pavan\1+1RCUTx\1-1-RCU-T-NewArch_svn_web_changes\App\SNMP\AgilisSNMPLLRCUCmds.c
Agilissnmpll_getRCUPartNumber   0x01a3e8    program     extern C:\pavan\1+1RCUTx\1-1-RCU-T-NewArch_svn_web_changes\App\SNMP\AgilisSNMPLLRCUCmds.c
 Agilissnmpll_getRCUFwVer   0x01a410    program     extern C:\pavan\1+1RCUTx\1-1-RCU-T-NewArch_svn_web_changes\App\SNMP\AgilisSNMPLLRCUCmds.c
Agilissnmpll_getRCUopMode   0x01a438    program     extern C:\pavan\1+1RCUTx\1-1-RCU-T-NewArch_svn_web_changes\App\SNMP\AgilisSNMPLLRCUCmds.c
Agilissnmpll_getRCUTxMode   0x01a444    program     extern C:\pavan\1+1RCUTx\1-1-RCU-T-NewArch_svn_web_changes\App\SNMP\AgilisSNMPLLRCUCmds.c
Agilissnmpll_getRCUTxSwitch   0x01a450    program     extern C:\pavan\1+1RCUTx\1-1-RCU-T-NewArch_svn_web_changes\App\SNMP\AgilisSNMPLLRCUCmds.c
Agilissnmpll_getRCUTxState   0x01a454    program     extern C:\pavan\1+1RCUTx\1-1-RCU-T-NewArch_svn_web_changes\App\SNMP\AgilisSNMPLLRCUCmds.c
Agilissnmpll_setRCUTxSwitch   0x01a458    program     extern C:\pavan\1+1RCUTx\1-1-RCU-T-NewArch_svn_web_changes\App\SNMP\AgilisSNMPLLRCUCmds.c
Agilissnmpll_setRCUTxMode   0x01a462    program     extern C:\pavan\1+1RCUTx\1-1-RCU-T-NewArch_svn_web_changes\App\SNMP\AgilisSNMPLLRCUCmds.c
Agilissnmpll_getRCU_ALARM_status   0x01a46c    program     extern C:\pavan\1+1RCUTx\1-1-RCU-T-NewArch_svn_web_changes\App\SNMP\AgilisSNMPLLRCUCmds.c
Agilissnmpll_get_RCU_ALARM_status   0x01a4ee    program     extern C:\pavan\1+1RCUTx\1-1-RCU-T-NewArch_svn_web_changes\App\SNMP\AgilisSNMPLLRCUCmds.c
Agilissnmpll_get_BUC_ALARM_status   0x01a528    program     extern C:\pavan\1+1RCUTx\1-1-RCU-T-NewArch_svn_web_changes\App\SNMP\AgilisSNMPLLRCUCmds.c
Agilissnmpll_check_BUC_COM_status   0x01a5ac    program     extern C:\pavan\1+1RCUTx\1-1-RCU-T-NewArch_svn_web_changes\App\SNMP\AgilisSNMPLLRCUCmds.c
                   __pa_0   0x01a5c8    program     static C:\pavan\1+1RCUTx\1-1-RCU-T-NewArch_svn_web_changes\App\SNMP\AgilisSNMPLLRCUCmds.c
                   __pa_1   0x01a5da    program     static C:\pavan\1+1RCUTx\1-1-RCU-T-NewArch_svn_web_changes\App\SNMP\AgilisSNMPLLRCUCmds.c
                   __pa_2   0x01a5e4    program     static C:\pavan\1+1RCUTx\1-1-RCU-T-NewArch_svn_web_changes\App\SNMP\AgilisSNMPLLRCUCmds.c
                   __pa_3   0x01a5f0    program     static C:\pavan\1+1RCUTx\1-1-RCU-T-NewArch_svn_web_changes\App\SNMP\AgilisSNMPLLRCUCmds.c
                   __pa_4   0x01a61c    program     static C:\pavan\1+1RCUTx\1-1-RCU-T-NewArch_svn_web_changes\App\SNMP\AgilisSNMPLLRCUCmds.c
                   __pa_5   0x01a624    program     static C:\pavan\1+1RCUTx\1-1-RCU-T-NewArch_svn_web_changes\App\SNMP\AgilisSNMPLLRCUCmds.c
                   __pa_6   0x01a638    program     static C:\pavan\1+1RCUTx\1-1-RCU-T-NewArch_svn_web_changes\App\SNMP\AgilisSNMPLLRCUCmds.c
                   __pa_7   0x01a644    program     static C:\pavan\1+1RCUTx\1-1-RCU-T-NewArch_svn_web_changes\App\SNMP\AgilisSNMPLLRCUCmds.c
                   __pa_8   0x01a64e    program     static C:\pavan\1+1RCUTx\1-1-RCU-T-NewArch_svn_web_changes\App\SNMP\AgilisSNMPLLRCUCmds.c
                   __pa_9   0x01a656    program     static C:\pavan\1+1RCUTx\1-1-RCU-T-NewArch_svn_web_changes\App\SNMP\AgilisSNMPLLRCUCmds.c
                  __pa_10   0x01a65c    program     static C:\pavan\1+1RCUTx\1-1-RCU-T-NewArch_svn_web_changes\App\SNMP\AgilisSNMPLLRCUCmds.c
                  __pa_11   0x01a666    program     static C:\pavan\1+1RCUTx\1-1-RCU-T-NewArch_svn_web_changes\App\SNMP\AgilisSNMPLLRCUCmds.c
                  __pa_12   0x01a674    program     static C:\pavan\1+1RCUTx\1-1-RCU-T-NewArch_svn_web_changes\App\SNMP\AgilisSNMPLLRCUCmds.c
                  __pa_13   0x01a680    program     static C:\pavan\1+1RCUTx\1-1-RCU-T-NewArch_svn_web_changes\App\SNMP\AgilisSNMPLLRCUCmds.c
                  __pa_14   0x01a698    program     static C:\pavan\1+1RCUTx\1-1-RCU-T-NewArch_svn_web_changes\App\SNMP\AgilisSNMPLLRCUCmds.c
                  __pa_15   0x01a69e    program     static C:\pavan\1+1RCUTx\1-1-RCU-T-NewArch_svn_web_changes\App\SNMP\AgilisSNMPLLRCUCmds.c
                  __pa_16   0x01a6a8    program     static C:\pavan\1+1RCUTx\1-1-RCU-T-NewArch_svn_web_changes\App\SNMP\AgilisSNMPLLRCUCmds.c
          AgilisUart0Init   0x01a6b6    program     extern C:\pavan\1+1RCUTx\1-1-RCU-T-NewArch_svn_web_changes\Drivers\AgilisUart.c
          AgilisUart0Open   0x01a6de    program     extern C:\pavan\1+1RCUTx\1-1-RCU-T-NewArch_svn_web_changes\Drivers\AgilisUart.c
          AgilisUart0Read   0x01a6e8    program     extern C:\pavan\1+1RCUTx\1-1-RCU-T-NewArch_svn_web_changes\Drivers\AgilisUart.c
         AgilisUart0Write   0x01a70e    program     extern C:\pavan\1+1RCUTx\1-1-RCU-T-NewArch_svn_web_changes\Drivers\AgilisUart.c
          AgilisUart1Init   0x01a73e    program     extern C:\pavan\1+1RCUTx\1-1-RCU-T-NewArch_svn_web_changes\Drivers\AgilisUart.c
          AgilisUart1Open   0x01a766    program     extern C:\pavan\1+1RCUTx\1-1-RCU-T-NewArch_svn_web_changes\Drivers\AgilisUart.c
          AgilisUart1Read   0x01a770    program     extern C:\pavan\1+1RCUTx\1-1-RCU-T-NewArch_svn_web_changes\Drivers\AgilisUart.c
         AgilisUart1Write   0x01a796    program     extern C:\pavan\1+1RCUTx\1-1-RCU-T-NewArch_svn_web_changes\Drivers\AgilisUart.c
          AgilisUart2Init   0x01a7c6    program     extern C:\pavan\1+1RCUTx\1-1-RCU-T-NewArch_svn_web_changes\Drivers\AgilisUart.c
          AgilisUart2Open   0x01a7ee    program     extern C:\pavan\1+1RCUTx\1-1-RCU-T-NewArch_svn_web_changes\Drivers\AgilisUart.c
          AgilisUart2Read   0x01a7f8    program     extern C:\pavan\1+1RCUTx\1-1-RCU-T-NewArch_svn_web_changes\Drivers\AgilisUart.c
         AgilisUart2Write   0x01a816    program     extern C:\pavan\1+1RCUTx\1-1-RCU-T-NewArch_svn_web_changes\Drivers\AgilisUart.c
          AgilisUart3Init   0x01a846    program     extern C:\pavan\1+1RCUTx\1-1-RCU-T-NewArch_svn_web_changes\Drivers\AgilisUart.c
          AgilisUart3Open   0x01a86e    program     extern C:\pavan\1+1RCUTx\1-1-RCU-T-NewArch_svn_web_changes\Drivers\AgilisUart.c
          AgilisUart3Read   0x01a878    program     extern C:\pavan\1+1RCUTx\1-1-RCU-T-NewArch_svn_web_changes\Drivers\AgilisUart.c
         AgilisUart3Write   0x01a896    program     extern C:\pavan\1+1RCUTx\1-1-RCU-T-NewArch_svn_web_changes\Drivers\AgilisUart.c
          AgilisUart4Init   0x01a8c6    program     extern C:\pavan\1+1RCUTx\1-1-RCU-T-NewArch_svn_web_changes\Drivers\AgilisUart.c
          AgilisUart4Open   0x01a8ee    program     extern C:\pavan\1+1RCUTx\1-1-RCU-T-NewArch_svn_web_changes\Drivers\AgilisUart.c
          AgilisUart4Read   0x01a8f8    program     extern C:\pavan\1+1RCUTx\1-1-RCU-T-NewArch_svn_web_changes\Drivers\AgilisUart.c
         AgilisUart4Write   0x01a916    program     extern C:\pavan\1+1RCUTx\1-1-RCU-T-NewArch_svn_web_changes\Drivers\AgilisUart.c
                   __pa_0   0x01a946    program     static C:\pavan\1+1RCUTx\1-1-RCU-T-NewArch_svn_web_changes\Drivers\AgilisUart.c
                   __pa_1   0x01a95a    program     static C:\pavan\1+1RCUTx\1-1-RCU-T-NewArch_svn_web_changes\Drivers\AgilisUart.c
                   __pa_2   0x01a970    program     static C:\pavan\1+1RCUTx\1-1-RCU-T-NewArch_svn_web_changes\Drivers\AgilisUart.c
                   __pa_3   0x01a994    program     static C:\pavan\1+1RCUTx\1-1-RCU-T-NewArch_svn_web_changes\Drivers\AgilisUart.c
                   __pa_4   0x01a9a6    program     static C:\pavan\1+1RCUTx\1-1-RCU-T-NewArch_svn_web_changes\Drivers\AgilisUart.c
                   __pa_5   0x01a9b2    program     static C:\pavan\1+1RCUTx\1-1-RCU-T-NewArch_svn_web_changes\Drivers\AgilisUart.c
                   __pa_6   0x01a9be    program     static C:\pavan\1+1RCUTx\1-1-RCU-T-NewArch_svn_web_changes\Drivers\AgilisUart.c
                   __pa_7   0x01a9c6    program     static C:\pavan\1+1RCUTx\1-1-RCU-T-NewArch_svn_web_changes\Drivers\AgilisUart.c
                   __pa_8   0x01a9d0    program     static C:\pavan\1+1RCUTx\1-1-RCU-T-NewArch_svn_web_changes\Drivers\AgilisUart.c
                   __pa_9   0x01a9de    program     static C:\pavan\1+1RCUTx\1-1-RCU-T-NewArch_svn_web_changes\Drivers\AgilisUart.c
                  __pa_10   0x01a9ea    program     static C:\pavan\1+1RCUTx\1-1-RCU-T-NewArch_svn_web_changes\Drivers\AgilisUart.c
                  __pa_11   0x01a9f4    program     static C:\pavan\1+1RCUTx\1-1-RCU-T-NewArch_svn_web_changes\Drivers\AgilisUart.c
                  __pa_12   0x01aa00    program     static C:\pavan\1+1RCUTx\1-1-RCU-T-NewArch_svn_web_changes\Drivers\AgilisUart.c
                  __pa_13   0x01aa08    program     static C:\pavan\1+1RCUTx\1-1-RCU-T-NewArch_svn_web_changes\Drivers\AgilisUart.c
                RCUHLInit   0x01aa14    program     extern C:\pavan\1+1RCUTx\1-1-RCU-T-NewArch_svn_web_changes\AgilisDevices\RCUHLAccess.c
             RCUHLSetMode   0x01aa8a    program     extern C:\pavan\1+1RCUTx\1-1-RCU-T-NewArch_svn_web_changes\AgilisDevices\RCUHLAccess.c
             RCUHLSetPath   0x01aa9c    program     extern C:\pavan\1+1RCUTx\1-1-RCU-T-NewArch_svn_web_changes\AgilisDevices\RCUHLAccess.c
          RCUHLSetComMode   0x01aac8    program     extern C:\pavan\1+1RCUTx\1-1-RCU-T-NewArch_svn_web_changes\AgilisDevices\RCUHLAccess.c
      RCUHLSetModelNumber   0x01aadc    program     extern C:\pavan\1+1RCUTx\1-1-RCU-T-NewArch_svn_web_changes\AgilisDevices\RCUHLAccess.c
     RCUHLSetSerialNumber   0x01ab34    program     extern C:\pavan\1+1RCUTx\1-1-RCU-T-NewArch_svn_web_changes\AgilisDevices\RCUHLAccess.c
         RCUHLSetDeviceID   0x01ab8c    program     extern C:\pavan\1+1RCUTx\1-1-RCU-T-NewArch_svn_web_changes\AgilisDevices\RCUHLAccess.c
         RCUHLSetBUCOnOff   0x01abb0    program     extern C:\pavan\1+1RCUTx\1-1-RCU-T-NewArch_svn_web_changes\AgilisDevices\RCUHLAccess.c
          RCUHLSetBUCAttn   0x01abce    program     extern C:\pavan\1+1RCUTx\1-1-RCU-T-NewArch_svn_web_changes\AgilisDevices\RCUHLAccess.c
      RCUHLGetAlarmStatus   0x01ac0e    program     extern C:\pavan\1+1RCUTx\1-1-RCU-T-NewArch_svn_web_changes\AgilisDevices\RCUHLAccess.c
                   __pa_0   0x01ac7c    program     static C:\pavan\1+1RCUTx\1-1-RCU-T-NewArch_svn_web_changes\AgilisDevices\RCUHLAccess.c
                   __pa_1   0x01ac8e    program     static C:\pavan\1+1RCUTx\1-1-RCU-T-NewArch_svn_web_changes\AgilisDevices\RCUHLAccess.c
                   __pa_2   0x01ac9a    program     static C:\pavan\1+1RCUTx\1-1-RCU-T-NewArch_svn_web_changes\AgilisDevices\RCUHLAccess.c
                   __pa_3   0x01acce    program     static C:\pavan\1+1RCUTx\1-1-RCU-T-NewArch_svn_web_changes\AgilisDevices\RCUHLAccess.c
                   __pa_4   0x01acfc    program     static C:\pavan\1+1RCUTx\1-1-RCU-T-NewArch_svn_web_changes\AgilisDevices\RCUHLAccess.c
                   __pa_5   0x01ad14    program     static C:\pavan\1+1RCUTx\1-1-RCU-T-NewArch_svn_web_changes\AgilisDevices\RCUHLAccess.c
                   __pa_6   0x01ad1c    program     static C:\pavan\1+1RCUTx\1-1-RCU-T-NewArch_svn_web_changes\AgilisDevices\RCUHLAccess.c
                   __pa_7   0x01ad2c    program     static C:\pavan\1+1RCUTx\1-1-RCU-T-NewArch_svn_web_changes\AgilisDevices\RCUHLAccess.c
                   __pa_8   0x01ad34    program     static C:\pavan\1+1RCUTx\1-1-RCU-T-NewArch_svn_web_changes\AgilisDevices\RCUHLAccess.c
                   __pa_9   0x01ad42    program     static C:\pavan\1+1RCUTx\1-1-RCU-T-NewArch_svn_web_changes\AgilisDevices\RCUHLAccess.c
                  __pa_10   0x01ad50    program     static C:\pavan\1+1RCUTx\1-1-RCU-T-NewArch_svn_web_changes\AgilisDevices\RCUHLAccess.c
                  __pa_11   0x01ad5e    program     static C:\pavan\1+1RCUTx\1-1-RCU-T-NewArch_svn_web_changes\AgilisDevices\RCUHLAccess.c
              IPGetHeader   0x01ad6c    program     extern C:\pavan\1+1RCUTx\1-1-RCU-T-NewArch_svn_web_changes\Microchip\TCPIP Stack\IP.c
              IPPutHeader   0x01aea8    program     extern C:\pavan\1+1RCUTx\1-1-RCU-T-NewArch_svn_web_changes\Microchip\TCPIP Stack\IP.c
            IPSetRxBuffer   0x01afae    program     extern C:\pavan\1+1RCUTx\1-1-RCU-T-NewArch_svn_web_changes\Microchip\TCPIP Stack\IP.c
             SwapIPHeader   0x01afdc    program     static C:\pavan\1+1RCUTx\1-1-RCU-T-NewArch_svn_web_changes\Microchip\TCPIP Stack\IP.c
                   __pa_0   0x01affa    program     static C:\pavan\1+1RCUTx\1-1-RCU-T-NewArch_svn_web_changes\Microchip\TCPIP Stack\IP.c
                   __pa_1   0x01b01c    program     static C:\pavan\1+1RCUTx\1-1-RCU-T-NewArch_svn_web_changes\Microchip\TCPIP Stack\IP.c
                   __pa_2   0x01b028    program     static C:\pavan\1+1RCUTx\1-1-RCU-T-NewArch_svn_web_changes\Microchip\TCPIP Stack\IP.c
                   __pa_3   0x01b034    program     static C:\pavan\1+1RCUTx\1-1-RCU-T-NewArch_svn_web_changes\Microchip\TCPIP Stack\IP.c
                   __pa_4   0x01b03a    program     static C:\pavan\1+1RCUTx\1-1-RCU-T-NewArch_svn_web_changes\Microchip\TCPIP Stack\IP.c
                   __pa_5   0x01b050    program     static C:\pavan\1+1RCUTx\1-1-RCU-T-NewArch_svn_web_changes\Microchip\TCPIP Stack\IP.c
                   __pa_6   0x01b05a    program     static C:\pavan\1+1RCUTx\1-1-RCU-T-NewArch_svn_web_changes\Microchip\TCPIP Stack\IP.c
                   __pa_7   0x01b064    program     static C:\pavan\1+1RCUTx\1-1-RCU-T-NewArch_svn_web_changes\Microchip\TCPIP Stack\IP.c
                   __pa_8   0x01b072    program     static C:\pavan\1+1RCUTx\1-1-RCU-T-NewArch_svn_web_changes\Microchip\TCPIP Stack\IP.c
                   __pa_9   0x01b080    program     static C:\pavan\1+1RCUTx\1-1-RCU-T-NewArch_svn_web_changes\Microchip\TCPIP Stack\IP.c
                  __pa_10   0x01b090    program     static C:\pavan\1+1RCUTx\1-1-RCU-T-NewArch_svn_web_changes\Microchip\TCPIP Stack\IP.c
                  XEEInit   0x01b09a    program     extern C:\pavan\1+1RCUTx\1-1-RCU-T-NewArch_svn_web_changes\Microchip\TCPIP Stack\SPIEEPROM.c
             XEEBeginRead   0x01b0b0    program     extern C:\pavan\1+1RCUTx\1-1-RCU-T-NewArch_svn_web_changes\Microchip\TCPIP Stack\SPIEEPROM.c
                  XEERead   0x01b0bc    program     extern C:\pavan\1+1RCUTx\1-1-RCU-T-NewArch_svn_web_changes\Microchip\TCPIP Stack\SPIEEPROM.c
               XEEEndRead   0x01b112    program     extern C:\pavan\1+1RCUTx\1-1-RCU-T-NewArch_svn_web_changes\Microchip\TCPIP Stack\SPIEEPROM.c
             XEEReadArray   0x01b114    program     extern C:\pavan\1+1RCUTx\1-1-RCU-T-NewArch_svn_web_changes\Microchip\TCPIP Stack\SPIEEPROM.c
            XEEBeginWrite   0x01b1a8    program     extern C:\pavan\1+1RCUTx\1-1-RCU-T-NewArch_svn_web_changes\Microchip\TCPIP Stack\SPIEEPROM.c
                 XEEWrite   0x01b1b4    program     extern C:\pavan\1+1RCUTx\1-1-RCU-T-NewArch_svn_web_changes\Microchip\TCPIP Stack\SPIEEPROM.c
            XEEWriteArray   0x01b1e2    program     extern C:\pavan\1+1RCUTx\1-1-RCU-T-NewArch_svn_web_changes\Microchip\TCPIP Stack\SPIEEPROM.c
              XEEEndWrite   0x01b21c    program     extern C:\pavan\1+1RCUTx\1-1-RCU-T-NewArch_svn_web_changes\Microchip\TCPIP Stack\SPIEEPROM.c
                  DoWrite   0x01b226    program     static C:\pavan\1+1RCUTx\1-1-RCU-T-NewArch_svn_web_changes\Microchip\TCPIP Stack\SPIEEPROM.c
                XEEIsBusy   0x01b2ce    program     extern C:\pavan\1+1RCUTx\1-1-RCU-T-NewArch_svn_web_changes\Microchip\TCPIP Stack\SPIEEPROM.c
                   __pa_0   0x01b30c    program     static C:\pavan\1+1RCUTx\1-1-RCU-T-NewArch_svn_web_changes\Microchip\TCPIP Stack\SPIEEPROM.c
                   __pa_1   0x01b31e    program     static C:\pavan\1+1RCUTx\1-1-RCU-T-NewArch_svn_web_changes\Microchip\TCPIP Stack\SPIEEPROM.c
                   __pa_2   0x01b32a    program     static C:\pavan\1+1RCUTx\1-1-RCU-T-NewArch_svn_web_changes\Microchip\TCPIP Stack\SPIEEPROM.c
                   __pa_3   0x01b344    program     static C:\pavan\1+1RCUTx\1-1-RCU-T-NewArch_svn_web_changes\Microchip\TCPIP Stack\SPIEEPROM.c
                   __pa_4   0x01b354    program     static C:\pavan\1+1RCUTx\1-1-RCU-T-NewArch_svn_web_changes\Microchip\TCPIP Stack\SPIEEPROM.c
                   __pa_5   0x01b35e    program     static C:\pavan\1+1RCUTx\1-1-RCU-T-NewArch_svn_web_changes\Microchip\TCPIP Stack\SPIEEPROM.c
                   __pa_6   0x01b370    program     static C:\pavan\1+1RCUTx\1-1-RCU-T-NewArch_svn_web_changes\Microchip\TCPIP Stack\SPIEEPROM.c
                   __pa_7   0x01b37c    program     static C:\pavan\1+1RCUTx\1-1-RCU-T-NewArch_svn_web_changes\Microchip\TCPIP Stack\SPIEEPROM.c
                   __pa_8   0x01b38c    program     static C:\pavan\1+1RCUTx\1-1-RCU-T-NewArch_svn_web_changes\Microchip\TCPIP Stack\SPIEEPROM.c
                StackInit   0x01b394    program     extern C:\pavan\1+1RCUTx\1-1-RCU-T-NewArch_svn_web_changes\Microchip\TCPIP Stack\StackTsk.c
                StackTask   0x01b3e8    program     extern C:\pavan\1+1RCUTx\1-1-RCU-T-NewArch_svn_web_changes\Microchip\TCPIP Stack\StackTsk.c
        StackApplications   0x01b5f4    program     extern C:\pavan\1+1RCUTx\1-1-RCU-T-NewArch_svn_web_changes\Microchip\TCPIP Stack\StackTsk.c
                   __pa_0   0x01b5fc    program     static C:\pavan\1+1RCUTx\1-1-RCU-T-NewArch_svn_web_changes\Microchip\TCPIP Stack\StackTsk.c
                   __pa_1   0x01b60c    program     static C:\pavan\1+1RCUTx\1-1-RCU-T-NewArch_svn_web_changes\Microchip\TCPIP Stack\StackTsk.c
                   __pa_2   0x01b61a    program     static C:\pavan\1+1RCUTx\1-1-RCU-T-NewArch_svn_web_changes\Microchip\TCPIP Stack\StackTsk.c
                   __pa_3   0x01b626    program     static C:\pavan\1+1RCUTx\1-1-RCU-T-NewArch_svn_web_changes\Microchip\TCPIP Stack\StackTsk.c
                 InitTask   0x01b630    program     extern C:\pavan\1+1RCUTx\1-1-RCU-T-NewArch_svn_web_changes\Agilis-SysLib\task.c
                TaskQueue   0x01b6ce    program     extern C:\pavan\1+1RCUTx\1-1-RCU-T-NewArch_svn_web_changes\Agilis-SysLib\task.c
                TaskDelay   0x01b758    program     extern C:\pavan\1+1RCUTx\1-1-RCU-T-NewArch_svn_web_changes\Agilis-SysLib\task.c
                 TaskKill   0x01b792    program     extern C:\pavan\1+1RCUTx\1-1-RCU-T-NewArch_svn_web_changes\Agilis-SysLib\task.c
                DelayKill   0x01b7da    program     extern C:\pavan\1+1RCUTx\1-1-RCU-T-NewArch_svn_web_changes\Agilis-SysLib\task.c
                 WaitKill   0x01b7e0    program     extern C:\pavan\1+1RCUTx\1-1-RCU-T-NewArch_svn_web_changes\Agilis-SysLib\task.c
                   __pa_0   0x01b7e6    program     static C:\pavan\1+1RCUTx\1-1-RCU-T-NewArch_svn_web_changes\Agilis-SysLib\task.c
                   __pa_1   0x01b7fa    program     static C:\pavan\1+1RCUTx\1-1-RCU-T-NewArch_svn_web_changes\Agilis-SysLib\task.c
                   __pa_2   0x01b80c    program     static C:\pavan\1+1RCUTx\1-1-RCU-T-NewArch_svn_web_changes\Agilis-SysLib\task.c
                   __pa_3   0x01b818    program     static C:\pavan\1+1RCUTx\1-1-RCU-T-NewArch_svn_web_changes\Agilis-SysLib\task.c
                   __pa_4   0x01b822    program     static C:\pavan\1+1RCUTx\1-1-RCU-T-NewArch_svn_web_changes\Agilis-SysLib\task.c
                   __pa_5   0x01b82a    program     static C:\pavan\1+1RCUTx\1-1-RCU-T-NewArch_svn_web_changes\Agilis-SysLib\task.c
                   __pa_6   0x01b834    program     static C:\pavan\1+1RCUTx\1-1-RCU-T-NewArch_svn_web_changes\Agilis-SysLib\task.c
                   __pa_7   0x01b842    program     static C:\pavan\1+1RCUTx\1-1-RCU-T-NewArch_svn_web_changes\Agilis-SysLib\task.c
                   __pa_8   0x01b850    program     static C:\pavan\1+1RCUTx\1-1-RCU-T-NewArch_svn_web_changes\Agilis-SysLib\task.c
                   __pa_9   0x01b858    program     static C:\pavan\1+1RCUTx\1-1-RCU-T-NewArch_svn_web_changes\Agilis-SysLib\task.c
                  __pa_10   0x01b86a    program     static C:\pavan\1+1RCUTx\1-1-RCU-T-NewArch_svn_web_changes\Agilis-SysLib\task.c
                  __pa_11   0x01b876    program     static C:\pavan\1+1RCUTx\1-1-RCU-T-NewArch_svn_web_changes\Agilis-SysLib\task.c
                  __pa_12   0x01b87e    program     static C:\pavan\1+1RCUTx\1-1-RCU-T-NewArch_svn_web_changes\Agilis-SysLib\task.c
                  __pa_13   0x01b886    program     static C:\pavan\1+1RCUTx\1-1-RCU-T-NewArch_svn_web_changes\Agilis-SysLib\task.c
                  __pa_14   0x01b88c    program     static C:\pavan\1+1RCUTx\1-1-RCU-T-NewArch_svn_web_changes\Agilis-SysLib\task.c
                  __pa_15   0x01b892    program     static C:\pavan\1+1RCUTx\1-1-RCU-T-NewArch_svn_web_changes\Agilis-SysLib\task.c
Agilissnmpll_getBUCrfOperation   0x01b89c    program     extern C:\pavan\1+1RCUTx\1-1-RCU-T-NewArch_svn_web_changes\App\SNMP\AgilisSNMPLLBUCOp.c
Agilissnmpll_SetBUCrfOperation   0x01b8a6    program     extern C:\pavan\1+1RCUTx\1-1-RCU-T-NewArch_svn_web_changes\App\SNMP\AgilisSNMPLLBUCOp.c
  Agilissnmpll_getBUCAttn   0x01b8ce    program     extern C:\pavan\1+1RCUTx\1-1-RCU-T-NewArch_svn_web_changes\App\SNMP\AgilisSNMPLLBUCOp.c
  Agilissnmpll_setBUCAttn   0x01b98a    program     extern C:\pavan\1+1RCUTx\1-1-RCU-T-NewArch_svn_web_changes\App\SNMP\AgilisSNMPLLBUCOp.c
                   __pa_0   0x01ba0e    program     static C:\pavan\1+1RCUTx\1-1-RCU-T-NewArch_svn_web_changes\App\SNMP\AgilisSNMPLLBUCOp.c
                   __pa_1   0x01ba2e    program     static C:\pavan\1+1RCUTx\1-1-RCU-T-NewArch_svn_web_changes\App\SNMP\AgilisSNMPLLBUCOp.c
                   __pa_2   0x01ba44    program     static C:\pavan\1+1RCUTx\1-1-RCU-T-NewArch_svn_web_changes\App\SNMP\AgilisSNMPLLBUCOp.c
                   __pa_3   0x01ba52    program     static C:\pavan\1+1RCUTx\1-1-RCU-T-NewArch_svn_web_changes\App\SNMP\AgilisSNMPLLBUCOp.c
                   __pa_4   0x01ba5e    program     static C:\pavan\1+1RCUTx\1-1-RCU-T-NewArch_svn_web_changes\App\SNMP\AgilisSNMPLLBUCOp.c
                   __pa_5   0x01ba74    program     static C:\pavan\1+1RCUTx\1-1-RCU-T-NewArch_svn_web_changes\App\SNMP\AgilisSNMPLLBUCOp.c
                   __pa_6   0x01ba8e    program     static C:\pavan\1+1RCUTx\1-1-RCU-T-NewArch_svn_web_changes\App\SNMP\AgilisSNMPLLBUCOp.c
                   __pa_7   0x01ba9e    program     static C:\pavan\1+1RCUTx\1-1-RCU-T-NewArch_svn_web_changes\App\SNMP\AgilisSNMPLLBUCOp.c
                   __pa_8   0x01bab4    program     static C:\pavan\1+1RCUTx\1-1-RCU-T-NewArch_svn_web_changes\App\SNMP\AgilisSNMPLLBUCOp.c
                   __pa_9   0x01bac6    program     static C:\pavan\1+1RCUTx\1-1-RCU-T-NewArch_svn_web_changes\App\SNMP\AgilisSNMPLLBUCOp.c
                  __pa_10   0x01bad8    program     static C:\pavan\1+1RCUTx\1-1-RCU-T-NewArch_svn_web_changes\App\SNMP\AgilisSNMPLLBUCOp.c
                  __pa_11   0x01bae6    program     static C:\pavan\1+1RCUTx\1-1-RCU-T-NewArch_svn_web_changes\App\SNMP\AgilisSNMPLLBUCOp.c
                  __pa_12   0x01baf4    program     static C:\pavan\1+1RCUTx\1-1-RCU-T-NewArch_svn_web_changes\App\SNMP\AgilisSNMPLLBUCOp.c
                  AD_init   0x01bafe    program     extern C:\pavan\1+1RCUTx\1-1-RCU-T-NewArch_svn_web_changes\Drivers\MCU-Internal\internalADC.c
                 Read_ADC   0x01bb30    program     extern C:\pavan\1+1RCUTx\1-1-RCU-T-NewArch_svn_web_changes\Drivers\MCU-Internal\internalADC.c
        ___while_lbl00002   0x01bbee    program     static                          
        ___while_lbl00003   0x01bbf6    program     static                          
       ___return_lbl00001   0x01bc0a    program     static                          
                ADC_Value   0x01bc16    program     extern C:\pavan\1+1RCUTx\1-1-RCU-T-NewArch_svn_web_changes\Drivers\MCU-Internal\internalADC.c
       ___return_lbl00004   0x01bce2    program     static                          
                GetOneADC   0x01bcfa    program     extern C:\pavan\1+1RCUTx\1-1-RCU-T-NewArch_svn_web_changes\Drivers\MCU-Internal\internalADC.c
             GetOneCHADC0   0x01bd50    program     extern C:\pavan\1+1RCUTx\1-1-RCU-T-NewArch_svn_web_changes\Drivers\External-Peripherals\devadc.c
       GetOneCHADC012Bits   0x01bd86    program     extern C:\pavan\1+1RCUTx\1-1-RCU-T-NewArch_svn_web_changes\Drivers\External-Peripherals\devadc.c
             GetOneCHADC1   0x01bda4    program     extern C:\pavan\1+1RCUTx\1-1-RCU-T-NewArch_svn_web_changes\Drivers\External-Peripherals\devadc.c
       GetOneCHADC112Bits   0x01bdda    program     extern C:\pavan\1+1RCUTx\1-1-RCU-T-NewArch_svn_web_changes\Drivers\External-Peripherals\devadc.c
   GetCurrentFromHexValue   0x01bdf6    program     extern C:\pavan\1+1RCUTx\1-1-RCU-T-NewArch_svn_web_changes\Drivers\External-Peripherals\devadc.c
                   __pa_0   0x01be68    program     static C:\pavan\1+1RCUTx\1-1-RCU-T-NewArch_svn_web_changes\Drivers\External-Peripherals\devadc.c
                   __pa_1   0x01beae    program     static C:\pavan\1+1RCUTx\1-1-RCU-T-NewArch_svn_web_changes\Drivers\External-Peripherals\devadc.c
                   __pa_2   0x01beb6    program     static C:\pavan\1+1RCUTx\1-1-RCU-T-NewArch_svn_web_changes\Drivers\External-Peripherals\devadc.c
                   __pa_3   0x01bec2    program     static C:\pavan\1+1RCUTx\1-1-RCU-T-NewArch_svn_web_changes\Drivers\External-Peripherals\devadc.c
                   __pa_4   0x01bedc    program     static C:\pavan\1+1RCUTx\1-1-RCU-T-NewArch_svn_web_changes\Drivers\External-Peripherals\devadc.c
                   __pa_5   0x01beea    program     static C:\pavan\1+1RCUTx\1-1-RCU-T-NewArch_svn_web_changes\Drivers\External-Peripherals\devadc.c
                   __pa_6   0x01befc    program     static C:\pavan\1+1RCUTx\1-1-RCU-T-NewArch_svn_web_changes\Drivers\External-Peripherals\devadc.c
                   __pa_7   0x01bf0e    program     static C:\pavan\1+1RCUTx\1-1-RCU-T-NewArch_svn_web_changes\Drivers\External-Peripherals\devadc.c
                   __pa_8   0x01bf20    program     static C:\pavan\1+1RCUTx\1-1-RCU-T-NewArch_svn_web_changes\Drivers\External-Peripherals\devadc.c
                   LowISR   0x01bf2e    program     extern C:\pavan\1+1RCUTx\1-1-RCU-T-NewArch_svn_web_changes\Drivers\MCU-Internal\ISR.c
                  HighISR   0x01bff8    program     extern C:\pavan\1+1RCUTx\1-1-RCU-T-NewArch_svn_web_changes\Drivers\MCU-Internal\ISR.c
                   __pa_0   0x01c054    program     static C:\pavan\1+1RCUTx\1-1-RCU-T-NewArch_svn_web_changes\Drivers\MCU-Internal\ISR.c
                   __pa_1   0x01c07e    program     static C:\pavan\1+1RCUTx\1-1-RCU-T-NewArch_svn_web_changes\Drivers\MCU-Internal\ISR.c
                   __pa_2   0x01c0a8    program     static C:\pavan\1+1RCUTx\1-1-RCU-T-NewArch_svn_web_changes\Drivers\MCU-Internal\ISR.c
                   __pa_3   0x01c0c0    program     static C:\pavan\1+1RCUTx\1-1-RCU-T-NewArch_svn_web_changes\Drivers\MCU-Internal\ISR.c
                   __pa_4   0x01c0d8    program     static C:\pavan\1+1RCUTx\1-1-RCU-T-NewArch_svn_web_changes\Drivers\MCU-Internal\ISR.c
  AgilisDriverManagerInit   0x01c0ea    program     extern C:\pavan\1+1RCUTx\1-1-RCU-T-NewArch_svn_web_changes\Drivers\AgilisDriverManager.c
  AgilisDriverManagerOpen   0x01c114    program     extern C:\pavan\1+1RCUTx\1-1-RCU-T-NewArch_svn_web_changes\Drivers\AgilisDriverManager.c
AgilisDriverManagerRegister   0x01c220    program     extern C:\pavan\1+1RCUTx\1-1-RCU-T-NewArch_svn_web_changes\Drivers\AgilisDriverManager.c
                   __pa_0   0x01c248    program     static C:\pavan\1+1RCUTx\1-1-RCU-T-NewArch_svn_web_changes\Drivers\AgilisDriverManager.c
                   __pa_1   0x01c260    program     static C:\pavan\1+1RCUTx\1-1-RCU-T-NewArch_svn_web_changes\Drivers\AgilisDriverManager.c
                   __pa_2   0x01c272    program     static C:\pavan\1+1RCUTx\1-1-RCU-T-NewArch_svn_web_changes\Drivers\AgilisDriverManager.c
                   __pa_3   0x01c27e    program     static C:\pavan\1+1RCUTx\1-1-RCU-T-NewArch_svn_web_changes\Drivers\AgilisDriverManager.c
                     atol   0x01c294    program     extern C:\Program Files\mcc18\src\traditional\stdclib\atol.asm
                  jSkipWS   0x01c2ca    program     static C:\Program Files\mcc18\src\traditional\stdclib\atol.asm
                 jSkipWS1   0x01c2dc    program     static C:\Program Files\mcc18\src\traditional\stdclib\atol.asm
                 jTstSign   0x01c2e0    program     static C:\Program Files\mcc18\src\traditional\stdclib\atol.asm
                jTstSign1   0x01c2ec    program     static C:\Program Files\mcc18\src\traditional\stdclib\atol.asm
                jTstSign2   0x01c2f2    program     static C:\Program Files\mcc18\src\traditional\stdclib\atol.asm
                    jLoop   0x01c2f4    program     static C:\Program Files\mcc18\src\traditional\stdclib\atol.asm
                jTstSign3   0x01c2f4    program     static C:\Program Files\mcc18\src\traditional\stdclib\atol.asm
                 jEndLoop   0x01c382    program     static C:\Program Files\mcc18\src\traditional\stdclib\atol.asm
                  _14jEnd   0x01c3b2    program     static C:\Program Files\mcc18\src\traditional\stdclib\atol.asm
                     jEnd   0x01c3b2    program     static C:\Program Files\mcc18\src\traditional\stdclib\atol.asm
                    srand   0x01c3ea    program     extern C:\Program Files\mcc18\src\traditional\stdclib\rand.asm
                     rand   0x01c3f8    program     extern C:\Program Files\mcc18\src\traditional\stdclib\rand.asm
    AgilisTaskManagerInit   0x01c426    program     extern C:\pavan\1+1RCUTx\1-1-RCU-T-NewArch_svn_web_changes\App\Task\AgilisTaskManager.c
AgilisTaskManagerRegisterTask   0x01c450    program     extern C:\pavan\1+1RCUTx\1-1-RCU-T-NewArch_svn_web_changes\App\Task\AgilisTaskManager.c
 AgilisTaskManagerHandler   0x01c4b0    program     extern C:\pavan\1+1RCUTx\1-1-RCU-T-NewArch_svn_web_changes\App\Task\AgilisTaskManager.c
                   __pa_0   0x01c566    program     static C:\pavan\1+1RCUTx\1-1-RCU-T-NewArch_svn_web_changes\App\Task\AgilisTaskManager.c
                   __pa_1   0x01c57c    program     static C:\pavan\1+1RCUTx\1-1-RCU-T-NewArch_svn_web_changes\App\Task\AgilisTaskManager.c
                   __pa_2   0x01c592    program     static C:\pavan\1+1RCUTx\1-1-RCU-T-NewArch_svn_web_changes\App\Task\AgilisTaskManager.c
                   __pa_3   0x01c5a4    program     static C:\pavan\1+1RCUTx\1-1-RCU-T-NewArch_svn_web_changes\App\Task\AgilisTaskManager.c
                   __pa_4   0x01c5b0    program     static C:\pavan\1+1RCUTx\1-1-RCU-T-NewArch_svn_web_changes\App\Task\AgilisTaskManager.c
              HitWatchDog   0x01c5b8    program     extern C:\pavan\1+1RCUTx\1-1-RCU-T-NewArch_svn_web_changes\Main\Main.c
         ___else_lbl00002   0x01c5c8    program     static                          
           ___if_lbl00001   0x01c5d0    program     static                          
       ___return_lbl00000   0x01c5d0    program     static                          
                     main   0x01c5d2    program     extern C:\pavan\1+1RCUTx\1-1-RCU-T-NewArch_svn_web_changes\Main\Main.c
                   __pa_0   0x01c71e    program     static C:\pavan\1+1RCUTx\1-1-RCU-T-NewArch_svn_web_changes\Main\Main.c
                   __pa_1   0x01c738    program     static C:\pavan\1+1RCUTx\1-1-RCU-T-NewArch_svn_web_changes\Main\Main.c
Agilissnmpll_getBUCdeviceID   0x01c748    program     extern C:\pavan\1+1RCUTx\1-1-RCU-T-NewArch_svn_web_changes\App\SNMP\AgilisSNMPLLBucDevInfo.c
Agilissnmpll_getBUCPartNo   0x01c7ca    program     extern C:\pavan\1+1RCUTx\1-1-RCU-T-NewArch_svn_web_changes\App\SNMP\AgilisSNMPLLBucDevInfo.c
Agilissnmpll_getBUCserialNo   0x01c7e8    program     extern C:\pavan\1+1RCUTx\1-1-RCU-T-NewArch_svn_web_changes\App\SNMP\AgilisSNMPLLBucDevInfo.c
Agilissnmpll_getBUCfirmwareVersion   0x01c806    program     extern C:\pavan\1+1RCUTx\1-1-RCU-T-NewArch_svn_web_changes\App\SNMP\AgilisSNMPLLBucDevInfo.c
                   __pa_0   0x01c824    program     static C:\pavan\1+1RCUTx\1-1-RCU-T-NewArch_svn_web_changes\App\SNMP\AgilisSNMPLLBucDevInfo.c
                   __pa_1   0x01c83c    program     static C:\pavan\1+1RCUTx\1-1-RCU-T-NewArch_svn_web_changes\App\SNMP\AgilisSNMPLLBucDevInfo.c
                   __pa_2   0x01c84a    program     static C:\pavan\1+1RCUTx\1-1-RCU-T-NewArch_svn_web_changes\App\SNMP\AgilisSNMPLLBucDevInfo.c
                   __pa_3   0x01c858    program     static C:\pavan\1+1RCUTx\1-1-RCU-T-NewArch_svn_web_changes\App\SNMP\AgilisSNMPLLBucDevInfo.c
                   __pa_4   0x01c86a    program     static C:\pavan\1+1RCUTx\1-1-RCU-T-NewArch_svn_web_changes\App\SNMP\AgilisSNMPLLBucDevInfo.c
                   __pa_5   0x01c872    program     static C:\pavan\1+1RCUTx\1-1-RCU-T-NewArch_svn_web_changes\App\SNMP\AgilisSNMPLLBucDevInfo.c
                   __pa_6   0x01c880    program     static C:\pavan\1+1RCUTx\1-1-RCU-T-NewArch_svn_web_changes\App\SNMP\AgilisSNMPLLBucDevInfo.c
                   __pa_7   0x01c888    program     static C:\pavan\1+1RCUTx\1-1-RCU-T-NewArch_svn_web_changes\App\SNMP\AgilisSNMPLLBucDevInfo.c
                   __pa_8   0x01c8a0    program     static C:\pavan\1+1RCUTx\1-1-RCU-T-NewArch_svn_web_changes\App\SNMP\AgilisSNMPLLBucDevInfo.c
                   __pa_9   0x01c8a6    program     static C:\pavan\1+1RCUTx\1-1-RCU-T-NewArch_svn_web_changes\App\SNMP\AgilisSNMPLLBucDevInfo.c
                  __pa_10   0x01c8ae    program     static C:\pavan\1+1RCUTx\1-1-RCU-T-NewArch_svn_web_changes\App\SNMP\AgilisSNMPLLBucDevInfo.c
                  __pa_11   0x01c8b8    program     static C:\pavan\1+1RCUTx\1-1-RCU-T-NewArch_svn_web_changes\App\SNMP\AgilisSNMPLLBucDevInfo.c
                  __pa_12   0x01c8c4    program     static C:\pavan\1+1RCUTx\1-1-RCU-T-NewArch_svn_web_changes\App\SNMP\AgilisSNMPLLBucDevInfo.c
              ICMPProcess   0x01c8ce    program     extern C:\pavan\1+1RCUTx\1-1-RCU-T-NewArch_svn_web_changes\Microchip\TCPIP Stack\ICMP.c
                   __pa_0   0x01c9f0    program     static C:\pavan\1+1RCUTx\1-1-RCU-T-NewArch_svn_web_changes\Microchip\TCPIP Stack\ICMP.c
                   __pa_1   0x01ca00    program     static C:\pavan\1+1RCUTx\1-1-RCU-T-NewArch_svn_web_changes\Microchip\TCPIP Stack\ICMP.c
                   __pa_2   0x01ca0e    program     static C:\pavan\1+1RCUTx\1-1-RCU-T-NewArch_svn_web_changes\Microchip\TCPIP Stack\ICMP.c
                 TickInit   0x01ca18    program     extern C:\pavan\1+1RCUTx\1-1-RCU-T-NewArch_svn_web_changes\Microchip\TCPIP Stack\Tick.c
              GetTickCopy   0x01ca28    program     static C:\pavan\1+1RCUTx\1-1-RCU-T-NewArch_svn_web_changes\Microchip\TCPIP Stack\Tick.c
           ___do_lbl00004   0x01ca28    program     static                          
           ___do_lbl00002   0x01ca46    program     static                          
           ___do_lbl00003   0x01ca4a    program     static                          
       ___return_lbl00001   0x01ca4c    program     static                          
                  TickGet   0x01ca4e    program     extern C:\pavan\1+1RCUTx\1-1-RCU-T-NewArch_svn_web_changes\Microchip\TCPIP Stack\Tick.c
            TickGetDiv256   0x01ca62    program     extern C:\pavan\1+1RCUTx\1-1-RCU-T-NewArch_svn_web_changes\Microchip\TCPIP Stack\Tick.c
            TickGetDiv64K   0x01ca86    program     extern C:\pavan\1+1RCUTx\1-1-RCU-T-NewArch_svn_web_changes\Microchip\TCPIP Stack\Tick.c
TickConvertToMilliseconds   0x01caaa    program     extern C:\pavan\1+1RCUTx\1-1-RCU-T-NewArch_svn_web_changes\Microchip\TCPIP Stack\Tick.c
               TickUpdate   0x01cae0    program     extern C:\pavan\1+1RCUTx\1-1-RCU-T-NewArch_svn_web_changes\Microchip\TCPIP Stack\Tick.c
                   __pa_0   0x01caf4    program     static C:\pavan\1+1RCUTx\1-1-RCU-T-NewArch_svn_web_changes\Microchip\TCPIP Stack\Tick.c
                   __pa_1   0x01cb02    program     static C:\pavan\1+1RCUTx\1-1-RCU-T-NewArch_svn_web_changes\Microchip\TCPIP Stack\Tick.c
                   __pa_2   0x01cb1c    program     static C:\pavan\1+1RCUTx\1-1-RCU-T-NewArch_svn_web_changes\Microchip\TCPIP Stack\Tick.c
                   __pa_3   0x01cb28    program     static C:\pavan\1+1RCUTx\1-1-RCU-T-NewArch_svn_web_changes\Microchip\TCPIP Stack\Tick.c
                BusyUSART   0x01cb3a    program     extern C:\pavan\1+1RCUTx\1-1-RCU-T-NewArch_svn_web_changes\Microchip\TCPIP Stack\UART.c
               CloseUSART   0x01cb46    program     extern C:\pavan\1+1RCUTx\1-1-RCU-T-NewArch_svn_web_changes\Microchip\TCPIP Stack\UART.c
             DataRdyUSART   0x01cb52    program     extern C:\pavan\1+1RCUTx\1-1-RCU-T-NewArch_svn_web_changes\Microchip\TCPIP Stack\UART.c
                ReadUSART   0x01cb64    program     extern C:\pavan\1+1RCUTx\1-1-RCU-T-NewArch_svn_web_changes\Microchip\TCPIP Stack\UART.c
               WriteUSART   0x01cb68    program     extern C:\pavan\1+1RCUTx\1-1-RCU-T-NewArch_svn_web_changes\Microchip\TCPIP Stack\UART.c
                putsUSART   0x01cb72    program     extern C:\pavan\1+1RCUTx\1-1-RCU-T-NewArch_svn_web_changes\Microchip\TCPIP Stack\UART.c
               ReadUSART2   0x01cb8e    program     extern C:\pavan\1+1RCUTx\1-1-RCU-T-NewArch_svn_web_changes\Microchip\TCPIP Stack\UART.c
               BusyUSART2   0x01cb92    program     extern C:\pavan\1+1RCUTx\1-1-RCU-T-NewArch_svn_web_changes\Microchip\TCPIP Stack\UART.c
              CloseUSART2   0x01cb9e    program     extern C:\pavan\1+1RCUTx\1-1-RCU-T-NewArch_svn_web_changes\Microchip\TCPIP Stack\UART.c
            DataRdyUSART2   0x01cbaa    program     extern C:\pavan\1+1RCUTx\1-1-RCU-T-NewArch_svn_web_changes\Microchip\TCPIP Stack\UART.c
              WriteUSART2   0x01cbbc    program     extern C:\pavan\1+1RCUTx\1-1-RCU-T-NewArch_svn_web_changes\Microchip\TCPIP Stack\UART.c
               putsUSART2   0x01cbc6    program     extern C:\pavan\1+1RCUTx\1-1-RCU-T-NewArch_svn_web_changes\Microchip\TCPIP Stack\UART.c
                   __pa_0   0x01cbe2    program     static C:\pavan\1+1RCUTx\1-1-RCU-T-NewArch_svn_web_changes\Microchip\TCPIP Stack\UART.c
                   __pa_1   0x01cbf4    program     static C:\pavan\1+1RCUTx\1-1-RCU-T-NewArch_svn_web_changes\Microchip\TCPIP Stack\UART.c
                   __pa_2   0x01cc00    program     static C:\pavan\1+1RCUTx\1-1-RCU-T-NewArch_svn_web_changes\Microchip\TCPIP Stack\UART.c
                   __pa_3   0x01cc10    program     static C:\pavan\1+1RCUTx\1-1-RCU-T-NewArch_svn_web_changes\Microchip\TCPIP Stack\UART.c
                _do_cinit   0x01cc20    program     extern C:\mcc18\src\traditional\startup\c018iz.c
                     test   0x01cc3a    program     static                          
                copy_loop   0x01cc92    program     static                          
            copy_one_byte   0x01cc98    program     static                          
             done_copying   0x01cca6    program     static                          
                     done   0x01ccbc    program     static                          
       ___return_lbl00002   0x01ccbc    program     static                          
              RCUTaskIdle   0x01ccbe    program     extern C:\pavan\1+1RCUTx\1-1-RCU-T-NewArch_svn_web_changes\App\Task\RCUTask.c
       ___return_lbl00000   0x01ccc4    program     static                          
      RCUTaskStatusUpdate   0x01ccc6    program     extern C:\pavan\1+1RCUTx\1-1-RCU-T-NewArch_svn_web_changes\App\Task\RCUTask.c
           RCUTaskPolling   0x01ccd8    program     extern C:\pavan\1+1RCUTx\1-1-RCU-T-NewArch_svn_web_changes\App\Task\RCUTask.c
              RCUTaskInit   0x01cce2    program     extern C:\pavan\1+1RCUTx\1-1-RCU-T-NewArch_svn_web_changes\App\Task\RCUTask.c
                   __pa_0   0x01cd18    program     static C:\pavan\1+1RCUTx\1-1-RCU-T-NewArch_svn_web_changes\App\Task\RCUTask.c
                   __pa_1   0x01cd2a    program     static C:\pavan\1+1RCUTx\1-1-RCU-T-NewArch_svn_web_changes\App\Task\RCUTask.c
                   __pa_2   0x01cd38    program     static C:\pavan\1+1RCUTx\1-1-RCU-T-NewArch_svn_web_changes\App\Task\RCUTask.c
               Open2USART   0x01cd4c    program     extern C:\MCC18\src\pmc_common\USART\u2open.c
           ListInitialize   0x01cdd6    program     extern C:\pavan\1+1RCUTx\1-1-RCU-T-NewArch_svn_web_changes\Agilis-SysLib\list.c
               ListInsert   0x01cdde    program     extern C:\pavan\1+1RCUTx\1-1-RCU-T-NewArch_svn_web_changes\Agilis-SysLib\list.c
               ListDelete   0x01ce02    program     extern C:\pavan\1+1RCUTx\1-1-RCU-T-NewArch_svn_web_changes\Agilis-SysLib\list.c
                   __pa_0   0x01ce20    program     static C:\pavan\1+1RCUTx\1-1-RCU-T-NewArch_svn_web_changes\Agilis-SysLib\list.c
                   __pa_1   0x01ce34    program     static C:\pavan\1+1RCUTx\1-1-RCU-T-NewArch_svn_web_changes\Agilis-SysLib\list.c
                   __pa_2   0x01ce40    program     static C:\pavan\1+1RCUTx\1-1-RCU-T-NewArch_svn_web_changes\Agilis-SysLib\list.c
                   __pa_3   0x01ce4e    program     static C:\pavan\1+1RCUTx\1-1-RCU-T-NewArch_svn_web_changes\Agilis-SysLib\list.c
                  SPIInit   0x01ce5c    program     extern C:\pavan\1+1RCUTx\1-1-RCU-T-NewArch_svn_web_changes\Drivers\MCU-Internal\devspi.c
            ReadWriteSPI2   0x01ce74    program     extern C:\pavan\1+1RCUTx\1-1-RCU-T-NewArch_svn_web_changes\Drivers\MCU-Internal\devspi.c
               Open1USART   0x01cee2    program     extern C:\MCC18\src\pmc_common\USART\u1open.c
                HTTP_CRLF   0x01cf66    program     static C:\pavan\1+1RCUTx\1-1-RCU-T-NewArch_svn_web_changes\Microchip\TCPIP Stack\HTTP2.c
       httpFileExtensions   0x01cf69    program     static C:\pavan\1+1RCUTx\1-1-RCU-T-NewArch_svn_web_changes\Microchip\TCPIP Stack\HTTP2.c
         httpContentTypes   0x01cf8d    program     static C:\pavan\1+1RCUTx\1-1-RCU-T-NewArch_svn_web_changes\Microchip\TCPIP Stack\HTTP2.c
      HTTPResponseHeaders   0x01cfb1    program     static C:\pavan\1+1RCUTx\1-1-RCU-T-NewArch_svn_web_changes\Microchip\TCPIP Stack\HTTP2.c
       HTTPRequestHeaders   0x01cfdb    program     static C:\pavan\1+1RCUTx\1-1-RCU-T-NewArch_svn_web_changes\Microchip\TCPIP Stack\HTTP2.c
                  FXM3232   0x01cfe4    program     extern C:\Program Files\mcc18\src\traditional\math\fxm3232.c
       ___return_lbl00000   0x01d052    program     static                          
                  OpenADC   0x01d054    program     extern C:\MCC18\src\pmc_common\ADC\adcopen.c
                 FXD3232U   0x01d0c2    program     extern C:\Program Files\mcc18\src\traditional\math\fxd3232u.c
                     loop   0x01d0d0    program     static                          
                   _false   0x01d104    program     static                          
       ___return_lbl00000   0x01d108    program     static                          
                 FXD1616U   0x01d10a    program     extern C:\Program Files\mcc18\src\traditional\math\fxd1616u.c
                     loop   0x01d114    program     static                          
                  endloop   0x01d130    program     static                          
       ___return_lbl00000   0x01d134    program     static                          
     TCPSocketInitializer   0x01d136    program     extern C:\pavan\1+1RCUTx\1-1-RCU-T-NewArch_svn_web_changes\Port\TCPIPConfig.h
                 _startup   0x01d15a    program     extern C:\mcc18\src\traditional\startup\c018iz.c
                     loop   0x01d16e    program     static                          
       ___return_lbl00001   0x01d178    program     static                          
              Delay1KTCYx   0x01d17a    program     extern C:\Program Files\mcc18\src\traditional\delays\d1ktcyx.asm
                     D1Kx   0x01d184    program     static C:\Program Files\mcc18\src\traditional\delays\d1ktcyx.asm
                    D1K_1   0x01d186    program     static C:\Program Files\mcc18\src\traditional\delays\d1ktcyx.asm
        _D1KTCYXCODE_0010   0x01d18a    program     static C:\Program Files\mcc18\src\traditional\delays\d1ktcyx.asm
        _D1KTCYXCODE_0016   0x01d190    program     static C:\Program Files\mcc18\src\traditional\delays\d1ktcyx.asm
                 UART2ISR   0x01d19a    program     extern C:\pavan\1+1RCUTx\1-1-RCU-T-NewArch_svn_web_changes\Microchip\TCPIP Stack\UART2TCPBridge.c
     SerializedMACAddress   0x01d1b8    program     static C:\pavan\1+1RCUTx\1-1-RCU-T-NewArch_svn_web_changes\Bootstrap\Initialization.c
         cReadCommunities   0x01d1be    program     static C:\pavan\1+1RCUTx\1-1-RCU-T-NewArch_svn_web_changes\Bootstrap\Initialization.c
        cWriteCommunities   0x01d1c7    program     static C:\pavan\1+1RCUTx\1-1-RCU-T-NewArch_svn_web_changes\Bootstrap\Initialization.c
              Delay10TCYx   0x01d1d0    program     extern C:\Program Files\mcc18\src\traditional\delays\d10tcyx.asm
                     D10x   0x01d1d8    program     static C:\Program Files\mcc18\src\traditional\delays\d10tcyx.asm
        _D10TCYXCODE_000A   0x01d1da    program     static C:\Program Files\mcc18\src\traditional\delays\d10tcyx.asm
        _D10TCYXCODE_000C   0x01d1dc    program     static C:\Program Files\mcc18\src\traditional\delays\d10tcyx.asm
        _D10TCYXCODE_000E   0x01d1de    program     static C:\Program Files\mcc18\src\traditional\delays\d10tcyx.asm
                    D10_1   0x01d1e0    program     static C:\Program Files\mcc18\src\traditional\delays\d10tcyx.asm
            dataTypeTable   0x01d1e6    program     static C:\pavan\1+1RCUTx\1-1-RCU-T-NewArch_svn_web_changes\Microchip\TCPIP Stack\SNMP.c
            __zero_memory   0x01d1fa    program     extern C:\MCC18\src\traditional\proc\p18F97J60.asm
               clear_loop   0x01d200    program     static C:\MCC18\src\traditional\proc\p18F97J60.asm
                 CloseADC   0x01d208    program     extern C:\MCC18\src\pmc_common\ADC\adcclose.c
                   __init   0x01d20e    program     extern C:\Program Files\mcc18\src\traditional\stdclib\__init.c
               __config_0   0x01fff8    program     static C:\pavan\1+1RCUTx\1-1-RCU-T-NewArch_svn_web_changes\Main\Main.c
               __config_1   0x01fffa    program     static C:\pavan\1+1RCUTx\1-1-RCU-T-NewArch_svn_web_changes\Main\Main.c
               __config_2   0x01fffd    program     static C:\pavan\1+1RCUTx\1-1-RCU-T-NewArch_svn_web_changes\Main\Main.c
                  __tmp_0   0x000000       data     static C:\pavan\1+1RCUTx\1-1-RCU-T-NewArch_svn_web_changes\Main\Main.c
                  __tmp_0   0x000000       data     static C:\pavan\1+1RCUTx\1-1-RCU-T-NewArch_svn_web_changes\App\WebUI\AgilisHTTPGetDevInfo.c
                  __tmp_0   0x000000       data     static C:\pavan\1+1RCUTx\1-1-RCU-T-NewArch_svn_web_changes\App\Util\AgilisAppUtil.c
                  __tmp_0   0x000000       data     static C:\pavan\1+1RCUTx\1-1-RCU-T-NewArch_svn_web_changes\Bootstrap\Initialization.c
                  __tmp_0   0x000000       data     static C:\pavan\1+1RCUTx\1-1-RCU-T-NewArch_svn_web_changes\App\WebUI\AgilisHTTPApp.c
                  __tmp_0   0x000000       data     static C:\pavan\1+1RCUTx\1-1-RCU-T-NewArch_svn_web_changes\Microchip\TCPIP Stack\StackTsk.c
                  __tmp_0   0x000000       data     static C:\pavan\1+1RCUTx\1-1-RCU-T-NewArch_svn_web_changes\Microchip\TCPIP Stack\TCP.c
                  __tmp_0   0x000000       data     static C:\pavan\1+1RCUTx\1-1-RCU-T-NewArch_svn_web_changes\AgilisDevices\RCUServer.c
                  __tmp_0   0x000000       data     static C:\pavan\1+1RCUTx\1-1-RCU-T-NewArch_svn_web_changes\Drivers\AgilisUart.c
                  __tmp_0   0x000000       data     static C:\pavan\1+1RCUTx\1-1-RCU-T-NewArch_svn_web_changes\Agilis-SysLib\util.c
                  __tmp_0   0x000000       data     static C:\pavan\1+1RCUTx\1-1-RCU-T-NewArch_svn_web_changes\Microchip\TCPIP Stack\UDP.c
                  __tmp_0   0x000000       data     static C:\pavan\1+1RCUTx\1-1-RCU-T-NewArch_svn_web_changes\AgilisDevices\AgilisDeviceManager.c
                  __tmp_0   0x000000       data     static C:\MCC18\src\pmc_common\ADC\adcopen.c
                  __tmp_0   0x000000       data     static C:\pavan\1+1RCUTx\1-1-RCU-T-NewArch_svn_web_changes\Drivers\MCU-Internal\internalADC.c
                  __tmp_0   0x000000       data     static C:\pavan\1+1RCUTx\1-1-RCU-T-NewArch_svn_web_changes\Microchip\TCPIP Stack\ARP.c
                  __tmp_0   0x000000       data     static C:\pavan\1+1RCUTx\1-1-RCU-T-NewArch_svn_web_changes\Microchip\TCPIP Stack\SPIEEPROM.c
                  __tmp_0   0x000000       data     static C:\pavan\1+1RCUTx\1-1-RCU-T-NewArch_svn_web_changes\Drivers\MCU-Internal\devspi.c
                  __tmp_0   0x000000       data     static C:\pavan\1+1RCUTx\1-1-RCU-T-NewArch_svn_web_changes\App\SerialIntf\AgilisProtocol\AgilisProtocol.c
                  __tmp_0   0x000000       data     static C:\pavan\1+1RCUTx\1-1-RCU-T-NewArch_svn_web_changes\Drivers\AgilisDriverManager.c
                  __tmp_0   0x000000       data     static C:\pavan\1+1RCUTx\1-1-RCU-T-NewArch_svn_web_changes\Drivers\UARTISR.c
                  __tmp_0   0x000000       data     static C:\pavan\1+1RCUTx\1-1-RCU-T-NewArch_svn_web_changes\Microchip\TCPIP Stack\ETH97J60.c
                  __tmp_0   0x000000       data     static C:\MCC18\src\pmc_common\USART\u2open.c
                  __tmp_0   0x000000       data     static C:\pavan\1+1RCUTx\1-1-RCU-T-NewArch_svn_web_changes\AgilisDevices\BUCClient.c
                  __tmp_0   0x000000       data     static C:\pavan\1+1RCUTx\1-1-RCU-T-NewArch_svn_web_changes\Microchip\TCPIP Stack\MPFS2.c
                  __tmp_0   0x000000       data     static C:\pavan\1+1RCUTx\1-1-RCU-T-NewArch_svn_web_changes\Microchip\TCPIP Stack\HTTP2.c
                  __tmp_0   0x000000       data     static C:\pavan\1+1RCUTx\1-1-RCU-T-NewArch_svn_web_changes\Microchip\TCPIP Stack\DHCP.c
                  __tmp_0   0x000000       data     static C:\pavan\1+1RCUTx\1-1-RCU-T-NewArch_svn_web_changes\Agilis-SysLib\task.c
                  __tmp_0   0x000000       data     static C:\MCC18\src\pmc_common\USART\u1open.c
                  __tmp_0   0x000000       data     static C:\pavan\1+1RCUTx\1-1-RCU-T-NewArch_svn_web_changes\App\SNMP\AgilisSNMPLLBucDevInfo.c
                  __tmp_0   0x000000       data     static C:\pavan\1+1RCUTx\1-1-RCU-T-NewArch_svn_web_changes\AgilisDevices\RCUHLAccess.c
                  __tmp_0   0x000000       data     static C:\pavan\1+1RCUTx\1-1-RCU-T-NewArch_svn_web_changes\Microchip\TCPIP Stack\ICMP.c
                  __tmp_0   0x000000       data     static C:\pavan\1+1RCUTx\1-1-RCU-T-NewArch_svn_web_changes\App\WebUI\AgilisHTTPPrint.c
                  __tmp_0   0x000000       data     static C:\pavan\1+1RCUTx\1-1-RCU-T-NewArch_svn_web_changes\Microchip\TCPIP Stack\SNMP.c
                  __tmp_0   0x000000       data     static C:\pavan\1+1RCUTx\1-1-RCU-T-NewArch_svn_web_changes\Microchip\TCPIP Stack\IP.c
                  __tmp_0   0x000000       data     static C:\pavan\1+1RCUTx\1-1-RCU-T-NewArch_svn_web_changes\Agilis-SysLib\list.c
                  __tmp_0   0x000000       data     static C:\pavan\1+1RCUTx\1-1-RCU-T-NewArch_svn_web_changes\Microchip\TCPIP Stack\Helpers.c
                  __tmp_0   0x000000       data     static C:\pavan\1+1RCUTx\1-1-RCU-T-NewArch_svn_web_changes\Drivers\External-Peripherals\devadc.c
                  __tmp_0   0x000000       data     static C:\pavan\1+1RCUTx\1-1-RCU-T-NewArch_svn_web_changes\AgilisDevices\RCULLAccess.c
                  __tmp_0   0x000000       data     static C:\pavan\1+1RCUTx\1-1-RCU-T-NewArch_svn_web_changes\App\SNMP\AgilisSNMPLLRCUCmds.c
                  __tmp_0   0x000000       data     static C:\pavan\1+1RCUTx\1-1-RCU-T-NewArch_svn_web_changes\App\SNMP\AgilisSNMPLLBUCStatus.c
                  __tmp_0   0x000000       data     static C:\pavan\1+1RCUTx\1-1-RCU-T-NewArch_svn_web_changes\App\SNMP\AgilisSNMPLLBUCOp.c
                  __tmp_0   0x000000       data     static C:\pavan\1+1RCUTx\1-1-RCU-T-NewArch_svn_web_changes\App\Task\AgilisTaskManager.c
                  __tmp_0   0x000000       data     static C:\pavan\1+1RCUTx\1-1-RCU-T-NewArch_svn_web_changes\App\SNMP\AgilisSNMPApp.c
                     SIGN   0x00001a       data     extern C:\Program Files\mcc18\src\traditional\math\cmath18.asm
                __FPFLAGS   0x00001b       data     extern C:\Program Files\mcc18\src\traditional\math\cmath18.asm
            __FPFLAGSbits   0x00001b       data     extern C:\Program Files\mcc18\src\traditional\math\cmath18.asm
                 __AARGB7   0x00001c       data     extern C:\Program Files\mcc18\src\traditional\math\aarg.asm
                  __REMB3   0x00001c       data     extern C:\Program Files\mcc18\src\traditional\math\aarg.asm
                 __AARGB6   0x00001d       data     extern C:\Program Files\mcc18\src\traditional\math\aarg.asm
                  __REMB2   0x00001d       data     extern C:\Program Files\mcc18\src\traditional\math\aarg.asm
                 __AARGB5   0x00001e       data     extern C:\Program Files\mcc18\src\traditional\math\aarg.asm
                  __REMB1   0x00001e       data     extern C:\Program Files\mcc18\src\traditional\math\aarg.asm
                  __REMB0   0x00001f       data     extern C:\Program Files\mcc18\src\traditional\math\aarg.asm
                 __AARGB4   0x00001f       data     extern C:\Program Files\mcc18\src\traditional\math\aarg.asm
                 __AARGB3   0x000020       data     extern C:\Program Files\mcc18\src\traditional\math\aarg.asm
                 __AARGB2   0x000021       data     extern C:\Program Files\mcc18\src\traditional\math\aarg.asm
                 __AARGB1   0x000022       data     extern C:\Program Files\mcc18\src\traditional\math\aarg.asm
                 __AARGB0   0x000023       data     extern C:\Program Files\mcc18\src\traditional\math\aarg.asm
                   __AEXP   0x000024       data     extern C:\Program Files\mcc18\src\traditional\math\aarg.asm
                 __BARGB3   0x000025       data     extern C:\Program Files\mcc18\src\traditional\math\barg.asm
                 __BARGB2   0x000026       data     extern C:\Program Files\mcc18\src\traditional\math\barg.asm
                 __BARGB1   0x000027       data     extern C:\Program Files\mcc18\src\traditional\math\barg.asm
                 __BARGB0   0x000028       data     extern C:\Program Files\mcc18\src\traditional\math\barg.asm
                   __BEXP   0x000029       data     extern C:\Program Files\mcc18\src\traditional\math\barg.asm
                 __TEMPB3   0x00002a       data     extern C:\Program Files\mcc18\src\traditional\math\temparg.asm
                 __TEMPB2   0x00002b       data     extern C:\Program Files\mcc18\src\traditional\math\temparg.asm
                 __TEMPB1   0x00002c       data     extern C:\Program Files\mcc18\src\traditional\math\temparg.asm
                   __TEMP   0x00002d       data     extern C:\Program Files\mcc18\src\traditional\math\temparg.asm
                 __TEMPB0   0x00002d       data     extern C:\Program Files\mcc18\src\traditional\math\temparg.asm
                  __tmp_1   0x00002e       data     static C:\pavan\1+1RCUTx\1-1-RCU-T-NewArch_svn_web_changes\Drivers\MCU-Internal\ISR.c
            DelayCounter1   0x000030       data     extern C:\Program Files\mcc18\src\traditional\delays\delayd1.asm
           pgAgilisServer   0x000060       data     extern C:\pavan\1+1RCUTx\1-1-RCU-T-NewArch_svn_web_changes\AgilisDevices\AgilisDeviceManager.c
           pgAgilisClient   0x000062       data     extern C:\pavan\1+1RCUTx\1-1-RCU-T-NewArch_svn_web_changes\AgilisDevices\AgilisDeviceManager.c
         gAgilisClientNum   0x000066       data     extern C:\pavan\1+1RCUTx\1-1-RCU-T-NewArch_svn_web_changes\AgilisDevices\AgilisDeviceManager.c
         gAgilisServerNum   0x000067       data     extern C:\pavan\1+1RCUTx\1-1-RCU-T-NewArch_svn_web_changes\AgilisDevices\AgilisDeviceManager.c
           gAgilisReadBuf   0x000068       data     extern C:\pavan\1+1RCUTx\1-1-RCU-T-NewArch_svn_web_changes\AgilisDevices\AgilisDeviceManager.c
          gAgilisWriteBuf   0x0000a8       data     extern C:\pavan\1+1RCUTx\1-1-RCU-T-NewArch_svn_web_changes\AgilisDevices\AgilisDeviceManager.c
                    myRef   0x0000e8       data     extern C:\pavan\1+1RCUTx\1-1-RCU-T-NewArch_svn_web_changes\App\SNMP\AgilisSNMPSysInfo.c
                  dwvHigh   0x0000e9       data     extern C:\pavan\1+1RCUTx\1-1-RCU-T-NewArch_svn_web_changes\App\SNMP\AgilisSNMPSysInfo.c
                   dwvLow   0x0000ed       data     extern C:\pavan\1+1RCUTx\1-1-RCU-T-NewArch_svn_web_changes\App\SNMP\AgilisSNMPSysInfo.c
                       dw   0x0000f1       data     extern C:\pavan\1+1RCUTx\1-1-RCU-T-NewArch_svn_web_changes\App\SNMP\AgilisSNMPSysInfo.c
              dw10msTicks   0x0000f5       data     extern C:\pavan\1+1RCUTx\1-1-RCU-T-NewArch_svn_web_changes\App\SNMP\AgilisSNMPSysInfo.c
       NextPacketLocation   0x0000f9       data     static C:\pavan\1+1RCUTx\1-1-RCU-T-NewArch_svn_web_changes\Microchip\TCPIP Stack\ETH97J60.c
    CurrentPacketLocation   0x0000fb       data     static C:\pavan\1+1RCUTx\1-1-RCU-T-NewArch_svn_web_changes\Microchip\TCPIP Stack\ETH97J60.c
             WasDiscarded   0x0000fd       data     static C:\pavan\1+1RCUTx\1-1-RCU-T-NewArch_svn_web_changes\Microchip\TCPIP Stack\ETH97J60.c
              wTXWatchdog   0x0000fe       data     static C:\pavan\1+1RCUTx\1-1-RCU-T-NewArch_svn_web_changes\Microchip\TCPIP Stack\ETH97J60.c
            UDPSocketInfo   0x000100       data     extern C:\pavan\1+1RCUTx\1-1-RCU-T-NewArch_svn_web_changes\Microchip\TCPIP Stack\UDP.c
          activeUDPSocket   0x0001e6       data     extern C:\pavan\1+1RCUTx\1-1-RCU-T-NewArch_svn_web_changes\Microchip\TCPIP Stack\UDP.c
               UDPTxCount   0x0001e7       data     extern C:\pavan\1+1RCUTx\1-1-RCU-T-NewArch_svn_web_changes\Microchip\TCPIP Stack\UDP.c
               UDPRxCount   0x0001e9       data     extern C:\pavan\1+1RCUTx\1-1-RCU-T-NewArch_svn_web_changes\Microchip\TCPIP Stack\UDP.c
               wPutOffset   0x0001eb       data     static C:\pavan\1+1RCUTx\1-1-RCU-T-NewArch_svn_web_changes\Microchip\TCPIP Stack\UDP.c
               wGetOffset   0x0001ed       data     static C:\pavan\1+1RCUTx\1-1-RCU-T-NewArch_svn_web_changes\Microchip\TCPIP Stack\UDP.c
                    Flags   0x0001ef       data     static C:\pavan\1+1RCUTx\1-1-RCU-T-NewArch_svn_web_changes\Microchip\TCPIP Stack\UDP.c
                 NextPort   0x0001f0       data     static C:\pavan\1+1RCUTx\1-1-RCU-T-NewArch_svn_web_changes\Microchip\TCPIP Stack\UDP.c
         global_char_temp   0x0001f2       data     extern C:\pavan\1+1RCUTx\1-1-RCU-T-NewArch_svn_web_changes\App\WebUI\AgilisHTTPPrint.c
                     Seed   0x0001fe       data     static C:\Program Files\mcc18\src\traditional\stdclib\rand.asm
     agilisUART2RxCircBuf   0x000200       data     extern C:\pavan\1+1RCUTx\1-1-RCU-T-NewArch_svn_web_changes\Drivers\UARTISR.c
     agilisUART3RxCircBuf   0x000248       data     extern C:\pavan\1+1RCUTx\1-1-RCU-T-NewArch_svn_web_changes\Drivers\UARTISR.c
     agilisUART4RxCircBuf   0x000290       data     extern C:\pavan\1+1RCUTx\1-1-RCU-T-NewArch_svn_web_changes\Drivers\UARTISR.c
                        i   0x0002d8       data     static C:\pavan\1+1RCUTx\1-1-RCU-T-NewArch_svn_web_changes\Drivers\UARTISR.c
                        i   0x0002d9       data     static C:\pavan\1+1RCUTx\1-1-RCU-T-NewArch_svn_web_changes\Drivers\UARTISR.c
                        i   0x0002da       data     static C:\pavan\1+1RCUTx\1-1-RCU-T-NewArch_svn_web_changes\Drivers\UARTISR.c
                  val_lsr   0x0002db       data     static C:\pavan\1+1RCUTx\1-1-RCU-T-NewArch_svn_web_changes\Drivers\UARTISR.c
                      IIR   0x0002dc       data     static C:\pavan\1+1RCUTx\1-1-RCU-T-NewArch_svn_web_changes\Drivers\UARTISR.c
                        i   0x0002dd       data     static C:\pavan\1+1RCUTx\1-1-RCU-T-NewArch_svn_web_changes\Drivers\UARTISR.c
                  val_lsr   0x0002de       data     static C:\pavan\1+1RCUTx\1-1-RCU-T-NewArch_svn_web_changes\Drivers\UARTISR.c
                      IIR   0x0002df       data     static C:\pavan\1+1RCUTx\1-1-RCU-T-NewArch_svn_web_changes\Drivers\UARTISR.c
                        i   0x0002e0       data     static C:\pavan\1+1RCUTx\1-1-RCU-T-NewArch_svn_web_changes\Drivers\UARTISR.c
                  val_lsr   0x0002e1       data     static C:\pavan\1+1RCUTx\1-1-RCU-T-NewArch_svn_web_changes\Drivers\UARTISR.c
                      IIR   0x0002e2       data     static C:\pavan\1+1RCUTx\1-1-RCU-T-NewArch_svn_web_changes\Drivers\UARTISR.c
               gRCUServer   0x0002e3       data     extern C:\pavan\1+1RCUTx\1-1-RCU-T-NewArch_svn_web_changes\AgilisDevices\RCUServer.c
              gAgilisTask   0x0002f3       data     extern C:\pavan\1+1RCUTx\1-1-RCU-T-NewArch_svn_web_changes\App\Task\AgilisTaskManager.c
           gAgilisTaskNum   0x0002ff       data     extern C:\pavan\1+1RCUTx\1-1-RCU-T-NewArch_svn_web_changes\App\Task\AgilisTaskManager.c
         gRCUServerCmdTbl   0x000300       data     extern C:\pavan\1+1RCUTx\1-1-RCU-T-NewArch_svn_web_changes\AgilisDevices\RCUServer.c
                task_list   0x0003d8       data     extern C:\pavan\1+1RCUTx\1-1-RCU-T-NewArch_svn_web_changes\Agilis-SysLib\task.c
               queue_head   0x0003f3       data     extern C:\pavan\1+1RCUTx\1-1-RCU-T-NewArch_svn_web_changes\Agilis-SysLib\task.c
              queue_index   0x0003fc       data     extern C:\pavan\1+1RCUTx\1-1-RCU-T-NewArch_svn_web_changes\Agilis-SysLib\task.c
                semaphore   0x0003fe       data     extern C:\pavan\1+1RCUTx\1-1-RCU-T-NewArch_svn_web_changes\Agilis-SysLib\task.c
              IPHeaderLen   0x0003ff       data     static C:\pavan\1+1RCUTx\1-1-RCU-T-NewArch_svn_web_changes\Microchip\TCPIP Stack\IP.c
               gBUCClient   0x000400       data     extern C:\pavan\1+1RCUTx\1-1-RCU-T-NewArch_svn_web_changes\AgilisDevices\BUCClient.c
                  BUCinfo   0x000426       data     extern C:\pavan\1+1RCUTx\1-1-RCU-T-NewArch_svn_web_changes\AgilisDevices\BUCClient.c
                  RCUinfo   0x0004c6       data     extern C:\pavan\1+1RCUTx\1-1-RCU-T-NewArch_svn_web_changes\AgilisDevices\RCUHLAccess.c
              HardwareWDT   0x0004fb       data     extern C:\pavan\1+1RCUTx\1-1-RCU-T-NewArch_svn_web_changes\Main\Main.c
                        t   0x0004fc       data     static C:\pavan\1+1RCUTx\1-1-RCU-T-NewArch_svn_web_changes\Main\Main.c
                 TCBStubs   0x000500       data     static C:\pavan\1+1RCUTx\1-1-RCU-T-NewArch_svn_web_changes\Microchip\TCPIP Stack\TCP.c
              vUARTRXFIFO   0x0005a8       data     static C:\pavan\1+1RCUTx\1-1-RCU-T-NewArch_svn_web_changes\Microchip\TCPIP Stack\UART2TCPBridge.c
              vUARTTXFIFO   0x0005e9       data     static C:\pavan\1+1RCUTx\1-1-RCU-T-NewArch_svn_web_changes\Microchip\TCPIP Stack\UART2TCPBridge.c
             vTickReading   0x0005fa       data     static C:\pavan\1+1RCUTx\1-1-RCU-T-NewArch_svn_web_changes\Microchip\TCPIP Stack\Tick.c
                  curHTTP   0x000600       data     extern C:\pavan\1+1RCUTx\1-1-RCU-T-NewArch_svn_web_changes\Microchip\TCPIP Stack\HTTP2.c
                httpStubs   0x00067f       data     extern C:\pavan\1+1RCUTx\1-1-RCU-T-NewArch_svn_web_changes\Microchip\TCPIP Stack\HTTP2.c
                curHTTPID   0x000683       data     extern C:\pavan\1+1RCUTx\1-1-RCU-T-NewArch_svn_web_changes\Microchip\TCPIP Stack\HTTP2.c
                MPFSStubs   0x000684       data     static C:\pavan\1+1RCUTx\1-1-RCU-T-NewArch_svn_web_changes\Microchip\TCPIP Stack\MPFS2.c
             isMPFSLocked   0x0006d4       data     static C:\pavan\1+1RCUTx\1-1-RCU-T-NewArch_svn_web_changes\Microchip\TCPIP Stack\MPFS2.c
                 fatCache   0x0006d5       data     static C:\pavan\1+1RCUTx\1-1-RCU-T-NewArch_svn_web_changes\Microchip\TCPIP Stack\MPFS2.c
               fatCacheID   0x0006eb       data     static C:\pavan\1+1RCUTx\1-1-RCU-T-NewArch_svn_web_changes\Microchip\TCPIP Stack\MPFS2.c
                 numFiles   0x0006ed       data     static C:\pavan\1+1RCUTx\1-1-RCU-T-NewArch_svn_web_changes\Microchip\TCPIP Stack\MPFS2.c
                 lastRead   0x0006ef       data     extern C:\pavan\1+1RCUTx\1-1-RCU-T-NewArch_svn_web_changes\Microchip\TCPIP Stack\MPFS2.c
              webpassinfo   0x0006f3       data     extern C:\pavan\1+1RCUTx\1-1-RCU-T-NewArch_svn_web_changes\App\WebUI\AgilisHTTPApp.c
                 NextPort   0x000700       data     static C:\pavan\1+1RCUTx\1-1-RCU-T-NewArch_svn_web_changes\Microchip\TCPIP Stack\TCP.c
                    MyTCB   0x000702       data     static C:\pavan\1+1RCUTx\1-1-RCU-T-NewArch_svn_web_changes\Microchip\TCPIP Stack\TCP.c
                MyTCBStub   0x000727       data     static C:\pavan\1+1RCUTx\1-1-RCU-T-NewArch_svn_web_changes\Microchip\TCPIP Stack\TCP.c
               RemoteInfo   0x000743       data     static C:\pavan\1+1RCUTx\1-1-RCU-T-NewArch_svn_web_changes\Microchip\TCPIP Stack\TCP.c
              systeminfo1   0x00074f       data     extern C:\pavan\1+1RCUTx\1-1-RCU-T-NewArch_svn_web_changes\Main\Main.c
                snmp_trap   0x00078f       data     extern C:\pavan\1+1RCUTx\1-1-RCU-T-NewArch_svn_web_changes\App\SNMP\AgilisSNMPApp.c
             bAttnChanged   0x00079d       data     extern C:\pavan\1+1RCUTx\1-1-RCU-T-NewArch_svn_web_changes\AgilisDevices\BUCClient.c
           attnRetryCount   0x00079f       data     extern C:\pavan\1+1RCUTx\1-1-RCU-T-NewArch_svn_web_changes\AgilisDevices\BUCClient.c
        bSSPAOnOffChanged   0x0007a1       data     extern C:\pavan\1+1RCUTx\1-1-RCU-T-NewArch_svn_web_changes\AgilisDevices\BUCClient.c
      SSPAOnOffRetryCount   0x0007a3       data     extern C:\pavan\1+1RCUTx\1-1-RCU-T-NewArch_svn_web_changes\AgilisDevices\BUCClient.c
       bFMBUCOnOffChanged   0x0007a5       data     extern C:\pavan\1+1RCUTx\1-1-RCU-T-NewArch_svn_web_changes\AgilisDevices\BUCClient.c
     FMBUCOnOffRetryCount   0x0007a7       data     extern C:\pavan\1+1RCUTx\1-1-RCU-T-NewArch_svn_web_changes\AgilisDevices\BUCClient.c
         gBUCClientCmdTbl   0x0007a9       data     extern C:\pavan\1+1RCUTx\1-1-RCU-T-NewArch_svn_web_changes\AgilisDevices\BUCClient.c
                     RCU0   0x0007e1       data     extern C:\pavan\1+1RCUTx\1-1-RCU-T-NewArch_svn_web_changes\AgilisDevices\RCULLAccess.c
                    temp1   0x0007fc       data     extern C:\pavan\1+1RCUTx\1-1-RCU-T-NewArch_svn_web_changes\AgilisDevices\RCULLAccess.c
                    temp2   0x0007fd       data     extern C:\pavan\1+1RCUTx\1-1-RCU-T-NewArch_svn_web_changes\AgilisDevices\RCULLAccess.c
                    temp3   0x0007fe       data     extern C:\pavan\1+1RCUTx\1-1-RCU-T-NewArch_svn_web_changes\AgilisDevices\RCULLAccess.c
                    temp4   0x0007ff       data     extern C:\pavan\1+1RCUTx\1-1-RCU-T-NewArch_svn_web_changes\AgilisDevices\RCULLAccess.c
             SNMP_cmd_tbl   0x000800       data     extern C:\pavan\1+1RCUTx\1-1-RCU-T-NewArch_svn_web_changes\App\SNMP\AgilisSNMPMibRegistry.h
            snmp_get_type   0x00090a       data     extern C:\pavan\1+1RCUTx\1-1-RCU-T-NewArch_svn_web_changes\App\SNMP\AgilisSNMPApp.c
            gSendTrapFlag   0x00090b       data     extern C:\pavan\1+1RCUTx\1-1-RCU-T-NewArch_svn_web_changes\App\SNMP\AgilisSNMPApp.c
gOIDCorrespondingSnmpMibID   0x00090c       data     extern C:\pavan\1+1RCUTx\1-1-RCU-T-NewArch_svn_web_changes\App\SNMP\AgilisSNMPApp.c
 gGenericTrapNotification   0x00090d       data     extern C:\pavan\1+1RCUTx\1-1-RCU-T-NewArch_svn_web_changes\App\SNMP\AgilisSNMPApp.c
gSpecificTrapNotification   0x00090e       data     extern C:\pavan\1+1RCUTx\1-1-RCU-T-NewArch_svn_web_changes\App\SNMP\AgilisSNMPApp.c
       gSnmpNonMibRecInfo   0x00090f       data     extern C:\pavan\1+1RCUTx\1-1-RCU-T-NewArch_svn_web_changes\App\SNMP\AgilisSNMPApp.c
         gSetTrapSendFlag   0x000942       data     extern C:\pavan\1+1RCUTx\1-1-RCU-T-NewArch_svn_web_changes\App\SNMP\AgilisSNMPApp.c
                 trapInfo   0x000943       data     extern C:\pavan\1+1RCUTx\1-1-RCU-T-NewArch_svn_web_changes\App\SNMP\AgilisSNMPApp.c
                  trap_en   0x000962       data     extern C:\pavan\1+1RCUTx\1-1-RCU-T-NewArch_svn_web_changes\App\SNMP\AgilisSNMPApp.c
                  smState   0x000963       data     static C:\pavan\1+1RCUTx\1-1-RCU-T-NewArch_svn_web_changes\App\SNMP\AgilisSNMPApp.c
            tempTimerRead   0x000964       data     static C:\pavan\1+1RCUTx\1-1-RCU-T-NewArch_svn_web_changes\App\SNMP\AgilisSNMPApp.c
                 timeLock   0x000968       data     static C:\pavan\1+1RCUTx\1-1-RCU-T-NewArch_svn_web_changes\App\SNMP\AgilisSNMPApp.c
         maxTryToSendTrap   0x000969       data     static C:\pavan\1+1RCUTx\1-1-RCU-T-NewArch_svn_web_changes\App\SNMP\AgilisSNMPApp.c
     agilisUART0RxCircBuf   0x00096a       data     extern C:\pavan\1+1RCUTx\1-1-RCU-T-NewArch_svn_web_changes\Drivers\UARTISR.c
     agilisUART1RxCircBuf   0x0009b2       data     extern C:\pavan\1+1RCUTx\1-1-RCU-T-NewArch_svn_web_changes\Drivers\UARTISR.c
               Manager_IP   0x0009fa       data     extern C:\pavan\1+1RCUTx\1-1-RCU-T-NewArch_svn_web_changes\Bootstrap\Initialization.c
            timer_counter   0x0009fe       data     extern C:\pavan\1+1RCUTx\1-1-RCU-T-NewArch_svn_web_changes\Agilis-SysLib\task.c
              systeminfo2   0x000a00       data     extern C:\pavan\1+1RCUTx\1-1-RCU-T-NewArch_svn_web_changes\Main\Main.c
                 SYNQueue   0x000a40       data     static C:\pavan\1+1RCUTx\1-1-RCU-T-NewArch_svn_web_changes\Microchip\TCPIP Stack\TCP.c
              gUart0Table   0x000a7c       data     extern C:\pavan\1+1RCUTx\1-1-RCU-T-NewArch_svn_web_changes\Drivers\AgilisUart.c
              gUart1Table   0x000a88       data     extern C:\pavan\1+1RCUTx\1-1-RCU-T-NewArch_svn_web_changes\Drivers\AgilisUart.c
              gUart2Table   0x000a94       data     extern C:\pavan\1+1RCUTx\1-1-RCU-T-NewArch_svn_web_changes\Drivers\AgilisUart.c
              gUart3Table   0x000aa0       data     extern C:\pavan\1+1RCUTx\1-1-RCU-T-NewArch_svn_web_changes\Drivers\AgilisUart.c
              gUart4Table   0x000aac       data     extern C:\pavan\1+1RCUTx\1-1-RCU-T-NewArch_svn_web_changes\Drivers\AgilisUart.c
             SNMPTxOffset   0x000ab8       data     extern C:\pavan\1+1RCUTx\1-1-RCU-T-NewArch_svn_web_changes\Microchip\TCPIP Stack\SNMP.c
             SNMPRxOffset   0x000aba       data     static C:\pavan\1+1RCUTx\1-1-RCU-T-NewArch_svn_web_changes\Microchip\TCPIP Stack\SNMP.c
          SNMPAgentSocket   0x000abc       data     static C:\pavan\1+1RCUTx\1-1-RCU-T-NewArch_svn_web_changes\Microchip\TCPIP Stack\SNMP.c
          getZeroInstance   0x000abd       data     extern C:\pavan\1+1RCUTx\1-1-RCU-T-NewArch_svn_web_changes\Microchip\TCPIP Stack\SNMP.c
          appendZeroToOID   0x000abe       data     extern C:\pavan\1+1RCUTx\1-1-RCU-T-NewArch_svn_web_changes\Microchip\TCPIP Stack\SNMP.c
  msgSecrtyParamLenOffset   0x000abf       data     extern C:\pavan\1+1RCUTx\1-1-RCU-T-NewArch_svn_web_changes\Microchip\TCPIP Stack\SNMP.c
             gen_trap_oid   0x000ac1       data     static C:\pavan\1+1RCUTx\1-1-RCU-T-NewArch_svn_web_changes\Microchip\TCPIP Stack\SNMP.c
            snmptrap_oids   0x000aca       data     static C:\pavan\1+1RCUTx\1-1-RCU-T-NewArch_svn_web_changes\Microchip\TCPIP Stack\SNMP.c
               varbindlen   0x000ad3       data     static C:\pavan\1+1RCUTx\1-1-RCU-T-NewArch_svn_web_changes\Microchip\TCPIP Stack\SNMP.c
    packetStructLenOffset   0x000ad7       data     static C:\pavan\1+1RCUTx\1-1-RCU-T-NewArch_svn_web_changes\Microchip\TCPIP Stack\SNMP.c
       pduStructLenOffset   0x000ad9       data     static C:\pavan\1+1RCUTx\1-1-RCU-T-NewArch_svn_web_changes\Microchip\TCPIP Stack\SNMP.c
   varBindStructLenOffset   0x000adb       data     static C:\pavan\1+1RCUTx\1-1-RCU-T-NewArch_svn_web_changes\Microchip\TCPIP Stack\SNMP.c
   varPairStructLenOffset   0x000add       data     static C:\pavan\1+1RCUTx\1-1-RCU-T-NewArch_svn_web_changes\Microchip\TCPIP Stack\SNMP.c
               prevOffset   0x000adf       data     static C:\pavan\1+1RCUTx\1-1-RCU-T-NewArch_svn_web_changes\Microchip\TCPIP Stack\SNMP.c
               varBindLen   0x000ae1       data     static C:\pavan\1+1RCUTx\1-1-RCU-T-NewArch_svn_web_changes\Microchip\TCPIP Stack\SNMP.c
                   smSnmp   0x000ae3       data     static C:\pavan\1+1RCUTx\1-1-RCU-T-NewArch_svn_web_changes\Microchip\TCPIP Stack\SNMP.c
               DHCPClient   0x000ae4       data     static C:\pavan\1+1RCUTx\1-1-RCU-T-NewArch_svn_web_changes\Microchip\TCPIP Stack\DHCP.c
               SNMPStatus   0x000b00       data     static C:\pavan\1+1RCUTx\1-1-RCU-T-NewArch_svn_web_changes\Microchip\TCPIP Stack\SNMP.c
                    hMPFS   0x000b01       data     extern C:\pavan\1+1RCUTx\1-1-RCU-T-NewArch_svn_web_changes\Microchip\TCPIP Stack\SNMP.c
      snmpReqVarErrStatus   0x000b02       data     extern C:\pavan\1+1RCUTx\1-1-RCU-T-NewArch_svn_web_changes\Microchip\TCPIP Stack\SNMP.c
           SNMPNotifyInfo   0x000b0a       data     extern C:\pavan\1+1RCUTx\1-1-RCU-T-NewArch_svn_web_changes\Microchip\TCPIP Stack\SNMP.c
         remHostIpAddrPtr   0x000b1d       data     static C:\pavan\1+1RCUTx\1-1-RCU-T-NewArch_svn_web_changes\Microchip\TCPIP Stack\SNMP.c
                        v   0x000b1f       data     static C:\pavan\1+1RCUTx\1-1-RCU-T-NewArch_svn_web_changes\Microchip\TCPIP Stack\SNMP.c
              varDataType   0x000b23       data     static C:\pavan\1+1RCUTx\1-1-RCU-T-NewArch_svn_web_changes\Microchip\TCPIP Stack\SNMP.c
               indexBytes   0x000b24       data     static C:\pavan\1+1RCUTx\1-1-RCU-T-NewArch_svn_web_changes\Microchip\TCPIP Stack\SNMP.c
              varDataType   0x000b25       data     static C:\pavan\1+1RCUTx\1-1-RCU-T-NewArch_svn_web_changes\Microchip\TCPIP Stack\SNMP.c
               indexBytes   0x000b26       data     static C:\pavan\1+1RCUTx\1-1-RCU-T-NewArch_svn_web_changes\Microchip\TCPIP Stack\SNMP.c
                        v   0x000b27       data     static C:\pavan\1+1RCUTx\1-1-RCU-T-NewArch_svn_web_changes\Microchip\TCPIP Stack\SNMP.c
            EEPROMAddress   0x000b2b       data     static C:\pavan\1+1RCUTx\1-1-RCU-T-NewArch_svn_web_changes\Microchip\TCPIP Stack\SPIEEPROM.c
             EEPROMBuffer   0x000b2f       data     static C:\pavan\1+1RCUTx\1-1-RCU-T-NewArch_svn_web_changes\Microchip\TCPIP Stack\SPIEEPROM.c
           vBytesInBuffer   0x000b4f       data     static C:\pavan\1+1RCUTx\1-1-RCU-T-NewArch_svn_web_changes\Microchip\TCPIP Stack\SPIEEPROM.c
                  WIFI_EN   0x000b50       data     extern C:\pavan\1+1RCUTx\1-1-RCU-T-NewArch_svn_web_changes\App\WebUI\AgilisHTTPGetDevInfo.c
                     oldp   0x000b51       data     extern C:\pavan\1+1RCUTx\1-1-RCU-T-NewArch_svn_web_changes\App\WebUI\AgilisHTTPGetDevInfo.c
                     newp   0x000b5b       data     extern C:\pavan\1+1RCUTx\1-1-RCU-T-NewArch_svn_web_changes\App\WebUI\AgilisHTTPGetDevInfo.c
                      rep   0x000b65       data     extern C:\pavan\1+1RCUTx\1-1-RCU-T-NewArch_svn_web_changes\App\WebUI\AgilisHTTPGetDevInfo.c
           MyStaticIPAddr   0x000b6f       data     extern C:\pavan\1+1RCUTx\1-1-RCU-T-NewArch_svn_web_changes\Main\Main.c
                   ostart   0x000b73       data     extern C:\pavan\1+1RCUTx\1-1-RCU-T-NewArch_svn_web_changes\Main\Main.c
                     oend   0x000b74       data     extern C:\pavan\1+1RCUTx\1-1-RCU-T-NewArch_svn_web_changes\Main\Main.c
                    ctemp   0x000b75       data     extern C:\pavan\1+1RCUTx\1-1-RCU-T-NewArch_svn_web_changes\Main\Main.c
                    Read2   0x000b76       data     extern C:\pavan\1+1RCUTx\1-1-RCU-T-NewArch_svn_web_changes\Main\Main.c
            gaDeviceTable   0x000b7e       data     extern C:\pavan\1+1RCUTx\1-1-RCU-T-NewArch_svn_web_changes\Drivers\AgilisDriverManager.c
                  smStack   0x000b8a       data     static C:\pavan\1+1RCUTx\1-1-RCU-T-NewArch_svn_web_changes\Microchip\TCPIP Stack\StackTsk.c
               remoteNode   0x000b8b       data     extern C:\pavan\1+1RCUTx\1-1-RCU-T-NewArch_svn_web_changes\Microchip\TCPIP Stack\StackTsk.c
                 ADCInfo1   0x000b95       data     extern C:\pavan\1+1RCUTx\1-1-RCU-T-NewArch_svn_web_changes\Drivers\MCU-Internal\internalADC.c
               ADC_result   0x000b9d       data     extern C:\pavan\1+1RCUTx\1-1-RCU-T-NewArch_svn_web_changes\Drivers\MCU-Internal\internalADC.c
                     prom   0x000b9f       data     static C:\mcc18\src\traditional\startup\c018iz.c
                curr_byte   0x000ba2       data     static C:\mcc18\src\traditional\startup\c018iz.c
               curr_entry   0x000ba4       data     static C:\mcc18\src\traditional\startup\c018iz.c
                 data_ptr   0x000ba6       data     static C:\mcc18\src\traditional\startup\c018iz.c
                RXHeadPtr   0x000ba9       data     static C:\pavan\1+1RCUTx\1-1-RCU-T-NewArch_svn_web_changes\Microchip\TCPIP Stack\UART2TCPBridge.c
                RXTailPtr   0x000bab       data     static C:\pavan\1+1RCUTx\1-1-RCU-T-NewArch_svn_web_changes\Microchip\TCPIP Stack\UART2TCPBridge.c
                TXHeadPtr   0x000bad       data     static C:\pavan\1+1RCUTx\1-1-RCU-T-NewArch_svn_web_changes\Microchip\TCPIP Stack\UART2TCPBridge.c
                TXTailPtr   0x000baf       data     static C:\pavan\1+1RCUTx\1-1-RCU-T-NewArch_svn_web_changes\Microchip\TCPIP Stack\UART2TCPBridge.c
                 toRotate   0x000bb1       data     extern C:\pavan\1+1RCUTx\1-1-RCU-T-NewArch_svn_web_changes\Microchip\TCPIP Stack\Helpers.c
                 dwLastIP   0x000bb5       data     extern C:\pavan\1+1RCUTx\1-1-RCU-T-NewArch_svn_web_changes\Agilis-SysLib\util.c
          dwInternalTicks   0x000bb9       data     static C:\pavan\1+1RCUTx\1-1-RCU-T-NewArch_svn_web_changes\Microchip\TCPIP Stack\Tick.c
                 BankData   0x000bbd       data     extern C:\pavan\1+1RCUTx\1-1-RCU-T-NewArch_svn_web_changes\AgilisDevices\RCULLAccess.c
             pollingcount   0x000bc1       data     static C:\pavan\1+1RCUTx\1-1-RCU-T-NewArch_svn_web_changes\AgilisDevices\AgilisDeviceManager.c
             respondcount   0x000bc3       data     static C:\pavan\1+1RCUTx\1-1-RCU-T-NewArch_svn_web_changes\AgilisDevices\AgilisDeviceManager.c
            Uart2THREmpty   0x000bc5       data     extern C:\pavan\1+1RCUTx\1-1-RCU-T-NewArch_svn_web_changes\Drivers\UARTISR.c
            Uart3THREmpty   0x000bc6       data     extern C:\pavan\1+1RCUTx\1-1-RCU-T-NewArch_svn_web_changes\Drivers\UARTISR.c
            Uart4THREmpty   0x000bc7       data     extern C:\pavan\1+1RCUTx\1-1-RCU-T-NewArch_svn_web_changes\Drivers\UARTISR.c
            LastPutSocket   0x000bc8       data     static C:\pavan\1+1RCUTx\1-1-RCU-T-NewArch_svn_web_changes\Microchip\TCPIP Stack\UDP.c
         SocketWithRxData   0x000bc9       data     static C:\pavan\1+1RCUTx\1-1-RCU-T-NewArch_svn_web_changes\Microchip\TCPIP Stack\UDP.c
              hCurrentTCP   0x000bca       data     static C:\pavan\1+1RCUTx\1-1-RCU-T-NewArch_svn_web_changes\Microchip\TCPIP Stack\TCP.c
                 hLastTCB   0x000bcb       data     static C:\pavan\1+1RCUTx\1-1-RCU-T-NewArch_svn_web_changes\Microchip\TCPIP Stack\TCP.c
              _Identifier   0x000bcc       data     static C:\pavan\1+1RCUTx\1-1-RCU-T-NewArch_svn_web_changes\Microchip\TCPIP Stack\IP.c
              lastSuccess   0x000bce       data     extern C:\pavan\1+1RCUTx\1-1-RCU-T-NewArch_svn_web_changes\App\WebUI\AgilisHTTPApp.c
              lastFailure   0x000bcf       data     extern C:\pavan\1+1RCUTx\1-1-RCU-T-NewArch_svn_web_changes\App\WebUI\AgilisHTTPApp.c
DHCPClientInitializedOnce   0x000bd0       data     extern C:\pavan\1+1RCUTx\1-1-RCU-T-NewArch_svn_web_changes\Microchip\TCPIP Stack\DHCP.c
                gu8DevNum   0x000bd1       data     extern C:\pavan\1+1RCUTx\1-1-RCU-T-NewArch_svn_web_changes\Drivers\AgilisDriverManager.c
                    smARP   0x000bd2       data     static C:\pavan\1+1RCUTx\1-1-RCU-T-NewArch_svn_web_changes\Microchip\TCPIP Stack\ARP.c
                AppConfig   0x000e00       data     extern C:\pavan\1+1RCUTx\1-1-RCU-T-NewArch_svn_web_changes\Main\Main.c
                    Cache   0x000e69       data     static C:\pavan\1+1RCUTx\1-1-RCU-T-NewArch_svn_web_changes\Microchip\TCPIP Stack\ARP.c
                   Target   0x000e73       data     static C:\pavan\1+1RCUTx\1-1-RCU-T-NewArch_svn_web_changes\Microchip\TCPIP Stack\ARP.c
                        L   0x000e7d       data     extern C:\pavan\1+1RCUTx\1-1-RCU-T-NewArch_svn_web_changes\Agilis-SysLib\util.c
                tempvalue   0x000e7e       data     extern C:\pavan\1+1RCUTx\1-1-RCU-T-NewArch_svn_web_changes\Agilis-SysLib\util.c
                   hMPFS1   0x000e7f       data     extern C:\pavan\1+1RCUTx\1-1-RCU-T-NewArch_svn_web_changes\Agilis-SysLib\util.c
                   MAADR5   0x000e80       data     extern C:\MCC18\src\traditional\proc\p18F97J60.asm
                   MAADR6   0x000e81       data     extern C:\MCC18\src\traditional\proc\p18F97J60.asm
                   MAADR3   0x000e82       data     extern C:\MCC18\src\traditional\proc\p18F97J60.asm
                   MAADR4   0x000e83       data     extern C:\MCC18\src\traditional\proc\p18F97J60.asm
                   MAADR1   0x000e84       data     extern C:\MCC18\src\traditional\proc\p18F97J60.asm
                   MAADR2   0x000e85       data     extern C:\MCC18\src\traditional\proc\p18F97J60.asm
               MISTATbits   0x000e8a       data     extern C:\MCC18\src\traditional\proc\p18F97J60.asm
                   MISTAT   0x000e8a       data     extern C:\MCC18\src\traditional\proc\p18F97J60.asm
                  EFLOCON   0x000e97       data     extern C:\MCC18\src\traditional\proc\p18F97J60.asm
              EFLOCONbits   0x000e97       data     extern C:\MCC18\src\traditional\proc\p18F97J60.asm
                    EPAUS   0x000e98       data     extern C:\MCC18\src\traditional\proc\p18F97J60.asm
                   EPAUSL   0x000e98       data     extern C:\MCC18\src\traditional\proc\p18F97J60.asm
                   EPAUSH   0x000e99       data     extern C:\MCC18\src\traditional\proc\p18F97J60.asm
                   MACON1   0x000ea0       data     extern C:\MCC18\src\traditional\proc\p18F97J60.asm
               MACON1bits   0x000ea0       data     extern C:\MCC18\src\traditional\proc\p18F97J60.asm
                   MACON3   0x000ea2       data     extern C:\MCC18\src\traditional\proc\p18F97J60.asm
               MACON3bits   0x000ea2       data     extern C:\MCC18\src\traditional\proc\p18F97J60.asm
                   MACON4   0x000ea3       data     extern C:\MCC18\src\traditional\proc\p18F97J60.asm
               MACON4bits   0x000ea3       data     extern C:\MCC18\src\traditional\proc\p18F97J60.asm
                  MABBIPG   0x000ea4       data     extern C:\MCC18\src\traditional\proc\p18F97J60.asm
                    MAIPG   0x000ea6       data     extern C:\MCC18\src\traditional\proc\p18F97J60.asm
                   MAIPGL   0x000ea6       data     extern C:\MCC18\src\traditional\proc\p18F97J60.asm
                   MAIPGH   0x000ea7       data     extern C:\MCC18\src\traditional\proc\p18F97J60.asm
                  MAMXFLL   0x000eaa       data     extern C:\MCC18\src\traditional\proc\p18F97J60.asm
                   MAMXFL   0x000eaa       data     extern C:\MCC18\src\traditional\proc\p18F97J60.asm
                  MAMXFLH   0x000eab       data     extern C:\MCC18\src\traditional\proc\p18F97J60.asm
                MICMDbits   0x000eb2       data     extern C:\MCC18\src\traditional\proc\p18F97J60.asm
                    MICMD   0x000eb2       data     extern C:\MCC18\src\traditional\proc\p18F97J60.asm
                 MIREGADR   0x000eb4       data     extern C:\MCC18\src\traditional\proc\p18F97J60.asm
                    MIWRL   0x000eb6       data     extern C:\MCC18\src\traditional\proc\p18F97J60.asm
                     MIWR   0x000eb6       data     extern C:\MCC18\src\traditional\proc\p18F97J60.asm
                    MIWRH   0x000eb7       data     extern C:\MCC18\src\traditional\proc\p18F97J60.asm
                    MIRDL   0x000eb8       data     extern C:\MCC18\src\traditional\proc\p18F97J60.asm
                     MIRD   0x000eb8       data     extern C:\MCC18\src\traditional\proc\p18F97J60.asm
                    MIRDH   0x000eb9       data     extern C:\MCC18\src\traditional\proc\p18F97J60.asm
                     EHT0   0x000ec0       data     extern C:\MCC18\src\traditional\proc\p18F97J60.asm
                     EHT1   0x000ec1       data     extern C:\MCC18\src\traditional\proc\p18F97J60.asm
                     EHT2   0x000ec2       data     extern C:\MCC18\src\traditional\proc\p18F97J60.asm
                     EHT3   0x000ec3       data     extern C:\MCC18\src\traditional\proc\p18F97J60.asm
                     EHT4   0x000ec4       data     extern C:\MCC18\src\traditional\proc\p18F97J60.asm
                     EHT5   0x000ec5       data     extern C:\MCC18\src\traditional\proc\p18F97J60.asm
                     EHT6   0x000ec6       data     extern C:\MCC18\src\traditional\proc\p18F97J60.asm
                     EHT7   0x000ec7       data     extern C:\MCC18\src\traditional\proc\p18F97J60.asm
                    EPMM0   0x000ec8       data     extern C:\MCC18\src\traditional\proc\p18F97J60.asm
                    EPMM1   0x000ec9       data     extern C:\MCC18\src\traditional\proc\p18F97J60.asm
                    EPMM2   0x000eca       data     extern C:\MCC18\src\traditional\proc\p18F97J60.asm
                    EPMM3   0x000ecb       data     extern C:\MCC18\src\traditional\proc\p18F97J60.asm
                    EPMM4   0x000ecc       data     extern C:\MCC18\src\traditional\proc\p18F97J60.asm
                    EPMM5   0x000ecd       data     extern C:\MCC18\src\traditional\proc\p18F97J60.asm
                    EPMM6   0x000ece       data     extern C:\MCC18\src\traditional\proc\p18F97J60.asm
                    EPMM7   0x000ecf       data     extern C:\MCC18\src\traditional\proc\p18F97J60.asm
                    EPMCS   0x000ed0       data     extern C:\MCC18\src\traditional\proc\p18F97J60.asm
                   EPMCSL   0x000ed0       data     extern C:\MCC18\src\traditional\proc\p18F97J60.asm
                   EPMCSH   0x000ed1       data     extern C:\MCC18\src\traditional\proc\p18F97J60.asm
                     EPMO   0x000ed4       data     extern C:\MCC18\src\traditional\proc\p18F97J60.asm
                    EPMOL   0x000ed4       data     extern C:\MCC18\src\traditional\proc\p18F97J60.asm
                    EPMOH   0x000ed5       data     extern C:\MCC18\src\traditional\proc\p18F97J60.asm
                  ERXFCON   0x000ed8       data     extern C:\MCC18\src\traditional\proc\p18F97J60.asm
              ERXFCONbits   0x000ed8       data     extern C:\MCC18\src\traditional\proc\p18F97J60.asm
                  EPKTCNT   0x000ed9       data     extern C:\MCC18\src\traditional\proc\p18F97J60.asm
                    EWRPT   0x000ee2       data     extern C:\MCC18\src\traditional\proc\p18F97J60.asm
                   EWRPTL   0x000ee2       data     extern C:\MCC18\src\traditional\proc\p18F97J60.asm
                   EWRPTH   0x000ee3       data     extern C:\MCC18\src\traditional\proc\p18F97J60.asm
                    ETXST   0x000ee4       data     extern C:\MCC18\src\traditional\proc\p18F97J60.asm
                   ETXSTL   0x000ee4       data     extern C:\MCC18\src\traditional\proc\p18F97J60.asm
                   ETXSTH   0x000ee5       data     extern C:\MCC18\src\traditional\proc\p18F97J60.asm
                   ETXNDL   0x000ee6       data     extern C:\MCC18\src\traditional\proc\p18F97J60.asm
                    ETXND   0x000ee6       data     extern C:\MCC18\src\traditional\proc\p18F97J60.asm
                   ETXNDH   0x000ee7       data     extern C:\MCC18\src\traditional\proc\p18F97J60.asm
                    ERXST   0x000ee8       data     extern C:\MCC18\src\traditional\proc\p18F97J60.asm
                   ERXSTL   0x000ee8       data     extern C:\MCC18\src\traditional\proc\p18F97J60.asm
                   ERXSTH   0x000ee9       data     extern C:\MCC18\src\traditional\proc\p18F97J60.asm
                   ERXNDL   0x000eea       data     extern C:\MCC18\src\traditional\proc\p18F97J60.asm
                    ERXND   0x000eea       data     extern C:\MCC18\src\traditional\proc\p18F97J60.asm
                   ERXNDH   0x000eeb       data     extern C:\MCC18\src\traditional\proc\p18F97J60.asm
                  ERXRDPT   0x000eec       data     extern C:\MCC18\src\traditional\proc\p18F97J60.asm
                 ERXRDPTL   0x000eec       data     extern C:\MCC18\src\traditional\proc\p18F97J60.asm
                 ERXRDPTH   0x000eed       data     extern C:\MCC18\src\traditional\proc\p18F97J60.asm
                  ERXWRPT   0x000eee       data     extern C:\MCC18\src\traditional\proc\p18F97J60.asm
                 ERXWRPTL   0x000eee       data     extern C:\MCC18\src\traditional\proc\p18F97J60.asm
                 ERXWRPTH   0x000eef       data     extern C:\MCC18\src\traditional\proc\p18F97J60.asm
                  EDMASTL   0x000ef0       data     extern C:\MCC18\src\traditional\proc\p18F97J60.asm
                   EDMAST   0x000ef0       data     extern C:\MCC18\src\traditional\proc\p18F97J60.asm
                  EDMASTH   0x000ef1       data     extern C:\MCC18\src\traditional\proc\p18F97J60.asm
                  EDMANDL   0x000ef2       data     extern C:\MCC18\src\traditional\proc\p18F97J60.asm
                   EDMAND   0x000ef2       data     extern C:\MCC18\src\traditional\proc\p18F97J60.asm
                  EDMANDH   0x000ef3       data     extern C:\MCC18\src\traditional\proc\p18F97J60.asm
                 EDMADSTL   0x000ef4       data     extern C:\MCC18\src\traditional\proc\p18F97J60.asm
                  EDMADST   0x000ef4       data     extern C:\MCC18\src\traditional\proc\p18F97J60.asm
                 EDMADSTH   0x000ef5       data     extern C:\MCC18\src\traditional\proc\p18F97J60.asm
                   EDMACS   0x000ef6       data     extern C:\MCC18\src\traditional\proc\p18F97J60.asm
                  EDMACSL   0x000ef6       data     extern C:\MCC18\src\traditional\proc\p18F97J60.asm
                  EDMACSH   0x000ef7       data     extern C:\MCC18\src\traditional\proc\p18F97J60.asm
                  EIEbits   0x000efb       data     extern C:\MCC18\src\traditional\proc\p18F97J60.asm
                      EIE   0x000efb       data     extern C:\MCC18\src\traditional\proc\p18F97J60.asm
                ESTATbits   0x000efd       data     extern C:\MCC18\src\traditional\proc\p18F97J60.asm
                    ESTAT   0x000efd       data     extern C:\MCC18\src\traditional\proc\p18F97J60.asm
                    ECON2   0x000efe       data     extern C:\MCC18\src\traditional\proc\p18F97J60.asm
                ECON2bits   0x000efe       data     extern C:\MCC18\src\traditional\proc\p18F97J60.asm
                    Uart0   0x000f00       data     extern C:\pavan\1+1RCUTx\1-1-RCU-T-NewArch_svn_web_changes\Drivers\AgilisUart.c
                    Uart1   0x000f13       data     extern C:\pavan\1+1RCUTx\1-1-RCU-T-NewArch_svn_web_changes\Drivers\AgilisUart.c
                    Uart2   0x000f26       data     extern C:\pavan\1+1RCUTx\1-1-RCU-T-NewArch_svn_web_changes\Drivers\AgilisUart.c
                    Uart3   0x000f39       data     extern C:\pavan\1+1RCUTx\1-1-RCU-T-NewArch_svn_web_changes\Drivers\AgilisUart.c
                    Uart4   0x000f4c       data     extern C:\pavan\1+1RCUTx\1-1-RCU-T-NewArch_svn_web_changes\Drivers\AgilisUart.c
           bLastLinkState   0x000f5f       data     static C:\pavan\1+1RCUTx\1-1-RCU-T-NewArch_svn_web_changes\Microchip\TCPIP Stack\StackTsk.c
                  EIRbits   0x000f60       data     extern C:\MCC18\src\traditional\proc\p18F97J60.asm
                      EIR   0x000f60       data     extern C:\MCC18\src\traditional\proc\p18F97J60.asm
                    EDATA   0x000f61       data     extern C:\MCC18\src\traditional\proc\p18F97J60.asm
                EDATAbits   0x000f61       data     extern C:\MCC18\src\traditional\proc\p18F97J60.asm
                 SSP2CON2   0x000f62       data     extern C:\MCC18\src\traditional\proc\p18F97J60.asm
             SSP2CON2bits   0x000f62       data     extern C:\MCC18\src\traditional\proc\p18F97J60.asm
                 SSP2CON1   0x000f63       data     extern C:\MCC18\src\traditional\proc\p18F97J60.asm
             SSP2CON1bits   0x000f63       data     extern C:\MCC18\src\traditional\proc\p18F97J60.asm
             SSP2STATbits   0x000f64       data     extern C:\MCC18\src\traditional\proc\p18F97J60.asm
                 SSP2STAT   0x000f64       data     extern C:\MCC18\src\traditional\proc\p18F97J60.asm
                  SSP2ADD   0x000f65       data     extern C:\MCC18\src\traditional\proc\p18F97J60.asm
                  SSP2BUF   0x000f66       data     extern C:\MCC18\src\traditional\proc\p18F97J60.asm
             ECCP2DELbits   0x000f67       data     extern C:\MCC18\src\traditional\proc\p18F97J60.asm
                 ECCP2DEL   0x000f67       data     extern C:\MCC18\src\traditional\proc\p18F97J60.asm
                  ECCP2AS   0x000f68       data     extern C:\MCC18\src\traditional\proc\p18F97J60.asm
              ECCP2ASbits   0x000f68       data     extern C:\MCC18\src\traditional\proc\p18F97J60.asm
             ECCP3DELbits   0x000f69       data     extern C:\MCC18\src\traditional\proc\p18F97J60.asm
                 ECCP3DEL   0x000f69       data     extern C:\MCC18\src\traditional\proc\p18F97J60.asm
              ECCP3ASbits   0x000f6a       data     extern C:\MCC18\src\traditional\proc\p18F97J60.asm
                  ECCP3AS   0x000f6a       data     extern C:\MCC18\src\traditional\proc\p18F97J60.asm
               RCSTA2bits   0x000f6b       data     extern C:\MCC18\src\traditional\proc\p18F97J60.asm
                   RCSTA2   0x000f6b       data     extern C:\MCC18\src\traditional\proc\p18F97J60.asm
                   TXSTA2   0x000f6c       data     extern C:\MCC18\src\traditional\proc\p18F97J60.asm
               TXSTA2bits   0x000f6c       data     extern C:\MCC18\src\traditional\proc\p18F97J60.asm
                   TXREG2   0x000f6d       data     extern C:\MCC18\src\traditional\proc\p18F97J60.asm
                   RCREG2   0x000f6e       data     extern C:\MCC18\src\traditional\proc\p18F97J60.asm
                   SPBRG2   0x000f6f       data     extern C:\MCC18\src\traditional\proc\p18F97J60.asm
              CCP5CONbits   0x000f70       data     extern C:\MCC18\src\traditional\proc\p18F97J60.asm
                  CCP5CON   0x000f70       data     extern C:\MCC18\src\traditional\proc\p18F97J60.asm
                    CCPR5   0x000f71       data     extern C:\MCC18\src\traditional\proc\p18F97J60.asm
                   CCPR5L   0x000f71       data     extern C:\MCC18\src\traditional\proc\p18F97J60.asm
                   CCPR5H   0x000f72       data     extern C:\MCC18\src\traditional\proc\p18F97J60.asm
              CCP4CONbits   0x000f73       data     extern C:\MCC18\src\traditional\proc\p18F97J60.asm
                  CCP4CON   0x000f73       data     extern C:\MCC18\src\traditional\proc\p18F97J60.asm
                    CCPR4   0x000f74       data     extern C:\MCC18\src\traditional\proc\p18F97J60.asm
                   CCPR4L   0x000f74       data     extern C:\MCC18\src\traditional\proc\p18F97J60.asm
                   CCPR4H   0x000f75       data     extern C:\MCC18\src\traditional\proc\p18F97J60.asm
                T4CONbits   0x000f76       data     extern C:\MCC18\src\traditional\proc\p18F97J60.asm
                    T4CON   0x000f76       data     extern C:\MCC18\src\traditional\proc\p18F97J60.asm
                      PR4   0x000f77       data     extern C:\MCC18\src\traditional\proc\p18F97J60.asm
                     TMR4   0x000f78       data     extern C:\MCC18\src\traditional\proc\p18F97J60.asm
                 ECCP1DEL   0x000f79       data     extern C:\MCC18\src\traditional\proc\p18F97J60.asm
             ECCP1DELbits   0x000f79       data     extern C:\MCC18\src\traditional\proc\p18F97J60.asm
                    ERDPT   0x000f7a       data     extern C:\MCC18\src\traditional\proc\p18F97J60.asm
                   ERDPTL   0x000f7a       data     extern C:\MCC18\src\traditional\proc\p18F97J60.asm
                   ERDPTH   0x000f7b       data     extern C:\MCC18\src\traditional\proc\p18F97J60.asm
             BAUDCTL2bits   0x000f7c       data     extern C:\MCC18\src\traditional\proc\p18F97J60.asm
                 BAUDCTL2   0x000f7c       data     extern C:\MCC18\src\traditional\proc\p18F97J60.asm
                 BAUDCON2   0x000f7c       data     extern C:\MCC18\src\traditional\proc\p18F97J60.asm
             BAUDCON2bits   0x000f7c       data     extern C:\MCC18\src\traditional\proc\p18F97J60.asm
                  SPBRGH2   0x000f7d       data     extern C:\MCC18\src\traditional\proc\p18F97J60.asm
             BAUDCTL1bits   0x000f7e       data     extern C:\MCC18\src\traditional\proc\p18F97J60.asm
              BAUDCONbits   0x000f7e       data     extern C:\MCC18\src\traditional\proc\p18F97J60.asm
                 BAUDCON1   0x000f7e       data     extern C:\MCC18\src\traditional\proc\p18F97J60.asm
                  BAUDCTL   0x000f7e       data     extern C:\MCC18\src\traditional\proc\p18F97J60.asm
              BAUDCTLbits   0x000f7e       data     extern C:\MCC18\src\traditional\proc\p18F97J60.asm
                  BAUDCON   0x000f7e       data     extern C:\MCC18\src\traditional\proc\p18F97J60.asm
                 BAUDCTL1   0x000f7e       data     extern C:\MCC18\src\traditional\proc\p18F97J60.asm
             BAUDCON1bits   0x000f7e       data     extern C:\MCC18\src\traditional\proc\p18F97J60.asm
                  SPBRGH1   0x000f7f       data     extern C:\MCC18\src\traditional\proc\p18F97J60.asm
                   SPBRGH   0x000f7f       data     extern C:\MCC18\src\traditional\proc\p18F97J60.asm
                PORTAbits   0x000f80       data     extern C:\MCC18\src\traditional\proc\p18F97J60.asm
                    PORTA   0x000f80       data     extern C:\MCC18\src\traditional\proc\p18F97J60.asm
                PORTBbits   0x000f81       data     extern C:\MCC18\src\traditional\proc\p18F97J60.asm
                    PORTB   0x000f81       data     extern C:\MCC18\src\traditional\proc\p18F97J60.asm
                PORTCbits   0x000f82       data     extern C:\MCC18\src\traditional\proc\p18F97J60.asm
                    PORTC   0x000f82       data     extern C:\MCC18\src\traditional\proc\p18F97J60.asm
                    PORTD   0x000f83       data     extern C:\MCC18\src\traditional\proc\p18F97J60.asm
                PORTDbits   0x000f83       data     extern C:\MCC18\src\traditional\proc\p18F97J60.asm
                    PORTE   0x000f84       data     extern C:\MCC18\src\traditional\proc\p18F97J60.asm
                PORTEbits   0x000f84       data     extern C:\MCC18\src\traditional\proc\p18F97J60.asm
                    PORTF   0x000f85       data     extern C:\MCC18\src\traditional\proc\p18F97J60.asm
                PORTFbits   0x000f85       data     extern C:\MCC18\src\traditional\proc\p18F97J60.asm
                    PORTG   0x000f86       data     extern C:\MCC18\src\traditional\proc\p18F97J60.asm
                PORTGbits   0x000f86       data     extern C:\MCC18\src\traditional\proc\p18F97J60.asm
                PORTHbits   0x000f87       data     extern C:\MCC18\src\traditional\proc\p18F97J60.asm
                    PORTH   0x000f87       data     extern C:\MCC18\src\traditional\proc\p18F97J60.asm
                    PORTJ   0x000f88       data     extern C:\MCC18\src\traditional\proc\p18F97J60.asm
                PORTJbits   0x000f88       data     extern C:\MCC18\src\traditional\proc\p18F97J60.asm
                     LATA   0x000f89       data     extern C:\MCC18\src\traditional\proc\p18F97J60.asm
                 LATAbits   0x000f89       data     extern C:\MCC18\src\traditional\proc\p18F97J60.asm
                 LATBbits   0x000f8a       data     extern C:\MCC18\src\traditional\proc\p18F97J60.asm
                     LATB   0x000f8a       data     extern C:\MCC18\src\traditional\proc\p18F97J60.asm
                     LATC   0x000f8b       data     extern C:\MCC18\src\traditional\proc\p18F97J60.asm
                 LATCbits   0x000f8b       data     extern C:\MCC18\src\traditional\proc\p18F97J60.asm
                     LATD   0x000f8c       data     extern C:\MCC18\src\traditional\proc\p18F97J60.asm
                 LATDbits   0x000f8c       data     extern C:\MCC18\src\traditional\proc\p18F97J60.asm
                     LATE   0x000f8d       data     extern C:\MCC18\src\traditional\proc\p18F97J60.asm
                 LATEbits   0x000f8d       data     extern C:\MCC18\src\traditional\proc\p18F97J60.asm
                     LATF   0x000f8e       data     extern C:\MCC18\src\traditional\proc\p18F97J60.asm
                 LATFbits   0x000f8e       data     extern C:\MCC18\src\traditional\proc\p18F97J60.asm
                     LATG   0x000f8f       data     extern C:\MCC18\src\traditional\proc\p18F97J60.asm
                 LATGbits   0x000f8f       data     extern C:\MCC18\src\traditional\proc\p18F97J60.asm
                 LATHbits   0x000f90       data     extern C:\MCC18\src\traditional\proc\p18F97J60.asm
                     LATH   0x000f90       data     extern C:\MCC18\src\traditional\proc\p18F97J60.asm
                 LATJbits   0x000f91       data     extern C:\MCC18\src\traditional\proc\p18F97J60.asm
                     LATJ   0x000f91       data     extern C:\MCC18\src\traditional\proc\p18F97J60.asm
                    TRISA   0x000f92       data     extern C:\MCC18\src\traditional\proc\p18F97J60.asm
                TRISAbits   0x000f92       data     extern C:\MCC18\src\traditional\proc\p18F97J60.asm
                 DDRAbits   0x000f92       data     extern C:\MCC18\src\traditional\proc\p18F97J60.asm
                     DDRA   0x000f92       data     extern C:\MCC18\src\traditional\proc\p18F97J60.asm
                 DDRBbits   0x000f93       data     extern C:\MCC18\src\traditional\proc\p18F97J60.asm
                     DDRB   0x000f93       data     extern C:\MCC18\src\traditional\proc\p18F97J60.asm
                    TRISB   0x000f93       data     extern C:\MCC18\src\traditional\proc\p18F97J60.asm
                TRISBbits   0x000f93       data     extern C:\MCC18\src\traditional\proc\p18F97J60.asm
                     DDRC   0x000f94       data     extern C:\MCC18\src\traditional\proc\p18F97J60.asm
                 DDRCbits   0x000f94       data     extern C:\MCC18\src\traditional\proc\p18F97J60.asm
                TRISCbits   0x000f94       data     extern C:\MCC18\src\traditional\proc\p18F97J60.asm
                    TRISC   0x000f94       data     extern C:\MCC18\src\traditional\proc\p18F97J60.asm
                TRISDbits   0x000f95       data     extern C:\MCC18\src\traditional\proc\p18F97J60.asm
                     DDRD   0x000f95       data     extern C:\MCC18\src\traditional\proc\p18F97J60.asm
                 DDRDbits   0x000f95       data     extern C:\MCC18\src\traditional\proc\p18F97J60.asm
                    TRISD   0x000f95       data     extern C:\MCC18\src\traditional\proc\p18F97J60.asm
                    TRISE   0x000f96       data     extern C:\MCC18\src\traditional\proc\p18F97J60.asm
                TRISEbits   0x000f96       data     extern C:\MCC18\src\traditional\proc\p18F97J60.asm
                     DDRE   0x000f96       data     extern C:\MCC18\src\traditional\proc\p18F97J60.asm
                 DDREbits   0x000f96       data     extern C:\MCC18\src\traditional\proc\p18F97J60.asm
                    TRISF   0x000f97       data     extern C:\MCC18\src\traditional\proc\p18F97J60.asm
                 DDRFbits   0x000f97       data     extern C:\MCC18\src\traditional\proc\p18F97J60.asm
                     DDRF   0x000f97       data     extern C:\MCC18\src\traditional\proc\p18F97J60.asm
                TRISFbits   0x000f97       data     extern C:\MCC18\src\traditional\proc\p18F97J60.asm
                    TRISG   0x000f98       data     extern C:\MCC18\src\traditional\proc\p18F97J60.asm
                TRISGbits   0x000f98       data     extern C:\MCC18\src\traditional\proc\p18F97J60.asm
                 DDRGbits   0x000f98       data     extern C:\MCC18\src\traditional\proc\p18F97J60.asm
                     DDRG   0x000f98       data     extern C:\MCC18\src\traditional\proc\p18F97J60.asm
                 DDRHbits   0x000f99       data     extern C:\MCC18\src\traditional\proc\p18F97J60.asm
                     DDRH   0x000f99       data     extern C:\MCC18\src\traditional\proc\p18F97J60.asm
                TRISHbits   0x000f99       data     extern C:\MCC18\src\traditional\proc\p18F97J60.asm
                    TRISH   0x000f99       data     extern C:\MCC18\src\traditional\proc\p18F97J60.asm
                TRISJbits   0x000f9a       data     extern C:\MCC18\src\traditional\proc\p18F97J60.asm
                    TRISJ   0x000f9a       data     extern C:\MCC18\src\traditional\proc\p18F97J60.asm
                     DDRJ   0x000f9a       data     extern C:\MCC18\src\traditional\proc\p18F97J60.asm
                 DDRJbits   0x000f9a       data     extern C:\MCC18\src\traditional\proc\p18F97J60.asm
                  OSCTUNE   0x000f9b       data     extern C:\MCC18\src\traditional\proc\p18F97J60.asm
              OSCTUNEbits   0x000f9b       data     extern C:\MCC18\src\traditional\proc\p18F97J60.asm
                   MEMCON   0x000f9c       data     extern C:\MCC18\src\traditional\proc\p18F97J60.asm
               MEMCONbits   0x000f9c       data     extern C:\MCC18\src\traditional\proc\p18F97J60.asm
                 PIE1bits   0x000f9d       data     extern C:\MCC18\src\traditional\proc\p18F97J60.asm
                     PIE1   0x000f9d       data     extern C:\MCC18\src\traditional\proc\p18F97J60.asm
                     PIR1   0x000f9e       data     extern C:\MCC18\src\traditional\proc\p18F97J60.asm
                 PIR1bits   0x000f9e       data     extern C:\MCC18\src\traditional\proc\p18F97J60.asm
                 IPR1bits   0x000f9f       data     extern C:\MCC18\src\traditional\proc\p18F97J60.asm
                     IPR1   0x000f9f       data     extern C:\MCC18\src\traditional\proc\p18F97J60.asm
                 PIE2bits   0x000fa0       data     extern C:\MCC18\src\traditional\proc\p18F97J60.asm
                     PIE2   0x000fa0       data     extern C:\MCC18\src\traditional\proc\p18F97J60.asm
                     PIR2   0x000fa1       data     extern C:\MCC18\src\traditional\proc\p18F97J60.asm
                 PIR2bits   0x000fa1       data     extern C:\MCC18\src\traditional\proc\p18F97J60.asm
                 IPR2bits   0x000fa2       data     extern C:\MCC18\src\traditional\proc\p18F97J60.asm
                     IPR2   0x000fa2       data     extern C:\MCC18\src\traditional\proc\p18F97J60.asm
                 PIE3bits   0x000fa3       data     extern C:\MCC18\src\traditional\proc\p18F97J60.asm
                     PIE3   0x000fa3       data     extern C:\MCC18\src\traditional\proc\p18F97J60.asm
                     PIR3   0x000fa4       data     extern C:\MCC18\src\traditional\proc\p18F97J60.asm
                 PIR3bits   0x000fa4       data     extern C:\MCC18\src\traditional\proc\p18F97J60.asm
                     IPR3   0x000fa5       data     extern C:\MCC18\src\traditional\proc\p18F97J60.asm
                 IPR3bits   0x000fa5       data     extern C:\MCC18\src\traditional\proc\p18F97J60.asm
               EECON1bits   0x000fa6       data     extern C:\MCC18\src\traditional\proc\p18F97J60.asm
                   EECON1   0x000fa6       data     extern C:\MCC18\src\traditional\proc\p18F97J60.asm
                   EECON2   0x000fa7       data     extern C:\MCC18\src\traditional\proc\p18F97J60.asm
                RCSTAbits   0x000fab       data     extern C:\MCC18\src\traditional\proc\p18F97J60.asm
                    RCSTA   0x000fab       data     extern C:\MCC18\src\traditional\proc\p18F97J60.asm
                   RCSTA1   0x000fab       data     extern C:\MCC18\src\traditional\proc\p18F97J60.asm
               RCSTA1bits   0x000fab       data     extern C:\MCC18\src\traditional\proc\p18F97J60.asm
                TXSTAbits   0x000fac       data     extern C:\MCC18\src\traditional\proc\p18F97J60.asm
                   TXSTA1   0x000fac       data     extern C:\MCC18\src\traditional\proc\p18F97J60.asm
               TXSTA1bits   0x000fac       data     extern C:\MCC18\src\traditional\proc\p18F97J60.asm
                    TXSTA   0x000fac       data     extern C:\MCC18\src\traditional\proc\p18F97J60.asm
                   TXREG1   0x000fad       data     extern C:\MCC18\src\traditional\proc\p18F97J60.asm
                    TXREG   0x000fad       data     extern C:\MCC18\src\traditional\proc\p18F97J60.asm
                    RCREG   0x000fae       data     extern C:\MCC18\src\traditional\proc\p18F97J60.asm
                   RCREG1   0x000fae       data     extern C:\MCC18\src\traditional\proc\p18F97J60.asm
                    SPBRG   0x000faf       data     extern C:\MCC18\src\traditional\proc\p18F97J60.asm
                   SPBRG1   0x000faf       data     extern C:\MCC18\src\traditional\proc\p18F97J60.asm
               PSPCONbits   0x000fb0       data     extern C:\MCC18\src\traditional\proc\p18F97J60.asm
                   PSPCON   0x000fb0       data     extern C:\MCC18\src\traditional\proc\p18F97J60.asm
                    T3CON   0x000fb1       data     extern C:\MCC18\src\traditional\proc\p18F97J60.asm
                T3CONbits   0x000fb1       data     extern C:\MCC18\src\traditional\proc\p18F97J60.asm
                    TMR3L   0x000fb2       data     extern C:\MCC18\src\traditional\proc\p18F97J60.asm
                    TMR3H   0x000fb3       data     extern C:\MCC18\src\traditional\proc\p18F97J60.asm
                    CMCON   0x000fb4       data     extern C:\MCC18\src\traditional\proc\p18F97J60.asm
                CMCONbits   0x000fb4       data     extern C:\MCC18\src\traditional\proc\p18F97J60.asm
                   CVRCON   0x000fb5       data     extern C:\MCC18\src\traditional\proc\p18F97J60.asm
               CVRCONbits   0x000fb5       data     extern C:\MCC18\src\traditional\proc\p18F97J60.asm
              ECCP1ASbits   0x000fb6       data     extern C:\MCC18\src\traditional\proc\p18F97J60.asm
                  ECCP1AS   0x000fb6       data     extern C:\MCC18\src\traditional\proc\p18F97J60.asm
                 ECCP3CON   0x000fb7       data     extern C:\MCC18\src\traditional\proc\p18F97J60.asm
                  CCP3CON   0x000fb7       data     extern C:\MCC18\src\traditional\proc\p18F97J60.asm
              CCP3CONbits   0x000fb7       data     extern C:\MCC18\src\traditional\proc\p18F97J60.asm
             ECCP3CONbits   0x000fb7       data     extern C:\MCC18\src\traditional\proc\p18F97J60.asm
                   CCPR3L   0x000fb8       data     extern C:\MCC18\src\traditional\proc\p18F97J60.asm
                    CCPR3   0x000fb8       data     extern C:\MCC18\src\traditional\proc\p18F97J60.asm
                   CCPR3H   0x000fb9       data     extern C:\MCC18\src\traditional\proc\p18F97J60.asm
                 ECCP2CON   0x000fba       data     extern C:\MCC18\src\traditional\proc\p18F97J60.asm
             ECCP2CONbits   0x000fba       data     extern C:\MCC18\src\traditional\proc\p18F97J60.asm
                  CCP2CON   0x000fba       data     extern C:\MCC18\src\traditional\proc\p18F97J60.asm
              CCP2CONbits   0x000fba       data     extern C:\MCC18\src\traditional\proc\p18F97J60.asm
                   CCPR2L   0x000fbb       data     extern C:\MCC18\src\traditional\proc\p18F97J60.asm
                    CCPR2   0x000fbb       data     extern C:\MCC18\src\traditional\proc\p18F97J60.asm
                   CCPR2H   0x000fbc       data     extern C:\MCC18\src\traditional\proc\p18F97J60.asm
              CCP1CONbits   0x000fbd       data     extern C:\MCC18\src\traditional\proc\p18F97J60.asm
                  CCP1CON   0x000fbd       data     extern C:\MCC18\src\traditional\proc\p18F97J60.asm
                 ECCP1CON   0x000fbd       data     extern C:\MCC18\src\traditional\proc\p18F97J60.asm
             ECCP1CONbits   0x000fbd       data     extern C:\MCC18\src\traditional\proc\p18F97J60.asm
                    CCPR1   0x000fbe       data     extern C:\MCC18\src\traditional\proc\p18F97J60.asm
                   CCPR1L   0x000fbe       data     extern C:\MCC18\src\traditional\proc\p18F97J60.asm
                   CCPR1H   0x000fbf       data     extern C:\MCC18\src\traditional\proc\p18F97J60.asm
               ADCON2bits   0x000fc0       data     extern C:\MCC18\src\traditional\proc\p18F97J60.asm
                   ADCON2   0x000fc0       data     extern C:\MCC18\src\traditional\proc\p18F97J60.asm
               ADCON1bits   0x000fc1       data     extern C:\MCC18\src\traditional\proc\p18F97J60.asm
                   ADCON1   0x000fc1       data     extern C:\MCC18\src\traditional\proc\p18F97J60.asm
               ADCON0bits   0x000fc2       data     extern C:\MCC18\src\traditional\proc\p18F97J60.asm
                   ADCON0   0x000fc2       data     extern C:\MCC18\src\traditional\proc\p18F97J60.asm
                    ADRES   0x000fc3       data     extern C:\MCC18\src\traditional\proc\p18F97J60.asm
                   ADRESL   0x000fc3       data     extern C:\MCC18\src\traditional\proc\p18F97J60.asm
                   ADRESH   0x000fc4       data     extern C:\MCC18\src\traditional\proc\p18F97J60.asm
                 SSP1CON2   0x000fc5       data     extern C:\MCC18\src\traditional\proc\p18F97J60.asm
             SSP1CON2bits   0x000fc5       data     extern C:\MCC18\src\traditional\proc\p18F97J60.asm
              SSPCON2bits   0x000fc5       data     extern C:\MCC18\src\traditional\proc\p18F97J60.asm
                  SSPCON2   0x000fc5       data     extern C:\MCC18\src\traditional\proc\p18F97J60.asm
                 SSP1CON1   0x000fc6       data     extern C:\MCC18\src\traditional\proc\p18F97J60.asm
             SSP1CON1bits   0x000fc6       data     extern C:\MCC18\src\traditional\proc\p18F97J60.asm
              SSPCON1bits   0x000fc6       data     extern C:\MCC18\src\traditional\proc\p18F97J60.asm
                  SSPCON1   0x000fc6       data     extern C:\MCC18\src\traditional\proc\p18F97J60.asm
                 SSP1STAT   0x000fc7       data     extern C:\MCC18\src\traditional\proc\p18F97J60.asm
             SSP1STATbits   0x000fc7       data     extern C:\MCC18\src\traditional\proc\p18F97J60.asm
              SSPSTATbits   0x000fc7       data     extern C:\MCC18\src\traditional\proc\p18F97J60.asm
                  SSPSTAT   0x000fc7       data     extern C:\MCC18\src\traditional\proc\p18F97J60.asm
                  SSP1ADD   0x000fc8       data     extern C:\MCC18\src\traditional\proc\p18F97J60.asm
                   SSPADD   0x000fc8       data     extern C:\MCC18\src\traditional\proc\p18F97J60.asm
                  SSP1BUF   0x000fc9       data     extern C:\MCC18\src\traditional\proc\p18F97J60.asm
                   SSPBUF   0x000fc9       data     extern C:\MCC18\src\traditional\proc\p18F97J60.asm
                    T2CON   0x000fca       data     extern C:\MCC18\src\traditional\proc\p18F97J60.asm
                T2CONbits   0x000fca       data     extern C:\MCC18\src\traditional\proc\p18F97J60.asm
                      PR2   0x000fcb       data     extern C:\MCC18\src\traditional\proc\p18F97J60.asm
                     TMR2   0x000fcc       data     extern C:\MCC18\src\traditional\proc\p18F97J60.asm
                T1CONbits   0x000fcd       data     extern C:\MCC18\src\traditional\proc\p18F97J60.asm
                    T1CON   0x000fcd       data     extern C:\MCC18\src\traditional\proc\p18F97J60.asm
                    TMR1L   0x000fce       data     extern C:\MCC18\src\traditional\proc\p18F97J60.asm
                    TMR1H   0x000fcf       data     extern C:\MCC18\src\traditional\proc\p18F97J60.asm
                 RCONbits   0x000fd0       data     extern C:\MCC18\src\traditional\proc\p18F97J60.asm
                     RCON   0x000fd0       data     extern C:\MCC18\src\traditional\proc\p18F97J60.asm
               WDTCONbits   0x000fd1       data     extern C:\MCC18\src\traditional\proc\p18F97J60.asm
                   WDTCON   0x000fd1       data     extern C:\MCC18\src\traditional\proc\p18F97J60.asm
                ECON1bits   0x000fd2       data     extern C:\MCC18\src\traditional\proc\p18F97J60.asm
                    ECON1   0x000fd2       data     extern C:\MCC18\src\traditional\proc\p18F97J60.asm
               OSCCONbits   0x000fd3       data     extern C:\MCC18\src\traditional\proc\p18F97J60.asm
                   OSCCON   0x000fd3       data     extern C:\MCC18\src\traditional\proc\p18F97J60.asm
                T0CONbits   0x000fd5       data     extern C:\MCC18\src\traditional\proc\p18F97J60.asm
                    T0CON   0x000fd5       data     extern C:\MCC18\src\traditional\proc\p18F97J60.asm
                    TMR0L   0x000fd6       data     extern C:\MCC18\src\traditional\proc\p18F97J60.asm
                    TMR0H   0x000fd7       data     extern C:\MCC18\src\traditional\proc\p18F97J60.asm
               STATUSbits   0x000fd8       data     extern C:\MCC18\src\traditional\proc\p18F97J60.asm
                   STATUS   0x000fd8       data     extern C:\MCC18\src\traditional\proc\p18F97J60.asm
                     FSR2   0x000fd9       data     extern C:\MCC18\src\traditional\proc\p18F97J60.asm
                    FSR2L   0x000fd9       data     extern C:\MCC18\src\traditional\proc\p18F97J60.asm
                    FSR2H   0x000fda       data     extern C:\MCC18\src\traditional\proc\p18F97J60.asm
                   PLUSW2   0x000fdb       data     extern C:\MCC18\src\traditional\proc\p18F97J60.asm
                  PREINC2   0x000fdc       data     extern C:\MCC18\src\traditional\proc\p18F97J60.asm
                 POSTDEC2   0x000fdd       data     extern C:\MCC18\src\traditional\proc\p18F97J60.asm
                 POSTINC2   0x000fde       data     extern C:\MCC18\src\traditional\proc\p18F97J60.asm
                    INDF2   0x000fdf       data     extern C:\MCC18\src\traditional\proc\p18F97J60.asm
                      BSR   0x000fe0       data     extern C:\MCC18\src\traditional\proc\p18F97J60.asm
                     FSR1   0x000fe1       data     extern C:\MCC18\src\traditional\proc\p18F97J60.asm
                    FSR1L   0x000fe1       data     extern C:\MCC18\src\traditional\proc\p18F97J60.asm
                    FSR1H   0x000fe2       data     extern C:\MCC18\src\traditional\proc\p18F97J60.asm
                   PLUSW1   0x000fe3       data     extern C:\MCC18\src\traditional\proc\p18F97J60.asm
                  PREINC1   0x000fe4       data     extern C:\MCC18\src\traditional\proc\p18F97J60.asm
                 POSTDEC1   0x000fe5       data     extern C:\MCC18\src\traditional\proc\p18F97J60.asm
                 POSTINC1   0x000fe6       data     extern C:\MCC18\src\traditional\proc\p18F97J60.asm
                    INDF1   0x000fe7       data     extern C:\MCC18\src\traditional\proc\p18F97J60.asm
                     WREG   0x000fe8       data     extern C:\MCC18\src\traditional\proc\p18F97J60.asm
                    FSR0L   0x000fe9       data     extern C:\MCC18\src\traditional\proc\p18F97J60.asm
                     FSR0   0x000fe9       data     extern C:\MCC18\src\traditional\proc\p18F97J60.asm
                    FSR0H   0x000fea       data     extern C:\MCC18\src\traditional\proc\p18F97J60.asm
                   PLUSW0   0x000feb       data     extern C:\MCC18\src\traditional\proc\p18F97J60.asm
                  PREINC0   0x000fec       data     extern C:\MCC18\src\traditional\proc\p18F97J60.asm
                 POSTDEC0   0x000fed       data     extern C:\MCC18\src\traditional\proc\p18F97J60.asm
                 POSTINC0   0x000fee       data     extern C:\MCC18\src\traditional\proc\p18F97J60.asm
                    INDF0   0x000fef       data     extern C:\MCC18\src\traditional\proc\p18F97J60.asm
                  INTCON3   0x000ff0       data     extern C:\MCC18\src\traditional\proc\p18F97J60.asm
              INTCON3bits   0x000ff0       data     extern C:\MCC18\src\traditional\proc\p18F97J60.asm
                  INTCON2   0x000ff1       data     extern C:\MCC18\src\traditional\proc\p18F97J60.asm
              INTCON2bits   0x000ff1       data     extern C:\MCC18\src\traditional\proc\p18F97J60.asm
                   INTCON   0x000ff2       data     extern C:\MCC18\src\traditional\proc\p18F97J60.asm
               INTCONbits   0x000ff2       data     extern C:\MCC18\src\traditional\proc\p18F97J60.asm
                     PROD   0x000ff3       data     extern C:\MCC18\src\traditional\proc\p18F97J60.asm
                    PRODL   0x000ff3       data     extern C:\MCC18\src\traditional\proc\p18F97J60.asm
                    PRODH   0x000ff4       data     extern C:\MCC18\src\traditional\proc\p18F97J60.asm
                   TABLAT   0x000ff5       data     extern C:\MCC18\src\traditional\proc\p18F97J60.asm
                   TBLPTR   0x000ff6       data     extern C:\MCC18\src\traditional\proc\p18F97J60.asm
                  TBLPTRL   0x000ff6       data     extern C:\MCC18\src\traditional\proc\p18F97J60.asm
                  TBLPTRH   0x000ff7       data     extern C:\MCC18\src\traditional\proc\p18F97J60.asm
                  TBLPTRU   0x000ff8       data     extern C:\MCC18\src\traditional\proc\p18F97J60.asm
                      PCL   0x000ff9       data     extern C:\MCC18\src\traditional\proc\p18F97J60.asm
                       PC   0x000ff9       data     extern C:\MCC18\src\traditional\proc\p18F97J60.asm
                   PCLATH   0x000ffa       data     extern C:\MCC18\src\traditional\proc\p18F97J60.asm
                   PCLATU   0x000ffb       data     extern C:\MCC18\src\traditional\proc\p18F97J60.asm
               STKPTRbits   0x000ffc       data     extern C:\MCC18\src\traditional\proc\p18F97J60.asm
                   STKPTR   0x000ffc       data     extern C:\MCC18\src\traditional\proc\p18F97J60.asm
                      TOS   0x000ffd       data     extern C:\MCC18\src\traditional\proc\p18F97J60.asm
                     TOSL   0x000ffd       data     extern C:\MCC18\src\traditional\proc\p18F97J60.asm
                     TOSH   0x000ffe       data     extern C:\MCC18\src\traditional\proc\p18F97J60.asm
                     TOSU   0x000fff       data     extern C:\MCC18\src\traditional\proc\p18F97J60.asm


